 simuv2

 Timestamp is 593049d9 (Thu Jun 01 18:07:37 2017)

 Preferred load address is 10000000

 Start         Length     Name                   Class
 0001:00000000 00000311H .text                   CODE
 0001:00000320 000001b4H .text$di                CODE
 0001:000004e0 000243bcH .text$mn                CODE
 0001:000248a0 000002b7H .text$x                 CODE
 0001:00024b60 00000404H .text$yd                CODE
 0002:00000000 00000130H .idata$5                DATA
 0002:00000130 00000004H .CRT$XCA                DATA
 0002:00000134 0000003cH .CRT$XCU                DATA
 0002:00000170 00000004H .CRT$XCZ                DATA
 0002:00000174 00000004H .CRT$XIA                DATA
 0002:00000178 00000014H .CRT$XIC                DATA
 0002:0000018c 00000004H .CRT$XIZ                DATA
 0002:00000190 00000004H .CRT$XPA                DATA
 0002:00000194 00000008H .CRT$XPX                DATA
 0002:0000019c 00000004H .CRT$XPXA               DATA
 0002:000001a0 00000004H .CRT$XPZ                DATA
 0002:000001a4 00000004H .CRT$XTA                DATA
 0002:000001a8 00000004H .CRT$XTZ                DATA
 0002:000001b0 000132f8H .rdata                  DATA
 0002:000134a8 000006a0H .rdata$r                DATA
 0002:00013b50 00000060H .rdata$sxdata           DATA
 0002:00013bb0 00000004H .rtc$IAA                DATA
 0002:00013bb4 00000004H .rtc$IZZ                DATA
 0002:00013bb8 00000004H .rtc$TAA                DATA
 0002:00013bbc 00000004H .rtc$TZZ                DATA
 0002:00013bc0 00000b1cH .xdata$x                DATA
 0002:000146e0 00000044H .edata                  DATA
 0002:00014724 0000003cH .idata$2                DATA
 0002:00014760 00000014H .idata$3                DATA
 0002:00014774 00000130H .idata$4                DATA
 0002:000148a4 00000570H .idata$6                DATA
 0003:00000000 00001338H .data                   DATA
 0003:00001338 00000278H .data$r                 DATA
 0003:000015c0 00002ba0H .bss                    DATA

  Address         Publics by Value              Rva+Base       Lib:Object

 0000:00000000       ___guard_fids_count        00000000     <absolute>
 0000:00000000       __except_list              00000000     <absolute>
 0000:00000000       ___guard_flags             00000000     <absolute>
 0000:00000000       ___guard_fids_table        00000000     <absolute>
 0000:00000018       ___safe_se_handler_count   00000018     <absolute>
 0000:00000000       ___ImageBase               10000000     <linker-defined>
 0001:00000000       ?sgMakeCoordMat4@@YAXQAY03MMMMMMM@Z 10001000 f   sg_vs2008_32:sg.obj
 0001:000001f0       ?sgXformPnt4@@YAXQAMQBMQAY03$$CBM@Z 100011f0 f   sg_vs2008_32:sg.obj
 0001:000002b0       ?sgFullXformPnt3@@YAXQAMQBMQAY03$$CBM@Z 100012b0 f   sg_vs2008_32:sg.obj
 0001:000004e0       ?SimAeroConfig@@YAXPAUtCar@@@Z 100014e0 f   aero.obj
 0001:000005b0       ?SimAeroUpdate@@YAXPAUtCar@@PAUSituation@@@Z 100015b0 f   aero.obj
 0001:00000aa0       ?SimWingConfig@@YAXPAUtCar@@H@Z 10001aa0 f   aero.obj
 0001:00000bd0       ?SimWingUpdate@@YAXPAUtCar@@HPAUSituation@@@Z 10001bd0 f   aero.obj
 0001:00000cd0       ?SimAxleConfig@@YAXPAUtCar@@H@Z 10001cd0 f   axle.obj
 0001:00000e40       ?SimAxleUpdate@@YAXPAUtCar@@H@Z 10001e40 f   axle.obj
 0001:00000ed0       ?SimBrakeConfig@@YAXPAXPBDPAUtBrake@@@Z 10001ed0 f   brake.obj
 0001:00000fa0       ?SimBrakeUpdate@@YAXPAUtCar@@PAUtWheel@@PAUtBrake@@@Z 10001fa0 f   brake.obj
 0001:00001070       ?SimBrakeSystemConfig@@YAXPAUtCar@@@Z 10002070 f   brake.obj
 0001:000010d0       ?SimBrakeSystemUpdate@@YAXPAUtCar@@@Z 100020d0 f   brake.obj
 0001:00001130       ?SimCarConfig@@YAXPAUtCar@@@Z 10002130 f   car.obj
 0001:00001980       ?SimCarUpdate@@YAXPAUtCar@@PAUSituation@@@Z 10002980 f   car.obj
 0001:000019c0       ?SimCarUpdate2@@YAXPAUtCar@@PAUSituation@@@Z 100029c0 f   car.obj
 0001:000019e0       ?SimCarUpdateWheelPos@@YAXPAUtCar@@@Z 100029e0 f   car.obj
 0001:00002a60       ?SimTelemetryOut@@YAXPAUtCar@@@Z 10003a60 f   car.obj
 0001:00002df0       ?SimCarCollideZ@@YAXPAUtCar@@@Z 10003df0 f   collide.obj
 0001:00002f60       ?SimCarCollideXYScene@@YAXPAUtCar@@@Z 10003f60 f   collide.obj
 0001:000032e0       ?SimCarCollideCars@@YAXPAUSituation@@@Z 100042e0 f   collide.obj
 0001:00003410       ?SimCarCollideConfig@@YAXPAUtCar@@PAUtTrack@@@Z 10004410 f   collide.obj
 0001:00003480       ?SimCarCollideShutdown@@YAXH@Z 10004480 f   collide.obj
 0001:00003510       ?SimCarCollideInit@@YAXPAUtTrack@@@Z 10004510 f   collide.obj
 0001:000035c0       ?SimCollideRemoveCar@@YAXPAUtCar@@H@Z 100045c0 f   collide.obj
 0001:00004360       ?buildWalls@@YAXPAUtrackSeg@@H@Z 10005360 f   collide.obj
 0001:00004940       ?SimDifferentialConfig@@YAXPAXPBDPAUtDifferential@@@Z 10005940 f   differential.obj
 0001:00004c10       ?SimDifferentialUpdate@@YAXPAUtCar@@PAUtDifferential@@H@Z 10005c10 f   differential.obj
 0001:00005220       ?SimEngineConfig@@YAXPAUtCar@@@Z 10006220 f   engine.obj
 0001:00005590       ?SimEngineUpdateTq@@YAXPAUtCar@@@Z 10006590 f   engine.obj
 0001:00005710       ?SimEngineUpdateRpm@@YAMPAUtCar@@M@Z 10006710 f   engine.obj
 0001:000058f0       ?SimEngineShutdown@@YAXPAUtCar@@@Z 100068f0 f   engine.obj
 0001:00005910       ?SimConfig@@YAXPAUCarElt@@PAURmInfo@@@Z 10006910 f   simu.obj
 0001:00005ab0       ?SimReConfig@@YAXPAUCarElt@@@Z 10006ab0 f   simu.obj
 0001:00005b20       ?SimUpdate@@YAXPAUSituation@@NH@Z 10006b20 f   simu.obj
 0001:00006020       ?SimInit@@YAXHPAUtTrack@@@Z 10007020 f   simu.obj
 0001:00006050       ?SimShutdown@@YAXXZ        10007050 f   simu.obj
 0001:00006b50       ?DllEntryPoint@@YGHPAUHINSTANCE__@@KPAX@Z 10007b50 f   simuitf.obj
 0001:00006b90       _simuv2                    10007b90 f   simuitf.obj
 0001:00006bd0       ?SimSteerConfig@@YAXPAUtCar@@@Z 10007bd0 f   steer.obj
 0001:00006c40       ?SimSteerUpdate@@YAXPAUtCar@@@Z 10007c40 f   steer.obj
 0001:00006d80       ?SimSuspCheckIn@@YAXPAUSuspension@@@Z 10007d80 f   susp.obj
 0001:00006dd0       ?SimSuspUpdate@@YAXPAUSuspension@@@Z 10007dd0 f   susp.obj
 0001:00006df0       ?SimSuspConfig@@YAXPAXPBDPAUSuspension@@MM@Z 10007df0 f   susp.obj
 0001:00007070       ?SimTransmissionConfig@@YAXPAUtCar@@@Z 10008070 f   transmission.obj
 0001:000077d0       ?SimTransmissionUpdate@@YAXPAUtCar@@@Z 100087d0 f   transmission.obj
 0001:000079a0       ?SimGearboxUpdate@@YAXPAUtCar@@@Z 100089a0 f   transmission.obj
 0001:00007cd0       ?SimWheelConfig@@YAXPAUtCar@@H@Z 10008cd0 f   wheel.obj
 0001:000082a0       ?SimWheelUpdateRide@@YAXPAUtCar@@H@Z 100092a0 f   wheel.obj
 0001:00008390       ?SimWheelUpdateForce@@YAXPAUtCar@@H@Z 10009390 f   wheel.obj
 0001:00008a30       ?SimWheelUpdateRotation@@YAXPAUtCar@@@Z 10009a30 f   wheel.obj
 0001:00008b40       ?SimUpdateFreeWheels@@YAXPAUtCar@@H@Z 10009b40 f   wheel.obj
 0001:00008c40       _dtBox                     10009c40 f   solid:C-api.obj
 0001:00008c90       _dtCone                    10009c90 f   solid:C-api.obj
 0001:00008d10       _dtCylinder                10009d10 f   solid:C-api.obj
 0001:00008d50       _dtSphere                  10009d50 f   solid:C-api.obj
 0001:00008d80       _dtNewComplexShape         10009d80 f   solid:C-api.obj
 0001:00008dc0       _dtEndComplexShape         10009dc0 f   solid:C-api.obj
 0001:00008f10       _dtBegin                   10009f10 f   solid:C-api.obj
 0001:00008f20       _dtEnd                     10009f20 f   solid:C-api.obj
 0001:00008f50       _dtVertex                  10009f50 f   solid:C-api.obj
 0001:00009080       _dtVertexBase              1000a080 f   solid:C-api.obj
 0001:000090a0       _dtVertexIndex             1000a0a0 f   solid:C-api.obj
 0001:00009140       _dtVertexIndices           1000a140 f   solid:C-api.obj
 0001:00009260       _dtVertexRange             1000a260 f   solid:C-api.obj
 0001:00009340       _dtChangeVertexBase        1000a340 f   solid:C-api.obj
 0001:000093d0       _dtDeleteShape             1000a3d0 f   solid:C-api.obj
 0001:00009430       _dtCreateObject            1000a430 f   solid:C-api.obj
 0001:00009490       _dtDeleteObject            1000a490 f   solid:C-api.obj
 0001:00009550       _dtSelectObject            1000a550 f   solid:C-api.obj
 0001:000095d0       _dtLoadIdentity            1000a5d0 f   solid:C-api.obj
 0001:000095e0       _dtLoadMatrixf             1000a5e0 f   solid:C-api.obj
 0001:00009600       _dtLoadMatrixd             1000a600 f   solid:C-api.obj
 0001:00009620       _dtMultMatrixf             1000a620 f   solid:C-api.obj
 0001:00009650       _dtMultMatrixd             1000a650 f   solid:C-api.obj
 0001:00009680       _dtTranslate               1000a680 f   solid:C-api.obj
 0001:000096c0       _dtRotate                  1000a6c0 f   solid:C-api.obj
 0001:00009710       _dtScale                   1000a710 f   solid:C-api.obj
 0001:00009750       _dtSetDefaultResponse      1000a750 f   solid:C-api.obj
 0001:00009780       _dtClearDefaultResponse    1000a780 f   solid:C-api.obj
 0001:000097b0       _dtSetObjectResponse       1000a7b0 f   solid:C-api.obj
 0001:000097f0       _dtClearObjectResponse     1000a7f0 f   solid:C-api.obj
 0001:00009830       _dtResetObjectResponse     1000a830 f   solid:C-api.obj
 0001:00009870       _dtSetPairResponse         1000a870 f   solid:C-api.obj
 0001:000098d0       _dtClearPairResponse       1000a8d0 f   solid:C-api.obj
 0001:00009930       _dtResetPairResponse       1000a930 f   solid:C-api.obj
 0001:00009990       _dtTest                    1000a990 f   solid:C-api.obj
 0001:00009ba0       _dtProceed                 1000aba0 f   solid:C-api.obj
 0001:00009c30       _dtEnableCaching           1000ac30 f   solid:C-api.obj
 0001:00009ca0       _dtDisableCaching          1000aca0 f   solid:C-api.obj
 0001:00009cb0       _dtSetTolerance            1000acb0 f   solid:C-api.obj
 0001:00009cd0       ?addPair@@YAXPBVObject@@0@Z 1000acd0 f   solid:C-api.obj
 0001:00009d10       ?removePair@@YAXPBVObject@@0@Z 1000ad10 f   solid:C-api.obj
 0001:00009d50       ?object_test@@YA_NAAVEncounter@@@Z 1000ad50 f   solid:C-api.obj
 0001:0000a020       ??$_Buynode@ABUpiecewise_construct_t@std@@V?$tuple@$$QAU?$pair@PAXPAX@std@@@2@V?$tuple@$$$V@2@@?$_Tree_buy@U?$pair@$$CBU?$pair@PAXPAX@std@@VResponse@@@std@@V?$allocator@U?$pair@$$CBU?$pair@PAXPAX@std@@VResponse@@@std@@@2@@std@@QAEPAU?$_Tree_node@U?$pair@$$CBU?$pair@PAXPAX@std@@VResponse@@@std@@PAX@1@ABUpiecewise_construct_t@1@$$QAV?$tuple@$$QAU?$pair@PAXPAX@std@@@1@$$QAV?$tuple@$$$V@1@@Z 1000b020 f i solid:C-api.obj
 0001:0000a070       ??$_Buynode@ABUpiecewise_construct_t@std@@V?$tuple@ABQAX@2@V?$tuple@$$$V@2@@?$_Tree_buy@U?$pair@QAXPAVObject@@@std@@V?$allocator@U?$pair@QAXPAVObject@@@std@@@2@@std@@QAEPAU?$_Tree_node@U?$pair@QAXPAVObject@@@std@@PAX@1@ABUpiecewise_construct_t@1@$$QAV?$tuple@ABQAX@1@$$QAV?$tuple@$$$V@1@@Z 1000b070 f i solid:C-api.obj
 0001:0000a0a0       ??$_Buynode@ABUpiecewise_construct_t@std@@V?$tuple@ABQAX@2@V?$tuple@$$$V@2@@?$_Tree_buy@U?$pair@QAXVResponse@@@std@@V?$allocator@U?$pair@QAXVResponse@@@std@@@2@@std@@QAEPAU?$_Tree_node@U?$pair@QAXVResponse@@@std@@PAX@1@ABUpiecewise_construct_t@1@$$QAV?$tuple@ABQAX@1@$$QAV?$tuple@$$$V@1@@Z 1000b0a0 f i solid:C-api.obj
 0001:0000a0e0       ??$_Buynode@VEncounter@@@?$_Tree_buy@VEncounter@@V?$allocator@VEncounter@@@std@@@std@@QAEPAU?$_Tree_node@VEncounter@@PAX@1@$$QAVEncounter@@@Z 1000b0e0 f i solid:C-api.obj
 0001:0000a110       ??$_Insert_at@AAU?$pair@$$CBU?$pair@PAXPAX@std@@VResponse@@@std@@PAU?$_Tree_node@U?$pair@$$CBU?$pair@PAXPAX@std@@VResponse@@@std@@PAX@2@@?$_Tree@V?$_Tmap_traits@U?$pair@PAXPAX@std@@VResponse@@U?$less@U?$pair@PAXPAX@std@@@2@V?$allocator@U?$pair@$$CBU?$pair@PAXPAX@std@@VResponse@@@std@@@2@$0A@@std@@@std@@IAE?AV?$_Tree_iterator@V?$_Tree_val@U?$_Tree_simple_types@U?$pair@$$CBU?$pair@PAXPAX@std@@VResponse@@@std@@@std@@@std@@@1@_NPAU?$_Tree_node@U?$pair@$$CBU?$pair@PAXPAX@std@@VResponse@@@std@@PAX@1@AAU?$pair@$$CBU?$pair@PAXPAX@std@@VResponse@@@1@1@Z 1000b110 f i solid:C-api.obj
 0001:0000a320       ??$_Insert_at@AAU?$pair@QAXPAVObject@@@std@@PAU?$_Tree_node@U?$pair@QAXPAVObject@@@std@@PAX@2@@?$_Tree@V?$_Tmap_traits@PAXPAVObject@@U?$less@PAX@std@@V?$allocator@U?$pair@QAXPAVObject@@@std@@@3@$0A@@std@@@std@@IAE?AV?$_Tree_iterator@V?$_Tree_val@U?$_Tree_simple_types@U?$pair@QAXPAVObject@@@std@@@std@@@std@@@1@_NPAU?$_Tree_node@U?$pair@QAXPAVObject@@@std@@PAX@1@AAU?$pair@QAXPAVObject@@@1@1@Z 1000b320 f i solid:C-api.obj
 0001:0000a530       ??$_Insert_at@AAU?$pair@QAXVResponse@@@std@@PAU?$_Tree_node@U?$pair@QAXVResponse@@@std@@PAX@2@@?$_Tree@V?$_Tmap_traits@PAXVResponse@@U?$less@PAX@std@@V?$allocator@U?$pair@QAXVResponse@@@std@@@3@$0A@@std@@@std@@IAE?AV?$_Tree_iterator@V?$_Tree_val@U?$_Tree_simple_types@U?$pair@QAXVResponse@@@std@@@std@@@std@@@1@_NPAU?$_Tree_node@U?$pair@QAXVResponse@@@std@@PAX@1@AAU?$pair@QAXVResponse@@@1@1@Z 1000b530 f i solid:C-api.obj
 0001:0000a740       ??$_Insert_at@VEncounter@@U_Nil@std@@@?$_Tree@V?$_Tset_traits@VEncounter@@U?$less@VEncounter@@@std@@V?$allocator@VEncounter@@@3@$0A@@std@@@std@@IAE?AV?$_Tree_const_iterator@V?$_Tree_val@U?$_Tree_simple_types@VEncounter@@@std@@@std@@@1@_NPAU?$_Tree_node@VEncounter@@PAX@1@$$QAVEncounter@@U_Nil@1@@Z 1000b740 f i solid:C-api.obj
 0001:0000a950       ??$_Insert_hint@AAU?$pair@$$CBU?$pair@PAXPAX@std@@VResponse@@@std@@PAU?$_Tree_node@U?$pair@$$CBU?$pair@PAXPAX@std@@VResponse@@@std@@PAX@2@@?$_Tree@V?$_Tmap_traits@U?$pair@PAXPAX@std@@VResponse@@U?$less@U?$pair@PAXPAX@std@@@2@V?$allocator@U?$pair@$$CBU?$pair@PAXPAX@std@@VResponse@@@std@@@2@$0A@@std@@@std@@IAE?AV?$_Tree_iterator@V?$_Tree_val@U?$_Tree_simple_types@U?$pair@$$CBU?$pair@PAXPAX@std@@VResponse@@@std@@@std@@@std@@@1@V?$_Tree_const_iterator@V?$_Tree_val@U?$_Tree_simple_types@U?$pair@$$CBU?$pair@PAXPAX@std@@VResponse@@@std@@@std@@@std@@@1@AAU?$pair@$$CBU?$pair@PAXPAX@std@@VResponse@@@1@PAU?$_Tree_node@U?$pair@$$CBU?$pair@PAXPAX@std@@VResponse@@@std@@PAX@1@@Z 1000b950 f i solid:C-api.obj
 0001:0000ab90       ??$_Insert_hint@AAU?$pair@QAXPAVObject@@@std@@PAU?$_Tree_node@U?$pair@QAXPAVObject@@@std@@PAX@2@@?$_Tree@V?$_Tmap_traits@PAXPAVObject@@U?$less@PAX@std@@V?$allocator@U?$pair@QAXPAVObject@@@std@@@3@$0A@@std@@@std@@IAE?AV?$_Tree_iterator@V?$_Tree_val@U?$_Tree_simple_types@U?$pair@QAXPAVObject@@@std@@@std@@@std@@@1@V?$_Tree_const_iterator@V?$_Tree_val@U?$_Tree_simple_types@U?$pair@QAXPAVObject@@@std@@@std@@@std@@@1@AAU?$pair@QAXPAVObject@@@1@PAU?$_Tree_node@U?$pair@QAXPAVObject@@@std@@PAX@1@@Z 1000bb90 f i solid:C-api.obj
 0001:0000ad70       ??$_Insert_hint@AAU?$pair@QAXVResponse@@@std@@PAU?$_Tree_node@U?$pair@QAXVResponse@@@std@@PAX@2@@?$_Tree@V?$_Tmap_traits@PAXVResponse@@U?$less@PAX@std@@V?$allocator@U?$pair@QAXVResponse@@@std@@@3@$0A@@std@@@std@@IAE?AV?$_Tree_iterator@V?$_Tree_val@U?$_Tree_simple_types@U?$pair@QAXVResponse@@@std@@@std@@@std@@@1@V?$_Tree_const_iterator@V?$_Tree_val@U?$_Tree_simple_types@U?$pair@QAXVResponse@@@std@@@std@@@std@@@1@AAU?$pair@QAXVResponse@@@1@PAU?$_Tree_node@U?$pair@QAXVResponse@@@std@@PAX@1@@Z 1000bd70 f i solid:C-api.obj
 0001:0000af50       ??$_Insert_nohint@AAU?$pair@$$CBU?$pair@PAXPAX@std@@VResponse@@@std@@PAU?$_Tree_node@U?$pair@$$CBU?$pair@PAXPAX@std@@VResponse@@@std@@PAX@2@@?$_Tree@V?$_Tmap_traits@U?$pair@PAXPAX@std@@VResponse@@U?$less@U?$pair@PAXPAX@std@@@2@V?$allocator@U?$pair@$$CBU?$pair@PAXPAX@std@@VResponse@@@std@@@2@$0A@@std@@@std@@IAE?AU?$pair@V?$_Tree_iterator@V?$_Tree_val@U?$_Tree_simple_types@U?$pair@$$CBU?$pair@PAXPAX@std@@VResponse@@@std@@@std@@@std@@@std@@_N@1@_NAAU?$pair@$$CBU?$pair@PAXPAX@std@@VResponse@@@1@PAU?$_Tree_node@U?$pair@$$CBU?$pair@PAXPAX@std@@VResponse@@@std@@PAX@1@@Z 1000bf50 f i solid:C-api.obj
 0001:0000b0a0       ??$_Insert_nohint@AAU?$pair@QAXPAVObject@@@std@@PAU?$_Tree_node@U?$pair@QAXPAVObject@@@std@@PAX@2@@?$_Tree@V?$_Tmap_traits@PAXPAVObject@@U?$less@PAX@std@@V?$allocator@U?$pair@QAXPAVObject@@@std@@@3@$0A@@std@@@std@@IAE?AU?$pair@V?$_Tree_iterator@V?$_Tree_val@U?$_Tree_simple_types@U?$pair@QAXPAVObject@@@std@@@std@@@std@@@std@@_N@1@_NAAU?$pair@QAXPAVObject@@@1@PAU?$_Tree_node@U?$pair@QAXPAVObject@@@std@@PAX@1@@Z 1000c0a0 f i solid:C-api.obj
 0001:0000b1b0       ??$_Insert_nohint@AAU?$pair@QAXVResponse@@@std@@PAU?$_Tree_node@U?$pair@QAXVResponse@@@std@@PAX@2@@?$_Tree@V?$_Tmap_traits@PAXVResponse@@U?$less@PAX@std@@V?$allocator@U?$pair@QAXVResponse@@@std@@@3@$0A@@std@@@std@@IAE?AU?$pair@V?$_Tree_iterator@V?$_Tree_val@U?$_Tree_simple_types@U?$pair@QAXVResponse@@@std@@@std@@@std@@@std@@_N@1@_NAAU?$pair@QAXVResponse@@@1@PAU?$_Tree_node@U?$pair@QAXVResponse@@@std@@PAX@1@@Z 1000c1b0 f i solid:C-api.obj
 0001:0000b2c0       ??$_Insert_nohint@VEncounter@@U_Nil@std@@@?$_Tree@V?$_Tset_traits@VEncounter@@U?$less@VEncounter@@@std@@V?$allocator@VEncounter@@@3@$0A@@std@@@std@@IAE?AU?$pair@V?$_Tree_const_iterator@V?$_Tree_val@U?$_Tree_simple_types@VEncounter@@@std@@@std@@@std@@_N@1@_N$$QAVEncounter@@U_Nil@1@@Z 1000c2c0 f i solid:C-api.obj
 0001:0000b400       ??$_Uninit_move@PAVPoint@@PAV1@V?$allocator@VPoint@@@std@@V1@@std@@YAPAVPoint@@PAV1@00AAU?$_Wrap_alloc@V?$allocator@VPoint@@@std@@@0@0U_Nonscalar_ptr_iterator_tag@0@@Z 1000c400 f i solid:C-api.obj
 0001:0000b440       ??$destroy@PAU?$_Tree_node@U?$pair@$$CBU?$pair@PAXPAX@std@@VResponse@@@std@@PAX@std@@@?$_Wrap_alloc@V?$allocator@U?$_Tree_node@U?$pair@$$CBU?$pair@PAXPAX@std@@VResponse@@@std@@PAX@std@@@std@@@std@@QAEXPAPAU?$_Tree_node@U?$pair@$$CBU?$pair@PAXPAX@std@@VResponse@@@std@@PAX@1@@Z 1000c440 f i solid:C-api.obj
 0001:0000b440       ??$destroy@PAU?$_Tree_node@U?$pair@QAXPAVObject@@@std@@PAX@std@@@?$_Wrap_alloc@V?$allocator@U?$_Tree_node@U?$pair@QAXPAVObject@@@std@@PAX@std@@@std@@@std@@QAEXPAPAU?$_Tree_node@U?$pair@QAXPAVObject@@@std@@PAX@1@@Z 1000c440 f i solid:C-api.obj
 0001:0000b440       ??$destroy@PAU?$_Tree_node@U?$pair@QAXVResponse@@@std@@PAX@std@@@?$_Wrap_alloc@V?$allocator@U?$_Tree_node@U?$pair@QAXVResponse@@@std@@PAX@std@@@std@@@std@@QAEXPAPAU?$_Tree_node@U?$pair@QAXVResponse@@@std@@PAX@1@@Z 1000c440 f i solid:C-api.obj
 0001:0000b440       ??$destroy@PAU?$_Tree_node@VEncounter@@PAX@std@@@?$_Wrap_alloc@V?$allocator@U?$_Tree_node@VEncounter@@PAX@std@@@std@@@std@@QAEXPAPAU?$_Tree_node@VEncounter@@PAX@1@@Z 1000c440 f i solid:C-api.obj
 0001:0000b450       ??0?$_Wrap_alloc@V?$allocator@PBVPolytope@@@std@@@std@@QAE@XZ 1000c450 f i solid:C-api.obj
 0001:0000b450       ??0?$_Wrap_alloc@V?$allocator@I@std@@@std@@QAE@XZ 1000c450 f i solid:C-api.obj
 0001:0000b450       ??0?$_Wrap_alloc@V?$allocator@PAVComplex@@@std@@@std@@QAE@XZ 1000c450 f i solid:C-api.obj
 0001:0000b450       ??0?$_Wrap_alloc@V?$allocator@U?$_Tree_node@VEncounter@@PAX@std@@@std@@@std@@QAE@XZ 1000c450 f i solid:C-api.obj
 0001:0000b450       ??0Vector@@QAE@XZ          1000c450 f i solid:C-api.obj
 0001:0000b450       ??0?$_Wrap_alloc@V?$allocator@VPoint@@@std@@@std@@QAE@XZ 1000c450 f i solid:C-api.obj
 0001:0000b450       ??0?$_Wrap_alloc@V?$allocator@U?$_Tree_node@U?$pair@QAXPAVObject@@@std@@PAX@std@@@std@@@std@@QAE@XZ 1000c450 f i solid:C-api.obj
 0001:0000b450       ??0?$_Wrap_alloc@V?$allocator@U?$_Tree_node@U?$pair@$$CBU?$pair@PAXPAX@std@@VResponse@@@std@@PAX@std@@@std@@@std@@QAE@XZ 1000c450 f i solid:C-api.obj
 0001:0000b450       ??0Point@@QAE@XZ           1000c450 f i solid:C-api.obj
 0001:0000b450       ??0?$_Wrap_alloc@V?$allocator@U?$_Tree_node@U?$pair@QAXVResponse@@@std@@PAX@std@@@std@@@std@@QAE@XZ 1000c450 f i solid:C-api.obj
 0001:0000b450       ??0?$_Wrap_alloc@V?$allocator@PAX@std@@@std@@QAE@XZ 1000c450 f i solid:RespTable.obj
 0001:0000b460       ??0Encounter@@QAE@PBVObject@@0@Z 1000c460 f i solid:C-api.obj
 0001:0000b4e0       ??0Polygon@@QAE@ABVVertexBase@@HQBI@Z 1000c4e0 f i solid:C-api.obj
 0001:0000b570       ??0Simplex@@QAE@ABVVertexBase@@HQBI@Z 1000c570 f i solid:C-api.obj
 0001:0000b600       ??1?$map@PAXVResponse@@U?$less@PAX@std@@V?$allocator@U?$pair@QAXVResponse@@@std@@@3@@std@@QAE@XZ 1000c600 f i solid:C-api.obj
 0001:0000b630       ??1Convex@@UAE@XZ          1000c630 f i solid:C-api.obj
 0001:0000b630       ??1Shape@@UAE@XZ           1000c630 f i solid:C-api.obj
 0001:0000b640       ??1Endpoint@@QAE@XZ        1000c640 f i solid:C-api.obj
 0001:0000b660       ??3@YAXPAX0@Z              1000c660 f i solid:C-api.obj
 0001:0000b670       ??A?$map@PAXPAVObject@@U?$less@PAX@std@@V?$allocator@U?$pair@QAXPAVObject@@@std@@@3@@std@@QAEAAPAVObject@@ABQAX@Z 1000c670 f i solid:C-api.obj
 0001:0000b700       ??A?$map@PAXVResponse@@U?$less@PAX@std@@V?$allocator@U?$pair@QAXVResponse@@@std@@@3@@std@@QAEAAVResponse@@ABQAX@Z 1000c700 f i solid:C-api.obj
 0001:0000b790       ??A?$map@U?$pair@PAXPAX@std@@VResponse@@U?$less@U?$pair@PAXPAX@std@@@2@V?$allocator@U?$pair@$$CBU?$pair@PAXPAX@std@@VResponse@@@std@@@2@@std@@QAEAAVResponse@@$$QAU?$pair@PAXPAX@1@@Z 1000c790 f i solid:C-api.obj
 0001:0000b800       ??E?$_Tree_unchecked_const_iterator@V?$_Tree_val@U?$_Tree_simple_types@U?$pair@$$CBU?$pair@PAXPAX@std@@VResponse@@@std@@@std@@@std@@U_Iterator_base0@2@@std@@QAEAAV01@XZ 1000c800 f i solid:C-api.obj
 0001:0000b800       ??E?$_Tree_unchecked_const_iterator@V?$_Tree_val@U?$_Tree_simple_types@VEncounter@@@std@@@std@@U_Iterator_base0@2@@std@@QAEAAV01@XZ 1000c800 f i solid:C-api.obj
 0001:0000b800       ??E?$_Tree_unchecked_const_iterator@V?$_Tree_val@U?$_Tree_simple_types@U?$pair@QAXPAVObject@@@std@@@std@@@std@@U_Iterator_base0@2@@std@@QAEAAV01@XZ 1000c800 f i solid:C-api.obj
 0001:0000b800       ??E?$_Tree_unchecked_const_iterator@V?$_Tree_val@U?$_Tree_simple_types@U?$pair@QAXVResponse@@@std@@@std@@@std@@U_Iterator_base0@2@@std@@QAEAAV01@XZ 1000c800 f i solid:C-api.obj
 0001:0000b850       ??F?$_Tree_unchecked_const_iterator@V?$_Tree_val@U?$_Tree_simple_types@U?$pair@$$CBU?$pair@PAXPAX@std@@VResponse@@@std@@@std@@@std@@U_Iterator_base0@2@@std@@QAEAAV01@XZ 1000c850 f i solid:C-api.obj
 0001:0000b850       ??F?$_Tree_unchecked_const_iterator@V?$_Tree_val@U?$_Tree_simple_types@VEncounter@@@std@@@std@@U_Iterator_base0@2@@std@@QAEAAV01@XZ 1000c850 f i solid:C-api.obj
 0001:0000b850       ??F?$_Tree_unchecked_const_iterator@V?$_Tree_val@U?$_Tree_simple_types@U?$pair@QAXVResponse@@@std@@@std@@@std@@U_Iterator_base0@2@@std@@QAEAAV01@XZ 1000c850 f i solid:C-api.obj
 0001:0000b850       ??F?$_Tree_unchecked_const_iterator@V?$_Tree_val@U?$_Tree_simple_types@U?$pair@QAXPAVObject@@@std@@@std@@@std@@U_Iterator_base0@2@@std@@QAEAAV01@XZ 1000c850 f i solid:C-api.obj
 0001:0000b8b0       ??R?$less@U?$pair@PAXPAX@std@@@std@@QBE_NABU?$pair@PAXPAX@1@0@Z 1000c8b0 f i solid:C-api.obj
 0001:0000b8e0       ??_EComplex@@UAEPAXI@Z     1000c8e0 f i solid:C-api.obj
 0001:0000b8e0       ??_GComplex@@UAEPAXI@Z     1000c8e0 f i solid:C-api.obj
 0001:0000b910       ??_EPolytope@@UAEPAXI@Z    1000c910 f i solid:C-api.obj
 0001:0000b910       ??_GSimplex@@UAEPAXI@Z     1000c910 f i solid:C-api.obj
 0001:0000b910       ??_EPolygon@@UAEPAXI@Z     1000c910 f i solid:C-api.obj
 0001:0000b910       ??_ESimplex@@UAEPAXI@Z     1000c910 f i solid:C-api.obj
 0001:0000b910       ??_GPolytope@@UAEPAXI@Z    1000c910 f i solid:C-api.obj
 0001:0000b910       ??_GPolygon@@UAEPAXI@Z     1000c910 f i solid:C-api.obj
 0001:0000b950       ??_GSphere@@UAEPAXI@Z      1000c950 f i solid:C-api.obj
 0001:0000b950       ??_GCylinder@@UAEPAXI@Z    1000c950 f i solid:C-api.obj
 0001:0000b950       ??_GBox@@UAEPAXI@Z         1000c950 f i solid:C-api.obj
 0001:0000b950       ??_EBox@@UAEPAXI@Z         1000c950 f i solid:C-api.obj
 0001:0000b950       ??_ECylinder@@UAEPAXI@Z    1000c950 f i solid:C-api.obj
 0001:0000b950       ??_GShape@@UAEPAXI@Z       1000c950 f i solid:C-api.obj
 0001:0000b950       ??_ECone@@UAEPAXI@Z        1000c950 f i solid:C-api.obj
 0001:0000b950       ??_GCone@@UAEPAXI@Z        1000c950 f i solid:C-api.obj
 0001:0000b950       ??_ESphere@@UAEPAXI@Z      1000c950 f i solid:C-api.obj
 0001:0000b950       ??_EShape@@UAEPAXI@Z       1000c950 f i solid:C-api.obj
 0001:0000b980       ??_Gerror_category@std@@UAEPAXI@Z 1000c980 f i solid:C-api.obj
 0001:0000b980       ??_E_Generic_error_category@std@@UAEPAXI@Z 1000c980 f i solid:C-api.obj
 0001:0000b980       ??_G_Generic_error_category@std@@UAEPAXI@Z 1000c980 f i solid:C-api.obj
 0001:0000b980       ??_G_Iostream_error_category@std@@UAEPAXI@Z 1000c980 f i solid:C-api.obj
 0001:0000b980       ??_Eerror_category@std@@UAEPAXI@Z 1000c980 f i solid:C-api.obj
 0001:0000b980       ??_G_System_error_category@std@@UAEPAXI@Z 1000c980 f i solid:C-api.obj
 0001:0000b980       ??_E_Iostream_error_category@std@@UAEPAXI@Z 1000c980 f i solid:C-api.obj
 0001:0000b980       ??_E_System_error_category@std@@UAEPAXI@Z 1000c980 f i solid:C-api.obj
 0001:0000b9b0       ?_Buyheadnode@?$_Tree_alloc@$0A@U?$_Tree_base_types@U?$pair@$$CBU?$pair@PAXPAX@std@@VResponse@@@std@@V?$allocator@U?$pair@$$CBU?$pair@PAXPAX@std@@VResponse@@@std@@@2@@std@@@std@@QAEPAU?$_Tree_node@U?$pair@$$CBU?$pair@PAXPAX@std@@VResponse@@@std@@PAX@2@XZ 1000c9b0 f i solid:C-api.obj
 0001:0000b9e0       ?_Buyheadnode@?$_Tree_alloc@$0A@U?$_Tree_base_types@U?$pair@QAXPAVObject@@@std@@V?$allocator@U?$pair@QAXPAVObject@@@std@@@2@@std@@@std@@QAEPAU?$_Tree_node@U?$pair@QAXPAVObject@@@std@@PAX@2@XZ 1000c9e0 f i solid:C-api.obj
 0001:0000ba10       ?_Buyheadnode@?$_Tree_alloc@$0A@U?$_Tree_base_types@U?$pair@QAXVResponse@@@std@@V?$allocator@U?$pair@QAXVResponse@@@std@@@2@@std@@@std@@QAEPAU?$_Tree_node@U?$pair@QAXVResponse@@@std@@PAX@2@XZ 1000ca10 f i solid:C-api.obj
 0001:0000ba40       ?_Buyheadnode@?$_Tree_alloc@$0A@U?$_Tree_base_types@VEncounter@@V?$allocator@VEncounter@@@std@@@std@@@std@@QAEPAU?$_Tree_node@VEncounter@@PAX@2@XZ 1000ca40 f i solid:C-api.obj
 0001:0000ba70       ?_Buynode0@?$_Tree_buy@U?$pair@$$CBU?$pair@PAXPAX@std@@VResponse@@@std@@V?$allocator@U?$pair@$$CBU?$pair@PAXPAX@std@@VResponse@@@std@@@2@@std@@QAEPAU?$_Tree_node@U?$pair@$$CBU?$pair@PAXPAX@std@@VResponse@@@std@@PAX@2@XZ 1000ca70 f i solid:C-api.obj
 0001:0000bab0       ?_Buynode0@?$_Tree_buy@U?$pair@QAXPAVObject@@@std@@V?$allocator@U?$pair@QAXPAVObject@@@std@@@2@@std@@QAEPAU?$_Tree_node@U?$pair@QAXPAVObject@@@std@@PAX@2@XZ 1000cab0 f i solid:C-api.obj
 0001:0000baf0       ?_Buynode0@?$_Tree_buy@U?$pair@QAXVResponse@@@std@@V?$allocator@U?$pair@QAXVResponse@@@std@@@2@@std@@QAEPAU?$_Tree_node@U?$pair@QAXVResponse@@@std@@PAX@2@XZ 1000caf0 f i solid:C-api.obj
 0001:0000bb30       ?_Buynode0@?$_Tree_buy@VEncounter@@V?$allocator@VEncounter@@@std@@@std@@QAEPAU?$_Tree_node@VEncounter@@PAX@2@XZ 1000cb30 f i solid:C-api.obj
 0001:0000bb70       ?_Copy@?$basic_string@DU?$char_traits@D@std@@V?$allocator@D@2@@std@@QAEXII@Z 1000cb70 f i solid:C-api.obj
 0001:0000bcc0       ?_Destroy@?$vector@PBVPolytope@@V?$allocator@PBVPolytope@@@std@@@std@@IAEXPAPBVPolytope@@0@Z 1000ccc0 f i solid:C-api.obj
 0001:0000bcc0       ?_Destroy@?$vector@PAVComplex@@V?$allocator@PAVComplex@@@std@@@std@@IAEXPAPAVComplex@@0@Z 1000ccc0 f i solid:C-api.obj
 0001:0000bcc0       ?_Destroy@?$vector@VPoint@@V?$allocator@VPoint@@@std@@@std@@IAEXPAVPoint@@0@Z 1000ccc0 f i solid:C-api.obj
 0001:0000bcc0       ?_Destroy@?$vector@PAXV?$allocator@PAX@std@@@std@@IAEXPAPAX0@Z 1000ccc0 f i solid:RespTable.obj
 0001:0000bcc0       ?_Destroy@?$vector@IV?$allocator@I@std@@@std@@IAEXPAI0@Z 1000ccc0 f i solid:C-api.obj
 0001:0000bcd0       ?_Eqrange@?$_Tree@V?$_Tmap_traits@PAXVResponse@@U?$less@PAX@std@@V?$allocator@U?$pair@QAXVResponse@@@std@@@3@$0A@@std@@@std@@IAE?AU?$pair@V?$_Tree_iterator@V?$_Tree_val@U?$_Tree_simple_types@U?$pair@QAXVResponse@@@std@@@std@@@std@@@std@@V12@@2@ABQAX@Z 1000ccd0 f i solid:C-api.obj
 0001:0000bd50       ?_Eqrange@?$_Tree@V?$_Tset_traits@VEncounter@@U?$less@VEncounter@@@std@@V?$allocator@VEncounter@@@3@$0A@@std@@@std@@IAE?AU?$pair@V?$_Tree_const_iterator@V?$_Tree_val@U?$_Tree_simple_types@VEncounter@@@std@@@std@@@std@@V12@@2@ABVEncounter@@@Z 1000cd50 f i solid:C-api.obj
 0001:0000bd50       ?_Eqrange@?$_Tree@V?$_Tmap_traits@U?$pair@PAXPAX@std@@VResponse@@U?$less@U?$pair@PAXPAX@std@@@2@V?$allocator@U?$pair@$$CBU?$pair@PAXPAX@std@@VResponse@@@std@@@2@$0A@@std@@@std@@IAE?AU?$pair@V?$_Tree_iterator@V?$_Tree_val@U?$_Tree_simple_types@U?$pair@$$CBU?$pair@PAXPAX@std@@VResponse@@@std@@@std@@@std@@@std@@V12@@2@ABU?$pair@PAXPAX@2@@Z 1000cd50 f i solid:C-api.obj
 0001:0000be00       ?_Erase@?$_Tree@V?$_Tmap_traits@PAXVResponse@@U?$less@PAX@std@@V?$allocator@U?$pair@QAXVResponse@@@std@@@3@$0A@@std@@@std@@IAEXPAU?$_Tree_node@U?$pair@QAXVResponse@@@std@@PAX@2@@Z 1000ce00 f i solid:C-api.obj
 0001:0000be00       ?_Erase@?$_Tree@V?$_Tmap_traits@PAXPAVObject@@U?$less@PAX@std@@V?$allocator@U?$pair@QAXPAVObject@@@std@@@3@$0A@@std@@@std@@IAEXPAU?$_Tree_node@U?$pair@QAXPAVObject@@@std@@PAX@2@@Z 1000ce00 f i solid:C-api.obj
 0001:0000be00       ?_Erase@?$_Tree@V?$_Tmap_traits@U?$pair@PAXPAX@std@@VResponse@@U?$less@U?$pair@PAXPAX@std@@@2@V?$allocator@U?$pair@$$CBU?$pair@PAXPAX@std@@VResponse@@@std@@@2@$0A@@std@@@std@@IAEXPAU?$_Tree_node@U?$pair@$$CBU?$pair@PAXPAX@std@@VResponse@@@std@@PAX@2@@Z 1000ce00 f i solid:C-api.obj
 0001:0000be00       ?_Erase@?$_Tree@V?$_Tset_traits@VEncounter@@U?$less@VEncounter@@@std@@V?$allocator@VEncounter@@@3@$0A@@std@@@std@@IAEXPAU?$_Tree_node@VEncounter@@PAX@2@@Z 1000ce00 f i solid:C-api.obj
 0001:0000be40       ?_Lbound@?$_Tree@V?$_Tmap_traits@U?$pair@PAXPAX@std@@VResponse@@U?$less@U?$pair@PAXPAX@std@@@2@V?$allocator@U?$pair@$$CBU?$pair@PAXPAX@std@@VResponse@@@std@@@2@$0A@@std@@@std@@IAEPAU?$_Tree_node@U?$pair@$$CBU?$pair@PAXPAX@std@@VResponse@@@std@@PAX@2@ABU?$pair@PAXPAX@2@@Z 1000ce40 f i solid:C-api.obj
 0001:0000be40       ?_Lbound@?$_Tree@V?$_Tmap_traits@U?$pair@PAXPAX@std@@VResponse@@U?$less@U?$pair@PAXPAX@std@@@2@V?$allocator@U?$pair@$$CBU?$pair@PAXPAX@std@@VResponse@@@std@@@2@$0A@@std@@@std@@IBEPAU?$_Tree_node@U?$pair@$$CBU?$pair@PAXPAX@std@@VResponse@@@std@@PAX@2@ABU?$pair@PAXPAX@2@@Z 1000ce40 f i solid:RespTable.obj
 0001:0000be80       ?_Lrotate@?$_Tree@V?$_Tmap_traits@PAXPAVObject@@U?$less@PAX@std@@V?$allocator@U?$pair@QAXPAVObject@@@std@@@3@$0A@@std@@@std@@IAEXPAU?$_Tree_node@U?$pair@QAXPAVObject@@@std@@PAX@2@@Z 1000ce80 f i solid:C-api.obj
 0001:0000be80       ?_Lrotate@?$_Tree@V?$_Tmap_traits@U?$pair@PAXPAX@std@@VResponse@@U?$less@U?$pair@PAXPAX@std@@@2@V?$allocator@U?$pair@$$CBU?$pair@PAXPAX@std@@VResponse@@@std@@@2@$0A@@std@@@std@@IAEXPAU?$_Tree_node@U?$pair@$$CBU?$pair@PAXPAX@std@@VResponse@@@std@@PAX@2@@Z 1000ce80 f i solid:C-api.obj
 0001:0000be80       ?_Lrotate@?$_Tree@V?$_Tmap_traits@PAXVResponse@@U?$less@PAX@std@@V?$allocator@U?$pair@QAXVResponse@@@std@@@3@$0A@@std@@@std@@IAEXPAU?$_Tree_node@U?$pair@QAXVResponse@@@std@@PAX@2@@Z 1000ce80 f i solid:C-api.obj
 0001:0000be80       ?_Lrotate@?$_Tree@V?$_Tset_traits@VEncounter@@U?$less@VEncounter@@@std@@V?$allocator@VEncounter@@@3@$0A@@std@@@std@@IAEXPAU?$_Tree_node@VEncounter@@PAX@2@@Z 1000ce80 f i solid:C-api.obj
 0001:0000bee0       ?_Reallocate@?$vector@VPoint@@V?$allocator@VPoint@@@std@@@std@@IAEXI@Z 1000cee0 f i solid:C-api.obj
 0001:0000bfc0       ?_Reserve@?$vector@VPoint@@V?$allocator@VPoint@@@std@@@std@@IAEXI@Z 1000cfc0 f i solid:C-api.obj
 0001:0000c070       ?_Rrotate@?$_Tree@V?$_Tmap_traits@PAXVResponse@@U?$less@PAX@std@@V?$allocator@U?$pair@QAXVResponse@@@std@@@3@$0A@@std@@@std@@IAEXPAU?$_Tree_node@U?$pair@QAXVResponse@@@std@@PAX@2@@Z 1000d070 f i solid:C-api.obj
 0001:0000c070       ?_Rrotate@?$_Tree@V?$_Tmap_traits@U?$pair@PAXPAX@std@@VResponse@@U?$less@U?$pair@PAXPAX@std@@@2@V?$allocator@U?$pair@$$CBU?$pair@PAXPAX@std@@VResponse@@@std@@@2@$0A@@std@@@std@@IAEXPAU?$_Tree_node@U?$pair@$$CBU?$pair@PAXPAX@std@@VResponse@@@std@@PAX@2@@Z 1000d070 f i solid:C-api.obj
 0001:0000c070       ?_Rrotate@?$_Tree@V?$_Tmap_traits@PAXPAVObject@@U?$less@PAX@std@@V?$allocator@U?$pair@QAXPAVObject@@@std@@@3@$0A@@std@@@std@@IAEXPAU?$_Tree_node@U?$pair@QAXPAVObject@@@std@@PAX@2@@Z 1000d070 f i solid:C-api.obj
 0001:0000c070       ?_Rrotate@?$_Tree@V?$_Tset_traits@VEncounter@@U?$less@VEncounter@@@std@@V?$allocator@VEncounter@@@3@$0A@@std@@@std@@IAEXPAU?$_Tree_node@VEncounter@@PAX@2@@Z 1000d070 f i solid:C-api.obj
 0001:0000c0d0       ?allocate@?$_Wrap_alloc@V?$allocator@D@std@@@std@@QAEPADI@Z 1000d0d0 f i solid:C-api.obj
 0001:0000c100       ?assign@?$basic_string@DU?$char_traits@D@std@@V?$allocator@D@2@@std@@QAEAAV12@ABV12@II@Z 1000d100 f i solid:C-api.obj
 0001:0000c230       ?assign@?$basic_string@DU?$char_traits@D@std@@V?$allocator@D@2@@std@@QAEAAV12@PBDI@Z 1000d230 f i solid:C-api.obj
 0001:0000c330       ?clear@?$_Tree@V?$_Tmap_traits@PAXPAVObject@@U?$less@PAX@std@@V?$allocator@U?$pair@QAXPAVObject@@@std@@@3@$0A@@std@@@std@@QAEXXZ 1000d330 f i solid:C-api.obj
 0001:0000c330       ?clear@?$_Tree@V?$_Tmap_traits@PAXVResponse@@U?$less@PAX@std@@V?$allocator@U?$pair@QAXVResponse@@@std@@@3@$0A@@std@@@std@@QAEXXZ 1000d330 f i solid:C-api.obj
 0001:0000c330       ?clear@?$_Tree@V?$_Tmap_traits@U?$pair@PAXPAX@std@@VResponse@@U?$less@U?$pair@PAXPAX@std@@@2@V?$allocator@U?$pair@$$CBU?$pair@PAXPAX@std@@VResponse@@@std@@@2@$0A@@std@@@std@@QAEXXZ 1000d330 f i solid:C-api.obj
 0001:0000c330       ?clear@?$_Tree@V?$_Tset_traits@VEncounter@@U?$less@VEncounter@@@std@@V?$allocator@VEncounter@@@3@$0A@@std@@@std@@QAEXXZ 1000d330 f i solid:C-api.obj
 0001:0000c380       ?default_error_condition@_System_error_category@std@@UBE?AVerror_condition@2@H@Z 1000d380 f i solid:C-api.obj
 0001:0000c3c0       ?default_error_condition@error_category@std@@UBE?AVerror_condition@2@H@Z 1000d3c0 f i solid:C-api.obj
 0001:0000c3e0       ?equivalent@error_category@std@@UBE_NABVerror_code@2@H@Z 1000d3e0 f i solid:C-api.obj
 0001:0000c400       ?equivalent@error_category@std@@UBE_NHABVerror_condition@2@@Z 1000d400 f i solid:C-api.obj
 0001:0000c440       ?erase@?$_Tree@V?$_Tmap_traits@U?$pair@PAXPAX@std@@VResponse@@U?$less@U?$pair@PAXPAX@std@@@2@V?$allocator@U?$pair@$$CBU?$pair@PAXPAX@std@@VResponse@@@std@@@2@$0A@@std@@@std@@QAE?AV?$_Tree_iterator@V?$_Tree_val@U?$_Tree_simple_types@U?$pair@$$CBU?$pair@PAXPAX@std@@VResponse@@@std@@@std@@@std@@@2@V?$_Tree_const_iterator@V?$_Tree_val@U?$_Tree_simple_types@U?$pair@$$CBU?$pair@PAXPAX@std@@VResponse@@@std@@@std@@@std@@@2@0@Z 1000d440 f i solid:C-api.obj
 0001:0000c440       ?erase@?$_Tree@V?$_Tmap_traits@PAXPAVObject@@U?$less@PAX@std@@V?$allocator@U?$pair@QAXPAVObject@@@std@@@3@$0A@@std@@@std@@QAE?AV?$_Tree_iterator@V?$_Tree_val@U?$_Tree_simple_types@U?$pair@QAXPAVObject@@@std@@@std@@@std@@@2@V?$_Tree_const_iterator@V?$_Tree_val@U?$_Tree_simple_types@U?$pair@QAXPAVObject@@@std@@@std@@@std@@@2@0@Z 1000d440 f i solid:C-api.obj
 0001:0000c440       ?erase@?$_Tree@V?$_Tmap_traits@PAXVResponse@@U?$less@PAX@std@@V?$allocator@U?$pair@QAXVResponse@@@std@@@3@$0A@@std@@@std@@QAE?AV?$_Tree_iterator@V?$_Tree_val@U?$_Tree_simple_types@U?$pair@QAXVResponse@@@std@@@std@@@std@@@2@V?$_Tree_const_iterator@V?$_Tree_val@U?$_Tree_simple_types@U?$pair@QAXVResponse@@@std@@@std@@@std@@@2@0@Z 1000d440 f i solid:C-api.obj
 0001:0000c440       ?erase@?$_Tree@V?$_Tset_traits@VEncounter@@U?$less@VEncounter@@@std@@V?$allocator@VEncounter@@@3@$0A@@std@@@std@@QAE?AV?$_Tree_const_iterator@V?$_Tree_val@U?$_Tree_simple_types@VEncounter@@@std@@@std@@@2@V32@0@Z 1000d440 f i solid:C-api.obj
 0001:0000c4e0       ?erase@?$_Tree@V?$_Tmap_traits@U?$pair@PAXPAX@std@@VResponse@@U?$less@U?$pair@PAXPAX@std@@@2@V?$allocator@U?$pair@$$CBU?$pair@PAXPAX@std@@VResponse@@@std@@@2@$0A@@std@@@std@@QAE?AV?$_Tree_iterator@V?$_Tree_val@U?$_Tree_simple_types@U?$pair@$$CBU?$pair@PAXPAX@std@@VResponse@@@std@@@std@@@std@@@2@V?$_Tree_const_iterator@V?$_Tree_val@U?$_Tree_simple_types@U?$pair@$$CBU?$pair@PAXPAX@std@@VResponse@@@std@@@std@@@std@@@2@@Z 1000d4e0 f i solid:C-api.obj
 0001:0000c4e0       ?erase@?$_Tree@V?$_Tmap_traits@PAXVResponse@@U?$less@PAX@std@@V?$allocator@U?$pair@QAXVResponse@@@std@@@3@$0A@@std@@@std@@QAE?AV?$_Tree_iterator@V?$_Tree_val@U?$_Tree_simple_types@U?$pair@QAXVResponse@@@std@@@std@@@std@@@2@V?$_Tree_const_iterator@V?$_Tree_val@U?$_Tree_simple_types@U?$pair@QAXVResponse@@@std@@@std@@@std@@@2@@Z 1000d4e0 f i solid:C-api.obj
 0001:0000c4e0       ?erase@?$_Tree@V?$_Tset_traits@VEncounter@@U?$less@VEncounter@@@std@@V?$allocator@VEncounter@@@3@$0A@@std@@@std@@QAE?AV?$_Tree_const_iterator@V?$_Tree_val@U?$_Tree_simple_types@VEncounter@@@std@@@std@@@2@V32@@Z 1000d4e0 f i solid:C-api.obj
 0001:0000c4e0       ?erase@?$_Tree@V?$_Tmap_traits@PAXPAVObject@@U?$less@PAX@std@@V?$allocator@U?$pair@QAXPAVObject@@@std@@@3@$0A@@std@@@std@@QAE?AV?$_Tree_iterator@V?$_Tree_val@U?$_Tree_simple_types@U?$pair@QAXPAVObject@@@std@@@std@@@std@@@2@V?$_Tree_const_iterator@V?$_Tree_val@U?$_Tree_simple_types@U?$pair@QAXPAVObject@@@std@@@std@@@std@@@2@@Z 1000d4e0 f i solid:C-api.obj
 0001:0000c750       ?erase@?$basic_string@DU?$char_traits@D@std@@V?$allocator@D@2@@std@@QAEAAV12@II@Z 1000d750 f i solid:C-api.obj
 0001:0000c7f0       __matherr                  1000d7f0 f i LIBCMT:matherr.obj
 0001:0000c7f0       ?getType@Complex@@UBE?AW4ShapeType@@XZ 1000d7f0 f i solid:C-api.obj
 0001:0000c800       ?getType@Convex@@UBE?AW4ShapeType@@XZ 1000d800 f i solid:C-api.obj
 0001:0000c810       ?message@_Generic_error_category@std@@UBE?AV?$basic_string@DU?$char_traits@D@std@@V?$allocator@D@2@@2@H@Z 1000d810 f i solid:C-api.obj
 0001:0000c880       ?message@_Iostream_error_category@std@@UBE?AV?$basic_string@DU?$char_traits@D@std@@V?$allocator@D@2@@2@H@Z 1000d880 f i solid:C-api.obj
 0001:0000c8d0       ?message@_System_error_category@std@@UBE?AV?$basic_string@DU?$char_traits@D@std@@V?$allocator@D@2@@2@H@Z 1000d8d0 f i solid:C-api.obj
 0001:0000c940       ?name@_Generic_error_category@std@@UBEPBDXZ 1000d940 f i solid:C-api.obj
 0001:0000c950       ?name@_Iostream_error_category@std@@UBEPBDXZ 1000d950 f i solid:C-api.obj
 0001:0000c960       ?name@_System_error_category@std@@UBEPBDXZ 1000d960 f i solid:C-api.obj
 0001:0000c970       ?push_back@?$vector@PBVPolytope@@V?$allocator@PBVPolytope@@@std@@@std@@QAEXABQBVPolytope@@@Z 1000d970 f i solid:C-api.obj
 0001:0000c9e0       ?push_back@?$vector@VPoint@@V?$allocator@VPoint@@@std@@@std@@QAEXABVPoint@@@Z 1000d9e0 f i solid:C-api.obj
 0001:0000ca80       ?setValue@Transform@@QAEXQBM@Z 1000da80 f   solid:Transform.obj
 0001:0000cb30       ?setValue@Transform@@QAEXQBN@Z 1000db30 f   solid:Transform.obj
 0001:0000cbc0       ?setIdentity@Transform@@QAEXXZ 1000dbc0 f   solid:Transform.obj
 0001:0000cc00       ??XTransform@@QAEAAV0@ABV0@@Z 1000dc00 f   solid:Transform.obj
 0001:0000ce70       ?translate@Transform@@QAEXABVVector@@@Z 1000de70 f   solid:Transform.obj
 0001:0000cf20       ?rotate@Transform@@QAEXABVQuaternion@@@Z 1000df20 f   solid:Transform.obj
 0001:0000d250       ?scale@Transform@@QAEXNNN@Z 1000e250 f   solid:Transform.obj
 0001:0000d3e0       ?invert@Transform@@QAEXABV1@@Z 1000e3e0 f   solid:Transform.obj
 0001:0000d670       ?mult@Transform@@QAEXABV1@0@Z 1000e670 f   solid:Transform.obj
 0001:0000d8c0       ?multInverseLeft@Transform@@QAEXABV1@0@Z 1000e8c0 f   solid:Transform.obj
 0001:0000df30       ?bbox@Convex@@UBE?AVBBox@@ABVTransform@@@Z 1000ef30 f   solid:Convex.obj
 0001:0000e1e0       ?intersect@@YA_NABVConvex@@0ABVTransform@@1AAVVector@@@Z 1000f1e0 f   solid:Convex.obj
 0001:0000e5a0       ?intersect@@YA_NABVConvex@@0ABVTransform@@AAVVector@@@Z 1000f5a0 f   solid:Convex.obj
 0001:0000e870       ?common_point@@YA_NABVConvex@@0ABVTransform@@1AAVVector@@AAVPoint@@3@Z 1000f870 f   solid:Convex.obj
 0001:0000ecb0       ?common_point@@YA_NABVConvex@@0ABVTransform@@AAVVector@@AAVPoint@@3@Z 1000fcb0 f   solid:Convex.obj
 0001:0000efd0       ?closest_points@@YAXABVConvex@@0ABVTransform@@1AAVPoint@@2@Z 1000ffd0 f   solid:Convex.obj
 0001:0000f660       ?compute_det@@YAXXZ        10010660 f   solid:Convex.obj
 0001:0000fbb0       ?closest@@YA_NAAVVector@@@Z 10010bb0 f i solid:Convex.obj
 0001:0000fc90       ?compute_points@@YAXHAAVPoint@@0@Z 10010c90 f i solid:Convex.obj
 0001:0000ffc0       ?compute_vector@@YAXHAAVVector@@@Z 10010fc0 f i solid:Convex.obj
 0001:00010180       ?valid@@YA_NH@Z            10011180 f i solid:Convex.obj
 0001:000101e0       ?support@Box@@UBE?AVPoint@@ABVVector@@@Z 100111e0 f   solid:Box.obj
 0001:00010240       ?support@Cone@@UBE?AVPoint@@ABVVector@@@Z 10011240 f   solid:Cone.obj
 0001:00010330       ?support@Cylinder@@UBE?AVPoint@@ABVVector@@@Z 10011330 f   solid:Cylinder.obj
 0001:000103e0       ?support@Sphere@@UBE?AVPoint@@ABVVector@@@Z 100113e0 f   solid:Sphere.obj
 0001:00010470       ??1Complex@@UAE@XZ         10011470 f   solid:Complex.obj
 0001:00010500       ?bbox@Complex@@UBE?AVBBox@@ABVTransform@@@Z 10011500 f   solid:Complex.obj
 0001:000106c0       ?changeBase@Complex@@QAEXPBX@Z 100116c0 f   solid:Complex.obj
 0001:00010840       ?finish@Complex@@QAEXHPAPBVPolytope@@@Z 10011840 f   solid:Complex.obj
 0001:00010950       ?intersect@@YA_NABVComplex@@ABVConvex@@ABVTransform@@2AAVVector@@@Z 10011950 f   solid:Complex.obj
 0001:000109b0       ?intersect@@YA_NABVComplex@@0ABVTransform@@1AAVVector@@@Z 100119b0 f   solid:Complex.obj
 0001:00010ac0       ?find_prim@@YA_NABVComplex@@ABVConvex@@ABVTransform@@2AAVVector@@AAPBVShape@@@Z 10011ac0 f   solid:Complex.obj
 0001:00010b20       ?find_prim@@YA_NABVComplex@@0ABVTransform@@1AAVVector@@AAPBVShape@@3@Z 10011b20 f   solid:Complex.obj
 0001:00010c30       ?common_point@@YA_NABVComplex@@ABVConvex@@ABVTransform@@2AAVVector@@AAVPoint@@4@Z 10011c30 f   solid:Complex.obj
 0001:00010c90       ?common_point@@YA_NABVComplex@@0ABVTransform@@1AAVVector@@AAVPoint@@3@Z 10011c90 f   solid:Complex.obj
 0001:00010da0       ??0Object@@QAE@PAXPBVShape@@@Z 10011da0 f   solid:Object.obj
 0001:00010f30       ?move@Object@@QAEXXZ       10011f30 f   solid:Object.obj
 0001:00011050       ?proceed@Object@@QAEXXZ    10012050 f   solid:Object.obj
 0001:00011070       ?intersect@@YA_NABVObject@@0AAVVector@@@Z 10012070 f   solid:Object.obj
 0001:00011110       ?common_point@@YA_NABVObject@@0AAVVector@@AAVPoint@@2@Z 10012110 f   solid:Object.obj
 0001:000111b0       ?prev_closest_points@@YA_NABVObject@@0AAVVector@@AAVPoint@@2@Z 100121b0 f   solid:Object.obj
 0001:00011340       ?intersectConvexConvex@@YA_NABVShape@@0ABVTransform@@1AAVVector@@@Z 10012340 f   solid:Object.obj
 0001:00011350       ?intersectComplexConvex@@YA_NABVShape@@0ABVTransform@@1AAVVector@@@Z 10012350 f   solid:Object.obj
 0001:00011360       ?intersectComplexComplex@@YA_NABVShape@@0ABVTransform@@1AAVVector@@@Z 10012360 f   solid:Object.obj
 0001:00011370       ?intersectInitialize@@YAPAV?$AlgoTable@P6A_NABVShape@@0ABVTransform@@1AAVVector@@@Z@@XZ 10012370 f   solid:Object.obj
 0001:000113a0       ?common_pointConvexConvex@@YA_NABVShape@@0ABVTransform@@1AAVVector@@AAVPoint@@3@Z 100123a0 f   solid:Object.obj
 0001:000113b0       ?common_pointComplexConvex@@YA_NABVShape@@0ABVTransform@@1AAVVector@@AAVPoint@@3@Z 100123b0 f   solid:Object.obj
 0001:000113c0       ?common_pointComplexComplex@@YA_NABVShape@@0ABVTransform@@1AAVVector@@AAVPoint@@3@Z 100123c0 f   solid:Object.obj
 0001:000113d0       ?common_pointInitialize@@YAPAV?$AlgoTable@P6A_NABVShape@@0ABVTransform@@1AAVVector@@AAVPoint@@3@Z@@XZ 100123d0 f   solid:Object.obj
 0001:00011400       ??0Endpoint@@QAE@XZ        10012400 f i solid:Object.obj
 0001:00011410       ?support@Simplex@@UBE?AVPoint@@ABVVector@@@Z 10012410 f   solid:Simplex.obj
 0001:000114e0       ?support@Polygon@@UBE?AVPoint@@ABVVector@@@Z 100124e0 f   solid:Polygon.obj
 0001:00011680       ??0Polyhedron@@QAE@ABVVertexBase@@HQBI@Z 10012680 f   solid:Polyhedron.obj
 0001:00011720       ??1Polyhedron@@UAE@XZ      10012720 f   solid:Polyhedron.obj
 0001:00011740       ?support@Polyhedron@@UBE?AVPoint@@ABVVector@@@Z 10012740 f   solid:Polyhedron.obj
 0001:00011810       ??_EPolyhedron@@UAEPAXI@Z  10012810 f i solid:Polyhedron.obj
 0001:00011810       ??_GPolyhedron@@UAEPAXI@Z  10012810 f i solid:Polyhedron.obj
 0001:00011840       ??RResponse@@QBEXPAX0ABVPoint@@1ABVVector@@@Z 10012840 f   solid:Response.obj
 0001:000118e0       ??RResponse@@QBEXPAX0@Z    100128e0 f   solid:Response.obj
 0001:00011900       ?find@RespTable@@QBEABVResponse@@PAX0@Z 10012900 f   solid:RespTable.obj
 0001:000119f0       ?cleanObject@RespTable@@QAEXPAX@Z 100129f0 f   solid:RespTable.obj
 0001:00011b90       ?_Reallocate@?$vector@PBVPolytope@@V?$allocator@PBVPolytope@@@std@@@std@@IAEXI@Z 10012b90 f i solid:C-api.obj
 0001:00011b90       ?_Reallocate@?$vector@PAXV?$allocator@PAX@std@@@std@@IAEXI@Z 10012b90 f i solid:RespTable.obj
 0001:00011b90       ?_Reallocate@?$vector@IV?$allocator@I@std@@@std@@IAEXI@Z 10012b90 f i solid:C-api.obj
 0001:00011b90       ?_Reallocate@?$vector@PAVComplex@@V?$allocator@PAVComplex@@@std@@@std@@IAEXI@Z 10012b90 f i solid:C-api.obj
 0001:00011c10       ?_Reserve@?$vector@PBVPolytope@@V?$allocator@PBVPolytope@@@std@@@std@@IAEXI@Z 10012c10 f i solid:C-api.obj
 0001:00011c10       ?_Reserve@?$vector@PAXV?$allocator@PAX@std@@@std@@IAEXI@Z 10012c10 f i solid:RespTable.obj
 0001:00011c10       ?_Reserve@?$vector@IV?$allocator@I@std@@@std@@IAEXI@Z 10012c10 f i solid:C-api.obj
 0001:00011c10       ?_Reserve@?$vector@PAVComplex@@V?$allocator@PAVComplex@@@std@@@std@@IAEXI@Z 10012c10 f i solid:C-api.obj
 0001:00011c90       ?find@?$_Tree@V?$_Tmap_traits@PAXVResponse@@U?$less@PAX@std@@V?$allocator@U?$pair@QAXVResponse@@@std@@@3@$0A@@std@@@std@@QBE?AV?$_Tree_const_iterator@V?$_Tree_val@U?$_Tree_simple_types@U?$pair@QAXVResponse@@@std@@@std@@@std@@@2@ABQAX@Z 10012c90 f i solid:RespTable.obj
 0001:00011ce0       ?fitBBox@BBoxLeaf@@QAEXXZ  10012ce0 f   solid:BBoxTree.obj
 0001:00011e10       ??0BBoxInternal@@QAE@HPAVBBoxLeaf@@@Z 10012e10 f   solid:BBoxTree.obj
 0001:00012140       ?intersect@@YA_NPBVBBoxNode@@ABVConvex@@ABVBBox@@ABVTransform@@AAVVector@@@Z 10013140 f   solid:BBoxTree.obj
 0001:00012210       ?intersect@@YA_NPBVBBoxNode@@0ABVTransform@@ABVMatrix@@12AAVVector@@@Z 10013210 f   solid:BBoxTree.obj
 0001:00012330       ?find_prim@@YA_NPBVBBoxNode@@ABVConvex@@ABVBBox@@ABVTransform@@AAVVector@@AAPBVShape@@@Z 10013330 f   solid:BBoxTree.obj
 0001:00012420       ?find_prim@@YA_NPBVBBoxNode@@0ABVTransform@@ABVMatrix@@12AAVVector@@AAPBVShape@@4@Z 10013420 f   solid:BBoxTree.obj
 0001:00012570       ?common_point@@YA_NPBVBBoxNode@@ABVConvex@@ABVBBox@@ABVTransform@@AAVVector@@AAVPoint@@5@Z 10013570 f   solid:BBoxTree.obj
 0001:00012650       ?common_point@@YA_NPBVBBoxNode@@0ABVTransform@@ABVMatrix@@12AAVVector@@AAVPoint@@4@Z 10013650 f   solid:BBoxTree.obj
 0001:00012790       ?intersect@@YA_NABVBBox@@0ABVTransform@@ABVMatrix@@12@Z 10013790 f i solid:BBoxTree.obj
 0001:00012a60       ??0Endpoint@@QAE@HHPBVObject@@@Z 10013a60 f   solid:Endpoint.obj
 0001:00012ab0       ?move@Endpoint@@QAEXN@Z    10013ab0 f   solid:Endpoint.obj
 0001:00012bf0       ??0EndpointList@@QAE@XZ    10013bf0 f i solid:Endpoint.obj
 0001:00012c30       ??1EndpointList@@QAE@XZ    10013c30 f i solid:Endpoint.obj
 0001:00012c70       ?update@@YAXABVEndpoint@@0@Z 10013c70 f i solid:Endpoint.obj
 0001:00012d3c       ?GfParmGetNum@@YAMPAXPBD11M@Z 10013d3c f   tgf:tgf.dll
 0001:00012d42       ?GfParmGetStr@@YAPBDPAXPBD11@Z 10013d42 f   tgf:tgf.dll
 0001:00012d48       ?_tgf_win_malloc@@YAPAXI@Z 10013d48 f   tgf:tgf.dll
 0001:00012d4e       ?_tgf_win_free@@YAXPAX@Z   10013d4e f   tgf:tgf.dll
 0001:00012d54       ?GfParmGetEltNb@@YAHPAXPBD@Z 10013d54 f   tgf:tgf.dll
 0001:00012d5a       ?_tgf_win_calloc@@YAPAXII@Z 10013d5a f   tgf:tgf.dll
 0001:00012d60       ?_tgf_win_strdup@@YAPADPBD@Z 10013d60 f   tgf:tgf.dll
 0001:00012d66       ?RtTrackGlobal2Local@@YAXPAUtrackSeg@@MMPAUtTrkLocPos@@H@Z 10013d66 f   robottools:robottools.dll
 0001:00012d6c       ?RtTrackSurfaceNormalL@@YAXPAUtTrkLocPos@@PAUt3Dd@@@Z 10013d6c f   robottools:robottools.dll
 0001:00012d72       ?RtTrackLocal2Global@@YAXPAUtTrkLocPos@@PAM1H@Z 10013d72 f   robottools:robottools.dll
 0001:00012d78       ?RtTrackHeightL@@YAMPAUtTrkLocPos@@@Z 10013d78 f   robottools:robottools.dll
 0001:00012d7e       ?RtTrackSideTgAngleL@@YAMPAUtTrkLocPos@@@Z 10013d7e f   robottools:robottools.dll
 0001:00012d84       ??_U@YAPAXI@Z              10013d84 f   libcpmt:newaop.obj
 0001:00012d8d       ??0bad_alloc@std@@QAE@ABV01@@Z 10013d8d f i libcpmt:xthrow.obj
 0001:00012da8       ??0length_error@std@@QAE@ABV01@@Z 10013da8 f i libcpmt:xthrow.obj
 0001:00012dc3       ??0logic_error@std@@QAE@ABV01@@Z 10013dc3 f i libcpmt:xthrow.obj
 0001:00012dde       ??0out_of_range@std@@QAE@ABV01@@Z 10013dde f i libcpmt:xthrow.obj
 0001:00012df9       ??1bad_alloc@std@@UAE@XZ   10013df9 f i libcpmt:xthrow.obj
 0001:00012e04       ??1out_of_range@std@@UAE@XZ 10013e04 f i libcpmt:xthrow.obj
 0001:00012e04       ??1length_error@std@@UAE@XZ 10013e04 f i libcpmt:xthrow.obj
 0001:00012e09       ??_Ebad_alloc@std@@UAEPAXI@Z 10013e09 f i libcpmt:xthrow.obj
 0001:00012e09       ??_Gbad_alloc@std@@UAEPAXI@Z 10013e09 f i libcpmt:xthrow.obj
 0001:00012e2e       ??_Eout_of_range@std@@UAEPAXI@Z 10013e2e f i libcpmt:xthrow.obj
 0001:00012e2e       ??_Elogic_error@std@@UAEPAXI@Z 10013e2e f i libcpmt:xthrow.obj
 0001:00012e2e       ??_Glength_error@std@@UAEPAXI@Z 10013e2e f i libcpmt:xthrow.obj
 0001:00012e2e       ??_Gout_of_range@std@@UAEPAXI@Z 10013e2e f i libcpmt:xthrow.obj
 0001:00012e2e       ??_Elength_error@std@@UAEPAXI@Z 10013e2e f i libcpmt:xthrow.obj
 0001:00012e2e       ??_Glogic_error@std@@UAEPAXI@Z 10013e2e f i libcpmt:xthrow.obj
 0001:00012e4d       ?_Xbad_alloc@std@@YAXXZ    10013e4d f   libcpmt:xthrow.obj
 0001:00012e7e       ?_Xlength_error@std@@YAXPBD@Z 10013e7e f   libcpmt:xthrow.obj
 0001:00012eac       ?_Xout_of_range@std@@YAXPBD@Z 10013eac f   libcpmt:xthrow.obj
 0001:00012eda       ?_Syserror_map@std@@YAPBDH@Z 10013eda f   libcpmt:syserror.obj
 0001:00012f04       ?_Winerror_map@std@@YAPBDH@Z 10013f04 f   libcpmt:syserror.obj
 0001:00012f30       _atan2                     10013f30 f   LIBCMT:87ctriga.obj
 0001:00012f3a       __CIatan2                  10013f3a f   LIBCMT:87ctriga.obj
 0001:00012f50       __libm_sse2_exp_precise    10013f50 f   LIBCMT:exp_sse2_precise.obj
 0001:00013220       __libm_sse2_sin_precise    10014220 f   LIBCMT:sin_sse2_precise.obj
 0001:000133f0       __libm_sse2_sqrt_precise   100143f0 f   LIBCMT:sqrt_sse2_precise.obj
 0001:000134f0       __fpmath                   100144f0 f   LIBCMT:fpinit.obj
 0001:00013507       __cfltcvt_init             10014507 f   LIBCMT:fpinit.obj
 0001:00013567       __get_printf_count_output  10014567 f   LIBCMT:printf.obj
 0001:0001357c       _printf                    1001457c f   LIBCMT:printf.obj
 0001:00013630       __libm_sse2_cos_precise    10014630 f   LIBCMT:cos_sse2_precise.obj
 0001:000137e8       __snprintf                 100147e8 f   LIBCMT:snprintf.obj
 0001:00013894       _rand                      10014894 f   LIBCMT:rand.obj
 0001:000138b5       __fpclass                  100148b5 f   LIBCMT:ieeemisc.obj
 0001:00013951       __isnan                    10014951 f   LIBCMT:ieeemisc.obj
 0001:00013990       _memset                    10014990 f   LIBCMT:memset.obj
 0001:00013a20       __libm_sse2_tan_precise    10014a20 f   LIBCMT:tan_sse2_precise.obj
 0001:00013c90       __libm_sse2_asin_precise   10014c90 f   LIBCMT:asin_sse2_precise.obj
 0001:000141e0       __libm_sse2_atan_precise   100151e0 f   LIBCMT:atan_sse2_precise.obj
 0001:000144f0       __libm_sse2_log_precise    100154f0 f   LIBCMT:log_sse2_precise.obj
 0001:00014780       __CRT_INIT@12              10015780 f   LIBCMT:dllcrt0.obj
 0001:000148f2       __DllMainCRTStartup@12     100158f2 f   LIBCMT:dllcrt0.obj
 0001:00014a23       ___DllXcptFilter           10015a23 f   LIBCMT:dllcrt0.obj
 0001:00014a48       ??_M@YGXPAXIHP6EX0@Z@Z     10015a48 f   LIBCMT:ehvecdtr.obj
 0001:00014ab7       ?__ArrayUnwind@@YGXPAXIHP6EX0@Z@Z 10015ab7 f   LIBCMT:ehvecdtr.obj
 0001:00014b15       __purecall                 10015b15 f   LIBCMT:purevirt.obj
 0001:00014b37       ??2@YAPAXI@Z               10015b37 f   LIBCMT:new.obj
 0001:00014b88       ??3@YAXPAX@Z               10015b88 f   LIBCMT:delete.obj
 0001:00014b8d       ___onexitinit              10015b8d f   LIBCMT:onexit.obj
 0001:00014bbc       __onexit                   10015bbc f   LIBCMT:onexit.obj
 0001:00014cb8       _atexit                    10015cb8 f   LIBCMT:onexit.obj
 0001:00014cd0       _memmove                   10015cd0 f   LIBCMT:memmove.obj
 0001:00015314       ??_V@YAXPAX@Z              10016314 f   LIBCMT:delete2.obj
 0001:00015319       __CxxThrowException@8      10016319 f   LIBCMT:throw.obj
 0001:0001544c       ?_CallCatchBlock2@@YAPAXPAUEHRegistrationNode@@PBU_s_FuncInfo@@PAXHK@Z 1001644c f   LIBCMT:_trnsctrl_.obj
 0001:000154ac       ?_CallMemberFunction2@@YGXPAX00H@Z 100164ac f   LIBCMT:_trnsctrl_.obj
 0001:000154ac       ?_CallMemberFunction0@@YGXPAX0@Z 100164ac f   LIBCMT:_trnsctrl_.obj
 0001:000154ac       ?_CallMemberFunction1@@YGXPAX00@Z 100164ac f   LIBCMT:_trnsctrl_.obj
 0001:000154b3       ?_CallSETranslator@@YAHPAUEHExceptionRecord@@PAUEHRegistrationNode@@PAX2PBU_s_FuncInfo@@H1@Z 100164b3 f   LIBCMT:_trnsctrl_.obj
 0001:0001558a       ?_GetRangeOfTrysToCheck@@YAPBU_s_TryBlockMapEntry@@PBU_s_FuncInfo@@HHPAI1@Z 1001658a f   LIBCMT:_trnsctrl_.obj
 0001:00015608       ?_JumpToContinuation@@YGXPAXPAUEHRegistrationNode@@@Z 10016608 f   LIBCMT:_trnsctrl_.obj
 0001:0001563a       ?_UnwindNestedFrames@@YGXPAUEHRegistrationNode@@PAUEHExceptionRecord@@@Z 1001663a f   LIBCMT:_trnsctrl_.obj
 0001:0001568f       __CreateFrameInfo          1001668f f   LIBCMT:_trnsctrl_.obj
 0001:000156b9       __FindAndUnlinkFrame       100166b9 f   LIBCMT:_trnsctrl_.obj
 0001:00015709       __IsExceptionObjectToBeDestroyed 10016709 f   LIBCMT:_trnsctrl_.obj
 0001:00015732       ___CxxFrameHandler3        10016732 f   LIBCMT:_trnsctrl_.obj
 0001:00015770       _memcpy                    10016770 f   LIBCMT:memcpy.obj
 0001:00015db4       ??1type_info@@UAE@XZ       10016db4 f   LIBCMT:typinfo.obj
 0001:00015dc2       ??8type_info@@QBE_NABV0@@Z 10016dc2 f   LIBCMT:typinfo.obj
 0001:00015de0       ??_Gtype_info@@UAEPAXI@Z   10016de0 f i LIBCMT:typinfo.obj
 0001:00015de0       ??_Etype_info@@UAEPAXI@Z   10016de0 f i LIBCMT:typinfo.obj
 0001:00015dff       ??_L@YGXPAXIHP6EX0@Z1@Z    10016dff f   LIBCMT:ehvecctr.obj
 0001:00015e70       __CIsqrt                   10016e70 f   LIBCMT:sqrt.obj
 0001:00015e84       _sqrt                      10016e84     LIBCMT:sqrt.obj
 0001:00015f30       _asin                      10016f30 f   LIBCMT:asin.obj
 0001:00015f70       __CIasin                   10016f70 f   LIBCMT:asin.obj
 0001:00015fab       __CIasin_default           10016fab f   LIBCMT:asin.obj
 0001:00015fbf       __asin_default             10016fbf     LIBCMT:asin.obj
 0001:00016080       _acos                      10017080 f   LIBCMT:acos.obj
 0001:000160c0       __CIacos                   100170c0 f   LIBCMT:acos.obj
 0001:000160fb       __CIacos_default           100170fb f   LIBCMT:acos.obj
 0001:0001610f       __acos_default             1001710f     LIBCMT:acos.obj
 0001:000161d0       _sin                       100171d0 f   LIBCMT:sin.obj
 0001:00016210       __CIsin                    10017210 f   LIBCMT:sin.obj
 0001:0001624b       __CIsin_default            1001724b f   LIBCMT:sin.obj
 0001:0001625f       __sin_default              1001725f     LIBCMT:sin.obj
 0001:00016300       _cos                       10017300 f   LIBCMT:cos.obj
 0001:00016340       __CIcos                    10017340 f   LIBCMT:cos.obj
 0001:0001637b       __CIcos_default            1001737b f   LIBCMT:cos.obj
 0001:0001638f       __cos_default              1001738f     LIBCMT:cos.obj
 0001:00016430       _tan                       10017430 f   LIBCMT:tan.obj
 0001:00016470       __CItan                    10017470 f   LIBCMT:tan.obj
 0001:000164ab       __CItan_default            100174ab f   LIBCMT:tan.obj
 0001:000164bf       __tan_default              100174bf     LIBCMT:tan.obj
 0001:0001655d       ___crtCorExitProcess       1001755d f   LIBCMT:crt0dat.obj
 0001:00016591       ___crtExitProcess          10017591 f   LIBCMT:crt0dat.obj
 0001:000165a7       ___freeCrtMemory           100175a7 f   LIBCMT:crt0dat.obj
 0001:000166b4       __amsg_exit                100176b4 f   LIBCMT:crt0dat.obj
 0001:000166d0       __cexit                    100176d0 f   LIBCMT:crt0dat.obj
 0001:000166df       __cinit                    100176df f   LIBCMT:crt0dat.obj
 0001:00016763       __exit                     10017763 f   LIBCMT:crt0dat.obj
 0001:00016777       __init_pointers            10017777 f   LIBCMT:crt0dat.obj
 0001:000167e5       __initterm_e               100177e5 f   LIBCMT:crt0dat.obj
 0001:00016807       __lockexit                 10017807 f   LIBCMT:crt0dat.obj
 0001:00016810       __unlockexit               10017810 f   LIBCMT:crt0dat.obj
 0001:00016948       ___initstdio               10017948 f   LIBCMT:_file.obj
 0001:000169bb       ___endstdio                100179bb f   LIBCMT:_file.obj
 0001:000169e2       ___iob_func                100179e2 f   LIBCMT:_file.obj
 0001:000169e8       __lock_file                100179e8 f   LIBCMT:_file.obj
 0001:00016a27       __lock_file2               10017a27 f   LIBCMT:_file.obj
 0001:00016a57       __unlock_file              10017a57 f   LIBCMT:_file.obj
 0001:00016a91       __unlock_file2             10017a91 f   LIBCMT:_file.obj
 0001:00016ac0       _strlen                    10017ac0 f   LIBCMT:strlen.obj
 0001:00016b4b       ??0exception@std@@QAE@ABQBD@Z 10017b4b f   LIBCMT:stdexcpt.obj
 0001:00016b70       ??0exception@std@@QAE@ABQBDH@Z 10017b70 f   LIBCMT:stdexcpt.obj
 0001:00016b8b       ??0exception@std@@QAE@ABV01@@Z 10017b8b f   LIBCMT:stdexcpt.obj
 0001:00016bae       ??1exception@std@@UAE@XZ   10017bae f   LIBCMT:stdexcpt.obj
 0001:00016bb9       ??4exception@std@@QAEAAV01@ABV01@@Z 10017bb9 f   LIBCMT:stdexcpt.obj
 0001:00016bec       ??_Gexception@std@@UAEPAXI@Z 10017bec f i LIBCMT:stdexcpt.obj
 0001:00016bec       ??_Eexception@std@@UAEPAXI@Z 10017bec f i LIBCMT:stdexcpt.obj
 0001:00016c11       ?_Copy_str@exception@std@@AAEXPBD@Z 10017c11 f   LIBCMT:stdexcpt.obj
 0001:00016c4f       ?_Tidy@exception@std@@AAEXXZ 10017c4f f   LIBCMT:stdexcpt.obj
 0001:00016c6b       ?what@exception@std@@UBEPBDXZ 10017c6b f   LIBCMT:stdexcpt.obj
 0001:00016c78       @__security_check_cookie@4 10017c78 f   LIBCMT:secchk.obj
 0001:00016c87       __EH_prolog3_catch         10017c87 f   LIBCMT:ehprolg3.obj
 0001:00016cdc       __fFATN2                   10017cdc     LIBCMT:87triga.obj
 0001:00016d2c       __rtpiby2                  10017d2c     LIBCMT:87triga.obj
 0001:00016d70       __cintrindisp2             10017d70 f   LIBCMT:87cdisp.obj
 0001:00016dae       __cintrindisp1             10017dae f   LIBCMT:87cdisp.obj
 0001:00016deb       __ctrandisp2               10017deb f   LIBCMT:87cdisp.obj
 0001:00016f7a       __ctrandisp1               10017f7a f   LIBCMT:87cdisp.obj
 0001:00016fad       __fload                    10017fad f   LIBCMT:87cdisp.obj
 0001:00016fe9       ___libm_error_support      10017fe9 f   LIBCMT:libm_error.obj
 0001:000172e0       _exp                       100182e0 f   LIBCMT:87ctran.obj
 0001:0001731c       __CIexp                    1001831c f   LIBCMT:87ctran.obj
 0001:00017357       __exp_default              10018357 f   LIBCMT:87ctran.obj
 0001:00017361       __CIexp_default            10018361 f   LIBCMT:87ctran.obj
 0001:0001736b       ??0_LocaleUpdate@@QAE@PAUlocaleinfo_struct@@@Z 1001836b f i LIBCMT:cvt.obj
 0001:000173f3       __cfltcvt                  100183f3 f   LIBCMT:cvt.obj
 0001:00017414       __cfltcvt_l                10018414 f   LIBCMT:cvt.obj
 0001:0001749a       __cftoa_l                  1001849a f   LIBCMT:cvt.obj
 0001:000177f6       __cftoe                    100187f6 f   LIBCMT:cvt.obj
 0001:00017965       __cftoe_l                  10018965 f   LIBCMT:cvt.obj
 0001:00017b1f       __cftof_l                  10018b1f f   LIBCMT:cvt.obj
 0001:00017be0       __cftog_l                  10018be0 f   LIBCMT:cvt.obj
 0001:00017cdf       __cropzeros                10018cdf f   LIBCMT:cvt.obj
 0001:00017cf0       __cropzeros_l              10018cf0 f   LIBCMT:cvt.obj
 0001:00017d70       __fassign                  10018d70 f   LIBCMT:cvt.obj
 0001:00017d88       __fassign_l                10018d88 f   LIBCMT:cvt.obj
 0001:00017dca       __forcdecpt                10018dca f   LIBCMT:cvt.obj
 0001:00017ddb       __forcdecpt_l              10018ddb f   LIBCMT:cvt.obj
 0001:00017e4f       __positive                 10018e4f f   LIBCMT:cvt.obj
 0001:00017e91       __setdefaultprecision      10018e91 f   LIBCMT:fp8.obj
 0001:00017eb8       __initp_misc_cfltcvt_tab   10018eb8 f   LIBCMT:cmiscdat.obj
 0001:00017ed7       __call_reportfault         10018ed7 f   LIBCMT:invarg.obj
 0001:00017ffc       __initp_misc_invarg        10018ffc f   LIBCMT:invarg.obj
 0001:00018009       __invalid_parameter        10019009 f   LIBCMT:invarg.obj
 0001:00018034       __invalid_parameter_noinfo 10019034 f   LIBCMT:invarg.obj
 0001:00018044       __invoke_watson            10019044 f   LIBCMT:invarg.obj
 0001:0001806f       __ftbuf                    1001906f f   LIBCMT:_sftbuf.obj
 0001:000180a0       __stbuf                    100190a0 f   LIBCMT:_sftbuf.obj
 0001:00018146       __output_l                 10019146 f   LIBCMT:output.obj
 0001:00018db2       ___doserrno                10019db2 f   LIBCMT:dosmap.obj
 0001:00018dc5       __dosmaperr                10019dc5 f   LIBCMT:dosmap.obj
 0001:00018de6       __errno                    10019de6 f   LIBCMT:dosmap.obj
 0001:00018df9       __get_errno_from_oserr     10019df9 f   LIBCMT:dosmap.obj
 0001:00018e40       __SEH_prolog4              10019e40 f   LIBCMT:sehprolg4.obj
 0001:00018e85       __SEH_epilog4              10019e85 f   LIBCMT:sehprolg4.obj
 0001:00018ea0       __except_handler4          10019ea0 f   LIBCMT:chandler4.obj
 0001:00019034       __flsbuf                   1001a034 f   LIBCMT:_flsbuf.obj
 0001:00019183       __freefls@4                1001a183 f   LIBCMT:tidtable.obj
 0001:000192b8       __freeptd                  1001a2b8 f   LIBCMT:tidtable.obj
 0001:000192ee       __getptd                   1001a2ee f   LIBCMT:tidtable.obj
 0001:00019306       __getptd_noexit            1001a306 f   LIBCMT:tidtable.obj
 0001:00019375       __initptd                  1001a375 f   LIBCMT:tidtable.obj
 0001:00019428       __mtinit                   1001a428 f   LIBCMT:tidtable.obj
 0001:0001949e       __mtterm                   1001a49e f   LIBCMT:tidtable.obj
 0001:000194bb       __decomp                   1001a4bb f   LIBCMT:util.obj
 0001:0001958d       __set_exp                  1001a58d f   LIBCMT:util.obj
 0001:000195bc       __sptype                   1001a5bc f   LIBCMT:util.obj
 0001:00019617       __handle_exc               1001a617 f   LIBCMT:fpexcept.obj
 0001:000197f5       __raise_exc                1001a7f5 f   LIBCMT:fpexcept.obj
 0001:00019816       __raise_exc_ex             1001a816 f   LIBCMT:fpexcept.obj
 0001:00019afb       __set_errno_from_matherr   1001aafb f   LIBCMT:fpexcept.obj
 0001:00019b28       ___set_fpsr_sse2           1001ab28 f   LIBCMT:fpctrl.obj
 0001:00019b9e       __clrfp                    1001ab9e f   LIBCMT:fpctrl.obj
 0001:00019baf       __ctrlfp                   1001abaf f   LIBCMT:fpctrl.obj
 0001:00019bda       __set_statfp               1001abda f   LIBCMT:fpctrl.obj
 0001:00019c32       __statfp                   1001ac32 f   LIBCMT:fpctrl.obj
 0001:00019c42       __VEC_memset               1001ac42 f   LIBCMT:p4_memset.obj
 0001:00019d0a       ___isa_available_init      1001ad0a f   LIBCMT:cpu_disp.obj
 0001:00019e90       _atan                      1001ae90 f   LIBCMT:atan.obj
 0001:00019ed0       __CIatan                   1001aed0 f   LIBCMT:atan.obj
 0001:00019f0b       __CIatan_default           1001af0b f   LIBCMT:atan.obj
 0001:00019f1f       __atan_default             1001af1f     LIBCMT:atan.obj
 0001:00019fb0       _log                       1001afb0 f   LIBCMT:log.obj
 0001:00019ff0       __CIlog                    1001aff0 f   LIBCMT:log.obj
 0001:0001a02b       __CIlog_default            1001b02b f   LIBCMT:log.obj
 0001:0001a03f       __log_default              1001b03f     LIBCMT:log.obj
 0001:0001a100       __XcptFilter               1001b100 f   LIBCMT:winxfltr.obj
 0001:0001a25b       ___CppXcptFilter           1001b25b f   LIBCMT:winxfltr.obj
 0001:0001a279       __heap_init                1001b279 f   LIBCMT:heapinit.obj
 0001:0001a28e       __heap_term                1001b28e f   LIBCMT:heapinit.obj
 0001:0001a296       __ioinit                   1001b296 f   LIBCMT:ioinit.obj
 0001:0001a54a       __ioterm                   1001b54a f   LIBCMT:ioinit.obj
 0001:0001a59c       __setargv                  1001b59c f   LIBCMT:stdargv.obj
 0001:0001a7cb       __setenvp                  1001b7cb f   LIBCMT:stdenvp.obj
 0001:0001a8ac       _free                      1001b8ac f   LIBCMT:free.obj
 0001:0001a8e4       ___security_init_cookie    1001b8e4 f   LIBCMT:gs_support.obj
 0001:0001a980       _DllMain@12                1001b980 f   LIBCMT:dllmain.obj
 0001:0001a986       ___crtGetEnvironmentStringsA 1001b986 f   LIBCMT:a_env.obj
 0001:0001aa13       ___crtFlsAlloc             1001ba13 f   LIBCMT:winapisupp.obj
 0001:0001aa31       ___crtFlsFree              1001ba31 f   LIBCMT:winapisupp.obj
 0001:0001aa50       ___crtFlsGetValue          1001ba50 f   LIBCMT:winapisupp.obj
 0001:0001aa6f       ___crtFlsSetValue          1001ba6f f   LIBCMT:winapisupp.obj
 0001:0001aa91       ___crtInitializeCriticalSectionEx 1001ba91 f   LIBCMT:winapisupp.obj
 0001:0001aabf       ___crtIsPackagedApp        1001babf f   LIBCMT:winapisupp.obj
 0001:0001aaff       ___crtLoadWinApiPointers   1001baff f   LIBCMT:winapisupp.obj
 0001:0001ad8a       ___crtSleep                1001bd8a f   LIBCMT:winapisupp.obj
 0001:0001ad98       ___crtTerminateProcess     1001bd98 f   LIBCMT:winapisupp.obj
 0001:0001adad       ___crtUnhandledException   1001bdad f   LIBCMT:winapisupp.obj
 0001:0001adc3       __calloc_crt               1001bdc3 f   LIBCMT:crtheap.obj
 0001:0001ae0b       __malloc_crt               1001be0b f   LIBCMT:crtheap.obj
 0001:0001ae52       __realloc_crt              1001be52 f   LIBCMT:crtheap.obj
 0001:0001ae9c       __RTC_Initialize           1001be9c f   LIBCMT:initsect.obj
 0001:0001aebc       __RTC_Terminate            1001bebc f   LIBCMT:initsect.obj
 0001:0001aedc       ?_inconsistency@@YAXXZ     1001bedc f   LIBCMT:hooks.obj
 0001:0001af14       ?terminate@@YAXXZ          1001bf14 f   LIBCMT:hooks.obj
 0001:0001af48       ?unexpected@@YAXXZ         1001bf48 f   LIBCMT:hooks.obj
 0001:0001af5b       __initp_eh_hooks           1001bf5b f   LIBCMT:hooks.obj
 0001:0001af6c       __set_abort_behavior       1001bf6c f   LIBCMT:abort.obj
 0001:0001af8b       _abort                     1001bf8b f   LIBCMT:abort.obj
 0001:0001afce       __initp_misc_purevirt      1001bfce f   LIBCMT:inithelp.obj
 0001:0001afdb       _malloc                    1001bfdb f   LIBCMT:malloc.obj
 0001:0001b06d       __callnewh                 1001c06d f   LIBCMT:handler.obj
 0001:0001b093       __initp_heap_handler       1001c093 f   LIBCMT:handler.obj
 0001:0001b0a0       __msize                    1001c0a0 f   LIBCMT:msize.obj
 0001:0001b0e0       __CallSettingFrame@12      1001c0e0 f   LIBCMT:lowhelpr.obj
 0001:0001b107       __NLG_Return               1001c107     LIBCMT:lowhelpr.obj
 0001:0001b12c       ___DestructExceptionObject 1001c12c f   LIBCMT:frame.obj
 0001:0001b1b7       ??0bad_exception@std@@QAE@ABV01@@Z 1001c1b7 f i LIBCMT:frame.obj
 0001:0001b1d2       ??1bad_exception@std@@UAE@XZ 1001c1d2 f i LIBCMT:frame.obj
 0001:0001b1dd       ??_Ebad_exception@std@@UAEPAXI@Z 1001c1dd f i LIBCMT:frame.obj
 0001:0001b1dd       ??_Gbad_exception@std@@UAEPAXI@Z 1001c1dd f i LIBCMT:frame.obj
 0001:0001ba11       ___AdjustPointer           1001ca11 f   LIBCMT:frame.obj
 0001:0001ba36       ___BuildCatchObject        1001ca36 f   LIBCMT:frame.obj
 0001:0001bac4       ___BuildCatchObjectHelper  1001cac4 f   LIBCMT:frame.obj
 0001:0001bc86       ___FrameUnwindFilter       1001cc86 f   LIBCMT:frame.obj
 0001:0001bcd4       ___FrameUnwindToState      1001ccd4 f   LIBCMT:frame.obj
 0001:0001bdad       ___InternalCxxFrameHandler 1001cdad f   LIBCMT:frame.obj
 0001:0001be8e       ___TypeMatch               1001ce8e f   LIBCMT:frame.obj
 0001:0001bf00       _strcmp                    1001cf00 f   LIBCMT:strcmp.obj
 0001:0001bf8c       ?_Type_info_dtor@type_info@@CAXPAV1@@Z 1001cf8c f   LIBCMT:typname.obj
 0001:0001c000       __trandisp1                1001d000 f   LIBCMT:87disp.obj
 0001:0001c067       __trandisp2                1001d067 f   LIBCMT:87disp.obj
 0001:0001c0f3       __rttospopde               1001d0f3     LIBCMT:87disp.obj
 0001:0001c0f8       __rttospop                 1001d0f8     LIBCMT:87disp.obj
 0001:0001c0fa       __rtnospop                 1001d0fa     LIBCMT:87disp.obj
 0001:0001c0fc       __rttosnpop                1001d0fc     LIBCMT:87disp.obj
 0001:0001c0fd       __rtnospopde               1001d0fd     LIBCMT:87disp.obj
 0001:0001c104       __rtzeropop                1001d104     LIBCMT:87disp.obj
 0001:0001c106       __rtzeronpop               1001d106     LIBCMT:87disp.obj
 0001:0001c10b       __rtonepop                 1001d10b     LIBCMT:87disp.obj
 0001:0001c10d       __rtonenpop                1001d10d     LIBCMT:87disp.obj
 0001:0001c112       __tosnan1                  1001d112     LIBCMT:87disp.obj
 0001:0001c13d       __nosnan2                  1001d13d     LIBCMT:87disp.obj
 0001:0001c13f       __tosnan2                  1001d13f     LIBCMT:87disp.obj
 0001:0001c167       __nan2                     1001d167     LIBCMT:87disp.obj
 0001:0001c1a6       __rtindfpop                1001d1a6     LIBCMT:87disp.obj
 0001:0001c1a8       __rtindfnpop               1001d1a8     LIBCMT:87disp.obj
 0001:0001c1b9       __rttosnpopde              1001d1b9     LIBCMT:87disp.obj
 0001:0001c1c3       __rtchsifneg               1001d1c3     LIBCMT:87disp.obj
 0001:0001c1d0       __startTwoArgErrorHandling 1001d1d0 f   LIBCMT:genexcep.obj
 0001:0001c1e7       __startOneArgErrorHandling 1001d1e7 f   LIBCMT:genexcep.obj
 0001:0001c230       __twoToTOS                 1001d230 f   LIBCMT:common.obj
 0001:0001c245       __load_CW                  1001d245 f   LIBCMT:common.obj
 0001:0001c25c       __convertTOStoQNaN         1001d25c f   LIBCMT:common.obj
 0001:0001c275       __fload_withFB             1001d275 f   LIBCMT:common.obj
 0001:0001c2b8       __checkTOS_withFB          1001d2b8 f   LIBCMT:common.obj
 0001:0001c2ce       __fast_exit                1001d2ce f   LIBCMT:common.obj
 0001:0001c2db       __math_exit                1001d2db f   LIBCMT:common.obj
 0001:0001c305       __check_overflow_exit      1001d305 f   LIBCMT:common.obj
 0001:0001c319       __check_range_exit         1001d319 f   LIBCMT:common.obj
 0001:0001c3bc       __sse2_mathfcns_init       1001d3bc f   LIBCMT:mathfcns.obj
 0001:0001c3d0       __CIasin_pentium4          1001d3d0 f   LIBCMT:asin_pentium4.obj
 0001:0001c3e8       __asin_pentium4            1001d3e8     LIBCMT:asin_pentium4.obj
 0001:0001c950       __CIacos_pentium4          1001d950 f   LIBCMT:acos_pentium4.obj
 0001:0001c968       __acos_pentium4            1001d968     LIBCMT:acos_pentium4.obj
 0001:0001ceb0       __CIsin_pentium4           1001deb0 f   LIBCMT:sin_pentium4.obj
 0001:0001cec8       __sin_pentium4             1001dec8     LIBCMT:sin_pentium4.obj
 0001:0001d080       __CIcos_pentium4           1001e080 f   LIBCMT:cos_pentium4.obj
 0001:0001d098       __cos_pentium4             1001e098     LIBCMT:cos_pentium4.obj
 0001:0001d230       __CItan_pentium4           1001e230 f   LIBCMT:tan_pentium4.obj
 0001:0001d248       __tan_pentium4             1001e248     LIBCMT:tan_pentium4.obj
 0001:0001d490       __lock                     1001e490 f   LIBCMT:mlock.obj
 0001:0001d4c4       __mtdeletelocks            1001e4c4 f   LIBCMT:mlock.obj
 0001:0001d518       __mtinitlocknum            1001e518 f   LIBCMT:mlock.obj
 0001:0001d5c1       __mtinitlocks              1001e5c1 f   LIBCMT:mlock.obj
 0001:0001d5fa       __unlock                   1001e5fa f   LIBCMT:mlock.obj
 0001:0001d60f       __FF_MSGBANNER             1001e60f f   LIBCMT:crt0msg.obj
 0001:0001d648       __GET_RTERRMSG             1001e648 f   LIBCMT:crt0msg.obj
 0001:0001d66c       __NMSG_WRITE               1001e66c f   LIBCMT:crt0msg.obj
 0001:0001d830       __FindPESection            1001e830 f   LIBCMT:pesect.obj
 0001:0001d880       __IsNonwritableInCurrentImage 1001e880 f   LIBCMT:pesect.obj
 0001:0001d940       __ValidateImageBase        1001e940 f   LIBCMT:pesect.obj
 0001:0001d971       ___get_sigabrt             1001e971 f   LIBCMT:winsig.obj
 0001:0001d97e       __initp_misc_winsig        1001e97e f   LIBCMT:winsig.obj
 0001:0001d99a       _raise                     1001e99a f   LIBCMT:winsig.obj
 0001:0001db8f       __initp_misc_rand_s        1001eb8f f   LIBCMT:rand_s.obj
 0001:0001db9c       ___initmbctable            1001eb9c f   LIBCMT:mbctype.obj
 0001:0001de53       ___updatetmbcinfo          1001ee53 f   LIBCMT:mbctype.obj
 0001:0001def9       __setmbcp                  1001eef9 f   LIBCMT:mbctype.obj
 0001:0001e0a1       __setmbcp_nolock           1001f0a1 f   LIBCMT:mbctype.obj
 0001:0001e28c       __fileno                   1001f28c f   LIBCMT:fileno.obj
 0001:0001e2b0       __fcloseall                1001f2b0 f   LIBCMT:closeall.obj
 0001:0001e34d       __fflush_nolock            1001f34d f   LIBCMT:fflush.obj
 0001:0001e393       __flush                    1001f393 f   LIBCMT:fflush.obj
 0001:0001e3f7       __flushall                 1001f3f7 f   LIBCMT:fflush.obj
 0001:0001e4e4       _strcpy_s                  1001f4e4 f   LIBCMT:strcpy_s.obj
 0001:0001e539       ___raise_securityfailure   1001f539 f   LIBCMT:gs_report.obj
 0001:0001e576       ___report_gsfailure        1001f576 f   LIBCMT:gs_report.obj
 0001:0001e671       __87except                 1001f671 f   LIBCMT:87except.obj
 0001:0001e780       __CIexp_pentium4           1001f780 f   LIBCMT:exp_pentium4.obj
 0001:0001e798       __exp_pentium4             1001f798     LIBCMT:exp_pentium4.obj
 0001:0001ea51       __fFEXP                    1001fa51     LIBCMT:87tran.obj
 0001:0001eaa8       __rtinfpopse               1001faa8     LIBCMT:87tran.obj
 0001:0001eaaa       __rtinfnpopse              1001faaa     LIBCMT:87tran.obj
 0001:0001eaba       __fFLN                     1001faba     LIBCMT:87tran.obj
 0001:0001eb6f       __rtinfpop                 1001fb6f     LIBCMT:87tran.obj
 0001:0001eb71       __rtinfnpop                1001fb71     LIBCMT:87tran.obj
 0001:0001eb8e       __ffexpm1                  1001fb8e     LIBCMT:87tran.obj
 0001:0001ec37       ___addlocaleref            1001fc37 f   LIBCMT:localref.obj
 0001:0001eccc       ___freetlocinfo            1001fccc f   LIBCMT:localref.obj
 0001:0001ee26       ___removelocaleref         1001fe26 f   LIBCMT:localref.obj
 0001:0001eec6       ___updatetlocinfo          1001fec6 f   LIBCMT:localref.obj
 0001:0001ef46       __updatetlocinfoEx_nolock  1001ff46 f   LIBCMT:localref.obj
 0001:0001ef91       __isdigit_l                1001ff91 f i LIBCMT:_ctype.obj
 0001:0001efe3       _isdigit                   1001ffe3 f i LIBCMT:_ctype.obj
 0001:0001f00e       __tolower_l                1002000e f   LIBCMT:tolower.obj
 0001:0001f151       _tolower                   10020151 f   LIBCMT:tolower.obj
 0001:0001f180       _strrchr                   10020180 f   LIBCMT:strrchr.obj
 0001:0001f2b7       __fptostr                  100202b7 f   LIBCMT:_fptostr.obj
 0001:0001f367       ___crt_atoflt_l            10020367 f   LIBCMT:atodbl.obj
 0001:0001f40b       __atodbl_l                 1002040b f   LIBCMT:atodbl.obj
 0001:0001f499       __atoflt_l                 10020499 f   LIBCMT:atodbl.obj
 0001:0001f4b1       ___dtold                   100204b1 f   LIBCMT:cfout.obj
 0001:0001f579       __fltout2                  10020579 f   LIBCMT:cfout.obj
 0001:0001f610       __alldvrm                  10020610 f   LIBCMT:lldvrm.obj
 0001:0001f6f0       __aullshr                  100206f0 f   LIBCMT:ullshr.obj
 0001:0001f70f       __controlfp_s              1002070f f   LIBCMT:contrlfp.obj
 0001:0001f76c       __fptrap                   1002076c f   LIBCMT:crt0fp.obj
 0001:0001f775       __crt_debugger_hook        10020775 f   LIBCMT:dbghook.obj
 0001:0001f77d       __isatty                   1002077d f   LIBCMT:isatty.obj
 0001:0001f7d1       __isleadbyte_l             100207d1 f i LIBCMT:_wctype.obj
 0001:0001f80b       _isleadbyte                1002080b f i LIBCMT:_wctype.obj
 0001:0001f81c       __wctomb_s_l               1002081c f   LIBCMT:wctomb.obj
 0001:0001f940       _wctomb_s                  10020940 f   LIBCMT:wctomb.obj
 0001:0001f960       __aulldvrm                 10020960 f   LIBCMT:ulldvrm.obj
 0001:0001fa00       __local_unwind4            10020a00 f   LIBCMT:exsup4.obj
 0001:0001fad6       __seh_longjmp_unwind4@4    10020ad6 f   LIBCMT:exsup4.obj
 0001:0001faf2       @_EH4_CallFilterFunc@8     10020af2 f   LIBCMT:exsup4.obj
 0001:0001fb09       @_EH4_TransferToHandler@8  10020b09 f   LIBCMT:exsup4.obj
 0001:0001fb22       @_EH4_GlobalUnwind2@8      10020b22 f   LIBCMT:exsup4.obj
 0001:0001fb3b       @_EH4_LocalUnwind@16       10020b3b f   LIBCMT:exsup4.obj
 0001:0001fb52       __write                    10020b52 f   LIBCMT:write.obj
 0001:0001fc41       __write_nolock             10020c41 f   LIBCMT:write.obj
 0001:000204a6       __lseeki64                 100214a6 f   LIBCMT:lseeki64.obj
 0001:000205a2       __lseeki64_nolock          100215a2 f   LIBCMT:lseeki64.obj
 0001:00020615       __getbuf                   10021615 f   LIBCMT:_getbuf.obj
 0001:00020660       __CIatan_pentium4          10021660 f   LIBCMT:atan_pentium4.obj
 0001:00020678       __atan_pentium4            10021678     LIBCMT:atan_pentium4.obj
 0001:00020950       __CIlog_pentium4           10021950 f   LIBCMT:log_pentium4.obj
 0001:00020968       __log_pentium4             10021968     LIBCMT:log_pentium4.obj
 0001:00020c1a       __ismbblead                10021c1a f   LIBCMT:ismbbyte.obj
 0001:00020c30       _realloc                   10021c30 f   LIBCMT:realloc.obj
 0001:00020cdb       __calloc_impl              10021cdb f   LIBCMT:calloc_impl.obj
 0001:00020d55       __freea                    10021d55 f i LIBCMT:a_loc.obj
 0001:00020d73       _GetTableIndexFromLocaleName 10021d73 f   LIBCMT:winapinls.obj
 0001:00020dc1       ___crtDownlevelLocaleNameToLCID 10021dc1 f   LIBCMT:winapinls.obj
 0001:00020deb       ___crtLCMapStringEx        10021deb f   LIBCMT:winapinls.obj
 0001:00020e37       ___wcsnicmp_ascii          10021e37 f   LIBCMT:winapinls.obj
 0001:00020eb0       __global_unwind2           10021eb0 f   LIBCMT:exsup.obj
 0001:00020f15       __local_unwind2            10021f15 f   LIBCMT:exsup.obj
 0001:00020f99       __abnormal_termination     10021f99 f   LIBCMT:exsup.obj
 0001:00020fbc       __NLG_Notify1              10021fbc f   LIBCMT:exsup.obj
 0001:00020fc5       __NLG_Notify               10021fc5 f   LIBCMT:exsup.obj
 0001:00020fdc       __NLG_Dispatch2            10021fdc     LIBCMT:exsup.obj
 0001:00020fdc       __NLG_Dispatch             10021fdc     LIBCMT:exsup.obj
 0001:00020fe4       __NLG_Call                 10021fe4 f   LIBCMT:exsup.obj
 0001:00020fe6       __NLG_Return2              10021fe6     LIBCMT:exsup.obj
 0001:00020fe7       ?_ValidateWrite@@YAHPAXI@Z 10021fe7 f   LIBCMT:validate.obj
 0001:00020fe7       ?_ValidateRead@@YAHPBXI@Z  10021fe7 f   LIBCMT:validate.obj
 0001:00020fe7       ?_ValidateExecute@@YAHP6GHXZ@Z 10021fe7 f   LIBCMT:validate.obj
 0001:00020ff6       _wcscat_s                  10021ff6 f   LIBCMT:wcscat_s.obj
 0001:00021062       _wcscpy_s                  10022062 f   LIBCMT:wcscpy_s.obj
 0001:000210be       _wcslen                    100220be f   LIBCMT:wcslen.obj
 0001:000210d7       _wcsncpy_s                 100220d7 f   LIBCMT:wcsncpy_s.obj
 0001:00021195       __set_error_mode           10022195 f   LIBCMT:errmode.obj
 0001:000211d5       ___crtMessageBoxW          100221d5 f   LIBCMT:crtmboxw.obj
 0001:000215bf       ___crtLCMapStringA         100225bf f   LIBCMT:a_map.obj
 0001:000216fd       ___crtGetStringTypeA       100226fd f   LIBCMT:a_str.obj
 0001:0002173d       __fclose_nolock            1002273d f   LIBCMT:fclose.obj
 0001:000217a9       _fclose                    100227a9 f   LIBCMT:fclose.obj
 0001:00021820       __commit                   10022820 f   LIBCMT:commit.obj
 0001:00021909       __d_inttype                10022909 f   LIBCMT:powhlp.obj
 0001:00021971       __powhlp                   10022971 f   LIBCMT:powhlp.obj
 0001:00021aa7       ___free_lconv_mon          10022aa7 f   LIBCMT:initmon.obj
 0001:00021ba3       ___free_lconv_num          10022ba3 f   LIBCMT:initnum.obj
 0001:00021c0a       ___free_lc_time            10022c0a f   LIBCMT:inittime.obj
 0001:00021f8a       __isctype_l                10022f8a f   LIBCMT:isctype.obj
 0001:0002203b       __locterm                  1002303b f   LIBCMT:wsetloca.obj
 0001:0002208d       __ld12tod                  1002308d f   LIBCMT:intrncvt.obj
 0001:000225ff       __ld12tof                  100235ff f   LIBCMT:intrncvt.obj
 0001:00022b71       ___strgtold12_l            10023b71 f   LIBCMT:strgtold.obj
 0001:00023319       _$I10_OUTPUT               10024319 f   LIBCMT:x10fout.obj
 0001:00023d96       __control87                10024d96 f i LIBCMT:ieee87.obj
 0001:0002412f       ___lock_fhandle            1002512f f   LIBCMT:osfinfo.obj
 0001:000241bd       __free_osfhnd              100251bd f   LIBCMT:osfinfo.obj
 0001:00024243       __get_osfhandle            10025243 f   LIBCMT:osfinfo.obj
 0001:000242aa       __unlock_fhandle           100252aa f   LIBCMT:osfinfo.obj
 0001:000242d0       __mbtowc_l                 100252d0 f   LIBCMT:mbtowc.obj
 0001:000243c5       _mbtowc                    100253c5 f   LIBCMT:mbtowc.obj
 0001:000243dd       __putwch_nolock            100253dd f   LIBCMT:putwch.obj
 0001:00024420       __alloca_probe             10025420 f   LIBCMT:chkstk.obj
 0001:00024420       __chkstk                   10025420 f   LIBCMT:chkstk.obj
 0001:00024450       __alloca_probe_16          10025450 f   LIBCMT:alloca16.obj
 0001:00024466       __alloca_probe_8           10025466     LIBCMT:alloca16.obj
 0001:0002447c       __close                    1002547c f   LIBCMT:close.obj
 0001:00024557       __close_nolock             10025557 f   LIBCMT:close.obj
 0001:000245f1       __freebuf                  100255f1 f   LIBCMT:_freebuf.obj
 0001:00024621       __frnd                     10025621 f   LIBCMT:frnd.obj
 0001:00024635       ___mtold12                 10025635 f   LIBCMT:mantold.obj
 0001:00024815       ___termconout              10025815 f   LIBCMT:initcon.obj
 0001:0002482c       ___initconout              1002582c f   LIBCMT:initcon.obj
 0001:00024850       __allmul                   10025850 f   LIBCMT:llmul.obj
 0001:00024890       _RtlUnwind@16              10025890 f   kernel32:KERNEL32.dll
 0001:00024896       _IsProcessorFeaturePresent@4 10025896 f   kernel32:KERNEL32.dll
 0002:00000000       __imp__UnhandledExceptionFilter@4 10026000     kernel32:KERNEL32.dll
 0002:00000004       __imp__CreateFileW@28      10026004     kernel32:KERNEL32.dll
 0002:00000008       __imp__CloseHandle@4       10026008     kernel32:KERNEL32.dll
 0002:0000000c       __imp__WriteConsoleW@20    1002600c     kernel32:KERNEL32.dll
 0002:00000010       __imp__SetStdHandle@8      10026010     kernel32:KERNEL32.dll
 0002:00000014       __imp__FlushFileBuffers@4  10026014     kernel32:KERNEL32.dll
 0002:00000018       __imp__GetStringTypeW@16   10026018     kernel32:KERNEL32.dll
 0002:0000001c       __imp__OutputDebugStringW@4 1002601c     kernel32:KERNEL32.dll
 0002:00000020       __imp__LCMapStringW@24     10026020     kernel32:KERNEL32.dll
 0002:00000024       __imp__GetCommandLineA@0   10026024     kernel32:KERNEL32.dll
 0002:00000028       __imp__GetCurrentThreadId@0 10026028     kernel32:KERNEL32.dll
 0002:0000002c       __imp__EncodePointer@4     1002602c     kernel32:KERNEL32.dll
 0002:00000030       __imp__DecodePointer@4     10026030     kernel32:KERNEL32.dll
 0002:00000034       __imp__RaiseException@16   10026034     kernel32:KERNEL32.dll
 0002:00000038       __imp__RtlUnwind@16        10026038     kernel32:KERNEL32.dll
 0002:0000003c       __imp__GetLastError@0      1002603c     kernel32:KERNEL32.dll
 0002:00000040       __imp__ExitProcess@4       10026040     kernel32:KERNEL32.dll
 0002:00000044       __imp__GetModuleHandleExW@12 10026044     kernel32:KERNEL32.dll
 0002:00000048       __imp__GetProcAddress@8    10026048     kernel32:KERNEL32.dll
 0002:0000004c       __imp__MultiByteToWideChar@24 1002604c     kernel32:KERNEL32.dll
 0002:00000050       __imp__WideCharToMultiByte@32 10026050     kernel32:KERNEL32.dll
 0002:00000054       __imp__EnterCriticalSection@4 10026054     kernel32:KERNEL32.dll
 0002:00000058       __imp__LeaveCriticalSection@4 10026058     kernel32:KERNEL32.dll
 0002:0000005c       __imp__IsDebuggerPresent@0 1002605c     kernel32:KERNEL32.dll
 0002:00000060       __imp__IsProcessorFeaturePresent@4 10026060     kernel32:KERNEL32.dll
 0002:00000064       __imp__SetLastError@4      10026064     kernel32:KERNEL32.dll
 0002:00000068       __imp__GetProcessHeap@0    10026068     kernel32:KERNEL32.dll
 0002:0000006c       __imp__GetStdHandle@4      1002606c     kernel32:KERNEL32.dll
 0002:00000070       __imp__GetFileType@4       10026070     kernel32:KERNEL32.dll
 0002:00000074       __imp__DeleteCriticalSection@4 10026074     kernel32:KERNEL32.dll
 0002:00000078       __imp__GetStartupInfoW@4   10026078     kernel32:KERNEL32.dll
 0002:0000007c       __imp__GetModuleFileNameA@12 1002607c     kernel32:KERNEL32.dll
 0002:00000080       __imp__HeapFree@12         10026080     kernel32:KERNEL32.dll
 0002:00000084       __imp__QueryPerformanceCounter@4 10026084     kernel32:KERNEL32.dll
 0002:00000088       __imp__GetCurrentProcessId@0 10026088     kernel32:KERNEL32.dll
 0002:0000008c       __imp__GetSystemTimeAsFileTime@4 1002608c     kernel32:KERNEL32.dll
 0002:00000090       __imp__GetEnvironmentStringsW@0 10026090     kernel32:KERNEL32.dll
 0002:00000094       __imp__FreeEnvironmentStringsW@4 10026094     kernel32:KERNEL32.dll
 0002:00000098       __imp__SetUnhandledExceptionFilter@4 10026098     kernel32:KERNEL32.dll
 0002:0000009c       __imp__InitializeCriticalSectionAndSpinCount@8 1002609c     kernel32:KERNEL32.dll
 0002:000000a0       __imp__Sleep@4             100260a0     kernel32:KERNEL32.dll
 0002:000000a4       __imp__GetCurrentProcess@0 100260a4     kernel32:KERNEL32.dll
 0002:000000a8       __imp__TerminateProcess@8  100260a8     kernel32:KERNEL32.dll
 0002:000000ac       __imp__TlsAlloc@0          100260ac     kernel32:KERNEL32.dll
 0002:000000b0       __imp__TlsGetValue@4       100260b0     kernel32:KERNEL32.dll
 0002:000000b4       __imp__TlsSetValue@8       100260b4     kernel32:KERNEL32.dll
 0002:000000b8       __imp__TlsFree@4           100260b8     kernel32:KERNEL32.dll
 0002:000000bc       __imp__GetModuleHandleW@4  100260bc     kernel32:KERNEL32.dll
 0002:000000c0       __imp__HeapAlloc@12        100260c0     kernel32:KERNEL32.dll
 0002:000000c4       __imp__HeapSize@12         100260c4     kernel32:KERNEL32.dll
 0002:000000c8       __imp__WriteFile@20        100260c8     kernel32:KERNEL32.dll
 0002:000000cc       __imp__GetModuleFileNameW@12 100260cc     kernel32:KERNEL32.dll
 0002:000000d0       __imp__LoadLibraryExW@12   100260d0     kernel32:KERNEL32.dll
 0002:000000d4       __imp__IsValidCodePage@4   100260d4     kernel32:KERNEL32.dll
 0002:000000d8       __imp__GetACP@0            100260d8     kernel32:KERNEL32.dll
 0002:000000dc       __imp__GetOEMCP@0          100260dc     kernel32:KERNEL32.dll
 0002:000000e0       __imp__GetCPInfo@8         100260e0     kernel32:KERNEL32.dll
 0002:000000e4       __imp__GetConsoleCP@0      100260e4     kernel32:KERNEL32.dll
 0002:000000e8       __imp__GetConsoleMode@8    100260e8     kernel32:KERNEL32.dll
 0002:000000ec       __imp__SetFilePointerEx@20 100260ec     kernel32:KERNEL32.dll
 0002:000000f0       __imp__HeapReAlloc@16      100260f0     kernel32:KERNEL32.dll
 0002:000000f4       \177KERNEL32_NULL_THUNK_DATA 100260f4     kernel32:KERNEL32.dll
 0002:000000f8       __imp_?RtTrackSideTgAngleL@@YAMPAUtTrkLocPos@@@Z 100260f8     robottools:robottools.dll
 0002:000000fc       __imp_?RtTrackHeightL@@YAMPAUtTrkLocPos@@@Z 100260fc     robottools:robottools.dll
 0002:00000100       __imp_?RtTrackLocal2Global@@YAXPAUtTrkLocPos@@PAM1H@Z 10026100     robottools:robottools.dll
 0002:00000104       __imp_?RtTrackSurfaceNormalL@@YAXPAUtTrkLocPos@@PAUt3Dd@@@Z 10026104     robottools:robottools.dll
 0002:00000108       __imp_?RtTrackGlobal2Local@@YAXPAUtrackSeg@@MMPAUtTrkLocPos@@H@Z 10026108     robottools:robottools.dll
 0002:0000010c       \177robottools_NULL_THUNK_DATA 1002610c     robottools:robottools.dll
 0002:00000110       __imp_?_tgf_win_strdup@@YAPADPBD@Z 10026110     tgf:tgf.dll
 0002:00000114       __imp_?_tgf_win_calloc@@YAPAXII@Z 10026114     tgf:tgf.dll
 0002:00000118       __imp_?GfParmGetEltNb@@YAHPAXPBD@Z 10026118     tgf:tgf.dll
 0002:0000011c       __imp_?_tgf_win_free@@YAXPAX@Z 1002611c     tgf:tgf.dll
 0002:00000120       __imp_?_tgf_win_malloc@@YAPAXI@Z 10026120     tgf:tgf.dll
 0002:00000124       __imp_?GfParmGetStr@@YAPBDPAXPBD11@Z 10026124     tgf:tgf.dll
 0002:00000128       __imp_?GfParmGetNum@@YAMPAXPBD11M@Z 10026128     tgf:tgf.dll
 0002:0000012c       \177tgf_NULL_THUNK_DATA    1002612c     tgf:tgf.dll
 0002:00000130       ___xc_a                    10026130     LIBCMT:crt0init.obj
 0002:00000170       ___xc_z                    10026170     LIBCMT:crt0init.obj
 0002:00000174       ___xi_a                    10026174     LIBCMT:crt0init.obj
 0002:0000018c       ___xi_z                    1002618c     LIBCMT:crt0init.obj
 0002:00000190       ___xp_a                    10026190     LIBCMT:crt0init.obj
 0002:000001a0       ___xp_z                    100261a0     LIBCMT:crt0init.obj
 0002:000001a4       ___xt_a                    100261a4     LIBCMT:crt0init.obj
 0002:000001a8       ___xt_z                    100261a8     LIBCMT:crt0init.obj
 0002:000001bc       ??_C@_0L@KFOBHFPA@Front?5Wing?$AA@ 100261bc     aero.obj
 0002:000001c8       ??_C@_09HDJCNBBO@Rear?5Wing?$AA@ 100261c8     aero.obj
 0002:000001d4       ??_C@_02JFIEOGIK@Cx?$AA@   100261d4     aero.obj
 0002:000001d8       ??_C@_0N@GFHNLLOJ@Aerodynamics?$AA@ 100261d8     aero.obj
 0002:000001e8       ??_C@_0L@NAALCPPI@front?5area?$AA@ 100261e8     aero.obj
 0002:000001f4       ??_C@_0M@CCMIOJBA@front?5Clift?$AA@ 100261f4     aero.obj
 0002:00000200       ??_C@_0L@PLABABOE@rear?5Clift?$AA@ 10026200     aero.obj
 0002:0000020c       ??_C@_04GOEDGNCF@area?$AA@ 1002620c     aero.obj
 0002:00000214       ??_C@_05FECBCJJD@angle?$AA@ 10026214     aero.obj
 0002:0000021c       ??_C@_04NMNJKFFI@xpos?$AA@ 1002621c     aero.obj
 0002:00000224       ??_C@_04KGBJPGDI@zpos?$AA@ 10026224     aero.obj
 0002:0000022c       __real@3e0ef34d            1002622c     aero.obj
 0002:00000230       __real@3e19999a            10026230     aero.obj
 0002:00000234       __real@3f251eb8            10026234     aero.obj
 0002:00000238       __real@3f800000            10026238     aero.obj
 0002:0000023c       __real@3fc00000            1002623c     aero.obj
 0002:00000240       __real@3ff0000000000000    10026240     aero.obj
 0002:00000248       __real@40000000            10026248     aero.obj
 0002:00000250       __real@400921fb54442d18    10026250     aero.obj
 0002:00000258       __real@401921fb54442d18    10026258     aero.obj
 0002:00000260       __real@403de4f7            10026260     aero.obj
 0002:00000264       __real@40800000            10026264     aero.obj
 0002:00000268       __real@41200000            10026268     aero.obj
 0002:0000026c       __real@461c4000            1002626c     aero.obj
 0002:00000270       __real@bf9d70a4            10026270     aero.obj
 0002:00000278       __real@bff0000000000000    10026278     aero.obj
 0002:00000280       __real@c0000000            10026280     aero.obj
 0002:00000288       __real@c00921fb54442d18    10026288     aero.obj
 0002:00000290       __real@c0400000            10026290     aero.obj
 0002:00000294       __real@c1000000            10026294     aero.obj
 0002:000002a0       __xmm@7fffffffffffffff7fffffffffffffff 100262a0     aero.obj
 0002:000002b0       __xmm@80000000000000008000000000000000 100262b0     aero.obj
 0002:000002c0       __xmm@80000000800000008000000080000000 100262c0     aero.obj
 0002:000002d4       ??_C@_0L@JDFGJBME@Front?5Axle?$AA@ 100262d4     axle.obj
 0002:000002e0       ??_C@_09EFCFDFCK@Rear?5Axle?$AA@ 100262e0     axle.obj
 0002:000002ec       ??_C@_07IKGGBMHK@inertia?$AA@ 100262ec     axle.obj
 0002:000002f4       ??_C@_0BD@GLFDNJIP@roll?5center?5height?$AA@ 100262f4     axle.obj
 0002:00000308       ??_C@_0BE@LBDGJBGP@Front?5Anti?9Roll?5Bar?$AA@ 10026308     axle.obj
 0002:0000031c       ??_C@_0BD@HECCBHOE@Rear?5Anti?9Roll?5Bar?$AA@ 1002631c     axle.obj
 0002:00000330       __real@3fe0000000000000    10026330     axle.obj
 0002:0000033c       ??_C@_0O@OMDFPKLA@disk?5diameter?$AA@ 1002633c     brake.obj
 0002:0000034c       ??_C@_0M@LJLIFJMF@piston?5area?$AA@ 1002634c     brake.obj
 0002:00000358       ??_C@_02BCPJPDCN@mu?$AA@   10026358     brake.obj
 0002:0000035c       ??_C@_0BN@GFMEOPGO@front?9rear?5brake?5repartition?$AA@ 1002635c     brake.obj
 0002:0000037c       ??_C@_0N@EIIEIMOC@Brake?5System?$AA@ 1002637c     brake.obj
 0002:0000038c       ??_C@_0N@OGJNDDCE@max?5pressure?$AA@ 1002638c     brake.obj
 0002:000003a0       __real@3dcb7cdfd9d7bdbb    100263a0     brake.obj
 0002:000003a8       __real@3f000000            100263a8     brake.obj
 0002:000003b0       __real@3f1a36e2eb1c432d    100263b0     brake.obj
 0002:000003b8       __real@3f2a36e2eb1c432d    100263b8     brake.obj
 0002:000003d4       ??_C@_0M@JEBFIFOG@body?5length?$AA@ 100263d4     car.obj
 0002:000003e0       ??_C@_03DAGGNFD@Car?$AA@   100263e0     car.obj
 0002:000003e4       ??_C@_0L@JJMDEKK@body?5width?$AA@ 100263e4     car.obj
 0002:000003f0       ??_C@_0O@PMLFBGDA@overall?5width?$AA@ 100263f0     car.obj
 0002:00000400       ??_C@_0M@CBDBHKKM@body?5height?$AA@ 10026400     car.obj
 0002:0000040c       ??_C@_04IJEANHEE@mass?$AA@ 1002640c     car.obj
 0002:00000414       ??_C@_0BO@GAOOHNDP@front?9rear?5weight?5repartition?$AA@ 10026414     car.obj
 0002:00000434       ??_C@_0CE@DAFKDMKL@front?5right?9left?5weight?5repartit@ 10026434     car.obj
 0002:00000458       ??_C@_0CD@KDNACABM@rear?5right?9left?5weight?5repartiti@ 10026458     car.obj
 0002:0000047c       ??_C@_09KBFOLGED@GC?5height?$AA@ 1002647c     car.obj
 0002:00000488       ??_C@_09OCIBGKHD@fuel?5tank?$AA@ 10026488     car.obj
 0002:00000494       ??_C@_0N@GEJBANM@initial?5fuel?$AA@ 10026494     car.obj
 0002:000004a4       ??_C@_0BN@DIAMIAMF@mass?5repartition?5coefficient?$AA@ 100264a4     car.obj
 0002:000004c4       ??_C@_06BNFOCFOC@Driver?$AA@ 100264c4     car.obj
 0002:000004cc       ??_C@_04OBLJIMOI@ypos?$AA@ 100264cc     car.obj
 0002:000004d4       ??_C@_06LABBAFHL@Bonnet?$AA@ 100264d4     car.obj
 0002:000004dc       ??_C@_0CO@IDHKNBCO@?9?9?9?9?9?9?9?9?9?9?9?9?9?9?9?9?9?9?9?9?9?9?9?9?9?9?9?9?9?6Ca@ 100264dc     car.obj
 0002:0000050c       ??_C@_0BM@JDGIGBNF@Seg?3?5?$CFd?5?$CI?$CFs?$CJ?5?5Ts?3?$CFf?5?5Tr?3?$CFf?6?$AA@ 1002650c     car.obj
 0002:00000528       ??_C@_0CC@GOLPMLOK@?9?9?9?6Mx?3?5?$CFf?5?5My?3?5?$CFf?5?5Mz?3?5?$CFf?5?$CIN?1m?$CJ@ 10026528     car.obj
 0002:0000054c       ??_C@_0CA@BLMFNIMI@Wx?3?5?$CFf?5?5Wy?3?5?$CFf?5?5Wz?3?5?$CFf?5?$CIrad?1s?$CJ?6?$AA@ 1002654c     car.obj
 0002:0000056c       ??_C@_0BO@BIODNKLL@Ax?3?5?$CFf?5?5Ay?3?5?$CFf?5?5Az?3?5?$CFf?5?$CIrad?$CJ?6?$AA@ 1002656c     car.obj
 0002:0000058c       ??_C@_0CB@CFOKHHNK@?9?9?9?6Ax?3?5?$CFf?5?5Ay?3?5?$CFf?5?5Az?3?5?$CFf?5?$CIGs?$CJ?6@ 1002658c     car.obj
 0002:000005b0       ??_C@_0BO@MKPBJEGM@Vx?3?5?$CFf?5?5Vy?3?5?$CFf?5?5Vz?3?5?$CFf?5?$CIm?1s?$CJ?6?$AA@ 100265b0     car.obj
 0002:000005d0       ??_C@_0CA@NJCLPAMB@Px?3?5?$CFf?5?5Py?3?5?$CFf?5?5Pz?3?5?$CFf?5?$CIm?$CJ?6?9?9?9?6?$AA@ 100265d0     car.obj
 0002:000005f0       ??_C@_0M@OMBEPBEL@As?3?5?$CFf?6?9?9?9?6?$AA@ 100265f0     car.obj
 0002:000005fc       ??_C@_0CC@JAGHFFAN@wheel?5?$CFd?5?9?5RH?3?$CFf?5susp?3?$CFf?5zr?3?$CF?42f@ 100265fc     car.obj
 0002:00000620       ??_C@_0BC@FPKCAGOG@sx?3?$CFf?5sa?3?$CFf?5w?3?$CFf?5?$AA@ 10026620     car.obj
 0002:00000634       ??_C@_0BD@OMNKKOFO@fx?3?$CFf?5fy?3?$CFf?5fz?3?$CFf?6?$AA@ 10026634     car.obj
 0002:00000648       ??_C@_0CJ@HKHJDCMI@Aero?5Fx?3?$CFf?5Fz?3?$CFf?5Fzf?$DN?$CFf?5Fzr?$DN?$CFf?5r@ 10026648     car.obj
 0002:00000674       __real@00000000            10026674     car.obj
 0002:00000678       __real@3eb33333            10026678     car.obj
 0002:00000680       __real@3ee4f8b588e368f1    10026680     car.obj
 0002:00000688       __real@3fb999999999999a    10026688     car.obj
 0002:00000690       __real@4000000000000000    10026690     car.obj
 0002:00000698       __real@4022000000000000    10026698     car.obj
 0002:000006a0       __real@40239eb851eb851f    100266a0     car.obj
 0002:000006a8       __real@4028000000000000    100266a8     car.obj
 0002:000006b0       __real@41100000            100266b0     car.obj
 0002:000006b4       __real@411ce80a            100266b4     car.obj
 0002:000006b8       __real@beb33333            100266b8     car.obj
 0002:000006bc       __real@c11ce80a            100266bc     car.obj
 0002:000006d4       ??_C@_0M@KNIOOGHJ@collide?4cpp?$AA@ 100266d4     collide.obj
 0002:000006e0       ??_C@_0CC@HGMHLAID@fixedobjects?5full?5in?5?$CFs?0?5line?5?$CFd@ 100266e0     collide.obj
 0002:00000704       ??_C@_0BO@FKAOCOAM@Shape?5not?5closed?5?$CFs?0?5line?5?$CFd?6?$AA@ 10026704     collide.obj
 0002:00000724       ??_C@_0BM@GELHFHLK@Shape?5not?5open?5?$CFs?0?5line?5?$CFd?6?$AA@ 10026724     collide.obj
 0002:00000740       __real@37a7c5ac            10026740     collide.obj
 0002:00000744       __real@3ca3d70a            10026744     collide.obj
 0002:00000748       __real@3d4ccccd            10026748     collide.obj
 0002:00000750       __real@3f50624dd2f1a9fc    10026750     collide.obj
 0002:00000758       __real@3fa999999999999a    10026758     collide.obj
 0002:00000760       __real@3ff0c152382d7365    10026760     collide.obj
 0002:00000768       __real@404ca5dc1a63c1f8    10026768     collide.obj
 0002:00000770       __real@bf800000            10026770     collide.obj
 0002:00000774       __real@c0a00000            10026774     collide.obj
 0002:0000077c       ??_C@_0L@CCDNIEMB@efficiency?$AA@ 1002677c     differential.obj
 0002:00000788       ??_C@_05ONLLBMGH@ratio?$AA@ 10026788     differential.obj
 0002:00000790       ??_C@_04NBAGBPGE@bias?$AA@ 10026790     differential.obj
 0002:00000798       ??_C@_0BA@MAHGAMOE@min?5torque?5bias?$AA@ 10026798     differential.obj
 0002:000007a8       ??_C@_0BA@JBIPLHLJ@max?5torque?5bias?$AA@ 100267a8     differential.obj
 0002:000007b8       ??_C@_0O@JEODHGM@max?5slip?5bias?$AA@ 100267b8     differential.obj
 0002:000007c8       ??_C@_0BF@HNJFGJGB@locking?5input?5torque?$AA@ 100267c8     differential.obj
 0002:000007e0       ??_C@_0BB@LCKOCALA@viscosity?5factor?$AA@ 100267e0     differential.obj
 0002:000007f4       ??_C@_04OKGDLNCL@NONE?$AA@ 100267f4     differential.obj
 0002:000007fc       ??_C@_04GPMDFGEJ@type?$AA@ 100267fc     differential.obj
 0002:00000804       ??_C@_0N@JHKPFFOE@LIMITED?5SLIP?$AA@ 10026804     differential.obj
 0002:00000814       ??_C@_0BA@KKPLINHN@VISCOUS?5COUPLER?$AA@ 10026814     differential.obj
 0002:00000824       ??_C@_05BIEJGJFB@SPOOL?$AA@ 10026824     differential.obj
 0002:0000082c       ??_C@_04HEDFJGEJ@FREE?$AA@ 1002682c     differential.obj
 0002:00000838       ??_C@_0N@BNKANPCM@revs?5limiter?$AA@ 10026838     engine.obj
 0002:00000848       ??_C@_06HBKBHOGJ@Engine?$AA@ 10026848     engine.obj
 0002:00000850       ??_C@_09EEMLJLMM@revs?5maxi?$AA@ 10026850     engine.obj
 0002:0000085c       ??_C@_08KFFDGGJK@tickover?$AA@ 1002685c     engine.obj
 0002:00000868       ??_C@_0BB@PAEFDEO@fuel?5cons?5factor?$AA@ 10026868     engine.obj
 0002:0000087c       ??_C@_0BC@OJMNOGFI@brake?5coefficient?$AA@ 1002687c     engine.obj
 0002:00000890       ??_C@_0M@HOBDOHFN@data?5points?$AA@ 10026890     engine.obj
 0002:0000089c       ??_C@_05GFOLEBJA@?$CFs?1?$CFs?$AA@ 1002689c     engine.obj
 0002:000008a4       ??_C@_08OEOPGIOB@?$CFs?1?$CFs?1?$CFd?$AA@ 100268a4     engine.obj
 0002:000008b0       ??_C@_03JLCPDFEO@rpm?$AA@  100268b0     engine.obj
 0002:000008b4       ??_C@_02FNCPOIDG@Tq?$AA@   100268b4     engine.obj
 0002:000008b8       __real@3a83126f            100268b8     engine.obj
 0002:000008bc       __real@3c23d70a            100268bc     engine.obj
 0002:000008c0       __real@3dcccccd            100268c0     engine.obj
 0002:000008c8       __real@3e7ad7f29abcaf48    100268c8     engine.obj
 0002:000008d0       __real@3f666666            100268d0     engine.obj
 0002:000008d4       __real@3f7d70a4            100268d4     engine.obj
 0002:000008d8       __real@40a00000            100268d8     engine.obj
 0002:000008dc       __real@46fffe00            100268dc     engine.obj
 0002:000008f0       __real@3fc999999999999a    100268f0     simu.obj
 0002:000008f8       __real@403e000000000000    100268f8     simu.obj
 0002:00000904       ??_C@_04NDMGPPLE@simu?$AA@ 10026904     simuitf.obj
 0002:0000090c       ??_C@_0BH@NMOCLMMD@Simulation?5Engine?5V2?40?$AA@ 1002690c     simuitf.obj
 0002:00000928       ??_C@_0L@NKBELAP@steer?5lock?$AA@ 10026928     steer.obj
 0002:00000934       ??_C@_05JHJIHHIE@Steer?$AA@ 10026934     steer.obj
 0002:0000093c       ??_C@_0BA@JIAOOKNL@max?5steer?5speed?$AA@ 1002693c     steer.obj
 0002:00000950       ??_C@_06BJPIPHJK@spring?$AA@ 10026950     susp.obj
 0002:00000958       ??_C@_0BC@OPDKIIBK@suspension?5course?$AA@ 10026958     susp.obj
 0002:0000096c       ??_C@_09FOGJBODB@bellcrank?$AA@ 1002696c     susp.obj
 0002:00000978       ??_C@_07CEFBFMMF@packers?$AA@ 10026978     susp.obj
 0002:00000980       ??_C@_09EMNHNHCA@slow?5bump?$AA@ 10026980     susp.obj
 0002:0000098c       ??_C@_0N@PJDJFFEH@slow?5rebound?$AA@ 1002698c     susp.obj
 0002:0000099c       ??_C@_09GGODEECC@fast?5bump?$AA@ 1002699c     susp.obj
 0002:000009a8       ??_C@_0N@IBGFKMGP@fast?5rebound?$AA@ 100269a8     susp.obj
 0002:000009b8       __real@4024000000000000    100269b8     susp.obj
 0002:000009c4       ??_C@_01KDCPPGHE@r?$AA@    100269c4     transmission.obj
 0002:000009c8       ??_C@_01EFFIKLCJ@n?$AA@    100269c8     transmission.obj
 0002:000009cc       ??_C@_01HIHLOKLC@1?$AA@    100269cc     transmission.obj
 0002:000009d0       ??_C@_01FDFGLJHB@2?$AA@    100269d0     transmission.obj
 0002:000009d4       ??_C@_01EKENIIDA@3?$AA@    100269d4     transmission.obj
 0002:000009d8       ??_C@_01FAMBOPH@4?$AA@     100269d8     transmission.obj
 0002:000009dc       ??_C@_01BMBHCPLG@5?$AA@    100269dc     transmission.obj
 0002:000009e0       ??_C@_01DHDKHMHF@6?$AA@    100269e0     transmission.obj
 0002:000009e4       ??_C@_01COCBENDE@7?$AA@    100269e4     transmission.obj
 0002:000009e8       ??_C@_01KJLJFBPL@8?$AA@    100269e8     transmission.obj
 0002:000009ec       ??_C@_03ECFJFFPO@RWD?$AA@  100269ec     transmission.obj
 0002:000009f0       ??_C@_0L@GPGHGHOJ@Drivetrain?$AA@ 100269f0     transmission.obj
 0002:000009fc       ??_C@_0L@NKLOGILP@shift?5time?$AA@ 100269fc     transmission.obj
 0002:00000a08       ??_C@_07BFPDKHBL@Gearbox?$AA@ 10026a08     transmission.obj
 0002:00000a10       ??_C@_0BC@PEFGCIE@Rear?5Differential?$AA@ 10026a10     transmission.obj
 0002:00000a24       ??_C@_03JNCCJFDG@FWD?$AA@  10026a24     transmission.obj
 0002:00000a28       ??_C@_0BD@KBPIFHDM@Front?5Differential?$AA@ 10026a28     transmission.obj
 0002:00000a3c       ??_C@_03FMBEPNCB@4WD?$AA@  10026a3c     transmission.obj
 0002:00000a40       ??_C@_0BF@JADCGNEB@Central?5Differential?$AA@ 10026a40     transmission.obj
 0002:00000a58       ??_C@_05NKODJPOO@gears?$AA@ 10026a58     transmission.obj
 0002:00000a60       ??_C@_08OBGMOMHH@?$CFs?1?$CFs?1?$CFs?$AA@ 10026a60     transmission.obj
 0002:00000a70       __real@3fd0000000000000    10026a70     transmission.obj
 0002:00000a78       __real@4008000000000000    10026a78     transmission.obj
 0002:00000a8c       ??_C@_0BC@DPFNLKJM@Front?5Right?5Wheel?$AA@ 10026a8c     wheel.obj
 0002:00000aa0       ??_C@_0BB@LHAPOPKP@Front?5Left?5Wheel?$AA@ 10026aa0     wheel.obj
 0002:00000ab4       ??_C@_0BB@FDACEIHE@Rear?5Right?5Wheel?$AA@ 10026ab4     wheel.obj
 0002:00000ac8       ??_C@_0BA@OOGIOKPL@Rear?5Left?5Wheel?$AA@ 10026ac8     wheel.obj
 0002:00000ad8       ??_C@_0BH@DEEEENAF@Front?5Right?5Suspension?$AA@ 10026ad8     wheel.obj
 0002:00000af0       ??_C@_0BG@LCHEJIFO@Front?5Left?5Suspension?$AA@ 10026af0     wheel.obj
 0002:00000b08       ??_C@_0BG@KOCHFCBB@Rear?5Right?5Suspension?$AA@ 10026b08     wheel.obj
 0002:00000b20       ??_C@_0BF@GONIDKNP@Rear?5Left?5Suspension?$AA@ 10026b20     wheel.obj
 0002:00000b38       ??_C@_0BC@BCCIKHID@Front?5Right?5Brake?$AA@ 10026b38     wheel.obj
 0002:00000b4c       ??_C@_0BB@JKHKPCLA@Front?5Left?5Brake?$AA@ 10026b4c     wheel.obj
 0002:00000b60       ??_C@_0BB@HOHHFFGL@Rear?5Right?5Brake?$AA@ 10026b60     wheel.obj
 0002:00000b74       ??_C@_0BA@MDBNPHOE@Rear?5Left?5Brake?$AA@ 10026b74     wheel.obj
 0002:00000b84       ??_C@_08POHEELCJ@pressure?$AA@ 10026b84     wheel.obj
 0002:00000b90       ??_C@_0N@PKNPBDGA@rim?5diameter?$AA@ 10026b90     wheel.obj
 0002:00000ba0       ??_C@_0L@LGAPFFPK@tire?5width?$AA@ 10026ba0     wheel.obj
 0002:00000bac       ??_C@_0BI@GDNAMBMI@tire?5height?9width?5ratio?$AA@ 10026bac     wheel.obj
 0002:00000bc4       ??_C@_0M@IPGIOMHG@ride?5height?$AA@ 10026bc4     wheel.obj
 0002:00000bd0       ??_C@_03GBOHAENH@toe?$AA@  10026bd0     wheel.obj
 0002:00000bd4       ??_C@_06LIPNDEMN@camber?$AA@ 10026bd4     wheel.obj
 0002:00000bdc       ??_C@_09CNHECHOC@stiffness?$AA@ 10026bdc     wheel.obj
 0002:00000be8       ??_C@_0BB@FDPLMBGO@dynamic?5friction?$AA@ 10026be8     wheel.obj
 0002:00000bfc       ??_C@_0BC@OGIHMKBB@elasticity?5factor?$AA@ 10026bfc     wheel.obj
 0002:00000c10       ??_C@_0BA@KOCLKDP@load?5factor?5max?$AA@ 10026c10     wheel.obj
 0002:00000c20       ??_C@_0BA@BIGJFOFA@load?5factor?5min?$AA@ 10026c20     wheel.obj
 0002:00000c30       ??_C@_0P@GKLPFDJJ@operating?5load?$AA@ 10026c30     wheel.obj
 0002:00000c40       __real@358637bd            10026c40     wheel.obj
 0002:00000c44       __real@3951b717            10026c44     wheel.obj
 0002:00000c48       __real@3f4ccccd            10026c48     wheel.obj
 0002:00000c50       __real@3f847ae147ae147b    10026c50     wheel.obj
 0002:00000c58       __real@3f99999a            10026c58     wheel.obj
 0002:00000c5c       __real@3fcccccd            10026c5c     wheel.obj
 0002:00000c60       __real@42480000            10026c60     wheel.obj
 0002:00000c64       __real@c1900000            10026c64     wheel.obj
 0002:00000c9c       ??_7error_category@std@@6B@ 10026c9c     solid:C-api.obj
 0002:00000cb8       ??_7_Generic_error_category@std@@6B@ 10026cb8     solid:C-api.obj
 0002:00000cd0       ??_C@_07DCLBNMLN@generic?$AA@ 10026cd0     solid:C-api.obj
 0002:00000cd8       ??_C@_0O@BFJCFAAK@unknown?5error?$AA@ 10026cd8     solid:C-api.obj
 0002:00000cec       ??_7_Iostream_error_category@std@@6B@ 10026cec     solid:C-api.obj
 0002:00000d04       ??_C@_08LLGCOLLL@iostream?$AA@ 10026d04     solid:C-api.obj
 0002:00000d10       ??_C@_0BG@PADBLCHM@iostream?5stream?5error?$AA@ 10026d10     solid:C-api.obj
 0002:00000d2c       ??_7_System_error_category@std@@6B@ 10026d2c     solid:C-api.obj
 0002:00000d44       ??_C@_06FHFOAHML@system?$AA@ 10026d44     solid:C-api.obj
 0002:00000d50       ??_7Shape@@6B@             10026d50     solid:C-api.obj
 0002:00000d60       ??_7Box@@6B@               10026d60     solid:C-api.obj
 0002:00000d74       ??_7Cone@@6B@              10026d74     solid:C-api.obj
 0002:00000d88       ??_7Cylinder@@6B@          10026d88     solid:C-api.obj
 0002:00000d9c       ??_7Sphere@@6B@            10026d9c     solid:C-api.obj
 0002:00000db0       ??_7Complex@@6B@           10026db0     solid:C-api.obj
 0002:00000dc0       ??_7Polytope@@6B@          10026dc0     solid:C-api.obj
 0002:00000dd4       ??_7Simplex@@6B@           10026dd4     solid:C-api.obj
 0002:00000de8       ??_7Polygon@@6B@           10026de8     solid:C-api.obj
 0002:00000df8       ??_C@_0BA@JFNIOLAK@string?5too?5long?$AA@ 10026df8     solid:C-api.obj
 0002:00000e08       ??_C@_0BI@CFPLBAOH@invalid?5string?5position?$AA@ 10026e08     solid:C-api.obj
 0002:00000e20       ??_C@_0BD@OLBABOEK@vector?$DMT?$DO?5too?5long?$AA@ 10026e20     solid:C-api.obj
 0002:00000e34       ??_C@_0BE@JONHPENG@map?1set?$DMT?$DO?5too?5long?$AA@ 10026e34     solid:C-api.obj
 0002:00000e50       __xmm@00000003000000020000000100000000 10026e50     solid:C-api.obj
 0002:00000eb8       __real@3bc79ca10c924223    10026eb8     solid:Convex.obj
 0002:00000f20       __real@3ddb7cdfd9d7bdbb    10026f20     solid:Cone.obj
 0002:00000fe8       __real@4a511b0ec57e649a    10026fe8     solid:Object.obj
 0002:00001084       ??_7Polyhedron@@6B@        10027084     solid:Polyhedron.obj
 0002:00001120       __xmm@ca511b0ec57e649aca511b0ec57e649a 10027120     solid:BBoxTree.obj
 0002:00001160       __real@ca511b0ec57e649a    10027160     solid:Endpoint.obj
 0002:00001170       __real@3f91df46a0000000    10027170     sg_vs2008_32:sg.obj
 0002:00001178       ??_C@_05JLFELJNP@FATAL?$AA@ 10027178     ul_vs2008_32:ulError.obj
 0002:00001180       ??_C@_07KCOHIFOP@WARNING?$AA@ 10027180     ul_vs2008_32:ulError.obj
 0002:00001188       ??_C@_05KOLFGEDA@DEBUG?$AA@ 10027188     ul_vs2008_32:ulError.obj
 0002:00001198       ??_7bad_alloc@std@@6B@     10027198     libcpmt:xthrow.obj
 0002:000011a0       ??_C@_0P@GHFPNOJB@bad?5allocation?$AA@ 100271a0     libcpmt:xthrow.obj
 0002:000011b4       ??_7logic_error@std@@6B@   100271b4     libcpmt:xthrow.obj
 0002:000011c0       ??_7length_error@std@@6B@  100271c0     libcpmt:xthrow.obj
 0002:000011cc       ??_7out_of_range@std@@6B@  100271cc     libcpmt:xthrow.obj
 0002:000016a8       ??_C@_0BC@CIJDGCDI@permission?5denied?$AA@ 100276a8     libcpmt:syserror.obj
 0002:000016bc       ??_C@_0M@MIDIAGJP@file?5exists?$AA@ 100276bc     libcpmt:syserror.obj
 0002:000016c8       ??_C@_0P@FDINDDOK@no?5such?5device?$AA@ 100276c8     libcpmt:syserror.obj
 0002:000016d8       ??_C@_0BC@EJHOMAAK@filename?5too?5long?$AA@ 100276d8     libcpmt:syserror.obj
 0002:000016ec       ??_C@_0BI@NGCEHDD@device?5or?5resource?5busy?$AA@ 100276ec     libcpmt:syserror.obj
 0002:00001704       ??_C@_08GLNPIFBN@io?5error?$AA@ 10027704     libcpmt:syserror.obj
 0002:00001710       ??_C@_0BE@JIDOCPHM@directory?5not?5empty?$AA@ 10027710     libcpmt:syserror.obj
 0002:00001724       ??_C@_0BB@FCMFBGOM@invalid?5argument?$AA@ 10027724     libcpmt:syserror.obj
 0002:00001738       ??_C@_0BD@IJDJKDEA@no?5space?5on?5device?$AA@ 10027738     libcpmt:syserror.obj
 0002:0000174c       ??_C@_0BK@NDOCBPGE@no?5such?5file?5or?5directory?$AA@ 1002774c     libcpmt:syserror.obj
 0002:00001768       ??_C@_0BH@KEFGLDAF@function?5not?5supported?$AA@ 10027768     libcpmt:syserror.obj
 0002:00001780       ??_C@_0BC@NJECKMKE@no?5lock?5available?$AA@ 10027780     libcpmt:syserror.obj
 0002:00001794       ??_C@_0BC@ENOOLCNF@not?5enough?5memory?$AA@ 10027794     libcpmt:syserror.obj
 0002:000017a8       ??_C@_0BP@LKNGHENJ@resource?5unavailable?5try?5again?$AA@ 100277a8     libcpmt:syserror.obj
 0002:000017c8       ??_C@_0BC@PPHBOELF@cross?5device?5link?$AA@ 100277c8     libcpmt:syserror.obj
 0002:000017dc       ??_C@_0BD@MOLBPMEA@operation?5canceled?$AA@ 100277dc     libcpmt:syserror.obj
 0002:000017f0       ??_C@_0BE@GHAFMPAH@too?5many?5files?5open?$AA@ 100277f0     libcpmt:syserror.obj
 0002:00001804       ??_C@_0BC@FNODOBAE@permission_denied?$AA@ 10027804     libcpmt:syserror.obj
 0002:00001818       ??_C@_0P@LNDJPBFK@address_in_use?$AA@ 10027818     libcpmt:syserror.obj
 0002:00001828       ??_C@_0BG@IPMGOJF@address_not_available?$AA@ 10027828     libcpmt:syserror.obj
 0002:00001840       ??_C@_0BN@LCBDHODA@address_family_not_supported?$AA@ 10027840     libcpmt:syserror.obj
 0002:00001860       ??_C@_0BP@FOJJHMCC@connection_already_in_progress?$AA@ 10027860     libcpmt:syserror.obj
 0002:00001880       ??_C@_0BE@DLHHIBGN@bad_file_descriptor?$AA@ 10027880     libcpmt:syserror.obj
 0002:00001894       ??_C@_0BD@OJMJDIGI@connection_aborted?$AA@ 10027894     libcpmt:syserror.obj
 0002:000018a8       ??_C@_0BD@NGKCIFEP@connection_refused?$AA@ 100278a8     libcpmt:syserror.obj
 0002:000018bc       ??_C@_0BB@JOANDNCK@connection_reset?$AA@ 100278bc     libcpmt:syserror.obj
 0002:000018d0       ??_C@_0BN@JLJNLKLK@destination_address_required?$AA@ 100278d0     libcpmt:syserror.obj
 0002:000018f0       ??_C@_0M@IJGMGFGP@bad_address?$AA@ 100278f0     libcpmt:syserror.obj
 0002:000018fc       ??_C@_0BB@KKNHPPIN@host_unreachable?$AA@ 100278fc     libcpmt:syserror.obj
 0002:00001910       ??_C@_0BG@DJGBJIIK@operation_in_progress?$AA@ 10027910     libcpmt:syserror.obj
 0002:00001928       ??_C@_0M@EGEKIIMP@interrupted?$AA@ 10027928     libcpmt:syserror.obj
 0002:00001934       ??_C@_0BB@FFIHMIPJ@invalid_argument?$AA@ 10027934     libcpmt:syserror.obj
 0002:00001948       ??_C@_0BC@FIFLCHLO@already_connected?$AA@ 10027948     libcpmt:syserror.obj
 0002:0000195c       ??_C@_0BE@GJJJJDDA@too_many_files_open?$AA@ 1002795c     libcpmt:syserror.obj
 0002:00001970       ??_C@_0N@HPMLKHPL@message_size?$AA@ 10027970     libcpmt:syserror.obj
 0002:00001980       ??_C@_0BC@LEEIKBAL@filename_too_long?$AA@ 10027980     libcpmt:syserror.obj
 0002:00001994       ??_C@_0N@FCPALPJK@network_down?$AA@ 10027994     libcpmt:syserror.obj
 0002:000019a4       ??_C@_0O@EHNDLHIG@network_reset?$AA@ 100279a4     libcpmt:syserror.obj
 0002:000019b4       ??_C@_0BE@JFNJIDNF@network_unreachable?$AA@ 100279b4     libcpmt:syserror.obj
 0002:000019c8       ??_C@_0BA@FDIJKJCL@no_buffer_space?$AA@ 100279c8     libcpmt:syserror.obj
 0002:000019d8       ??_C@_0BD@JHIHCGKP@no_protocol_option?$AA@ 100279d8     libcpmt:syserror.obj
 0002:000019ec       ??_C@_0O@GBCLHHD@not_connected?$AA@ 100279ec     libcpmt:syserror.obj
 0002:000019fc       ??_C@_0N@IMHKKLEM@not_a_socket?$AA@ 100279fc     libcpmt:syserror.obj
 0002:00001a0c       ??_C@_0BI@ICEIDKLJ@operation_not_supported?$AA@ 10027a0c     libcpmt:syserror.obj
 0002:00001a24       ??_C@_0BH@KAPBAIJF@protocol_not_supported?$AA@ 10027a24     libcpmt:syserror.obj
 0002:00001a3c       ??_C@_0BE@GAOJJFPC@wrong_protocol_type?$AA@ 10027a3c     libcpmt:syserror.obj
 0002:00001a50       ??_C@_09NCHNLHPG@timed_out?$AA@ 10027a50     libcpmt:syserror.obj
 0002:00001a5c       ??_C@_0BG@GDGHKFDH@operation_would_block?$AA@ 10027a5c     libcpmt:syserror.obj
 0002:00001a74       ??_C@_0BN@LKKBCCDB@address?5family?5not?5supported?$AA@ 10027a74     libcpmt:syserror.obj
 0002:00001a94       ??_C@_0P@LDMLAFHI@address?5in?5use?$AA@ 10027a94     libcpmt:syserror.obj
 0002:00001aa4       ??_C@_0BG@DHPCNBJB@address?5not?5available?$AA@ 10027aa4     libcpmt:syserror.obj
 0002:00001abc       ??_C@_0BC@DFIBIBIL@already?5connected?$AA@ 10027abc     libcpmt:syserror.obj
 0002:00001ad0       ??_C@_0BH@CAKOHOMI@argument?5list?5too?5long?$AA@ 10027ad0     libcpmt:syserror.obj
 0002:00001ae8       ??_C@_0BH@CGIMPKIM@argument?5out?5of?5domain?$AA@ 10027ae8     libcpmt:syserror.obj
 0002:00001b00       ??_C@_0M@KGHGGJGL@bad?5address?$AA@ 10027b00     libcpmt:syserror.obj
 0002:00001b0c       ??_C@_0BE@MPJPGCEO@bad?5file?5descriptor?$AA@ 10027b0c     libcpmt:syserror.obj
 0002:00001b20       ??_C@_0M@PMMIEFCP@bad?5message?$AA@ 10027b20     libcpmt:syserror.obj
 0002:00001b2c       ??_C@_0M@KPHOFDBE@broken?5pipe?$AA@ 10027b2c     libcpmt:syserror.obj
 0002:00001b38       ??_C@_0BD@MGNDDEGM@connection?5aborted?$AA@ 10027b38     libcpmt:syserror.obj
 0002:00001b4c       ??_C@_0BP@KAIHPOGN@connection?5already?5in?5progress?$AA@ 10027b4c     libcpmt:syserror.obj
 0002:00001b6c       ??_C@_0BD@PJLIIJEL@connection?5refused?$AA@ 10027b6c     libcpmt:syserror.obj
 0002:00001b80       ??_C@_0BB@IECNJNOI@connection?5reset?$AA@ 10027b80     libcpmt:syserror.obj
 0002:00001b94       ??_C@_0BN@KDMIFEIP@destination?5address?5required?$AA@ 10027b94     libcpmt:syserror.obj
 0002:00001bb4       ??_C@_0BI@BNCLIGPB@executable?5format?5error?$AA@ 10027bb4     libcpmt:syserror.obj
 0002:00001bcc       ??_C@_0P@DNAJLBJK@file?5too?5large?$AA@ 10027bcc     libcpmt:syserror.obj
 0002:00001bdc       ??_C@_0BB@DHFDFGDM@host?5unreachable?$AA@ 10027bdc     libcpmt:syserror.obj
 0002:00001bf0       ??_C@_0BD@JPHBMONG@identifier?5removed?$AA@ 10027bf0     libcpmt:syserror.obj
 0002:00001c04       ??_C@_0BG@CDNPAGJK@illegal?5byte?5sequence?$AA@ 10027c04     libcpmt:syserror.obj
 0002:00001c1c       ??_C@_0CD@BNPLBMNA@inappropriate?5io?5control?5operati@ 10027c1c     libcpmt:syserror.obj
 0002:00001c40       ??_C@_0N@OHAFKDEK@invalid?5seek?$AA@ 10027c40     libcpmt:syserror.obj
 0002:00001c50       ??_C@_0P@FLLDBIDK@is?5a?5directory?$AA@ 10027c50     libcpmt:syserror.obj
 0002:00001c60       ??_C@_0N@IFLPBIOP@message?5size?$AA@ 10027c60     libcpmt:syserror.obj
 0002:00001c70       ??_C@_0N@KIIEAAIO@network?5down?$AA@ 10027c70     libcpmt:syserror.obj
 0002:00001c80       ??_C@_0O@FNPDBHEE@network?5reset?$AA@ 10027c80     libcpmt:syserror.obj
 0002:00001c90       ??_C@_0BE@IFNCKGE@network?5unreachable?$AA@ 10027c90     libcpmt:syserror.obj
 0002:00001ca4       ??_C@_0BA@PFFCAOFK@no?5buffer?5space?$AA@ 10027ca4     libcpmt:syserror.obj
 0002:00001cb4       ??_C@_0BB@IEPBLJHK@no?5child?5process?$AA@ 10027cb4     libcpmt:syserror.obj
 0002:00001cc8       ??_C@_07PLECNNKG@no?5link?$AA@ 10027cc8     libcpmt:syserror.obj
 0002:00001cd0       ??_C@_0BF@PBGGPKKE@no?5message?5available?$AA@ 10027cd0     libcpmt:syserror.obj
 0002:00001ce8       ??_C@_0L@EDOLMPAK@no?5message?$AA@ 10027ce8     libcpmt:syserror.obj
 0002:00001cf4       ??_C@_0BD@EAMBFIDF@no?5protocol?5option?$AA@ 10027cf4     libcpmt:syserror.obj
 0002:00001d08       ??_C@_0BE@MKFDAFMP@no?5stream?5resources?$AA@ 10027d08     libcpmt:syserror.obj
 0002:00001d1c       ??_C@_0BK@IMCPHCBI@no?5such?5device?5or?5address?$AA@ 10027d1c     libcpmt:syserror.obj
 0002:00001d38       ??_C@_0BA@ENLPPKBN@no?5such?5process?$AA@ 10027d38     libcpmt:syserror.obj
 0002:00001d48       ??_C@_0BA@DOCPFFJG@not?5a?5directory?$AA@ 10027d48     libcpmt:syserror.obj
 0002:00001d58       ??_C@_0N@POEIPGGF@not?5a?5socket?$AA@ 10027d58     libcpmt:syserror.obj
 0002:00001d68       ??_C@_0N@LGAPMMPI@not?5a?5stream?$AA@ 10027d68     libcpmt:syserror.obj
 0002:00001d78       ??_C@_0O@GLMIBBEG@not?5connected?$AA@ 10027d78     libcpmt:syserror.obj
 0002:00001d88       ??_C@_0O@NHEDABJP@not?5supported?$AA@ 10027d88     libcpmt:syserror.obj
 0002:00001d98       ??_C@_0BG@KDKHOPCO@operation?5in?5progress?$AA@ 10027d98     libcpmt:syserror.obj
 0002:00001db0       ??_C@_0BI@OHIEJAAB@operation?5not?5permitted?$AA@ 10027db0     libcpmt:syserror.obj
 0002:00001dc8       ??_C@_0BI@LNEGIFLN@operation?5not?5supported?$AA@ 10027dc8     libcpmt:syserror.obj
 0002:00001de0       ??_C@_0BG@OEMDKMEE@operation?5would?5block?$AA@ 10027de0     libcpmt:syserror.obj
 0002:00001df8       ??_C@_0L@BLPOFLNJ@owner?5dead?$AA@ 10027df8     libcpmt:syserror.obj
 0002:00001e04       ??_C@_0P@FNPOCJBE@protocol?5error?$AA@ 10027e04     libcpmt:syserror.obj
 0002:00001e14       ??_C@_0BH@JPPPLHJB@protocol?5not?5supported?$AA@ 10027e14     libcpmt:syserror.obj
 0002:00001e2c       ??_C@_0BG@EICBIHDP@read?5only?5file?5system?$AA@ 10027e2c     libcpmt:syserror.obj
 0002:00001e44       ??_C@_0BO@BJBOMOEJ@resource?5deadlock?5would?5occur?$AA@ 10027e44     libcpmt:syserror.obj
 0002:00001e64       ??_C@_0BE@GOIPJJHG@result?5out?5of?5range?$AA@ 10027e64     libcpmt:syserror.obj
 0002:00001e78       ??_C@_0BG@MPLKFPAE@state?5not?5recoverable?$AA@ 10027e78     libcpmt:syserror.obj
 0002:00001e90       ??_C@_0P@DIIFGFCG@stream?5timeout?$AA@ 10027e90     libcpmt:syserror.obj
 0002:00001ea0       ??_C@_0P@IPFDMIFL@text?5file?5busy?$AA@ 10027ea0     libcpmt:syserror.obj
 0002:00001eb0       ??_C@_09KJPPMAOI@timed?5out?$AA@ 10027eb0     libcpmt:syserror.obj
 0002:00001ebc       ??_C@_0BO@HACHBEKI@too?5many?5files?5open?5in?5system?$AA@ 10027ebc     libcpmt:syserror.obj
 0002:00001edc       ??_C@_0P@HCOMKFCC@too?5many?5links?$AA@ 10027edc     libcpmt:syserror.obj
 0002:00001eec       ??_C@_0BO@EFGOJEF@too?5many?5symbolic?5link?5levels?$AA@ 10027eec     libcpmt:syserror.obj
 0002:00001f0c       ??_C@_0BA@KGKGOOJA@value?5too?5large?$AA@ 10027f0c     libcpmt:syserror.obj
 0002:00001f1c       ??_C@_0BE@MIEJDDNH@wrong?5protocol?5type?$AA@ 10027f1c     libcpmt:syserror.obj
 0002:00002cd0       __FPinit                   10028cd0     LIBCMT:fpinit.obj
 0002:00006e60       __pDefaultRawDllMain       1002ce60     LIBCMT:dllcrt0.obj
 0002:00006e60       __pRawDllMain              1002ce60     LIBCMT:dllcrt0.obj
 0002:00006e88       ??_7type_info@@6B@         1002ce88     LIBCMT:typinfo.obj
 0002:00006e8c       ??_C@_1BI@BGOHAHKC@?$AAm?$AAs?$AAc?$AAo?$AAr?$AAe?$AAe?$AA?4?$AAd?$AAl?$AAl?$AA?$AA@ 1002ce8c     LIBCMT:crt0dat.obj
 0002:00006ea4       ??_C@_0P@MIGLKIOC@CorExitProcess?$AA@ 1002cea4     LIBCMT:crt0dat.obj
 0002:00006eb8       ??_7exception@std@@6B@     1002ceb8     LIBCMT:stdexcpt.obj
 0002:00006ec0       ??_C@_0BC@EOODALEL@Unknown?5exception?$AA@ 1002cec0     LIBCMT:stdexcpt.obj
 0002:00006ee0       __OP_ATAN2jmptab           1002cee0     LIBCMT:87triga.obj
 0002:00006fc8       ??_C@_03MGHMBJCF@log?$AA@  1002cfc8     LIBCMT:libm_error.obj
 0002:00006fcc       ??_C@_05HGHHAHAP@log10?$AA@ 1002cfcc     LIBCMT:libm_error.obj
 0002:00006fd4       ??_C@_03KHJOGHMM@exp?$AA@  1002cfd4     LIBCMT:libm_error.obj
 0002:00006fd8       ??_C@_03JGHBODFD@pow?$AA@  1002cfd8     LIBCMT:libm_error.obj
 0002:00006fdc       ??_C@_04FIHNOPOL@asin?$AA@ 1002cfdc     LIBCMT:libm_error.obj
 0002:00006fe4       ??_C@_04PDIFKINK@acos?$AA@ 1002cfe4     LIBCMT:libm_error.obj
 0002:00006fec       ??_C@_05EOHGHCHD@exp10?$AA@ 1002cfec     LIBCMT:libm_error.obj
 0002:00006ff4       ??_C@_04MLLJIGOK@atan?$AA@ 1002cff4     LIBCMT:libm_error.obj
 0002:00006ffc       ??_C@_04GFPJNGEK@ceil?$AA@ 1002cffc     LIBCMT:libm_error.obj
 0002:00007004       ??_C@_05PBJFFIGL@floor?$AA@ 1002d004     LIBCMT:libm_error.obj
 0002:0000700c       ??_C@_04EHEDPDJG@modf?$AA@ 1002d00c     LIBCMT:libm_error.obj
 0002:00007014       ??_C@_03BLEJJJBH@sin?$AA@  1002d014     LIBCMT:libm_error.obj
 0002:00007018       ??_C@_03LALBNOCG@cos?$AA@  1002d018     LIBCMT:libm_error.obj
 0002:0000701c       ??_C@_03IIINPABG@tan?$AA@  1002d01c     LIBCMT:libm_error.obj
 0002:00007020       ??_C@_04EIAKFFMI@sqrt?$AA@ 1002d020     LIBCMT:libm_error.obj
 0002:00007028       ??_C@_05KLBDPFGC@e?$CL000?$AA@ 1002d028     LIBCMT:cvt.obj
 0002:00007030       ??_C@_06OJHGLDPL@?$CInull?$CJ?$AA@ 1002d030     LIBCMT:output.obj
 0002:00007038       ??_C@_1O@CEDCILHN@?$AA?$CI?$AAn?$AAu?$AAl?$AAl?$AA?$CJ?$AA?$AA@ 1002d038     LIBCMT:output.obj
 0002:00007048       ___lookuptable             1002d048     LIBCMT:output.obj
 0002:000070a4       ??_C@_04COOMCNPB@sinh?$AA@ 1002d0a4     LIBCMT:fpexcept.obj
 0002:000070ac       ??_C@_04HPJJNFIM@cosh?$AA@ 1002d0ac     LIBCMT:fpexcept.obj
 0002:000070b4       ??_C@_04FJHINJAO@tanh?$AA@ 1002d0b4     LIBCMT:fpexcept.obj
 0002:000070bc       ??_C@_05KNGEOGJB@atan2?$AA@ 1002d0bc     LIBCMT:fpexcept.obj
 0002:000070c4       ??_C@_04ODHECPBC@fabs?$AA@ 1002d0c4     LIBCMT:fpexcept.obj
 0002:000070cc       ??_C@_05CEJMAHNP@ldexp?$AA@ 1002d0cc     LIBCMT:fpexcept.obj
 0002:000070d4       ??_C@_05KBKMEMPO@_cabs?$AA@ 1002d0d4     LIBCMT:fpexcept.obj
 0002:000070dc       ??_C@_06MEIMCGCF@_hypot?$AA@ 1002d0dc     LIBCMT:fpexcept.obj
 0002:000070e4       ??_C@_04KEPJIHGP@fmod?$AA@ 1002d0e4     LIBCMT:fpexcept.obj
 0002:000070ec       ??_C@_05GKKHEGJL@frexp?$AA@ 1002d0ec     LIBCMT:fpexcept.obj
 0002:000070f4       ??_C@_03MJLDFKDL@_y0?$AA@  1002d0f4     LIBCMT:fpexcept.obj
 0002:000070f8       ??_C@_03NAKIGLHK@_y1?$AA@  1002d0f8     LIBCMT:fpexcept.obj
 0002:000070fc       ??_C@_03ONILCKOB@_yn?$AA@  1002d0fc     LIBCMT:fpexcept.obj
 0002:00007100       ??_C@_05JGDBENOH@_logb?$AA@ 1002d100     LIBCMT:fpexcept.obj
 0002:00007108       ??_C@_0L@KDOEJCKC@_nextafter?$AA@ 1002d108     LIBCMT:fpexcept.obj
 0002:00007118       __atan_table               1002d118     LIBCMT:atan_table.obj
 0002:00008928       __XcptActTab               1002e928     LIBCMT:winxfltr.obj
 0002:000089b8       __XcptActTabCount          1002e9b8     LIBCMT:winxfltr.obj
 0002:000089bc       __XcptActTabSize           1002e9bc     LIBCMT:winxfltr.obj
 0002:000089c0       __First_FPE_Indx           1002e9c0     LIBCMT:winxfltr.obj
 0002:000089c4       __Num_FPE                  1002e9c4     LIBCMT:winxfltr.obj
 0002:000089c8       ??_C@_1BK@MGMFAEKH@?$AAk?$AAe?$AAr?$AAn?$AAe?$AAl?$AA3?$AA2?$AA?4?$AAd?$AAl?$AAl?$AA?$AA@ 1002e9c8     LIBCMT:winapisupp.obj
 0002:000089e4       ??_C@_08KNHFBNJ@FlsAlloc?$AA@ 1002e9e4     LIBCMT:winapisupp.obj
 0002:000089f0       ??_C@_07PEJMOBNF@FlsFree?$AA@ 1002e9f0     LIBCMT:winapisupp.obj
 0002:000089f8       ??_C@_0M@GDNOONDI@FlsGetValue?$AA@ 1002e9f8     LIBCMT:winapisupp.obj
 0002:00008a04       ??_C@_0M@JCPCPOEF@FlsSetValue?$AA@ 1002ea04     LIBCMT:winapisupp.obj
 0002:00008a10       ??_C@_0BM@HCFOFFN@InitializeCriticalSectionEx?$AA@ 1002ea10     LIBCMT:winapisupp.obj
 0002:00008a2c       ??_C@_0P@DLHPPCNH@CreateEventExW?$AA@ 1002ea2c     LIBCMT:winapisupp.obj
 0002:00008a3c       ??_C@_0BD@KIEEOEEH@CreateSemaphoreExW?$AA@ 1002ea3c     LIBCMT:winapisupp.obj
 0002:00008a50       ??_C@_0BI@BKLFFAPO@SetThreadStackGuarantee?$AA@ 1002ea50     LIBCMT:winapisupp.obj
 0002:00008a68       ??_C@_0BG@OGFAJCKC@CreateThreadpoolTimer?$AA@ 1002ea68     LIBCMT:winapisupp.obj
 0002:00008a80       ??_C@_0BD@LPLEMMDI@SetThreadpoolTimer?$AA@ 1002ea80     LIBCMT:winapisupp.obj
 0002:00008a94       ??_C@_0CA@FMNJENH@WaitForThreadpoolTimerCallbacks?$AA@ 1002ea94     LIBCMT:winapisupp.obj
 0002:00008ab4       ??_C@_0BF@DCFCCNOC@CloseThreadpoolTimer?$AA@ 1002eab4     LIBCMT:winapisupp.obj
 0002:00008acc       ??_C@_0BF@FLABGKKM@CreateThreadpoolWait?$AA@ 1002eacc     LIBCMT:winapisupp.obj
 0002:00008ae4       ??_C@_0BC@MGCOHNA@SetThreadpoolWait?$AA@ 1002eae4     LIBCMT:winapisupp.obj
 0002:00008af8       ??_C@_0BE@OCIOMIMP@CloseThreadpoolWait?$AA@ 1002eaf8     LIBCMT:winapisupp.obj
 0002:00008b0c       ??_C@_0BJ@LKGHFHBO@FlushProcessWriteBuffers?$AA@ 1002eb0c     LIBCMT:winapisupp.obj
 0002:00008b28       ??_C@_0BP@KALKKPMO@FreeLibraryWhenCallbackReturns?$AA@ 1002eb28     LIBCMT:winapisupp.obj
 0002:00008b48       ??_C@_0BK@DFNBACLA@GetCurrentProcessorNumber?$AA@ 1002eb48     LIBCMT:winapisupp.obj
 0002:00008b64       ??_C@_0BP@KHGALBC@GetLogicalProcessorInformation?$AA@ 1002eb64     LIBCMT:winapisupp.obj
 0002:00008b84       ??_C@_0BE@FKKLLFLM@CreateSymbolicLinkW?$AA@ 1002eb84     LIBCMT:winapisupp.obj
 0002:00008b98       ??_C@_0BJ@OHNKDLIJ@SetDefaultDllDirectories?$AA@ 1002eb98     LIBCMT:winapisupp.obj
 0002:00008bb4       ??_C@_0BE@LJANKFHF@EnumSystemLocalesEx?$AA@ 1002ebb4     LIBCMT:winapisupp.obj
 0002:00008bc8       ??_C@_0BA@IHGNDAEB@CompareStringEx?$AA@ 1002ebc8     LIBCMT:winapisupp.obj
 0002:00008bd8       ??_C@_0BA@EPCJIIPD@GetDateFormatEx?$AA@ 1002ebd8     LIBCMT:winapisupp.obj
 0002:00008be8       ??_C@_0BA@ONOKGCMP@GetLocaleInfoEx?$AA@ 1002ebe8     LIBCMT:winapisupp.obj
 0002:00008bf8       ??_C@_0BA@CIJJKCJJ@GetTimeFormatEx?$AA@ 1002ebf8     LIBCMT:winapisupp.obj
 0002:00008c08       ??_C@_0BJ@PBCCBIPI@GetUserDefaultLocaleName?$AA@ 1002ec08     LIBCMT:winapisupp.obj
 0002:00008c24       ??_C@_0BC@CELBKLLA@IsValidLocaleName?$AA@ 1002ec24     LIBCMT:winapisupp.obj
 0002:00008c38       ??_C@_0O@KKBNKAPF@LCMapStringEx?$AA@ 1002ec38     LIBCMT:winapisupp.obj
 0002:00008c48       ??_C@_0BE@JOGNEJCI@GetCurrentPackageId?$AA@ 1002ec48     LIBCMT:winapisupp.obj
 0002:00008c5c       ??_C@_0P@CDHHOHKP@GetTickCount64?$AA@ 1002ec5c     LIBCMT:winapisupp.obj
 0002:00008c6c       ??_C@_0BO@KPCLFDJJ@GetFileInformationByHandleExW?$AA@ 1002ec6c     LIBCMT:winapisupp.obj
 0002:00008c8c       ??_C@_0BM@MHIDLABK@SetFileInformationByHandleW?$AA@ 1002ec8c     LIBCMT:winapisupp.obj
 0002:00008ca8       __pDestructExceptionObject 1002eca8     LIBCMT:frame.obj
 0002:00008cb0       ??_7bad_exception@std@@6B@ 1002ecb0     LIBCMT:frame.obj
 0002:00008cb8       ??_C@_0O@DPKOEFFH@bad?5exception?$AA@ 1002ecb8     LIBCMT:frame.obj
 0002:00008cd0       __indefinite               1002ecd0     LIBCMT:87disp.obj
 0002:00008cda       __piby2                    1002ecda     LIBCMT:87disp.obj
 0002:00008d08       __DEFAULT_CW_in_mem        1002ed08     LIBCMT:common.obj
 0002:00008d0a       __pi_by_2_to_61            1002ed0a     LIBCMT:common.obj
 0002:0000e5f8       ??_C@_1FK@PGACCAFB@?$AAR?$AA6?$AA0?$AA0?$AA2?$AA?$AN?$AA?6?$AA?9?$AA?5?$AAf?$AAl?$AAo?$AAa?$AAt?$AAi?$AAn?$AAg?$AA?5?$AAp?$AAo?$AAi?$AAn?$AAt?$AA?5?$AAs?$AAu?$AAp?$AAp?$AAo?$AAr?$AAt?$AA?5@ 100345f8     LIBCMT:crt0msg.obj
 0002:0000e658       ??_C@_1FE@LLNEDJMD@?$AAR?$AA6?$AA0?$AA0?$AA8?$AA?$AN?$AA?6?$AA?9?$AA?5?$AAn?$AAo?$AAt?$AA?5?$AAe?$AAn?$AAo?$AAu?$AAg?$AAh?$AA?5?$AAs?$AAp?$AAa?$AAc?$AAe?$AA?5?$AAf?$AAo?$AAr?$AA?5?$AAa?$AAr@ 10034658     LIBCMT:crt0msg.obj
 0002:0000e6b0       ??_C@_1FI@HONFMGBI@?$AAR?$AA6?$AA0?$AA0?$AA9?$AA?$AN?$AA?6?$AA?9?$AA?5?$AAn?$AAo?$AAt?$AA?5?$AAe?$AAn?$AAo?$AAu?$AAg?$AAh?$AA?5?$AAs?$AAp?$AAa?$AAc?$AAe?$AA?5?$AAf?$AAo?$AAr?$AA?5?$AAe?$AAn@ 100346b0     LIBCMT:crt0msg.obj
 0002:0000e708       ??_C@_1EG@BEHAGFJD@?$AAR?$AA6?$AA0?$AA1?$AA0?$AA?$AN?$AA?6?$AA?9?$AA?5?$AAa?$AAb?$AAo?$AAr?$AAt?$AA?$CI?$AA?$CJ?$AA?5?$AAh?$AAa?$AAs?$AA?5?$AAb?$AAe?$AAe?$AAn?$AA?5?$AAc?$AAa?$AAl?$AAl?$AAe?$AAd@ 10034708     LIBCMT:crt0msg.obj
 0002:0000e750       ??_C@_1FI@LOGNIKDM@?$AAR?$AA6?$AA0?$AA1?$AA6?$AA?$AN?$AA?6?$AA?9?$AA?5?$AAn?$AAo?$AAt?$AA?5?$AAe?$AAn?$AAo?$AAu?$AAg?$AAh?$AA?5?$AAs?$AAp?$AAa?$AAc?$AAe?$AA?5?$AAf?$AAo?$AAr?$AA?5?$AAt?$AAh@ 10034750     LIBCMT:crt0msg.obj
 0002:0000e7a8       ??_C@_1FK@BEOGODMC@?$AAR?$AA6?$AA0?$AA1?$AA7?$AA?$AN?$AA?6?$AA?9?$AA?5?$AAu?$AAn?$AAe?$AAx?$AAp?$AAe?$AAc?$AAt?$AAe?$AAd?$AA?5?$AAm?$AAu?$AAl?$AAt?$AAi?$AAt?$AAh?$AAr?$AAe?$AAa?$AAd?$AA?5@ 100347a8     LIBCMT:crt0msg.obj
 0002:0000e808       ??_C@_1EC@JIBHAOPH@?$AAR?$AA6?$AA0?$AA1?$AA8?$AA?$AN?$AA?6?$AA?9?$AA?5?$AAu?$AAn?$AAe?$AAx?$AAp?$AAe?$AAc?$AAt?$AAe?$AAd?$AA?5?$AAh?$AAe?$AAa?$AAp?$AA?5?$AAe?$AAr?$AAr?$AAo?$AAr?$AA?$AN?$AA?6@ 10034808     LIBCMT:crt0msg.obj
 0002:0000e850       ??_C@_1FC@ECHBIFBC@?$AAR?$AA6?$AA0?$AA1?$AA9?$AA?$AN?$AA?6?$AA?9?$AA?5?$AAu?$AAn?$AAa?$AAb?$AAl?$AAe?$AA?5?$AAt?$AAo?$AA?5?$AAo?$AAp?$AAe?$AAn?$AA?5?$AAc?$AAo?$AAn?$AAs?$AAo?$AAl?$AAe?$AA?5@ 10034850     LIBCMT:crt0msg.obj
 0002:0000e8a8       ??_C@_1GK@FHCKBEFA@?$AAR?$AA6?$AA0?$AA2?$AA4?$AA?$AN?$AA?6?$AA?9?$AA?5?$AAn?$AAo?$AAt?$AA?5?$AAe?$AAn?$AAo?$AAu?$AAg?$AAh?$AA?5?$AAs?$AAp?$AAa?$AAc?$AAe?$AA?5?$AAf?$AAo?$AAr?$AA?5?$AA_?$AAo@ 100348a8     LIBCMT:crt0msg.obj
 0002:0000e918       ??_C@_1EM@MAADIHMB@?$AAR?$AA6?$AA0?$AA2?$AA5?$AA?$AN?$AA?6?$AA?9?$AA?5?$AAp?$AAu?$AAr?$AAe?$AA?5?$AAv?$AAi?$AAr?$AAt?$AAu?$AAa?$AAl?$AA?5?$AAf?$AAu?$AAn?$AAc?$AAt?$AAi?$AAo?$AAn?$AA?5?$AAc@ 10034918     LIBCMT:crt0msg.obj
 0002:0000e968       ??_C@_1GK@MCAAGJMO@?$AAR?$AA6?$AA0?$AA2?$AA6?$AA?$AN?$AA?6?$AA?9?$AA?5?$AAn?$AAo?$AAt?$AA?5?$AAe?$AAn?$AAo?$AAu?$AAg?$AAh?$AA?5?$AAs?$AAp?$AAa?$AAc?$AAe?$AA?5?$AAf?$AAo?$AAr?$AA?5?$AAs?$AAt@ 10034968     LIBCMT:crt0msg.obj
 0002:0000e9d8       ??_C@_1GK@MFGOKLAG@?$AAR?$AA6?$AA0?$AA2?$AA7?$AA?$AN?$AA?6?$AA?9?$AA?5?$AAn?$AAo?$AAt?$AA?5?$AAe?$AAn?$AAo?$AAu?$AAg?$AAh?$AA?5?$AAs?$AAp?$AAa?$AAc?$AAe?$AA?5?$AAf?$AAo?$AAr?$AA?5?$AAl?$AAo@ 100349d8     LIBCMT:crt0msg.obj
 0002:0000ea48       ??_C@_1EK@HHFLMAOL@?$AAR?$AA6?$AA0?$AA2?$AA8?$AA?$AN?$AA?6?$AA?9?$AA?5?$AAu?$AAn?$AAa?$AAb?$AAl?$AAe?$AA?5?$AAt?$AAo?$AA?5?$AAi?$AAn?$AAi?$AAt?$AAi?$AAa?$AAl?$AAi?$AAz?$AAe?$AA?5?$AAh?$AAe@ 10034a48     LIBCMT:crt0msg.obj
 0002:0000ea94       ??_C@_1DO@BMFCDCD@?$AAR?$AA6?$AA0?$AA3?$AA0?$AA?$AN?$AA?6?$AA?9?$AA?5?$AAC?$AAR?$AAT?$AA?5?$AAn?$AAo?$AAt?$AA?5?$AAi?$AAn?$AAi?$AAt?$AAi?$AAa?$AAl?$AAi?$AAz?$AAe?$AAd?$AA?$AN?$AA?6?$AA?$AA@ 10034a94     LIBCMT:crt0msg.obj
 0002:0000ead8       ??_C@_1MG@ENCOOIDF@?$AAR?$AA6?$AA0?$AA3?$AA1?$AA?$AN?$AA?6?$AA?9?$AA?5?$AAA?$AAt?$AAt?$AAe?$AAm?$AAp?$AAt?$AA?5?$AAt?$AAo?$AA?5?$AAi?$AAn?$AAi?$AAt?$AAi?$AAa?$AAl?$AAi?$AAz?$AAe?$AA?5?$AAt@ 10034ad8     LIBCMT:crt0msg.obj
 0002:0000eba0       ??_C@_1GG@GOPILAJP@?$AAR?$AA6?$AA0?$AA3?$AA2?$AA?$AN?$AA?6?$AA?9?$AA?5?$AAn?$AAo?$AAt?$AA?5?$AAe?$AAn?$AAo?$AAu?$AAg?$AAh?$AA?5?$AAs?$AAp?$AAa?$AAc?$AAe?$AA?5?$AAf?$AAo?$AAr?$AA?5?$AAl?$AAo@ 10034ba0     LIBCMT:crt0msg.obj
 0002:0000ec08       ??_C@_1BOO@KGEDBGAJ@?$AAR?$AA6?$AA0?$AA3?$AA3?$AA?$AN?$AA?6?$AA?9?$AA?5?$AAA?$AAt?$AAt?$AAe?$AAm?$AAp?$AAt?$AA?5?$AAt?$AAo?$AA?5?$AAu?$AAs?$AAe?$AA?5?$AAM?$AAS?$AAI?$AAL?$AA?5?$AAc?$AAo?$AAd@ 10034c08     LIBCMT:crt0msg.obj
 0002:0000edf8       ??_C@_1GG@MKFPEKFO@?$AAR?$AA6?$AA0?$AA3?$AA4?$AA?$AN?$AA?6?$AA?9?$AA?5?$AAi?$AAn?$AAc?$AAo?$AAn?$AAs?$AAi?$AAs?$AAt?$AAe?$AAn?$AAt?$AA?5?$AAo?$AAn?$AAe?$AAx?$AAi?$AAt?$AA?5?$AAb?$AAe?$AAg@ 10034df8     LIBCMT:crt0msg.obj
 0002:0000ee60       ??_C@_1BO@BFCDCGC@?$AAD?$AAO?$AAM?$AAA?$AAI?$AAN?$AA?5?$AAe?$AAr?$AAr?$AAo?$AAr?$AA?$AN?$AA?6?$AA?$AA@ 10034e60     LIBCMT:crt0msg.obj
 0002:0000ee80       ??_C@_1BK@KMOMNAAI@?$AAS?$AAI?$AAN?$AAG?$AA?5?$AAe?$AAr?$AAr?$AAo?$AAr?$AA?$AN?$AA?6?$AA?$AA@ 10034e80     LIBCMT:crt0msg.obj
 0002:0000ee9c       ??_C@_1BM@JBBEPPHI@?$AAT?$AAL?$AAO?$AAS?$AAS?$AA?5?$AAe?$AAr?$AAr?$AAo?$AAr?$AA?$AN?$AA?6?$AA?$AA@ 10034e9c     LIBCMT:crt0msg.obj
 0002:0000eeb8       ??_C@_15JNBOKNOG@?$AA?$AN?$AA?6?$AA?$AA@ 10034eb8     LIBCMT:crt0msg.obj
 0002:0000eec0       ??_C@_1BO@BKOMIGKJ@?$AAr?$AAu?$AAn?$AAt?$AAi?$AAm?$AAe?$AA?5?$AAe?$AAr?$AAr?$AAo?$AAr?$AA?5?$AA?$AA@ 10034ec0     LIBCMT:crt0msg.obj
 0002:0000eee0       ??_C@_1DE@JNGNBFGO@?$AAR?$AAu?$AAn?$AAt?$AAi?$AAm?$AAe?$AA?5?$AAE?$AAr?$AAr?$AAo?$AAr?$AA?$CB?$AA?6?$AA?6?$AAP?$AAr?$AAo?$AAg?$AAr?$AAa?$AAm?$AA?3?$AA?5?$AA?$AA@ 10034ee0     LIBCMT:crt0msg.obj
 0002:0000ef14       ??_C@_1CO@EAEJAADC@?$AA?$DM?$AAp?$AAr?$AAo?$AAg?$AAr?$AAa?$AAm?$AA?5?$AAn?$AAa?$AAm?$AAe?$AA?5?$AAu?$AAn?$AAk?$AAn?$AAo?$AAw?$AAn?$AA?$DO?$AA?$AA@ 10034f14     LIBCMT:crt0msg.obj
 0002:0000ef44       ??_C@_17LGKOMLJ@?$AA?4?$AA?4?$AA?4?$AA?$AA@ 10034f44     LIBCMT:crt0msg.obj
 0002:0000ef4c       ??_C@_15IABLJNFO@?$AA?6?$AA?6?$AA?$AA@ 10034f4c     LIBCMT:crt0msg.obj
 0002:0000ef58       ??_C@_1EK@MBDPDCGA@?$AAM?$AAi?$AAc?$AAr?$AAo?$AAs?$AAo?$AAf?$AAt?$AA?5?$AAV?$AAi?$AAs?$AAu?$AAa?$AAl?$AA?5?$AAC?$AA?$CL?$AA?$CL?$AA?5?$AAR?$AAu?$AAn?$AAt?$AAi?$AAm?$AAe?$AA?5?$AAL?$AAi?$AAb@ 10034f58     LIBCMT:crt0msg.obj
 0002:0000efb4       ??_C@_1M@HPNHIDJI@?$AAj?$AAa?$AA?9?$AAJ?$AAP?$AA?$AA@ 10034fb4     LIBCMT:mbctype.obj
 0002:0000efc0       ??_C@_1M@BIBDDEMK@?$AAz?$AAh?$AA?9?$AAC?$AAN?$AA?$AA@ 10034fc0     LIBCMT:mbctype.obj
 0002:0000efcc       ??_C@_1M@JLOOOEGK@?$AAk?$AAo?$AA?9?$AAK?$AAR?$AA?$AA@ 10034fcc     LIBCMT:mbctype.obj
 0002:0000efd8       ??_C@_1M@CLNBBOPM@?$AAz?$AAh?$AA?9?$AAT?$AAW?$AA?$AA@ 10034fd8     LIBCMT:mbctype.obj
 0002:0000f4f0       __infinity                 100354f0     LIBCMT:87tran.obj
 0002:0000f4fa       __minfinity                100354fa     LIBCMT:87tran.obj
 0002:0000f504       __logemax                  10035504     LIBCMT:87tran.obj
 0002:0000f52a       __OP_EXPjmptab             1003552a     LIBCMT:87tran.obj
 0002:0000f54c       ??_C@_03KOEHGMDN@Sun?$AA@  1003554c     LIBCMT:nlsdata.obj
 0002:0000f550       ??_C@_03PDAGKDH@Mon?$AA@   10035550     LIBCMT:nlsdata.obj
 0002:0000f554       ??_C@_03NAGEINEP@Tue?$AA@  10035554     LIBCMT:nlsdata.obj
 0002:0000f558       ??_C@_03MHOMLAJA@Wed?$AA@  10035558     LIBCMT:nlsdata.obj
 0002:0000f55c       ??_C@_03IOFIKPDN@Thu?$AA@  1003555c     LIBCMT:nlsdata.obj
 0002:0000f560       ??_C@_03IDIOELNC@Fri?$AA@  10035560     LIBCMT:nlsdata.obj
 0002:0000f564       ??_C@_03FEFJNEK@Sat?$AA@   10035564     LIBCMT:nlsdata.obj
 0002:0000f568       ??_C@_06OOPIFAJ@Sunday?$AA@ 10035568     LIBCMT:nlsdata.obj
 0002:0000f570       ??_C@_06JLEDEDGH@Monday?$AA@ 10035570     LIBCMT:nlsdata.obj
 0002:0000f578       ??_C@_07BAAGCFCM@Tuesday?$AA@ 10035578     LIBCMT:nlsdata.obj
 0002:0000f580       ??_C@_09DLIGFAKA@Wednesday?$AA@ 10035580     LIBCMT:nlsdata.obj
 0002:0000f58c       ??_C@_08HACCIKIA@Thursday?$AA@ 1003558c     LIBCMT:nlsdata.obj
 0002:0000f598       ??_C@_06JECMNKMI@Friday?$AA@ 10035598     LIBCMT:nlsdata.obj
 0002:0000f5a0       ??_C@_08INBOOONO@Saturday?$AA@ 100355a0     LIBCMT:nlsdata.obj
 0002:0000f5ac       ??_C@_03JIHJHPIE@Jan?$AA@  100355ac     LIBCMT:nlsdata.obj
 0002:0000f5b0       ??_C@_03HJBDCHOM@Feb?$AA@  100355b0     LIBCMT:nlsdata.obj
 0002:0000f5b4       ??_C@_03ODNJBKGA@Mar?$AA@  100355b4     LIBCMT:nlsdata.obj
 0002:0000f5b8       ??_C@_03LEOLGMJP@Apr?$AA@  100355b8     LIBCMT:nlsdata.obj
 0002:0000f5bc       ??_C@_03CNMDKL@May?$AA@    100355bc     LIBCMT:nlsdata.obj
 0002:0000f5c0       ??_C@_03IDFGHECI@Jun?$AA@  100355c0     LIBCMT:nlsdata.obj
 0002:0000f5c4       ??_C@_03LBGABGKK@Jul?$AA@  100355c4     LIBCMT:nlsdata.obj
 0002:0000f5c8       ??_C@_03IFJFEIGA@Aug?$AA@  100355c8     LIBCMT:nlsdata.obj
 0002:0000f5cc       ??_C@_03GGCAPAJC@Sep?$AA@  100355cc     LIBCMT:nlsdata.obj
 0002:0000f5d0       ??_C@_03BMAOKBAD@Oct?$AA@  100355d0     LIBCMT:nlsdata.obj
 0002:0000f5d4       ??_C@_03JPJOFNIA@Nov?$AA@  100355d4     LIBCMT:nlsdata.obj
 0002:0000f5d8       ??_C@_03MKABNOCG@Dec?$AA@  100355d8     LIBCMT:nlsdata.obj
 0002:0000f5dc       ??_C@_07CGJPFGJA@January?$AA@ 100355dc     LIBCMT:nlsdata.obj
 0002:0000f5e4       ??_C@_08GNJGEPFN@February?$AA@ 100355e4     LIBCMT:nlsdata.obj
 0002:0000f5f0       ??_C@_05HPCKOFNC@March?$AA@ 100355f0     LIBCMT:nlsdata.obj
 0002:0000f5f8       ??_C@_05DMJDNLEJ@April?$AA@ 100355f8     LIBCMT:nlsdata.obj
 0002:0000f600       ??_C@_04CNLMGBGM@June?$AA@ 10035600     LIBCMT:nlsdata.obj
 0002:0000f608       ??_C@_04MIEPOIFP@July?$AA@ 10035608     LIBCMT:nlsdata.obj
 0002:0000f610       ??_C@_06LBBHFDDG@August?$AA@ 10035610     LIBCMT:nlsdata.obj
 0002:0000f618       ??_C@_09BHHEALKD@September?$AA@ 10035618     LIBCMT:nlsdata.obj
 0002:0000f624       ??_C@_07JJNFCEND@October?$AA@ 10035624     LIBCMT:nlsdata.obj
 0002:0000f62c       ??_C@_08HCHEGEOA@November?$AA@ 1003562c     LIBCMT:nlsdata.obj
 0002:0000f638       ??_C@_08EDHMEBNP@December?$AA@ 10035638     LIBCMT:nlsdata.obj
 0002:0000f644       ??_C@_02DEDBPAFC@AM?$AA@   10035644     LIBCMT:nlsdata.obj
 0002:0000f648       ??_C@_02CJNFDJBF@PM?$AA@   10035648     LIBCMT:nlsdata.obj
 0002:0000f64c       ??_C@_08BPBNCDIB@MM?1dd?1yy?$AA@ 1003564c     LIBCMT:nlsdata.obj
 0002:0000f658       ??_C@_0BE@CKGJFCPC@dddd?0?5MMMM?5dd?0?5yyyy?$AA@ 10035658     LIBCMT:nlsdata.obj
 0002:0000f66c       ??_C@_08JCCMCCIL@HH?3mm?3ss?$AA@ 1003566c     LIBCMT:nlsdata.obj
 0002:0000f678       ??_C@_17MBGCMIPB@?$AAS?$AAu?$AAn?$AA?$AA@ 10035678     LIBCMT:nlsdata.obj
 0002:0000f680       ??_C@_17KBOMKBF@?$AAM?$AAo?$AAn?$AA?$AA@ 10035680     LIBCMT:nlsdata.obj
 0002:0000f688       ??_C@_17BMKGEGOJ@?$AAT?$AAu?$AAe?$AA?$AA@ 10035688     LIBCMT:nlsdata.obj
 0002:0000f690       ??_C@_17CJEDCEPE@?$AAW?$AAe?$AAd?$AA?$AA@ 10035690     LIBCMT:nlsdata.obj
 0002:0000f698       ??_C@_17PDPHAADD@?$AAT?$AAh?$AAu?$AA?$AA@ 10035698     LIBCMT:nlsdata.obj
 0002:0000f6a0       ??_C@_17HFOLPPLP@?$AAF?$AAr?$AAi?$AA?$AA@ 100356a0     LIBCMT:nlsdata.obj
 0002:0000f6a8       ??_C@_17GGIBDPIH@?$AAS?$AAa?$AAt?$AA?$AA@ 100356a8     LIBCMT:nlsdata.obj
 0002:0000f6b0       ??_C@_1O@IHNHDHPB@?$AAS?$AAu?$AAn?$AAd?$AAa?$AAy?$AA?$AA@ 100356b0     LIBCMT:nlsdata.obj
 0002:0000f6c0       ??_C@_1O@MMNBFLIA@?$AAM?$AAo?$AAn?$AAd?$AAa?$AAy?$AA?$AA@ 100356c0     LIBCMT:nlsdata.obj
 0002:0000f6d0       ??_C@_1BA@ENFBFFEK@?$AAT?$AAu?$AAe?$AAs?$AAd?$AAa?$AAy?$AA?$AA@ 100356d0     LIBCMT:nlsdata.obj
 0002:0000f6e0       ??_C@_1BE@EBOGMDOH@?$AAW?$AAe?$AAd?$AAn?$AAe?$AAs?$AAd?$AAa?$AAy?$AA?$AA@ 100356e0     LIBCMT:nlsdata.obj
 0002:0000f6f4       ??_C@_1BC@HHMNLIHE@?$AAT?$AAh?$AAu?$AAr?$AAs?$AAd?$AAa?$AAy?$AA?$AA@ 100356f4     LIBCMT:nlsdata.obj
 0002:0000f708       ??_C@_1O@PDICJHAG@?$AAF?$AAr?$AAi?$AAd?$AAa?$AAy?$AA?$AA@ 10035708     LIBCMT:nlsdata.obj
 0002:0000f718       ??_C@_1BC@ENMNNPAJ@?$AAS?$AAa?$AAt?$AAu?$AAr?$AAd?$AAa?$AAy?$AA?$AA@ 10035718     LIBCMT:nlsdata.obj
 0002:0000f72c       ??_C@_17DKNBKCHM@?$AAJ?$AAa?$AAn?$AA?$AA@ 1003572c     LIBCMT:nlsdata.obj
 0002:0000f734       ??_C@_17LMDJEKJN@?$AAF?$AAe?$AAb?$AA?$AA@ 10035734     LIBCMT:nlsdata.obj
 0002:0000f73c       ??_C@_17CKNLEDEC@?$AAM?$AAa?$AAr?$AA?$AA@ 1003573c     LIBCMT:nlsdata.obj
 0002:0000f744       ??_C@_17LFPOIHDD@?$AAA?$AAp?$AAr?$AA?$AA@ 10035744     LIBCMT:nlsdata.obj
 0002:0000f74c       ??_C@_17PNNKMEED@?$AAM?$AAa?$AAy?$AA?$AA@ 1003574c     LIBCMT:nlsdata.obj
 0002:0000f754       ??_C@_17KCJGOCPB@?$AAJ?$AAu?$AAn?$AA?$AA@ 10035754     LIBCMT:nlsdata.obj
 0002:0000f75c       ??_C@_17IJPCKHK@?$AAJ?$AAu?$AAl?$AA?$AA@ 1003575c     LIBCMT:nlsdata.obj
 0002:0000f764       ??_C@_17ICPELBCN@?$AAA?$AAu?$AAg?$AA?$AA@ 10035764     LIBCMT:nlsdata.obj
 0002:0000f76c       ??_C@_17HCHCOKMG@?$AAS?$AAe?$AAp?$AA?$AA@ 1003576c     LIBCMT:nlsdata.obj
 0002:0000f774       ??_C@_17FNLKOI@?$AAO?$AAc?$AAt?$AA?$AA@ 10035774     LIBCMT:nlsdata.obj
 0002:0000f77c       ??_C@_17BBDMLCIG@?$AAN?$AAo?$AAv?$AA?$AA@ 1003577c     LIBCMT:nlsdata.obj
 0002:0000f784       ??_C@_17EGKACKIF@?$AAD?$AAe?$AAc?$AA?$AA@ 10035784     LIBCMT:nlsdata.obj
 0002:0000f78c       ??_C@_1BA@EFMEIEBA@?$AAJ?$AAa?$AAn?$AAu?$AAa?$AAr?$AAy?$AA?$AA@ 1003578c     LIBCMT:nlsdata.obj
 0002:0000f79c       ??_C@_1BC@JGDDFFAM@?$AAF?$AAe?$AAb?$AAr?$AAu?$AAa?$AAr?$AAy?$AA?$AA@ 1003579c     LIBCMT:nlsdata.obj
 0002:0000f7b0       ??_C@_1M@IKEENEDF@?$AAM?$AAa?$AAr?$AAc?$AAh?$AA?$AA@ 100357b0     LIBCMT:nlsdata.obj
 0002:0000f7bc       ??_C@_1M@GJNLMHFD@?$AAA?$AAp?$AAr?$AAi?$AAl?$AA?$AA@ 100357bc     LIBCMT:nlsdata.obj
 0002:0000f7c8       ??_C@_19EPFLPGAP@?$AAJ?$AAu?$AAn?$AAe?$AA?$AA@ 100357c8     LIBCMT:nlsdata.obj
 0002:0000f7d4       ??_C@_19BIFMLPCD@?$AAJ?$AAu?$AAl?$AAy?$AA?$AA@ 100357d4     LIBCMT:nlsdata.obj
 0002:0000f7e0       ??_C@_1O@PAHLKOAC@?$AAA?$AAu?$AAg?$AAu?$AAs?$AAt?$AA?$AA@ 100357e0     LIBCMT:nlsdata.obj
 0002:0000f7f0       ??_C@_1BE@DKAAMBJL@?$AAS?$AAe?$AAp?$AAt?$AAe?$AAm?$AAb?$AAe?$AAr?$AA?$AA@ 100357f0     LIBCMT:nlsdata.obj
 0002:0000f804       ??_C@_1BA@EPANDLNG@?$AAO?$AAc?$AAt?$AAo?$AAb?$AAe?$AAr?$AA?$AA@ 10035804     LIBCMT:nlsdata.obj
 0002:0000f814       ??_C@_1BC@BGLIFPF@?$AAN?$AAo?$AAv?$AAe?$AAm?$AAb?$AAe?$AAr?$AA?$AA@ 10035814     LIBCMT:nlsdata.obj
 0002:0000f828       ??_C@_1BC@FEMKIFH@?$AAD?$AAe?$AAc?$AAe?$AAm?$AAb?$AAe?$AAr?$AA?$AA@ 10035828     LIBCMT:nlsdata.obj
 0002:0000f83c       ??_C@_15ODEHAHHF@?$AAA?$AAM?$AA?$AA@ 1003583c     LIBCMT:nlsdata.obj
 0002:0000f844       ??_C@_15CLMNNGEL@?$AAP?$AAM?$AA?$AA@ 10035844     LIBCMT:nlsdata.obj
 0002:0000f84c       ??_C@_1BC@IEBCMHCM@?$AAM?$AAM?$AA?1?$AAd?$AAd?$AA?1?$AAy?$AAy?$AA?$AA@ 1003584c     LIBCMT:nlsdata.obj
 0002:0000f860       ??_C@_1CI@KNAKOEBC@?$AAd?$AAd?$AAd?$AAd?$AA?0?$AA?5?$AAM?$AAM?$AAM?$AAM?$AA?5?$AAd?$AAd?$AA?0?$AA?5?$AAy?$AAy?$AAy?$AAy?$AA?$AA@ 10035860     LIBCMT:nlsdata.obj
 0002:0000f888       ??_C@_1BC@GDGBMEMK@?$AAH?$AAH?$AA?3?$AAm?$AAm?$AA?3?$AAs?$AAs?$AA?$AA@ 10035888     LIBCMT:nlsdata.obj
 0002:0000f89c       ??_C@_1M@BMHNFIME@?$AAe?$AAn?$AA?9?$AAU?$AAS?$AA?$AA@ 1003589c     LIBCMT:nlsdata.obj
 0002:0000f8a8       ___lookuptable_s           100358a8     LIBCMT:outputs.obj
 0002:00010360       _LcidToLocaleNameTable     10036360     LIBCMT:winapinls.obj
 0002:00010a80       _LocaleNameToIndexTable    10036a80     LIBCMT:winapinls.obj
 0002:000111a0       ??_C@_15EMKDOKLE@?$AAa?$AAr?$AA?$AA@ 100371a0     LIBCMT:winapinls.obj
 0002:000111a8       ??_C@_15KNPADPLH@?$AAb?$AAg?$AA?$AA@ 100371a8     LIBCMT:winapinls.obj
 0002:000111b0       ??_C@_15EDMHLDMO@?$AAc?$AAa?$AA?$AA@ 100371b0     LIBCMT:winapinls.obj
 0002:000111b8       ??_C@_1O@BPEAJADD@?$AAz?$AAh?$AA?9?$AAC?$AAH?$AAS?$AA?$AA@ 100371b8     LIBCMT:winapinls.obj
 0002:000111c8       ??_C@_15LJNHCMNK@?$AAc?$AAs?$AA?$AA@ 100371c8     LIBCMT:winapinls.obj
 0002:000111d0       ??_C@_15FOMCIDHG@?$AAd?$AAa?$AA?$AA@ 100371d0     LIBCMT:winapinls.obj
 0002:000111d8       ??_C@_15NBKABECB@?$AAd?$AAe?$AA?$AA@ 100371d8     LIBCMT:winapinls.obj
 0002:000111e0       ??_C@_15GHPEIIAO@?$AAe?$AAl?$AA?$AA@ 100371e0     LIBCMT:winapinls.obj
 0002:000111e8       ??_C@_15MNPNEAIF@?$AAe?$AAn?$AA?$AA@ 100371e8     LIBCMT:winapinls.obj
 0002:000111f0       ??_C@_15GPIOMPMH@?$AAe?$AAs?$AA?$AA@ 100371f0     LIBCMT:winapinls.obj
 0002:000111f8       ??_C@_15NGLOAKJC@?$AAf?$AAi?$AA?$AA@ 100371f8     LIBCMT:winapinls.obj
 0002:00011200       ??_C@_15FBKGNKAM@?$AAf?$AAr?$AA?$AA@ 10037200     LIBCMT:winapinls.obj
 0002:00011208       ??_C@_15KGGCNEFK@?$AAh?$AAe?$AA?$AA@ 10037208     LIBCMT:winapinls.obj
 0002:00011210       ??_C@_15PGHLIDMF@?$AAh?$AAu?$AA?$AA@ 10037210     LIBCMT:winapinls.obj
 0002:00011218       ??_C@_15BIEMAPLM@?$AAi?$AAs?$AA?$AA@ 10037218     LIBCMT:winapinls.obj
 0002:00011220       ??_C@_15IFJLDHAF@?$AAi?$AAt?$AA?$AA@ 10037220     LIBCMT:winapinls.obj
 0002:00011228       ??_C@_15GEMIOCAG@?$AAj?$AAa?$AA?$AA@ 10037228     LIBCMT:winapinls.obj
 0002:00011230       ??_C@_15EPELEGJA@?$AAk?$AAo?$AA?$AA@ 10037230     LIBCMT:winapinls.obj
 0002:00011238       ??_C@_15NDDHIMN@?$AAn?$AAl?$AA?$AA@ 10037238     LIBCMT:winapinls.obj
 0002:00011240       ??_C@_15BPIGNHCD@?$AAn?$AAo?$AA?$AA@ 10037240     LIBCMT:winapinls.obj
 0002:00011248       ??_C@_15DEOPBLCG@?$AAp?$AAl?$AA?$AA@ 10037248     LIBCMT:winapinls.obj
 0002:00011250       ??_C@_15KBECGEFG@?$AAp?$AAt?$AA?$AA@ 10037250     LIBCMT:winapinls.obj
 0002:00011258       ??_C@_15GLJCBFMD@?$AAr?$AAo?$AA?$AA@ 10037258     LIBCMT:winapinls.obj
 0002:00011260       ??_C@_15FEDGKCDI@?$AAr?$AAu?$AA?$AA@ 10037260     LIBCMT:winapinls.obj
 0002:00011268       ??_C@_15GLKMLLHM@?$AAh?$AAr?$AA?$AA@ 10037268     LIBCMT:winapinls.obj
 0002:00011270       ??_C@_15CPKMFBDB@?$AAs?$AAk?$AA?$AA@ 10037270     LIBCMT:winapinls.obj
 0002:00011278       ??_C@_15BAAIOGMK@?$AAs?$AAq?$AA?$AA@ 10037278     LIBCMT:winapinls.obj
 0002:00011280       ??_C@_15INNPNOHD@?$AAs?$AAv?$AA?$AA@ 10037280     LIBCMT:winapinls.obj
 0002:00011288       ??_C@_15CABMMOGH@?$AAt?$AAh?$AA?$AA@ 10037288     LIBCMT:winapinls.obj
 0002:00011290       ??_C@_15BPLIHJJM@?$AAt?$AAr?$AA?$AA@ 10037290     LIBCMT:winapinls.obj
 0002:00011298       ??_C@_15NEOEKKDJ@?$AAu?$AAr?$AA?$AA@ 10037298     LIBCMT:winapinls.obj
 0002:000112a0       ??_C@_15NFICGAJK@?$AAi?$AAd?$AA?$AA@ 100372a0     LIBCMT:winapinls.obj
 0002:000112a8       ??_C@_15PJPFLCCM@?$AAu?$AAk?$AA?$AA@ 100372a8     LIBCMT:winapinls.obj
 0002:000112b0       ??_C@_15HPJPHDM@?$AAb?$AAe?$AA?$AA@ 100372b0     LIBCMT:winapinls.obj
 0002:000112b8       ??_C@_15LCHLGJII@?$AAs?$AAl?$AA?$AA@ 100372b8     LIBCMT:winapinls.obj
 0002:000112c0       ??_C@_15PCFJPHHO@?$AAe?$AAt?$AA?$AA@ 100372c0     LIBCMT:winapinls.obj
 0002:000112c8       ??_C@_15HPFPGODN@?$AAl?$AAv?$AA?$AA@ 100372c8     LIBCMT:winapinls.obj
 0002:000112d0       ??_C@_15NFFGKGLG@?$AAl?$AAt?$AA?$AA@ 100372d0     LIBCMT:winapinls.obj
 0002:000112d8       ??_C@_15BDAKCCHN@?$AAf?$AAa?$AA?$AA@ 100372d8     LIBCMT:winapinls.obj
 0002:000112e0       ??_C@_15NFGIAIAJ@?$AAv?$AAi?$AA?$AA@ 100372e0     LIBCMT:winapinls.obj
 0002:000112e8       ??_C@_15LMKNDMHN@?$AAh?$AAy?$AA?$AA@ 100372e8     LIBCMT:winapinls.obj
 0002:000112f0       ??_C@_15IJBHMCFL@?$AAa?$AAz?$AA?$AA@ 100372f0     LIBCMT:winapinls.obj
 0002:000112f8       ??_C@_15EKOFJABL@?$AAe?$AAu?$AA?$AA@ 100372f8     LIBCMT:winapinls.obj
 0002:00011300       ??_C@_15BGHADCNK@?$AAm?$AAk?$AA?$AA@ 10037300     LIBCMT:winapinls.obj
 0002:00011308       ??_C@_15JDNICKHM@?$AAa?$AAf?$AA?$AA@ 10037308     LIBCMT:winapinls.obj
 0002:00011310       ??_C@_15KPJEDBKD@?$AAk?$AAa?$AA?$AA@ 10037310     LIBCMT:winapinls.obj
 0002:00011318       ??_C@_15PDNFFFEO@?$AAf?$AAo?$AA?$AA@ 10037318     LIBCMT:winapinls.obj
 0002:00011320       ??_C@_15OMLEGLOC@?$AAh?$AAi?$AA?$AA@ 10037320     LIBCMT:winapinls.obj
 0002:00011328       ??_C@_15IDNNENKK@?$AAm?$AAs?$AA?$AA@ 10037328     LIBCMT:winapinls.obj
 0002:00011330       ??_C@_15MACJNBMH@?$AAk?$AAk?$AA?$AA@ 10037330     LIBCMT:winapinls.obj
 0002:00011338       ??_C@_15DKDJEOND@?$AAk?$AAy?$AA?$AA@ 10037338     LIBCMT:winapinls.obj
 0002:00011340       ??_C@_15DFGDLJBG@?$AAs?$AAw?$AA?$AA@ 10037340     LIBCMT:winapinls.obj
 0002:00011348       ??_C@_15BBFAICNG@?$AAu?$AAz?$AA?$AA@ 10037348     LIBCMT:winapinls.obj
 0002:00011350       ??_C@_15DKNDCGEA@?$AAt?$AAt?$AA?$AA@ 10037350     LIBCMT:winapinls.obj
 0002:00011358       ??_C@_15MGIFMDPL@?$AAp?$AAa?$AA?$AA@ 10037358     LIBCMT:winapinls.obj
 0002:00011360       ??_C@_15HCNDBBA@?$AAg?$AAu?$AA?$AA@ 10037360     LIBCMT:winapinls.obj
 0002:00011368       ??_C@_15FNBEIBON@?$AAt?$AAa?$AA?$AA@ 10037368     LIBCMT:winapinls.obj
 0002:00011370       ??_C@_15NCHGBGLK@?$AAt?$AAe?$AA?$AA@ 10037370     LIBCMT:winapinls.obj
 0002:00011378       ??_C@_15PHPHCBPF@?$AAk?$AAn?$AA?$AA@ 10037378     LIBCMT:winapinls.obj
 0002:00011380       ??_C@_15DLGBCKMP@?$AAm?$AAr?$AA?$AA@ 10037380     LIBCMT:winapinls.obj
 0002:00011388       ??_C@_15EABBLBFF@?$AAs?$AAa?$AA?$AA@ 10037388     LIBCMT:winapinls.obj
 0002:00011390       ??_C@_15CBKOMCOI@?$AAm?$AAn?$AA?$AA@ 10037390     LIBCMT:winapinls.obj
 0002:00011398       ??_C@_15CKDMCJAF@?$AAg?$AAl?$AA?$AA@ 10037398     LIBCMT:winapinls.obj
 0002:000113a0       ??_C@_17CNJFBPG@?$AAk?$AAo?$AAk?$AA?$AA@ 100373a0     LIBCMT:winapinls.obj
 0002:000113a8       ??_C@_17FFBJICPL@?$AAs?$AAy?$AAr?$AA?$AA@ 100373a8     LIBCMT:winapinls.obj
 0002:000113b0       ??_C@_17KPNDCPAF@?$AAd?$AAi?$AAv?$AA?$AA@ 100373b0     LIBCMT:winapinls.obj
 0002:000113b8       ??_C@_11LOCGONAA@?$AA?$AA@ 100373b8     LIBCMT:winapinls.obj
 0002:000113bc       ??_C@_1M@OKAHONE@?$AAa?$AAr?$AA?9?$AAS?$AAA?$AA?$AA@ 100373bc     LIBCMT:winapinls.obj
 0002:000113c8       ??_C@_1M@FFFIGIGK@?$AAb?$AAg?$AA?9?$AAB?$AAG?$AA?$AA@ 100373c8     LIBCMT:winapinls.obj
 0002:000113d4       ??_C@_1M@BJNKEDC@?$AAc?$AAa?$AA?9?$AAE?$AAS?$AA?$AA@ 100373d4     LIBCMT:winapinls.obj
 0002:000113e0       ??_C@_1M@IJJHFJHA@?$AAc?$AAs?$AA?9?$AAC?$AAZ?$AA?$AA@ 100373e0     LIBCMT:winapinls.obj
 0002:000113ec       ??_C@_1M@CLPEOBGI@?$AAd?$AAa?$AA?9?$AAD?$AAK?$AA?$AA@ 100373ec     LIBCMT:winapinls.obj
 0002:000113f8       ??_C@_1M@MCMADGCB@?$AAd?$AAe?$AA?9?$AAD?$AAE?$AA?$AA@ 100373f8     LIBCMT:winapinls.obj
 0002:00011404       ??_C@_1M@OOCKEMAM@?$AAe?$AAl?$AA?9?$AAG?$AAR?$AA?$AA@ 10037404     LIBCMT:winapinls.obj
 0002:00011410       ??_C@_1M@DDNJFGID@?$AAf?$AAi?$AA?9?$AAF?$AAI?$AA?$AA@ 10037410     LIBCMT:winapinls.obj
 0002:0001141c       ??_C@_1M@GLIPPMAC@?$AAf?$AAr?$AA?9?$AAF?$AAR?$AA?$AA@ 1003741c     LIBCMT:winapinls.obj
 0002:00011428       ??_C@_1M@GFMCHPE@?$AAh?$AAe?$AA?9?$AAI?$AAL?$AA?$AA@ 10037428     LIBCMT:winapinls.obj
 0002:00011434       ??_C@_1M@MHLPGNKM@?$AAh?$AAu?$AA?9?$AAH?$AAU?$AA?$AA@ 10037434     LIBCMT:winapinls.obj
 0002:00011440       ??_C@_1M@LPDDNNPN@?$AAi?$AAs?$AA?9?$AAI?$AAS?$AA?$AA@ 10037440     LIBCMT:winapinls.obj
 0002:0001144c       ??_C@_1M@MADIPODN@?$AAi?$AAt?$AA?9?$AAI?$AAT?$AA?$AA@ 1003744c     LIBCMT:winapinls.obj
 0002:00011458       ??_C@_1M@IHBJJGG@?$AAn?$AAl?$AA?9?$AAN?$AAL?$AA?$AA@ 10037458     LIBCMT:winapinls.obj
 0002:00011464       ??_C@_1M@EANAGDL@?$AAn?$AAb?$AA?9?$AAN?$AAO?$AA?$AA@ 10037464     LIBCMT:winapinls.obj
 0002:00011470       ??_C@_1M@NEIEMEGP@?$AAp?$AAl?$AA?9?$AAP?$AAL?$AA?$AA@ 10037470     LIBCMT:winapinls.obj
 0002:0001147c       ??_C@_1M@BOCFIGEP@?$AAp?$AAt?$AA?9?$AAB?$AAR?$AA?$AA@ 1003747c     LIBCMT:winapinls.obj
 0002:00011488       ??_C@_1M@IMPFOPBG@?$AAr?$AAo?$AA?9?$AAR?$AAO?$AA?$AA@ 10037488     LIBCMT:winapinls.obj
 0002:00011494       ??_C@_1M@IDNNEJMM@?$AAr?$AAu?$AA?9?$AAR?$AAU?$AA?$AA@ 10037494     LIBCMT:winapinls.obj
 0002:000114a0       ??_C@_1M@LILEEOGM@?$AAh?$AAr?$AA?9?$AAH?$AAR?$AA?$AA@ 100374a0     LIBCMT:winapinls.obj
 0002:000114ac       ??_C@_1M@FKIFEHPB@?$AAs?$AAk?$AA?9?$AAS?$AAK?$AA?$AA@ 100374ac     LIBCMT:winapinls.obj
 0002:000114b8       ??_C@_1M@LJMAMNPJ@?$AAs?$AAq?$AA?9?$AAA?$AAL?$AA?$AA@ 100374b8     LIBCMT:winapinls.obj
 0002:000114c4       ??_C@_1M@GIAKDKJK@?$AAs?$AAv?$AA?9?$AAS?$AAE?$AA?$AA@ 100374c4     LIBCMT:winapinls.obj
 0002:000114d0       ??_C@_1M@MKJKIKCL@?$AAt?$AAh?$AA?9?$AAT?$AAH?$AA?$AA@ 100374d0     LIBCMT:winapinls.obj
 0002:000114dc       ??_C@_1M@MFLCCMPB@?$AAt?$AAr?$AA?9?$AAT?$AAR?$AA?$AA@ 100374dc     LIBCMT:winapinls.obj
 0002:000114e8       ??_C@_1M@OIJHDKJN@?$AAu?$AAr?$AA?9?$AAP?$AAK?$AA?$AA@ 100374e8     LIBCMT:winapinls.obj
 0002:000114f4       ??_C@_1M@LHIPCIEK@?$AAi?$AAd?$AA?9?$AAI?$AAD?$AA?$AA@ 100374f4     LIBCMT:winapinls.obj
 0002:00011500       ??_C@_1M@MFMOBGI@?$AAu?$AAk?$AA?9?$AAU?$AAA?$AA?$AA@ 10037500     LIBCMT:winapinls.obj
 0002:0001150c       ??_C@_1M@OBGLJIPL@?$AAb?$AAe?$AA?9?$AAB?$AAY?$AA?$AA@ 1003750c     LIBCMT:winapinls.obj
 0002:00011518       ??_C@_1M@BCFAJEAD@?$AAs?$AAl?$AA?9?$AAS?$AAI?$AA?$AA@ 10037518     LIBCMT:winapinls.obj
 0002:00011524       ??_C@_1M@FKFFEDDN@?$AAe?$AAt?$AA?9?$AAE?$AAE?$AA?$AA@ 10037524     LIBCMT:winapinls.obj
 0002:00011530       ??_C@_1M@KGKKAACI@?$AAl?$AAv?$AA?9?$AAL?$AAV?$AA?$AA@ 10037530     LIBCMT:winapinls.obj
 0002:0001153c       ??_C@_1M@IFGBIJO@?$AAl?$AAt?$AA?9?$AAL?$AAT?$AA?$AA@ 1003753c     LIBCMT:winapinls.obj
 0002:00011548       ??_C@_1M@FGEAHEDM@?$AAf?$AAa?$AA?9?$AAI?$AAR?$AA?$AA@ 10037548     LIBCMT:winapinls.obj
 0002:00011554       ??_C@_1M@KBMAIBFN@?$AAv?$AAi?$AA?9?$AAV?$AAN?$AA?$AA@ 10037554     LIBCMT:winapinls.obj
 0002:00011560       ??_C@_1M@GPCBKDJK@?$AAh?$AAy?$AA?9?$AAA?$AAM?$AA?$AA@ 10037560     LIBCMT:winapinls.obj
 0002:0001156c       ??_C@_1BG@BECMDDJB@?$AAa?$AAz?$AA?9?$AAA?$AAZ?$AA?9?$AAL?$AAa?$AAt?$AAn?$AA?$AA@ 1003756c     LIBCMT:winapinls.obj
 0002:00011584       ??_C@_1M@MAOFCAEA@?$AAe?$AAu?$AA?9?$AAE?$AAS?$AA?$AA@ 10037584     LIBCMT:winapinls.obj
 0002:00011590       ??_C@_1M@IGHABKPI@?$AAm?$AAk?$AA?9?$AAM?$AAK?$AA?$AA@ 10037590     LIBCMT:winapinls.obj
 0002:0001159c       ??_C@_1M@IAIGNEJG@?$AAt?$AAn?$AA?9?$AAZ?$AAA?$AA?$AA@ 1003759c     LIBCMT:winapinls.obj
 0002:000115a8       ??_C@_1M@IIJCOJFA@?$AAx?$AAh?$AA?9?$AAZ?$AAA?$AA?$AA@ 100375a8     LIBCMT:winapinls.obj
 0002:000115b4       ??_C@_1M@LGPJHNJH@?$AAz?$AAu?$AA?9?$AAZ?$AAA?$AA?$AA@ 100375b4     LIBCMT:winapinls.obj
 0002:000115c0       ??_C@_1M@HOKAOIO@?$AAa?$AAf?$AA?9?$AAZ?$AAA?$AA?$AA@ 100375c0     LIBCMT:winapinls.obj
 0002:000115cc       ??_C@_1M@DPCLHLIE@?$AAk?$AAa?$AA?9?$AAG?$AAE?$AA?$AA@ 100375cc     LIBCMT:winapinls.obj
 0002:000115d8       ??_C@_1M@BLKMHJBI@?$AAf?$AAo?$AA?9?$AAF?$AAO?$AA?$AA@ 100375d8     LIBCMT:winapinls.obj
 0002:000115e4       ??_C@_1M@LGGJAPPB@?$AAh?$AAi?$AA?9?$AAI?$AAN?$AA?$AA@ 100375e4     LIBCMT:winapinls.obj
 0002:000115f0       ??_C@_1M@FIKPIHFE@?$AAm?$AAt?$AA?9?$AAM?$AAT?$AA?$AA@ 100375f0     LIBCMT:winapinls.obj
 0002:000115fc       ??_C@_1M@HEGGPBFA@?$AAs?$AAe?$AA?9?$AAN?$AAO?$AA?$AA@ 100375fc     LIBCMT:winapinls.obj
 0002:00011608       ??_C@_1M@EIBJEEPA@?$AAm?$AAs?$AA?9?$AAM?$AAY?$AA?$AA@ 10037608     LIBCMT:winapinls.obj
 0002:00011614       ??_C@_1M@FHLBGMPP@?$AAk?$AAk?$AA?9?$AAK?$AAZ?$AA?$AA@ 10037614     LIBCMT:winapinls.obj
 0002:00011620       ??_C@_1M@NGJJLCGI@?$AAk?$AAy?$AA?9?$AAK?$AAG?$AA?$AA@ 10037620     LIBCMT:winapinls.obj
 0002:0001162c       ??_C@_1M@GIENNBFC@?$AAs?$AAw?$AA?9?$AAK?$AAE?$AA?$AA@ 1003762c     LIBCMT:winapinls.obj
 0002:00011638       ??_C@_1BG@NDGMJIMJ@?$AAu?$AAz?$AA?9?$AAU?$AAZ?$AA?9?$AAL?$AAa?$AAt?$AAn?$AA?$AA@ 10037638     LIBCMT:winapinls.obj
 0002:00011650       ??_C@_1M@IDCCIHBC@?$AAt?$AAt?$AA?9?$AAR?$AAU?$AA?$AA@ 10037650     LIBCMT:winapinls.obj
 0002:0001165c       ??_C@_1M@LOICPMOJ@?$AAb?$AAn?$AA?9?$AAI?$AAN?$AA?$AA@ 1003765c     LIBCMT:winapinls.obj
 0002:00011668       ??_C@_1M@KPKKNEAH@?$AAp?$AAa?$AA?9?$AAI?$AAN?$AA?$AA@ 10037668     LIBCMT:winapinls.obj
 0002:00011674       ??_C@_1M@PJGPPBOG@?$AAg?$AAu?$AA?9?$AAI?$AAN?$AA?$AA@ 10037674     LIBCMT:winapinls.obj
 0002:00011680       ??_C@_1M@KMKMOPHI@?$AAt?$AAa?$AA?9?$AAI?$AAN?$AA?$AA@ 10037680     LIBCMT:winapinls.obj
 0002:0001168c       ??_C@_1M@KFEHEPAC@?$AAt?$AAe?$AA?9?$AAI?$AAN?$AA?$AA@ 1003768c     LIBCMT:winapinls.obj
 0002:00011698       ??_C@_1M@CDCLMGHI@?$AAk?$AAn?$AA?9?$AAI?$AAN?$AA?$AA@ 10037698     LIBCMT:winapinls.obj
 0002:000116a4       ??_C@_1M@MIODLDKF@?$AAm?$AAl?$AA?9?$AAI?$AAN?$AA?$AA@ 100376a4     LIBCMT:winapinls.obj
 0002:000116b0       ??_C@_1M@PBIEACPO@?$AAm?$AAr?$AA?9?$AAI?$AAN?$AA?$AA@ 100376b0     LIBCMT:winapinls.obj
 0002:000116bc       ??_C@_1M@NIDEAGPH@?$AAs?$AAa?$AA?9?$AAI?$AAN?$AA?$AA@ 100376bc     LIBCMT:winapinls.obj
 0002:000116c8       ??_C@_1M@FHIHCBIO@?$AAm?$AAn?$AA?9?$AAM?$AAN?$AA?$AA@ 100376c8     LIBCMT:winapinls.obj
 0002:000116d4       ??_C@_1M@JAIJPENP@?$AAc?$AAy?$AA?9?$AAG?$AAB?$AA?$AA@ 100376d4     LIBCMT:winapinls.obj
 0002:000116e0       ??_C@_1M@PHGFBEPN@?$AAg?$AAl?$AA?9?$AAE?$AAS?$AA?$AA@ 100376e0     LIBCMT:winapinls.obj
 0002:000116ec       ??_C@_1O@KPIPDNCP@?$AAk?$AAo?$AAk?$AA?9?$AAI?$AAN?$AA?$AA@ 100376ec     LIBCMT:winapinls.obj
 0002:000116fc       ??_C@_1O@KNHJLDJA@?$AAs?$AAy?$AAr?$AA?9?$AAS?$AAY?$AA?$AA@ 100376fc     LIBCMT:winapinls.obj
 0002:0001170c       ??_C@_1O@MKEKBLAH@?$AAd?$AAi?$AAv?$AA?9?$AAM?$AAV?$AA?$AA@ 1003770c     LIBCMT:winapinls.obj
 0002:0001171c       ??_C@_1O@OHDCKDDF@?$AAq?$AAu?$AAz?$AA?9?$AAB?$AAO?$AA?$AA@ 1003771c     LIBCMT:winapinls.obj
 0002:0001172c       ??_C@_1M@LEPJNLFD@?$AAn?$AAs?$AA?9?$AAZ?$AAA?$AA?$AA@ 1003772c     LIBCMT:winapinls.obj
 0002:00011738       ??_C@_1M@OMLEIIJB@?$AAm?$AAi?$AA?9?$AAN?$AAZ?$AA?$AA@ 10037738     LIBCMT:winapinls.obj
 0002:00011744       ??_C@_1M@PMPEAILG@?$AAa?$AAr?$AA?9?$AAI?$AAQ?$AA?$AA@ 10037744     LIBCMT:winapinls.obj
 0002:00011750       ??_C@_1M@CNKPNOEE@?$AAd?$AAe?$AA?9?$AAC?$AAH?$AA?$AA@ 10037750     LIBCMT:winapinls.obj
 0002:0001175c       ??_C@_1M@LKMGMLKO@?$AAe?$AAn?$AA?9?$AAG?$AAB?$AA?$AA@ 1003775c     LIBCMT:winapinls.obj
 0002:00011768       ??_C@_1M@PGKJFFGL@?$AAe?$AAs?$AA?9?$AAM?$AAX?$AA?$AA@ 10037768     LIBCMT:winapinls.obj
 0002:00011774       ??_C@_1M@DNNANBDC@?$AAf?$AAr?$AA?9?$AAB?$AAE?$AA?$AA@ 10037774     LIBCMT:winapinls.obj
 0002:00011780       ??_C@_1M@HLGMDFHM@?$AAi?$AAt?$AA?9?$AAC?$AAH?$AA?$AA@ 10037780     LIBCMT:winapinls.obj
 0002:0001178c       ??_C@_1M@CLLBGJH@?$AAn?$AAl?$AA?9?$AAB?$AAE?$AA?$AA@ 1003778c     LIBCMT:winapinls.obj
 0002:00011798       ??_C@_1M@BODBOGLF@?$AAn?$AAn?$AA?9?$AAN?$AAO?$AA?$AA@ 10037798     LIBCMT:winapinls.obj
 0002:000117a4       ??_C@_1M@HFFAHKAD@?$AAp?$AAt?$AA?9?$AAP?$AAT?$AA?$AA@ 100377a4     LIBCMT:winapinls.obj
 0002:000117b0       ??_C@_1BG@LNOAKHIE@?$AAs?$AAr?$AA?9?$AAS?$AAP?$AA?9?$AAL?$AAa?$AAt?$AAn?$AA?$AA@ 100377b0     LIBCMT:winapinls.obj
 0002:000117c8       ??_C@_1M@HBMHBGAK@?$AAs?$AAv?$AA?9?$AAF?$AAI?$AA?$AA@ 100377c8     LIBCMT:winapinls.obj
 0002:000117d4       ??_C@_1BG@DGCJGJBE@?$AAa?$AAz?$AA?9?$AAA?$AAZ?$AA?9?$AAC?$AAy?$AAr?$AAl?$AA?$AA@ 100377d4     LIBCMT:winapinls.obj
 0002:000117ec       ??_C@_1M@KEJDAAHB@?$AAs?$AAe?$AA?9?$AAS?$AAE?$AA?$AA@ 100377ec     LIBCMT:winapinls.obj
 0002:000117f8       ??_C@_1M@HEIBJJAD@?$AAm?$AAs?$AA?9?$AAB?$AAN?$AA?$AA@ 100377f8     LIBCMT:winapinls.obj
 0002:00011804       ??_C@_1BG@PBGJMCEM@?$AAu?$AAz?$AA?9?$AAU?$AAZ?$AA?9?$AAC?$AAy?$AAr?$AAl?$AA?$AA@ 10037804     LIBCMT:winapinls.obj
 0002:0001181c       ??_C@_1O@LAOBCMDF@?$AAq?$AAu?$AAz?$AA?9?$AAE?$AAC?$AA?$AA@ 1003781c     LIBCMT:winapinls.obj
 0002:0001182c       ??_C@_1M@POEEMAIO@?$AAa?$AAr?$AA?9?$AAE?$AAG?$AA?$AA@ 1003782c     LIBCMT:winapinls.obj
 0002:00011838       ??_C@_1M@EFAKDEDL@?$AAz?$AAh?$AA?9?$AAH?$AAK?$AA?$AA@ 10037838     LIBCMT:winapinls.obj
 0002:00011844       ??_C@_1M@HKKIJHGI@?$AAd?$AAe?$AA?9?$AAA?$AAT?$AA?$AA@ 10037844     LIBCMT:winapinls.obj
 0002:00011850       ??_C@_1M@KBFBEHJF@?$AAe?$AAn?$AA?9?$AAA?$AAU?$AA?$AA@ 10037850     LIBCMT:winapinls.obj
 0002:0001185c       ??_C@_1M@MNPLFAAH@?$AAe?$AAs?$AA?9?$AAE?$AAS?$AA?$AA@ 1003785c     LIBCMT:winapinls.obj
 0002:00011868       ??_C@_1M@HJOOJFMA@?$AAf?$AAr?$AA?9?$AAC?$AAA?$AA?$AA@ 10037868     LIBCMT:winapinls.obj
 0002:00011874       ??_C@_1BG@JPOFPNAB@?$AAs?$AAr?$AA?9?$AAS?$AAP?$AA?9?$AAC?$AAy?$AAr?$AAl?$AA?$AA@ 10037874     LIBCMT:winapinls.obj
 0002:0001188c       ??_C@_1M@LNFOCMOB@?$AAs?$AAe?$AA?9?$AAF?$AAI?$AA?$AA@ 1003788c     LIBCMT:winapinls.obj
 0002:00011898       ??_C@_1O@MGJBOAMB@?$AAq?$AAu?$AAz?$AA?9?$AAP?$AAE?$AA?$AA@ 10037898     LIBCMT:winapinls.obj
 0002:000118a8       ??_C@_1M@GJINLBOK@?$AAa?$AAr?$AA?9?$AAL?$AAY?$AA?$AA@ 100378a8     LIBCMT:winapinls.obj
 0002:000118b4       ??_C@_1M@GGMNHJNL@?$AAz?$AAh?$AA?9?$AAS?$AAG?$AA?$AA@ 100378b4     LIBCMT:winapinls.obj
 0002:000118c0       ??_C@_1M@HOIKODND@?$AAd?$AAe?$AA?9?$AAL?$AAU?$AA?$AA@ 100378c0     LIBCMT:winapinls.obj
 0002:000118cc       ??_C@_1M@DDOCCGFG@?$AAe?$AAn?$AA?9?$AAC?$AAA?$AA?$AA@ 100378cc     LIBCMT:winapinls.obj
 0002:000118d8       ??_C@_1M@BNOEMJLF@?$AAe?$AAs?$AA?9?$AAG?$AAT?$AA?$AA@ 100378d8     LIBCMT:winapinls.obj
 0002:000118e4       ??_C@_1M@EOGNKEK@?$AAf?$AAr?$AA?9?$AAC?$AAH?$AA?$AA@ 100378e4     LIBCMT:winapinls.obj
 0002:000118f0       ??_C@_1M@FLIDJFHL@?$AAh?$AAr?$AA?9?$AAB?$AAA?$AA?$AA@ 100378f0     LIBCMT:winapinls.obj
 0002:000118fc       ??_C@_1O@FMCELNAJ@?$AAs?$AAm?$AAj?$AA?9?$AAN?$AAO?$AA?$AA@ 100378fc     LIBCMT:winapinls.obj
 0002:0001190c       ??_C@_1M@JHGLJMGJ@?$AAa?$AAr?$AA?9?$AAD?$AAZ?$AA?$AA@ 1003790c     LIBCMT:winapinls.obj
 0002:00011918       ??_C@_1M@JKKFDCNP@?$AAz?$AAh?$AA?9?$AAM?$AAO?$AA?$AA@ 10037918     LIBCMT:winapinls.obj
 0002:00011924       ??_C@_1M@GEEFALPE@?$AAd?$AAe?$AA?9?$AAL?$AAI?$AA?$AA@ 10037924     LIBCMT:winapinls.obj
 0002:00011930       ??_C@_1M@IGEOFBG@?$AAe?$AAn?$AA?9?$AAN?$AAZ?$AA?$AA@ 10037930     LIBCMT:winapinls.obj
 0002:0001193c       ??_C@_1M@KDBONEHP@?$AAe?$AAs?$AA?9?$AAC?$AAR?$AA?$AA@ 1003793c     LIBCMT:winapinls.obj
 0002:00011948       ??_C@_1M@FHMDOHNN@?$AAf?$AAr?$AA?9?$AAL?$AAU?$AA?$AA@ 10037948     LIBCMT:winapinls.obj
 0002:00011954       ??_C@_1BG@NFKKMAFG@?$AAb?$AAs?$AA?9?$AAB?$AAA?$AA?9?$AAL?$AAa?$AAt?$AAn?$AA?$AA@ 10037954     LIBCMT:winapinls.obj
 0002:0001196c       ??_C@_1O@IMNBEMCI@?$AAs?$AAm?$AAj?$AA?9?$AAS?$AAE?$AA?$AA@ 1003796c     LIBCMT:winapinls.obj
 0002:0001197c       ??_C@_1M@DHHMBNDP@?$AAa?$AAr?$AA?9?$AAM?$AAA?$AA?$AA@ 1003797c     LIBCMT:winapinls.obj
 0002:00011988       ??_C@_1M@BNBLJCGH@?$AAe?$AAn?$AA?9?$AAI?$AAE?$AA?$AA@ 10037988     LIBCMT:winapinls.obj
 0002:00011994       ??_C@_1M@GEPAFMDL@?$AAe?$AAs?$AA?9?$AAP?$AAA?$AA?$AA@ 10037994     LIBCMT:winapinls.obj
 0002:000119a0       ??_C@_1M@OJONDMDL@?$AAf?$AAr?$AA?9?$AAM?$AAC?$AA?$AA@ 100379a0     LIBCMT:winapinls.obj
 0002:000119ac       ??_C@_1BG@OBCNFJB@?$AAs?$AAr?$AA?9?$AAB?$AAA?$AA?9?$AAL?$AAa?$AAt?$AAn?$AA?$AA@ 100379ac     LIBCMT:winapinls.obj
 0002:000119c4       ??_C@_1O@KEMEEGPO@?$AAs?$AAm?$AAa?$AA?9?$AAN?$AAO?$AA?$AA@ 100379c4     LIBCMT:winapinls.obj
 0002:000119d4       ??_C@_1M@ELMGFODK@?$AAa?$AAr?$AA?9?$AAT?$AAN?$AA?$AA@ 100379d4     LIBCMT:winapinls.obj
 0002:000119e0       ??_C@_1M@BHDLHFAF@?$AAe?$AAn?$AA?9?$AAZ?$AAA?$AA?$AA@ 100379e0     LIBCMT:winapinls.obj
 0002:000119ec       ??_C@_1M@BMGIGLIF@?$AAe?$AAs?$AA?9?$AAD?$AAO?$AA?$AA@ 100379ec     LIBCMT:winapinls.obj
 0002:000119f8       ??_C@_1BG@CMBHIPBE@?$AAs?$AAr?$AA?9?$AAB?$AAA?$AA?9?$AAC?$AAy?$AAr?$AAl?$AA?$AA@ 100379f8     LIBCMT:winapinls.obj
 0002:00011a10       ??_C@_1O@HEDBLHNP@?$AAs?$AAm?$AAa?$AA?9?$AAS?$AAE?$AA?$AA@ 10037a10     LIBCMT:winapinls.obj
 0002:00011a20       ??_C@_1M@DAGCADIM@?$AAa?$AAr?$AA?9?$AAO?$AAM?$AA?$AA@ 10037a20     LIBCMT:winapinls.obj
 0002:00011a2c       ??_C@_1M@FODLMICG@?$AAe?$AAn?$AA?9?$AAJ?$AAM?$AA?$AA@ 10037a2c     LIBCMT:winapinls.obj
 0002:00011a38       ??_C@_1M@DNMLCIHB@?$AAe?$AAs?$AA?9?$AAV?$AAE?$AA?$AA@ 10037a38     LIBCMT:winapinls.obj
 0002:00011a44       ??_C@_1O@EOKHMKJK@?$AAs?$AAm?$AAs?$AA?9?$AAF?$AAI?$AA?$AA@ 10037a44     LIBCMT:winapinls.obj
 0002:00011a54       ??_C@_1M@CAFJMKOF@?$AAa?$AAr?$AA?9?$AAY?$AAE?$AA?$AA@ 10037a54     LIBCMT:winapinls.obj
 0002:00011a60       ??_C@_1M@CBFHIJLI@?$AAe?$AAn?$AA?9?$AAC?$AAB?$AA?$AA@ 10037a60     LIBCMT:winapinls.obj
 0002:00011a6c       ??_C@_1M@BGNFLDN@?$AAe?$AAs?$AA?9?$AAC?$AAO?$AA?$AA@ 10037a6c     LIBCMT:winapinls.obj
 0002:00011a78       ??_C@_1O@JMPHMAMC@?$AAs?$AAm?$AAn?$AA?9?$AAF?$AAI?$AA?$AA@ 10037a78     LIBCMT:winapinls.obj
 0002:00011a88       ??_C@_1M@JLANABKE@?$AAa?$AAr?$AA?9?$AAS?$AAY?$AA?$AA@ 10037a88     LIBCMT:winapinls.obj
 0002:00011a94       ??_C@_1M@HPKGCFGN@?$AAe?$AAn?$AA?9?$AAB?$AAZ?$AA?$AA@ 10037a94     LIBCMT:winapinls.obj
 0002:00011aa0       ??_C@_1M@OLJCMLGM@?$AAe?$AAs?$AA?9?$AAP?$AAE?$AA?$AA@ 10037aa0     LIBCMT:winapinls.obj
 0002:00011aac       ??_C@_1M@MKKGFKLE@?$AAa?$AAr?$AA?9?$AAJ?$AAO?$AA?$AA@ 10037aac     LIBCMT:winapinls.obj
 0002:00011ab8       ??_C@_1M@EKPGLDNI@?$AAe?$AAn?$AA?9?$AAT?$AAT?$AA?$AA@ 10037ab8     LIBCMT:winapinls.obj
 0002:00011ac4       ??_C@_1M@OONGHFHE@?$AAe?$AAs?$AA?9?$AAA?$AAR?$AA?$AA@ 10037ac4     LIBCMT:winapinls.obj
 0002:00011ad0       ??_C@_1M@OOJFGBHE@?$AAa?$AAr?$AA?9?$AAL?$AAB?$AA?$AA@ 10037ad0     LIBCMT:winapinls.obj
 0002:00011adc       ??_C@_1M@GCEJHNEG@?$AAe?$AAn?$AA?9?$AAZ?$AAW?$AA?$AA@ 10037adc     LIBCMT:winapinls.obj
 0002:00011ae8       ??_C@_1M@JNOCAHJI@?$AAe?$AAs?$AA?9?$AAE?$AAC?$AA?$AA@ 10037ae8     LIBCMT:winapinls.obj
 0002:00011af4       ??_C@_1M@JEFHPGGB@?$AAa?$AAr?$AA?9?$AAK?$AAW?$AA?$AA@ 10037af4     LIBCMT:winapinls.obj
 0002:00011b00       ??_C@_1M@MLKIBJOJ@?$AAe?$AAn?$AA?9?$AAP?$AAH?$AA?$AA@ 10037b00     LIBCMT:winapinls.obj
 0002:00011b0c       ??_C@_1M@BDNIPEND@?$AAe?$AAs?$AA?9?$AAC?$AAL?$AA?$AA@ 10037b0c     LIBCMT:winapinls.obj
 0002:00011b18       ??_C@_1M@MPNMEKBD@?$AAa?$AAr?$AA?9?$AAA?$AAE?$AA?$AA@ 10037b18     LIBCMT:winapinls.obj
 0002:00011b24       ??_C@_1M@KBJALCPI@?$AAe?$AAs?$AA?9?$AAU?$AAY?$AA?$AA@ 10037b24     LIBCMT:winapinls.obj
 0002:00011b30       ??_C@_1M@LLCCOAGA@?$AAa?$AAr?$AA?9?$AAB?$AAH?$AA?$AA@ 10037b30     LIBCMT:winapinls.obj
 0002:00011b3c       ??_C@_1M@PBFNCDEL@?$AAe?$AAs?$AA?9?$AAP?$AAY?$AA?$AA@ 10037b3c     LIBCMT:winapinls.obj
 0002:00011b48       ??_C@_1M@EDGINPNP@?$AAa?$AAr?$AA?9?$AAQ?$AAA?$AA?$AA@ 10037b48     LIBCMT:winapinls.obj
 0002:00011b54       ??_C@_1M@MKDBIIJI@?$AAe?$AAs?$AA?9?$AAB?$AAO?$AA?$AA@ 10037b54     LIBCMT:winapinls.obj
 0002:00011b60       ??_C@_1M@CPKKEBLD@?$AAe?$AAs?$AA?9?$AAS?$AAV?$AA?$AA@ 10037b60     LIBCMT:winapinls.obj
 0002:00011b6c       ??_C@_1M@NDBGMMJL@?$AAe?$AAs?$AA?9?$AAH?$AAN?$AA?$AA@ 10037b6c     LIBCMT:winapinls.obj
 0002:00011b78       ??_C@_1M@JIJIBHDP@?$AAe?$AAs?$AA?9?$AAN?$AAI?$AA?$AA@ 10037b78     LIBCMT:winapinls.obj
 0002:00011b84       ??_C@_1M@CGFMKEEK@?$AAe?$AAs?$AA?9?$AAP?$AAR?$AA?$AA@ 10037b84     LIBCMT:winapinls.obj
 0002:00011b90       ??_C@_1O@ICJHKIIK@?$AAz?$AAh?$AA?9?$AAC?$AAH?$AAT?$AA?$AA@ 10037b90     LIBCMT:winapinls.obj
 0002:00011ba0       ??_C@_15CLNEJCE@?$AAs?$AAr?$AA?$AA@ 10037ba0     LIBCMT:winapinls.obj
 0002:00011ba8       ??_C@_1M@KAHEKEIG@?$AAa?$AAf?$AA?9?$AAz?$AAa?$AA?$AA@ 10037ba8     LIBCMT:winapinls.obj
 0002:00011bb4       ??_C@_1M@GIECOABL@?$AAa?$AAr?$AA?9?$AAa?$AAe?$AA?$AA@ 10037bb4     LIBCMT:winapinls.obj
 0002:00011bc0       ??_C@_1M@BMLMEKGI@?$AAa?$AAr?$AA?9?$AAb?$AAh?$AA?$AA@ 10037bc0     LIBCMT:winapinls.obj
 0002:00011bcc       ??_C@_1M@DAPFDGGB@?$AAa?$AAr?$AA?9?$AAd?$AAz?$AA?$AA@ 10037bcc     LIBCMT:winapinls.obj
 0002:00011bd8       ??_C@_1M@FJNKGKIG@?$AAa?$AAr?$AA?9?$AAe?$AAg?$AA?$AA@ 10037bd8     LIBCMT:winapinls.obj
 0002:00011be4       ??_C@_1M@FLGKKCLO@?$AAa?$AAr?$AA?9?$AAi?$AAq?$AA?$AA@ 10037be4     LIBCMT:winapinls.obj
 0002:00011bf0       ??_C@_1M@GNDIPALM@?$AAa?$AAr?$AA?9?$AAj?$AAo?$AA?$AA@ 10037bf0     LIBCMT:winapinls.obj
 0002:00011bfc       ??_C@_1M@DDMJFMGJ@?$AAa?$AAr?$AA?9?$AAk?$AAw?$AA?$AA@ 10037bfc     LIBCMT:winapinls.obj
 0002:00011c08       ??_C@_1M@EJALMLHM@?$AAa?$AAr?$AA?9?$AAl?$AAb?$AA?$AA@ 10037c08     LIBCMT:winapinls.obj
 0002:00011c14       ??_C@_1M@MOBDBLOC@?$AAa?$AAr?$AA?9?$AAl?$AAy?$AA?$AA@ 10037c14     LIBCMT:winapinls.obj
 0002:00011c20       ??_C@_1M@JAOCLHDH@?$AAa?$AAr?$AA?9?$AAm?$AAa?$AA?$AA@ 10037c20     LIBCMT:winapinls.obj
 0002:00011c2c       ??_C@_1M@JHPMKJIE@?$AAa?$AAr?$AA?9?$AAo?$AAm?$AA?$AA@ 10037c2c     LIBCMT:winapinls.obj
 0002:00011c38       ??_C@_1M@OEPGHFNH@?$AAa?$AAr?$AA?9?$AAq?$AAa?$AA?$AA@ 10037c38     LIBCMT:winapinls.obj
 0002:00011c44       ??_C@_1M@KJDONENM@?$AAa?$AAr?$AA?9?$AAs?$AAa?$AA?$AA@ 10037c44     LIBCMT:winapinls.obj
 0002:00011c50       ??_C@_1M@DMJDKLKM@?$AAa?$AAr?$AA?9?$AAs?$AAy?$AA?$AA@ 10037c50     LIBCMT:winapinls.obj
 0002:00011c5c       ??_C@_1M@OMFIPEDC@?$AAa?$AAr?$AA?9?$AAt?$AAn?$AA?$AA@ 10037c5c     LIBCMT:winapinls.obj
 0002:00011c68       ??_C@_1M@IHMHGAON@?$AAa?$AAr?$AA?9?$AAy?$AAe?$AA?$AA@ 10037c68     LIBCMT:winapinls.obj
 0002:00011c74       ??_C@_1BG@KDCPGJGB@?$AAa?$AAz?$AA?9?$AAa?$AAz?$AA?9?$AAc?$AAy?$AAr?$AAl?$AA?$AA@ 10037c74     LIBCMT:winapinls.obj
 0002:00011c8c       ??_C@_1BG@IBCKDDOE@?$AAa?$AAz?$AA?9?$AAa?$AAz?$AA?9?$AAl?$AAa?$AAt?$AAn?$AA?$AA@ 10037c8c     LIBCMT:winapinls.obj
 0002:00011ca4       ??_C@_1M@EGPFDCPD@?$AAb?$AAe?$AA?9?$AAb?$AAy?$AA?$AA@ 10037ca4     LIBCMT:winapinls.obj
 0002:00011cb0       ??_C@_1M@PCMGMCGC@?$AAb?$AAg?$AA?9?$AAb?$AAg?$AA?$AA@ 10037cb0     LIBCMT:winapinls.obj
 0002:00011cbc       ??_C@_1M@BJBMFGOB@?$AAb?$AAn?$AA?9?$AAi?$AAn?$AA?$AA@ 10037cbc     LIBCMT:winapinls.obj
 0002:00011cc8       ??_C@_1BG@EAKMMACD@?$AAb?$AAs?$AA?9?$AAb?$AAa?$AA?9?$AAl?$AAa?$AAt?$AAn?$AA?$AA@ 10037cc8     LIBCMT:winapinls.obj
 0002:00011ce0       ??_C@_1M@KGADAODK@?$AAc?$AAa?$AA?9?$AAe?$AAs?$AA?$AA@ 10037ce0     LIBCMT:winapinls.obj
 0002:00011cec       ??_C@_1M@COAJPDHI@?$AAc?$AAs?$AA?9?$AAc?$AAz?$AA?$AA@ 10037cec     LIBCMT:winapinls.obj
 0002:00011cf8       ??_C@_1M@DHBHFONH@?$AAc?$AAy?$AA?9?$AAg?$AAb?$AA?$AA@ 10037cf8     LIBCMT:winapinls.obj
 0002:00011d04       ??_C@_1M@IMGKELGA@?$AAd?$AAa?$AA?9?$AAd?$AAk?$AA?$AA@ 10037d04     LIBCMT:winapinls.obj
 0002:00011d10       ??_C@_1M@NNDGDNGA@?$AAd?$AAe?$AA?9?$AAa?$AAt?$AA?$AA@ 10037d10     LIBCMT:winapinls.obj
 0002:00011d1c       ??_C@_1M@IKDBHEEM@?$AAd?$AAe?$AA?9?$AAc?$AAh?$AA?$AA@ 10037d1c     LIBCMT:winapinls.obj
 0002:00011d28       ??_C@_1M@GFFOJMCJ@?$AAd?$AAe?$AA?9?$AAd?$AAe?$AA?$AA@ 10037d28     LIBCMT:winapinls.obj
 0002:00011d34       ??_C@_1M@MDNLKBPM@?$AAd?$AAe?$AA?9?$AAl?$AAi?$AA?$AA@ 10037d34     LIBCMT:winapinls.obj
 0002:00011d40       ??_C@_1M@NJBEEJNL@?$AAd?$AAe?$AA?9?$AAl?$AAu?$AA?$AA@ 10037d40     LIBCMT:winapinls.obj
 0002:00011d4c       ??_C@_1O@GNNELBAP@?$AAd?$AAi?$AAv?$AA?9?$AAm?$AAv?$AA?$AA@ 10037d4c     LIBCMT:winapinls.obj
 0002:00011d5c       ??_C@_1M@EJLEOGAE@?$AAe?$AAl?$AA?9?$AAg?$AAr?$AA?$AA@ 10037d5c     LIBCMT:winapinls.obj
 0002:00011d68       ??_C@_1M@GMPONJN@?$AAe?$AAn?$AA?9?$AAa?$AAu?$AA?$AA@ 10037d68     LIBCMT:winapinls.obj
 0002:00011d74       ??_C@_1M@NIDIIPGF@?$AAe?$AAn?$AA?9?$AAb?$AAz?$AA?$AA@ 10037d74     LIBCMT:winapinls.obj
 0002:00011d80       ??_C@_1M@JEHMIMFO@?$AAe?$AAn?$AA?9?$AAc?$AAa?$AA?$AA@ 10037d80     LIBCMT:winapinls.obj
 0002:00011d8c       ??_C@_1M@IGMJCDLA@?$AAe?$AAn?$AA?9?$AAc?$AAb?$AA?$AA@ 10037d8c     LIBCMT:winapinls.obj
 0002:00011d98       ??_C@_1M@BNFIGBKG@?$AAe?$AAn?$AA?9?$AAg?$AAb?$AA?$AA@ 10037d98     LIBCMT:winapinls.obj
 0002:00011da4       ??_C@_1M@LKIFDIGP@?$AAe?$AAn?$AA?9?$AAi?$AAe?$AA?$AA@ 10037da4     LIBCMT:winapinls.obj
 0002:00011db0       ??_C@_1M@PJKFGCCO@?$AAe?$AAn?$AA?9?$AAj?$AAm?$AA?$AA@ 10037db0     LIBCMT:winapinls.obj
 0002:00011dbc       ??_C@_1M@KPPKEPBO@?$AAe?$AAn?$AA?9?$AAn?$AAz?$AA?$AA@ 10037dbc     LIBCMT:winapinls.obj
 0002:00011dc8       ??_C@_1M@GMDGLDOB@?$AAe?$AAn?$AA?9?$AAp?$AAh?$AA?$AA@ 10037dc8     LIBCMT:winapinls.obj
 0002:00011dd4       ??_C@_1M@ONGIBJNA@?$AAe?$AAn?$AA?9?$AAt?$AAt?$AA?$AA@ 10037dd4     LIBCMT:winapinls.obj
 0002:00011de0       ??_C@_1M@LLODPCMM@?$AAe?$AAn?$AA?9?$AAu?$AAs?$AA?$AA@ 10037de0     LIBCMT:winapinls.obj
 0002:00011dec       ??_C@_1M@LAKFNPAN@?$AAe?$AAn?$AA?9?$AAz?$AAa?$AA?$AA@ 10037dec     LIBCMT:winapinls.obj
 0002:00011df8       ??_C@_1M@MFNHNHEO@?$AAe?$AAn?$AA?9?$AAz?$AAw?$AA?$AA@ 10037df8     LIBCMT:winapinls.obj
 0002:00011e04       ??_C@_1M@EJEINPHM@?$AAe?$AAs?$AA?9?$AAa?$AAr?$AA?$AA@ 10037e04     LIBCMT:winapinls.obj
 0002:00011e10       ??_C@_1M@GNKPCCJA@?$AAe?$AAs?$AA?9?$AAb?$AAo?$AA?$AA@ 10037e10     LIBCMT:winapinls.obj
 0002:00011e1c       ??_C@_1M@LEEGFONL@?$AAe?$AAs?$AA?9?$AAc?$AAl?$AA?$AA@ 10037e1c     LIBCMT:winapinls.obj
 0002:00011e28       ??_C@_1M@KGPDPBDF@?$AAe?$AAs?$AA?9?$AAc?$AAo?$AA?$AA@ 10037e28     LIBCMT:winapinls.obj
 0002:00011e34       ??_C@_1M@EIAHOHH@?$AAe?$AAs?$AA?9?$AAc?$AAr?$AA?$AA@ 10037e34     LIBCMT:winapinls.obj
 0002:00011e40       ??_C@_1M@LLPGMBIN@?$AAe?$AAs?$AA?9?$AAd?$AAo?$AA?$AA@ 10037e40     LIBCMT:winapinls.obj
 0002:00011e4c       ??_C@_1M@DKHMKNJA@?$AAe?$AAs?$AA?9?$AAe?$AAc?$AA?$AA@ 10037e4c     LIBCMT:winapinls.obj
 0002:00011e58       ??_C@_1M@GKGFPKAP@?$AAe?$AAs?$AA?9?$AAe?$AAs?$AA?$AA@ 10037e58     LIBCMT:winapinls.obj
 0002:00011e64       ??_C@_1M@LKHKGDLN@?$AAe?$AAs?$AA?9?$AAg?$AAt?$AA?$AA@ 10037e64     LIBCMT:winapinls.obj
 0002:00011e70       ??_C@_1M@HEIIGGJD@?$AAe?$AAs?$AA?9?$AAh?$AAn?$AA?$AA@ 10037e70     LIBCMT:winapinls.obj
 0002:00011e7c       ??_C@_1M@FBDHPPGD@?$AAe?$AAs?$AA?9?$AAm?$AAx?$AA?$AA@ 10037e7c     LIBCMT:winapinls.obj
 0002:00011e88       ??_C@_1M@DPAGLNDH@?$AAe?$AAs?$AA?9?$AAn?$AAi?$AA?$AA@ 10037e88     LIBCMT:winapinls.obj
 0002:00011e94       ??_C@_1M@MDGOPGDD@?$AAe?$AAs?$AA?9?$AAp?$AAa?$AA?$AA@ 10037e94     LIBCMT:winapinls.obj
 0002:00011ea0       ??_C@_1M@EMAMGBGE@?$AAe?$AAs?$AA?9?$AAp?$AAe?$AA?$AA@ 10037ea0     LIBCMT:winapinls.obj
 0002:00011eac       ??_C@_1M@IBMCAOEC@?$AAe?$AAs?$AA?9?$AAp?$AAr?$AA?$AA@ 10037eac     LIBCMT:winapinls.obj
 0002:00011eb8       ??_C@_1M@FGMDIJED@?$AAe?$AAs?$AA?9?$AAp?$AAy?$AA?$AA@ 10037eb8     LIBCMT:winapinls.obj
 0002:00011ec4       ??_C@_1M@IIDEOLLL@?$AAe?$AAs?$AA?9?$AAs?$AAv?$AA?$AA@ 10037ec4     LIBCMT:winapinls.obj
 0002:00011ed0       ??_C@_1M@GAOBIPA@?$AAe?$AAs?$AA?9?$AAu?$AAy?$AA?$AA@ 10037ed0     LIBCMT:winapinls.obj
 0002:00011edc       ??_C@_1M@JKFFICHJ@?$AAe?$AAs?$AA?9?$AAv?$AAe?$AA?$AA@ 10037edc     LIBCMT:winapinls.obj
 0002:00011ee8       ??_C@_1M@PNMLOJDF@?$AAe?$AAt?$AA?9?$AAe?$AAe?$AA?$AA@ 10037ee8     LIBCMT:winapinls.obj
 0002:00011ef4       ??_C@_1M@GHHLIKEI@?$AAe?$AAu?$AA?9?$AAe?$AAs?$AA?$AA@ 10037ef4     LIBCMT:winapinls.obj
 0002:00011f00       ??_C@_1M@PBNONODE@?$AAf?$AAa?$AA?9?$AAi?$AAr?$AA?$AA@ 10037f00     LIBCMT:winapinls.obj
 0002:00011f0c       ??_C@_1M@JEEHPMIL@?$AAf?$AAi?$AA?9?$AAf?$AAi?$AA?$AA@ 10037f0c     LIBCMT:winapinls.obj
 0002:00011f18       ??_C@_1M@LMDCNDBA@?$AAf?$AAo?$AA?9?$AAf?$AAo?$AA?$AA@ 10037f18     LIBCMT:winapinls.obj
 0002:00011f24       ??_C@_1M@JKEOHLDK@?$AAf?$AAr?$AA?9?$AAb?$AAe?$AA?$AA@ 10037f24     LIBCMT:winapinls.obj
 0002:00011f30       ??_C@_1M@NOHADPMI@?$AAf?$AAr?$AA?9?$AAc?$AAa?$AA?$AA@ 10037f30     LIBCMT:winapinls.obj
 0002:00011f3c       ??_C@_1M@KDHIHAEC@?$AAf?$AAr?$AA?9?$AAc?$AAh?$AA?$AA@ 10037f3c     LIBCMT:winapinls.obj
 0002:00011f48       ??_C@_1M@MMBBFGAK@?$AAf?$AAr?$AA?9?$AAf?$AAr?$AA?$AA@ 10037f48     LIBCMT:winapinls.obj
 0002:00011f54       ??_C@_1M@PAFNENNF@?$AAf?$AAr?$AA?9?$AAl?$AAu?$AA?$AA@ 10037f54     LIBCMT:winapinls.obj
 0002:00011f60       ??_C@_1M@EOHDJGDD@?$AAf?$AAr?$AA?9?$AAm?$AAc?$AA?$AA@ 10037f60     LIBCMT:winapinls.obj
 0002:00011f6c       ??_C@_1M@FAPLLOPF@?$AAg?$AAl?$AA?9?$AAe?$AAs?$AA?$AA@ 10037f6c     LIBCMT:winapinls.obj
 0002:00011f78       ??_C@_1M@FOPBFLOO@?$AAg?$AAu?$AA?9?$AAi?$AAn?$AA?$AA@ 10037f78     LIBCMT:winapinls.obj
 0002:00011f84       ??_C@_1M@KBMCINPM@?$AAh?$AAe?$AA?9?$AAi?$AAl?$AA?$AA@ 10037f84     LIBCMT:winapinls.obj
 0002:00011f90       ??_C@_1M@BBPHKFPJ@?$AAh?$AAi?$AA?9?$AAi?$AAn?$AA?$AA@ 10037f90     LIBCMT:winapinls.obj
 0002:00011f9c       ??_C@_1M@PMBNDPHD@?$AAh?$AAr?$AA?9?$AAb?$AAa?$AA?$AA@ 10037f9c     LIBCMT:winapinls.obj
 0002:00011fa8       ??_C@_1M@BPCKOEGE@?$AAh?$AAr?$AA?9?$AAh?$AAr?$AA?$AA@ 10037fa8     LIBCMT:winapinls.obj
 0002:00011fb4       ??_C@_1M@GACBMHKE@?$AAh?$AAu?$AA?9?$AAh?$AAu?$AA?$AA@ 10037fb4     LIBCMT:winapinls.obj
 0002:00011fc0       ??_C@_1M@MILPAJJC@?$AAh?$AAy?$AA?9?$AAa?$AAm?$AA?$AA@ 10037fc0     LIBCMT:winapinls.obj
 0002:00011fcc       ??_C@_1M@BABBICEC@?$AAi?$AAd?$AA?9?$AAi?$AAd?$AA?$AA@ 10037fcc     LIBCMT:winapinls.obj
 0002:00011fd8       ??_C@_1M@BIKNHHPF@?$AAi?$AAs?$AA?9?$AAi?$AAs?$AA?$AA@ 10037fd8     LIBCMT:winapinls.obj
 0002:00011fe4       ??_C@_1M@NMPCJPHE@?$AAi?$AAt?$AA?9?$AAc?$AAh?$AA?$AA@ 10037fe4     LIBCMT:winapinls.obj
 0002:00011ff0       ??_C@_1M@GHKGFEDF@?$AAi?$AAt?$AA?9?$AAi?$AAt?$AA?$AA@ 10037ff0     LIBCMT:winapinls.obj
 0002:00011ffc       ??_C@_1M@NIEJCJJA@?$AAj?$AAa?$AA?9?$AAj?$AAp?$AA?$AA@ 10037ffc     LIBCMT:winapinls.obj
 0002:00012008       ??_C@_1M@JILFNBIM@?$AAk?$AAa?$AA?9?$AAg?$AAe?$AA?$AA@ 10038008     LIBCMT:winapinls.obj
 0002:00012014       ??_C@_1M@PACPMGPH@?$AAk?$AAk?$AA?9?$AAk?$AAz?$AA?$AA@ 10038014     LIBCMT:winapinls.obj
 0002:00012020       ??_C@_1M@IELFGMHA@?$AAk?$AAn?$AA?9?$AAi?$AAn?$AA?$AA@ 10038020     LIBCMT:winapinls.obj
 0002:0001202c       ??_C@_1O@IBBJHCH@?$AAk?$AAo?$AAk?$AA?9?$AAi?$AAn?$AA?$AA@ 1003802c     LIBCMT:winapinls.obj
 0002:0001203c       ??_C@_1M@DMHAEOGC@?$AAk?$AAo?$AA?9?$AAk?$AAr?$AA?$AA@ 1003803c     LIBCMT:winapinls.obj
 0002:00012048       ??_C@_1M@HBAHBIGA@?$AAk?$AAy?$AA?9?$AAk?$AAg?$AA?$AA@ 10038048     LIBCMT:winapinls.obj
 0002:00012054       ??_C@_1M@KPMILCJG@?$AAl?$AAt?$AA?9?$AAl?$AAt?$AA?$AA@ 10038054     LIBCMT:winapinls.obj
 0002:00012060       ??_C@_1M@BDEKKCA@?$AAl?$AAv?$AA?9?$AAl?$AAv?$AA?$AA@ 10038060     LIBCMT:winapinls.obj
 0002:0001206c       ??_C@_1M@ELCKCCJJ@?$AAm?$AAi?$AA?9?$AAn?$AAz?$AA?$AA@ 1003806c     LIBCMT:winapinls.obj
 0002:00012078       ??_C@_1M@CBOOLAPA@?$AAm?$AAk?$AA?9?$AAm?$AAk?$AA?$AA@ 10038078     LIBCMT:winapinls.obj
 0002:00012084       ??_C@_1M@GPHNBJKN@?$AAm?$AAl?$AA?9?$AAi?$AAn?$AA?$AA@ 10038084     LIBCMT:winapinls.obj
 0002:00012090       ??_C@_1M@PABJILIG@?$AAm?$AAn?$AA?9?$AAm?$AAn?$AA?$AA@ 10038090     LIBCMT:winapinls.obj
 0002:0001209c       ??_C@_1M@FGBKKIPG@?$AAm?$AAr?$AA?9?$AAi?$AAn?$AA?$AA@ 1003809c     LIBCMT:winapinls.obj
 0002:000120a8       ??_C@_1M@NDBPDDAL@?$AAm?$AAs?$AA?9?$AAb?$AAn?$AA?$AA@ 100380a8     LIBCMT:winapinls.obj
 0002:000120b4       ??_C@_1M@OPIHOOPI@?$AAm?$AAs?$AA?9?$AAm?$AAy?$AA?$AA@ 100380b4     LIBCMT:winapinls.obj
 0002:000120c0       ??_C@_1M@PPDBCNFM@?$AAm?$AAt?$AA?9?$AAm?$AAt?$AA?$AA@ 100380c0     LIBCMT:winapinls.obj
 0002:000120cc       ??_C@_1M@KDJDKMDD@?$AAn?$AAb?$AA?9?$AAn?$AAo?$AA?$AA@ 100380cc     LIBCMT:winapinls.obj
 0002:000120d8       ??_C@_1M@KFCFLMJP@?$AAn?$AAl?$AA?9?$AAb?$AAe?$AA?$AA@ 100380d8     LIBCMT:winapinls.obj
 0002:000120e4       ??_C@_1M@KPOPDDGO@?$AAn?$AAl?$AA?9?$AAn?$AAl?$AA?$AA@ 100380e4     LIBCMT:winapinls.obj
 0002:000120f0       ??_C@_1M@LJKPEMLN@?$AAn?$AAn?$AA?9?$AAn?$AAo?$AA?$AA@ 100380f0     LIBCMT:winapinls.obj
 0002:000120fc       ??_C@_1M@BDGHHBFL@?$AAn?$AAs?$AA?9?$AAz?$AAa?$AA?$AA@ 100380fc     LIBCMT:winapinls.obj
 0002:00012108       ??_C@_1M@IDEHOAP@?$AAp?$AAa?$AA?9?$AAi?$AAn?$AA?$AA@ 10038108     LIBCMT:winapinls.obj
 0002:00012114       ??_C@_1M@HDBKGOGH@?$AAp?$AAl?$AA?9?$AAp?$AAl?$AA?$AA@ 10038114     LIBCMT:winapinls.obj
 0002:00012120       ??_C@_1M@LJLLCMEH@?$AAp?$AAt?$AA?9?$AAb?$AAr?$AA?$AA@ 10038120     LIBCMT:winapinls.obj
 0002:0001212c       ??_C@_1M@NCMONAAL@?$AAp?$AAt?$AA?9?$AAp?$AAt?$AA?$AA@ 1003812c     LIBCMT:winapinls.obj
 0002:00012138       ??_C@_1O@EAKMAJDN@?$AAq?$AAu?$AAz?$AA?9?$AAb?$AAo?$AA?$AA@ 10038138     LIBCMT:winapinls.obj
 0002:00012148       ??_C@_1O@BHHPIGDN@?$AAq?$AAu?$AAz?$AA?9?$AAe?$AAc?$AA?$AA@ 10038148     LIBCMT:winapinls.obj
 0002:00012158       ??_C@_1O@GBAPEKMJ@?$AAq?$AAu?$AAz?$AA?9?$AAp?$AAe?$AA?$AA@ 10038158     LIBCMT:winapinls.obj
 0002:00012168       ??_C@_1M@CLGLEFBO@?$AAr?$AAo?$AA?9?$AAr?$AAo?$AA?$AA@ 10038168     LIBCMT:winapinls.obj
 0002:00012174       ??_C@_1M@CEEDODME@?$AAr?$AAu?$AA?9?$AAr?$AAu?$AA?$AA@ 10038174     LIBCMT:winapinls.obj
 0002:00012180       ??_C@_1M@HPKKKMPP@?$AAs?$AAa?$AA?9?$AAi?$AAn?$AA?$AA@ 10038180     LIBCMT:winapinls.obj
 0002:0001218c       ??_C@_1M@BKMAIGOJ@?$AAs?$AAe?$AA?9?$AAf?$AAi?$AA?$AA@ 1003818c     LIBCMT:winapinls.obj
 0002:00012198       ??_C@_1M@NDPIFLFI@?$AAs?$AAe?$AA?9?$AAn?$AAo?$AA?$AA@ 10038198     LIBCMT:winapinls.obj
 0002:000121a4       ??_C@_1M@DANKKHJ@?$AAs?$AAe?$AA?9?$AAs?$AAe?$AA?$AA@ 100381a4     LIBCMT:winapinls.obj
 0002:000121b0       ??_C@_1M@PNBLONPJ@?$AAs?$AAk?$AA?9?$AAs?$AAk?$AA?$AA@ 100381b0     LIBCMT:winapinls.obj
 0002:000121bc       ??_C@_1M@LFMODOAL@?$AAs?$AAl?$AA?9?$AAs?$AAi?$AA?$AA@ 100381bc     LIBCMT:winapinls.obj
 0002:000121c8       ??_C@_1O@DFKOMPG@?$AAs?$AAm?$AAa?$AA?9?$AAn?$AAo?$AA?$AA@ 100381c8     LIBCMT:winapinls.obj
 0002:000121d8       ??_C@_1O@NDKPBNNH@?$AAs?$AAm?$AAa?$AA?9?$AAs?$AAe?$AA?$AA@ 100381d8     LIBCMT:winapinls.obj
 0002:000121e8       ??_C@_1O@PLLKBHAB@?$AAs?$AAm?$AAj?$AA?9?$AAn?$AAo?$AA?$AA@ 100381e8     LIBCMT:winapinls.obj
 0002:000121f8       ??_C@_1O@CLEPOGCA@?$AAs?$AAm?$AAj?$AA?9?$AAs?$AAe?$AA?$AA@ 100381f8     LIBCMT:winapinls.obj
 0002:00012208       ??_C@_1O@DLGJGKMK@?$AAs?$AAm?$AAn?$AA?9?$AAf?$AAi?$AA?$AA@ 10038208     LIBCMT:winapinls.obj
 0002:00012218       ??_C@_1O@OJDJGAJC@?$AAs?$AAm?$AAs?$AA?9?$AAf?$AAi?$AA?$AA@ 10038218     LIBCMT:winapinls.obj
 0002:00012228       ??_C@_1M@BOFOGHPB@?$AAs?$AAq?$AA?9?$AAa?$AAl?$AA?$AA@ 10038228     LIBCMT:winapinls.obj
 0002:00012234       ??_C@_1BG@LJBBIPGB@?$AAs?$AAr?$AA?9?$AAb?$AAa?$AA?9?$AAc?$AAy?$AAr?$AAl?$AA?$AA@ 10038234     LIBCMT:winapinls.obj
 0002:0001224c       ??_C@_1BG@JLBENFOE@?$AAs?$AAr?$AA?9?$AAb?$AAa?$AA?9?$AAl?$AAa?$AAt?$AAn?$AA?$AA@ 1003824c     LIBCMT:winapinls.obj
 0002:00012264       ??_C@_1BG@KODPNHE@?$AAs?$AAr?$AA?9?$AAs?$AAp?$AA?9?$AAc?$AAy?$AAr?$AAl?$AA?$AA@ 10038264     LIBCMT:winapinls.obj
 0002:0001227c       ??_C@_1BG@CIOGKHPB@?$AAs?$AAr?$AA?9?$AAs?$AAp?$AA?9?$AAl?$AAa?$AAt?$AAn?$AA?$AA@ 1003827c     LIBCMT:winapinls.obj
 0002:00012294       ??_C@_1M@NGFJLMAC@?$AAs?$AAv?$AA?9?$AAf?$AAi?$AA?$AA@ 10038294     LIBCMT:winapinls.obj
 0002:000122a0       ??_C@_1M@MPJEJAJC@?$AAs?$AAv?$AA?9?$AAs?$AAe?$AA?$AA@ 100382a0     LIBCMT:winapinls.obj
 0002:000122ac       ??_C@_1M@MPNDHLFK@?$AAs?$AAw?$AA?9?$AAk?$AAe?$AA?$AA@ 100382ac     LIBCMT:winapinls.obj
 0002:000122b8       ??_C@_1O@KOHBJJI@?$AAs?$AAy?$AAr?$AA?9?$AAs?$AAy?$AA?$AA@ 100382b8     LIBCMT:winapinls.obj
 0002:000122c8       ??_C@_1M@LDCEFHA@?$AAt?$AAa?$AA?9?$AAi?$AAn?$AA?$AA@ 100382c8     LIBCMT:winapinls.obj
 0002:000122d4       ??_C@_1M@CNJOFAK@?$AAt?$AAe?$AA?9?$AAi?$AAn?$AA?$AA@ 100382d4     LIBCMT:winapinls.obj
 0002:000122e0       ??_C@_1M@GNAECACD@?$AAt?$AAh?$AA?9?$AAt?$AAh?$AA?$AA@ 100382e0     LIBCMT:winapinls.obj
 0002:000122ec       ??_C@_1M@CHBIHOJO@?$AAt?$AAn?$AA?9?$AAz?$AAa?$AA?$AA@ 100382ec     LIBCMT:winapinls.obj
 0002:000122f8       ??_C@_1M@GCCMIGPJ@?$AAt?$AAr?$AA?9?$AAt?$AAr?$AA?$AA@ 100382f8     LIBCMT:winapinls.obj
 0002:00012304       ??_C@_1M@CELMCNBK@?$AAt?$AAt?$AA?9?$AAr?$AAu?$AA?$AA@ 10038304     LIBCMT:winapinls.obj
 0002:00012310       ??_C@_1M@KLMCELGA@?$AAu?$AAk?$AA?9?$AAu?$AAa?$AA?$AA@ 10038310     LIBCMT:winapinls.obj
 0002:0001231c       ??_C@_1M@EPAJJAJF@?$AAu?$AAr?$AA?9?$AAp?$AAk?$AA?$AA@ 1003831c     LIBCMT:winapinls.obj
 0002:00012328       ??_C@_1BG@GEGPMCDJ@?$AAu?$AAz?$AA?9?$AAu?$AAz?$AA?9?$AAc?$AAy?$AAr?$AAl?$AA?$AA@ 10038328     LIBCMT:winapinls.obj
 0002:00012340       ??_C@_1BG@EGGKJILM@?$AAu?$AAz?$AA?9?$AAu?$AAz?$AA?9?$AAl?$AAa?$AAt?$AAn?$AA?$AA@ 10038340     LIBCMT:winapinls.obj
 0002:00012358       ??_C@_1M@GFOCLFF@?$AAv?$AAi?$AA?9?$AAv?$AAn?$AA?$AA@ 10038358     LIBCMT:winapinls.obj
 0002:00012364       ??_C@_1M@CPAMEDFI@?$AAx?$AAh?$AA?9?$AAz?$AAa?$AA?$AA@ 10038364     LIBCMT:winapinls.obj
 0002:00012370       ??_C@_1O@EBKIFIGN@?$AAz?$AAh?$AA?9?$AAc?$AAh?$AAs?$AA?$AA@ 10038370     LIBCMT:winapinls.obj
 0002:00012380       ??_C@_1O@NMHPGANE@?$AAz?$AAh?$AA?9?$AAc?$AAh?$AAt?$AA?$AA@ 10038380     LIBCMT:winapinls.obj
 0002:00012390       ??_C@_1M@LPINJOMC@?$AAz?$AAh?$AA?9?$AAc?$AAn?$AA?$AA@ 10038390     LIBCMT:winapinls.obj
 0002:0001239c       ??_C@_1M@OCJEJODD@?$AAz?$AAh?$AA?9?$AAh?$AAk?$AA?$AA@ 1003839c     LIBCMT:winapinls.obj
 0002:000123a8       ??_C@_1M@DNDLJINH@?$AAz?$AAh?$AA?9?$AAm?$AAo?$AA?$AA@ 100383a8     LIBCMT:winapinls.obj
 0002:000123b4       ??_C@_1M@MBFDNDND@?$AAz?$AAh?$AA?9?$AAs?$AAg?$AA?$AA@ 100383b4     LIBCMT:winapinls.obj
 0002:000123c0       ??_C@_1M@IMEPLEPE@?$AAz?$AAh?$AA?9?$AAt?$AAw?$AA?$AA@ 100383c0     LIBCMT:winapinls.obj
 0002:000123cc       ??_C@_1M@BBGHNHJP@?$AAz?$AAu?$AA?9?$AAz?$AAa?$AA?$AA@ 100383cc     LIBCMT:winapinls.obj
 0002:00012564       ??_C@_08EHJDFFNH@__based?$CI?$AA@ 10038564     LIBCMT:undname.obj
 0002:00012570       ??_C@_07KOLFKCDI@__cdecl?$AA@ 10038570     LIBCMT:undname.obj
 0002:00012578       ??_C@_08GHMPAG@__pascal?$AA@ 10038578     LIBCMT:undname.obj
 0002:00012584       ??_C@_09IFJBGAPI@__stdcall?$AA@ 10038584     LIBCMT:undname.obj
 0002:00012590       ??_C@_0L@NPHFGOKO@__thiscall?$AA@ 10038590     LIBCMT:undname.obj
 0002:0001259c       ??_C@_0L@JMKHOMEK@__fastcall?$AA@ 1003859c     LIBCMT:undname.obj
 0002:000125a8       ??_C@_0N@BCKKPABJ@__vectorcall?$AA@ 100385a8     LIBCMT:undname.obj
 0002:000125b8       ??_C@_09HIJEGCPM@__clrcall?$AA@ 100385b8     LIBCMT:undname.obj
 0002:000125c4       ??_C@_06GHPCKEAG@__eabi?$AA@ 100385c4     LIBCMT:undname.obj
 0002:000125cc       ??_C@_07JOMMBBKO@__ptr64?$AA@ 100385cc     LIBCMT:undname.obj
 0002:000125d4       ??_C@_0L@PILCLIHE@__restrict?$AA@ 100385d4     LIBCMT:undname.obj
 0002:000125e0       ??_C@_0M@GFIIJFMG@__unaligned?$AA@ 100385e0     LIBCMT:undname.obj
 0002:000125ec       ??_C@_09DHDLOLLB@restrict?$CI?$AA@ 100385ec     LIBCMT:undname.obj
 0002:000125f6       ??_C@_00CNPNBAHC@?$AA@     100385f6     LIBCMT:undname.obj
 0002:000125f8       ??_C@_04NIHEBCM@?5new?$AA@ 100385f8     LIBCMT:undname.obj
 0002:00012600       ??_C@_07FPCDHGMM@?5delete?$AA@ 10038600     LIBCMT:undname.obj
 0002:00012608       ??_C@_01NEMOKFLO@?$DN?$AA@ 10038608     LIBCMT:undname.obj
 0002:0001260c       ??_C@_02GPIOPFAK@?$DO?$DO?$AA@ 1003860c     LIBCMT:undname.obj
 0002:00012610       ??_C@_02FODMEDOG@?$DM?$DM?$AA@ 10038610     LIBCMT:undname.obj
 0002:00012614       ??_C@_01DCLJPIOD@?$CB?$AA@ 10038614     LIBCMT:undname.obj
 0002:00012618       ??_C@_02EGOFBIJA@?$DN?$DN?$AA@ 10038618     LIBCMT:undname.obj
 0002:0001261c       ??_C@_02FDNJECIE@?$CB?$DN?$AA@ 1003861c     LIBCMT:undname.obj
 0002:00012620       ??_C@_02GPECMEKF@?$FL?$FN?$AA@ 10038620     LIBCMT:undname.obj
 0002:00012624       ??_C@_08LHJFAFGD@operator?$AA@ 10038624     LIBCMT:undname.obj
 0002:00012630       ??_C@_02HBOOOICD@?9?$DO?$AA@ 10038630     LIBCMT:undname.obj
 0002:00012634       ??_C@_01NBENCBCI@?$CK?$AA@ 10038634     LIBCMT:undname.obj
 0002:00012638       ??_C@_02ECNGHCIF@?$CL?$CL?$AA@ 10038638     LIBCMT:undname.obj
 0002:0001263c       ??_C@_02BAABKJLB@?9?9?$AA@ 1003863c     LIBCMT:undname.obj
 0002:00012640       ??_C@_01JOAMLHOP@?9?$AA@   10038640     LIBCMT:undname.obj
 0002:00012644       ??_C@_01MIFGBAGJ@?$CL?$AA@ 10038644     LIBCMT:undname.obj
 0002:00012648       ??_C@_01HNPIGOCE@?$CG?$AA@ 10038648     LIBCMT:undname.obj
 0002:0001264c       ??_C@_03MNHNFDLC@?9?$DO?$CK?$AA@ 1003864c     LIBCMT:undname.obj
 0002:00012650       ??_C@_01KMDKNFGN@?1?$AA@   10038650     LIBCMT:undname.obj
 0002:00012654       ??_C@_01FGNFDNOH@?$CF?$AA@ 10038654     LIBCMT:undname.obj
 0002:00012658       ??_C@_01MNNFJEPP@?$DM?$AA@ 10038658     LIBCMT:undname.obj
 0002:0001265c       ??_C@_02EHCHHCKH@?$DM?$DN?$AA@ 1003865c     LIBCMT:undname.obj
 0002:00012660       ??_C@_01PPODPGHN@?$DO?$AA@ 10038660     LIBCMT:undname.obj
 0002:00012664       ??_C@_02EEKDKGMJ@?$DO?$DN?$AA@ 10038664     LIBCMT:undname.obj
 0002:00012668       ??_C@_01IHBHIGKO@?0?$AA@   10038668     LIBCMT:undname.obj
 0002:0001266c       ??_C@_02HCKGKOFO@?$CI?$CJ?$AA@ 1003866c     LIBCMT:undname.obj
 0002:00012670       ??_C@_01PJKLJHI@?$HO?$AA@  10038670     LIBCMT:undname.obj
 0002:00012674       ??_C@_01JKBOJNNK@?$FO?$AA@ 10038674     LIBCMT:undname.obj
 0002:00012678       ??_C@_01DNKMNLPK@?$HM?$AA@ 10038678     LIBCMT:undname.obj
 0002:0001267c       ??_C@_02PPKAJPJL@?$CG?$CG?$AA@ 1003867c     LIBCMT:undname.obj
 0002:00012680       ??_C@_02NONPIBCD@?$HM?$HM?$AA@ 10038680     LIBCMT:undname.obj
 0002:00012684       ??_C@_02FPIMKNGF@?$CK?$DN?$AA@ 10038684     LIBCMT:undname.obj
 0002:00012688       ??_C@_02FOEOMHFC@?$CL?$DN?$AA@ 10038688     LIBCMT:undname.obj
 0002:0001268c       ??_C@_02FKMDLLOA@?9?$DN?$AA@ 1003868c     LIBCMT:undname.obj
 0002:00012690       ??_C@_02FJEHGPIO@?1?$DN?$AA@ 10038690     LIBCMT:undname.obj
 0002:00012694       ??_C@_02FENAOKFI@?$CF?$DN?$AA@ 10038694     LIBCMT:undname.obj
 0002:00012698       ??_C@_03IKFCCPFF@?$DO?$DO?$DN?$AA@ 10038698     LIBCMT:undname.obj
 0002:0001269c       ??_C@_03CDNPDDLA@?$DM?$DM?$DN?$AA@ 1003869c     LIBCMT:undname.obj
 0002:000126a0       ??_C@_02FGJGFEAB@?$CG?$DN?$AA@ 100386a0     LIBCMT:undname.obj
 0002:000126a4       ??_C@_02DHLNPPGH@?$HM?$DN?$AA@ 100386a4     LIBCMT:undname.obj
 0002:000126a8       ??_C@_02MHEGNOJ@?$FO?$DN?$AA@ 100386a8     LIBCMT:undname.obj
 0002:000126ac       ??_C@_09IFPLHPGF@?$GAvftable?8?$AA@ 100386ac     LIBCMT:undname.obj
 0002:000126b8       ??_C@_09BLBHBJP@?$GAvbtable?8?$AA@ 100386b8     LIBCMT:undname.obj
 0002:000126c4       ??_C@_07FEEIOKP@?$GAvcall?8?$AA@ 100386c4     LIBCMT:undname.obj
 0002:000126cc       ??_C@_08LLFFHHDJ@?$GAtypeof?8?$AA@ 100386cc     LIBCMT:undname.obj
 0002:000126d8       ??_C@_0BF@KDPPACIK@?$GAlocal?5static?5guard?8?$AA@ 100386d8     LIBCMT:undname.obj
 0002:000126f0       ??_C@_08OBABFOLI@?$GAstring?8?$AA@ 100386f0     LIBCMT:undname.obj
 0002:000126fc       ??_C@_0BD@JDLKDPAB@?$GAvbase?5destructor?8?$AA@ 100386fc     LIBCMT:undname.obj
 0002:00012710       ??_C@_0BN@DEGPLNFK@?$GAvector?5deleting?5destructor?8?$AA@ 10038710     LIBCMT:undname.obj
 0002:00012730       ??_C@_0BO@OBMKPJIG@?$GAdefault?5constructor?5closure?8?$AA@ 10038730     LIBCMT:undname.obj
 0002:00012750       ??_C@_0BN@IMDCHIKM@?$GAscalar?5deleting?5destructor?8?$AA@ 10038750     LIBCMT:undname.obj
 0002:00012770       ??_C@_0BO@PFGOCPJJ@?$GAvector?5constructor?5iterator?8?$AA@ 10038770     LIBCMT:undname.obj
 0002:00012790       ??_C@_0BN@LFPFMEDL@?$GAvector?5destructor?5iterator?8?$AA@ 10038790     LIBCMT:undname.obj
 0002:000127b0       ??_C@_0CE@IKBNEHA@?$GAvector?5vbase?5constructor?5iterat@ 100387b0     LIBCMT:undname.obj
 0002:000127d4       ??_C@_0BL@NILFHHPC@?$GAvirtual?5displacement?5map?8?$AA@ 100387d4     LIBCMT:undname.obj
 0002:000127f0       ??_C@_0CB@JONCMFFK@?$GAeh?5vector?5constructor?5iterator?8@ 100387f0     LIBCMT:undname.obj
 0002:00012814       ??_C@_0CA@GCEOPDGL@?$GAeh?5vector?5destructor?5iterator?8?$AA@ 10038814     LIBCMT:undname.obj
 0002:00012834       ??_C@_0CH@OOJPLCPH@?$GAeh?5vector?5vbase?5constructor?5ite@ 10038834     LIBCMT:undname.obj
 0002:0001285c       ??_C@_0BL@LLKPOHJI@?$GAcopy?5constructor?5closure?8?$AA@ 1003885c     LIBCMT:undname.obj
 0002:00012878       ??_C@_0BA@KBCDOMBN@?$GAudt?5returning?8?$AA@ 10038878     LIBCMT:undname.obj
 0002:00012888       ??_C@_03KLGMFNMG@?$GAEH?$AA@ 10038888     LIBCMT:undname.obj
 0002:0001288c       ??_C@_05KHLCHHI@?$GARTTI?$AA@ 1003888c     LIBCMT:undname.obj
 0002:00012894       ??_C@_0BA@KKLDJDLB@?$GAlocal?5vftable?8?$AA@ 10038894     LIBCMT:undname.obj
 0002:000128a4       ??_C@_0CE@IIHCMGGL@?$GAlocal?5vftable?5constructor?5closu@ 100388a4     LIBCMT:undname.obj
 0002:000128c8       ??_C@_06FHBGPFGH@?5new?$FL?$FN?$AA@ 100388c8     LIBCMT:undname.obj
 0002:000128d0       ??_C@_09LBNFPBCA@?5delete?$FL?$FN?$AA@ 100388d0     LIBCMT:undname.obj
 0002:000128dc       ??_C@_0P@HJKNJFNN@?$GAomni?5callsig?8?$AA@ 100388dc     LIBCMT:undname.obj
 0002:000128ec       ??_C@_0BL@CNOONJFP@?$GAplacement?5delete?5closure?8?$AA@ 100388ec     LIBCMT:undname.obj
 0002:00012908       ??_C@_0BN@CKNJLHMB@?$GAplacement?5delete?$FL?$FN?5closure?8?$AA@ 10038908     LIBCMT:undname.obj
 0002:00012928       ??_C@_0CG@CFDHKGGD@?$GAmanaged?5vector?5constructor?5iter@ 10038928     LIBCMT:undname.obj
 0002:00012950       ??_C@_0CF@IMGKMJNO@?$GAmanaged?5vector?5destructor?5itera@ 10038950     LIBCMT:undname.obj
 0002:00012978       ??_C@_0CG@HLDDJMAG@?$GAeh?5vector?5copy?5constructor?5iter@ 10038978     LIBCMT:undname.obj
 0002:000129a0       ??_C@_0CM@FCBBDIGB@?$GAeh?5vector?5vbase?5copy?5constructo@ 100389a0     LIBCMT:undname.obj
 0002:000129cc       ??_C@_0BL@CLIPGLGB@?$GAdynamic?5initializer?5for?5?8?$AA@ 100389cc     LIBCMT:undname.obj
 0002:000129e8       ??_C@_0CB@PDBIFEP@?$GAdynamic?5atexit?5destructor?5for?5?8@ 100389e8     LIBCMT:undname.obj
 0002:00012a0c       ??_C@_0CD@CGAJBKEJ@?$GAvector?5copy?5constructor?5iterato@ 10038a0c     LIBCMT:undname.obj
 0002:00012a30       ??_C@_0CJ@GJELGAMM@?$GAvector?5vbase?5copy?5constructor?5i@ 10038a30     LIBCMT:undname.obj
 0002:00012a5c       ??_C@_0CL@FGIJHLCE@?$GAmanaged?5vector?5copy?5constructor@ 10038a5c     LIBCMT:undname.obj
 0002:00012a88       ??_C@_0BM@PMGGMLDN@?$GAlocal?5static?5thread?5guard?8?$AA@ 10038a88     LIBCMT:undname.obj
 0002:00012aa4       ??_C@_0BC@DAFEJGAK@?5Type?5Descriptor?8?$AA@ 10038aa4     LIBCMT:undname.obj
 0002:00012ab8       ??_C@_0BM@LDKODKLH@?5Base?5Class?5Descriptor?5at?5?$CI?$AA@ 10038ab8     LIBCMT:undname.obj
 0002:00012ad4       ??_C@_0BD@LGICGFMM@?5Base?5Class?5Array?8?$AA@ 10038ad4     LIBCMT:undname.obj
 0002:00012ae8       ??_C@_0BN@MECKDCOJ@?5Class?5Hierarchy?5Descriptor?8?$AA@ 10038ae8     LIBCMT:undname.obj
 0002:00012b08       ??_C@_0BK@CFCOFLF@?5Complete?5Object?5Locator?8?$AA@ 10038b08     LIBCMT:undname.obj
 0002:00012b24       ??_C@_1BG@GOEBHBDC@?$AAU?$AAS?$AAE?$AAR?$AA3?$AA2?$AA?4?$AAD?$AAL?$AAL?$AA?$AA@ 10038b24     LIBCMT:crtmboxw.obj
 0002:00012b3c       ??_C@_0M@DLDCCGNP@MessageBoxW?$AA@ 10038b3c     LIBCMT:crtmboxw.obj
 0002:00012b48       ??_C@_0BA@HNOPNCHB@GetActiveWindow?$AA@ 10038b48     LIBCMT:crtmboxw.obj
 0002:00012b58       ??_C@_0BD@HHGDFDBJ@GetLastActivePopup?$AA@ 10038b58     LIBCMT:crtmboxw.obj
 0002:00012b6c       ??_C@_0BK@DEKFELLI@GetUserObjectInformationW?$AA@ 10038b6c     LIBCMT:crtmboxw.obj
 0002:00012b88       ??_C@_0BI@DFKBFLJE@GetProcessWindowStation?$AA@ 10038b88     LIBCMT:crtmboxw.obj
 0002:00012c20       ??_C@_06PGGFOGJG@1?$CDSNAN?$AA@ 10038c20     LIBCMT:x10fout.obj
 0002:00012c28       ??_C@_05PHHOCPM@1?$CDIND?$AA@ 10038c28     LIBCMT:x10fout.obj
 0002:00012c30       ??_C@_05DNEBIAHO@1?$CDINF?$AA@ 10038c30     LIBCMT:x10fout.obj
 0002:00012c38       ??_C@_06IMKFLFPG@1?$CDQNAN?$AA@ 10038c38     LIBCMT:x10fout.obj
 0002:00012c40       ___newctype                10038c40     LIBCMT:ctype.obj
 0002:00012f40       __wctype                   10038f40     LIBCMT:ctype.obj
 0002:00013148       ___newclmap                10039148     LIBCMT:ctype.obj
 0002:000132c8       ___newcumap                100392c8     LIBCMT:ctype.obj
 0002:00013448       ___rg_language_count       10039448     LIBCMT:getqloc.obj
 0002:0001344c       ___rg_country_count        1003944c     LIBCMT:getqloc.obj
 0002:00013450       ??_C@_1BA@BALFACEM@?$AAC?$AAO?$AAN?$AAO?$AAU?$AAT?$AA$?$AA?$AA@ 10039450     LIBCMT:initcon.obj
 0002:00013460       __load_config_used         10039460     LIBCMT:loadcfg.obj
 0002:000134a8       ??_R4error_category@std@@6B@ 100394a8     solid:C-api.obj
 0002:000134bc       ??_R3error_category@std@@8 100394bc     solid:C-api.obj
 0002:000134cc       ??_R2error_category@std@@8 100394cc     solid:C-api.obj
 0002:000134d4       ??_R1A@?0A@EA@error_category@std@@8 100394d4     solid:C-api.obj
 0002:000134f0       ??_R4_Generic_error_category@std@@6B@ 100394f0     solid:C-api.obj
 0002:00013504       ??_R3_Generic_error_category@std@@8 10039504     solid:C-api.obj
 0002:00013514       ??_R2_Generic_error_category@std@@8 10039514     solid:C-api.obj
 0002:00013520       ??_R1A@?0A@EA@_Generic_error_category@std@@8 10039520     solid:C-api.obj
 0002:0001353c       ??_R4_Iostream_error_category@std@@6B@ 1003953c     solid:C-api.obj
 0002:00013550       ??_R3_Iostream_error_category@std@@8 10039550     solid:C-api.obj
 0002:00013560       ??_R2_Iostream_error_category@std@@8 10039560     solid:C-api.obj
 0002:00013570       ??_R1A@?0A@EA@_Iostream_error_category@std@@8 10039570     solid:C-api.obj
 0002:0001358c       ??_R4_System_error_category@std@@6B@ 1003958c     solid:C-api.obj
 0002:000135a0       ??_R3_System_error_category@std@@8 100395a0     solid:C-api.obj
 0002:000135b0       ??_R2_System_error_category@std@@8 100395b0     solid:C-api.obj
 0002:000135c0       ??_R1A@?0A@EA@_System_error_category@std@@8 100395c0     solid:C-api.obj
 0002:000135dc       ??_R4Shape@@6B@            100395dc     solid:C-api.obj
 0002:000135f0       ??_R3Shape@@8              100395f0     solid:C-api.obj
 0002:00013600       ??_R2Shape@@8              10039600     solid:C-api.obj
 0002:00013608       ??_R1A@?0A@EA@Shape@@8     10039608     solid:C-api.obj
 0002:00013624       ??_R3Convex@@8             10039624     solid:C-api.obj
 0002:00013634       ??_R2Convex@@8             10039634     solid:C-api.obj
 0002:00013640       ??_R1A@?0A@EA@Convex@@8    10039640     solid:C-api.obj
 0002:0001365c       ??_R4Box@@6B@              1003965c     solid:C-api.obj
 0002:00013670       ??_R3Box@@8                10039670     solid:C-api.obj
 0002:00013680       ??_R2Box@@8                10039680     solid:C-api.obj
 0002:00013690       ??_R1A@?0A@EA@Box@@8       10039690     solid:C-api.obj
 0002:000136ac       ??_R4Cone@@6B@             100396ac     solid:C-api.obj
 0002:000136c0       ??_R3Cone@@8               100396c0     solid:C-api.obj
 0002:000136d0       ??_R2Cone@@8               100396d0     solid:C-api.obj
 0002:000136e0       ??_R1A@?0A@EA@Cone@@8      100396e0     solid:C-api.obj
 0002:000136fc       ??_R4Cylinder@@6B@         100396fc     solid:C-api.obj
 0002:00013710       ??_R3Cylinder@@8           10039710     solid:C-api.obj
 0002:00013720       ??_R2Cylinder@@8           10039720     solid:C-api.obj
 0002:00013730       ??_R1A@?0A@EA@Cylinder@@8  10039730     solid:C-api.obj
 0002:0001374c       ??_R4Sphere@@6B@           1003974c     solid:C-api.obj
 0002:00013760       ??_R3Sphere@@8             10039760     solid:C-api.obj
 0002:00013770       ??_R2Sphere@@8             10039770     solid:C-api.obj
 0002:00013780       ??_R1A@?0A@EA@Sphere@@8    10039780     solid:C-api.obj
 0002:0001379c       ??_R4Polytope@@6B@         1003979c     solid:C-api.obj
 0002:000137b0       ??_R3Polytope@@8           100397b0     solid:C-api.obj
 0002:000137c0       ??_R2Polytope@@8           100397c0     solid:C-api.obj
 0002:000137d0       ??_R1A@?0A@EA@Polytope@@8  100397d0     solid:C-api.obj
 0002:000137ec       ??_R4Complex@@6B@          100397ec     solid:C-api.obj
 0002:00013800       ??_R3Complex@@8            10039800     solid:C-api.obj
 0002:00013810       ??_R2Complex@@8            10039810     solid:C-api.obj
 0002:0001381c       ??_R1A@?0A@EA@Complex@@8   1003981c     solid:C-api.obj
 0002:00013838       ??_R4Simplex@@6B@          10039838     solid:C-api.obj
 0002:0001384c       ??_R3Simplex@@8            1003984c     solid:C-api.obj
 0002:0001385c       ??_R2Simplex@@8            1003985c     solid:C-api.obj
 0002:00013870       ??_R1A@?0A@EA@Simplex@@8   10039870     solid:C-api.obj
 0002:0001388c       ??_R4Polygon@@6B@          1003988c     solid:C-api.obj
 0002:000138a0       ??_R3Polygon@@8            100398a0     solid:C-api.obj
 0002:000138b0       ??_R2Polygon@@8            100398b0     solid:C-api.obj
 0002:000138c4       ??_R1A@?0A@EA@Polygon@@8   100398c4     solid:C-api.obj
 0002:000138e0       ??_R4Polyhedron@@6B@       100398e0     solid:Polyhedron.obj
 0002:000138f4       ??_R3Polyhedron@@8         100398f4     solid:Polyhedron.obj
 0002:00013904       ??_R2Polyhedron@@8         10039904     solid:Polyhedron.obj
 0002:00013918       ??_R1A@?0A@EA@Polyhedron@@8 10039918     solid:Polyhedron.obj
 0002:00013934       ??_R1A@?0A@EA@exception@std@@8 10039934     libcpmt:xthrow.obj
 0002:00013950       ??_R3exception@std@@8      10039950     libcpmt:xthrow.obj
 0002:00013960       ??_R2exception@std@@8      10039960     libcpmt:xthrow.obj
 0002:00013968       ??_R4bad_alloc@std@@6B@    10039968     libcpmt:xthrow.obj
 0002:0001397c       ??_R3bad_alloc@std@@8      1003997c     libcpmt:xthrow.obj
 0002:0001398c       ??_R2bad_alloc@std@@8      1003998c     libcpmt:xthrow.obj
 0002:00013998       ??_R1A@?0A@EA@bad_alloc@std@@8 10039998     libcpmt:xthrow.obj
 0002:000139b4       ??_R4logic_error@std@@6B@  100399b4     libcpmt:xthrow.obj
 0002:000139c8       ??_R3logic_error@std@@8    100399c8     libcpmt:xthrow.obj
 0002:000139d8       ??_R2logic_error@std@@8    100399d8     libcpmt:xthrow.obj
 0002:000139e4       ??_R1A@?0A@EA@logic_error@std@@8 100399e4     libcpmt:xthrow.obj
 0002:00013a00       ??_R4length_error@std@@6B@ 10039a00     libcpmt:xthrow.obj
 0002:00013a14       ??_R3length_error@std@@8   10039a14     libcpmt:xthrow.obj
 0002:00013a24       ??_R2length_error@std@@8   10039a24     libcpmt:xthrow.obj
 0002:00013a34       ??_R1A@?0A@EA@length_error@std@@8 10039a34     libcpmt:xthrow.obj
 0002:00013a50       ??_R4out_of_range@std@@6B@ 10039a50     libcpmt:xthrow.obj
 0002:00013a64       ??_R3out_of_range@std@@8   10039a64     libcpmt:xthrow.obj
 0002:00013a74       ??_R2out_of_range@std@@8   10039a74     libcpmt:xthrow.obj
 0002:00013a84       ??_R1A@?0A@EA@out_of_range@std@@8 10039a84     libcpmt:xthrow.obj
 0002:00013aa0       ??_R4type_info@@6B@        10039aa0     LIBCMT:typinfo.obj
 0002:00013ab4       ??_R3type_info@@8          10039ab4     LIBCMT:typinfo.obj
 0002:00013ac4       ??_R2type_info@@8          10039ac4     LIBCMT:typinfo.obj
 0002:00013acc       ??_R1A@?0A@EA@type_info@@8 10039acc     LIBCMT:typinfo.obj
 0002:00013ae8       ??_R4exception@std@@6B@    10039ae8     LIBCMT:stdexcpt.obj
 0002:00013afc       ??_R4bad_exception@std@@6B@ 10039afc     LIBCMT:frame.obj
 0002:00013b10       ??_R3bad_exception@std@@8  10039b10     LIBCMT:frame.obj
 0002:00013b20       ??_R2bad_exception@std@@8  10039b20     LIBCMT:frame.obj
 0002:00013b2c       ??_R1A@?0A@EA@bad_exception@std@@8 10039b2c     LIBCMT:frame.obj
 0002:00013b50       ___safe_se_handler_table   10039b50     <linker-defined>
 0002:00013bb0       ___rtc_iaa                 10039bb0     LIBCMT:initsect.obj
 0002:00013bb4       ___rtc_izz                 10039bb4     LIBCMT:initsect.obj
 0002:00013bb8       ___rtc_taa                 10039bb8     LIBCMT:initsect.obj
 0002:00013bbc       ___rtc_tzz                 10039bbc     LIBCMT:initsect.obj
 0002:000140e0       __TI2?AVbad_alloc@std@@    1003a0e0     libcpmt:xthrow.obj
 0002:000140f0       __CTA2?AVbad_alloc@std@@   1003a0f0     libcpmt:xthrow.obj
 0002:000140fc       __CT??_R0?AVbad_alloc@std@@@8??0bad_alloc@std@@QAE@ABV01@@Z12 1003a0fc     libcpmt:xthrow.obj
 0002:00014118       __CT??_R0?AVexception@std@@@8??0exception@std@@QAE@ABV01@@Z12 1003a118     libcpmt:xthrow.obj
 0002:00014134       __CT??_R0?AVlogic_error@std@@@8??0logic_error@std@@QAE@ABV01@@Z12 1003a134     libcpmt:xthrow.obj
 0002:00014150       __TI3?AVlength_error@std@@ 1003a150     libcpmt:xthrow.obj
 0002:00014160       __CTA3?AVlength_error@std@@ 1003a160     libcpmt:xthrow.obj
 0002:00014170       __CT??_R0?AVlength_error@std@@@8??0length_error@std@@QAE@ABV01@@Z12 1003a170     libcpmt:xthrow.obj
 0002:0001418c       __TI3?AVout_of_range@std@@ 1003a18c     libcpmt:xthrow.obj
 0002:0001419c       __CTA3?AVout_of_range@std@@ 1003a19c     libcpmt:xthrow.obj
 0002:000141ac       __CT??_R0?AVout_of_range@std@@@8??0out_of_range@std@@QAE@ABV01@@Z12 1003a1ac     libcpmt:xthrow.obj
 0002:0001449c       __TI2?AVbad_exception@std@@ 1003a49c     LIBCMT:frame.obj
 0002:000144ac       __CTA2?AVbad_exception@std@@ 1003a4ac     LIBCMT:frame.obj
 0002:000144b8       __CT??_R0?AVbad_exception@std@@@8??0bad_exception@std@@QAE@ABV01@@Z12 1003a4b8     LIBCMT:frame.obj
 0002:00014724       __IMPORT_DESCRIPTOR_tgf    1003a724     tgf:tgf.dll
 0002:00014738       __IMPORT_DESCRIPTOR_robottools 1003a738     robottools:robottools.dll
 0002:0001474c       __IMPORT_DESCRIPTOR_KERNEL32 1003a74c     kernel32:KERNEL32.dll
 0002:00014760       __NULL_IMPORT_DESCRIPTOR   1003a760     tgf:tgf.dll
 0003:00000010       ?simDammageFactor@@3PAMA   1003b010     categories.obj
 0003:00000024       ?simSkidFactor@@3PAMA      1003b024     categories.obj
 0003:000000ac       ?caching@@3_NA             1003b0ac     solid:C-api.obj
 0003:000000b0       ?_Generic_object@?$_Error_objects@H@std@@2V_Generic_error_category@2@A 1003b0b0     solid:C-api.obj
 0003:000000b4       ?_Iostream_object@?$_Error_objects@H@std@@2V_Iostream_error_category@2@A 1003b0b4     solid:C-api.obj
 0003:000000b8       ?_System_object@?$_Error_objects@H@std@@2V_System_error_category@2@A 1003b0b8     solid:C-api.obj
 0003:000000c0       ?rel_error@@3NA            1003b0c0     solid:Convex.obj
 0003:000000c8       ?abs_error@@3NA            1003b0c8     solid:Convex.obj
 0003:000000d0       ?bboxCompAxis@@3PAVBBoxCompAxis@@A 1003b0d0     solid:BBoxTree.obj
 0003:000000e0       ?_sgdGravity@@3PANA        1003b0e0     sg_vs2008_32:sgd.obj
 0003:000000f8       ?_sgGravity@@3PAMA         1003b0f8     sg_vs2008_32:sg.obj
 0003:00000110       __fltused                  1003b110     LIBCMT:fpinit.obj
 0003:00000114       __ldused                   1003b114     LIBCMT:fpinit.obj
 0003:00000178       __iob                      1003b178     LIBCMT:_file.obj
 0003:00000400       __cfltcvt_tab              1003b400     LIBCMT:cmiscdat.obj
 0003:00000428       ___nullstring              1003b428     LIBCMT:output.obj
 0003:0000042c       ___wnullstring             1003b42c     LIBCMT:output.obj
 0003:000005a0       ___security_cookie         1003b5a0     LIBCMT:gs_cookie.obj
 0003:000005a4       ___security_cookie_complement 1003b5a4     LIBCMT:gs_cookie.obj
 0003:000005a8       ___flsindex                1003b5a8     LIBCMT:tidtable.obj
 0003:000005b0       __d_inf                    1003b5b0     LIBCMT:util.obj
 0003:000005b8       __d_ind                    1003b5b8     LIBCMT:util.obj
 0003:000005c0       __d_max                    1003b5c0     LIBCMT:util.obj
 0003:000005c8       __d_min                    1003b5c8     LIBCMT:util.obj
 0003:000005d0       __d_mzero                  1003b5d0     LIBCMT:util.obj
 0003:000006dc       ___isa_enabled             1003b6dc     LIBCMT:cpu_disp.obj
 0003:000006f8       ___badioinfo               1003b6f8     LIBCMT:ioinit.obj
 0003:0000073c       ___abort_behavior          1003b73c     LIBCMT:abort.obj
 0003:00000860       __mbctype                  1003b860     LIBCMT:mbctype.obj
 0003:00000968       __mbcasemap                1003b968     LIBCMT:mbctype.obj
 0003:00000a68       ___initialmbcinfo          1003ba68     LIBCMT:mbctype.obj
 0003:00000c8c       ___ptmbcinfo               1003bc8c     LIBCMT:mbctype.obj
 0003:00000d80       __matherr_flag             1003bd80     LIBCMT:matherr.obj
 0003:00000d90       ___mb_cur_max              1003bd90     LIBCMT:nlsdata.obj
 0003:00000d94       ___wclocalestr             1003bd94     LIBCMT:nlsdata.obj
 0003:00000d98       ___lc_time_c               1003bd98     LIBCMT:nlsdata.obj
 0003:00000efc       ___ptlocinfo               1003befc     LIBCMT:nlsdata.obj
 0003:00000f00       ___initiallocinfo          1003bf00     LIBCMT:nlsdata.obj
 0003:00000fb8       ___globallocalestatus      1003bfb8     LIBCMT:glstatus.obj
 0003:00000fc0       __NLG_Destination          1003bfc0     LIBCMT:exsup.obj
 0003:00000fd0       ___lconv                   1003bfd0     LIBCMT:lconv.obj
 0003:00000fd4       ___lconv_static_decimal    1003bfd4     LIBCMT:lconv.obj
 0003:00000fd8       ___lconv_c                 1003bfd8     LIBCMT:lconv.obj
 0003:00001028       ___lconv_static_W_decimal  1003c028     LIBCMT:lconv.obj
 0003:00001060       __pctype                   1003c060     LIBCMT:ctype.obj
 0003:00001064       __pwctype                  1003c064     LIBCMT:ctype.obj
 0003:00001070       __pow10pos                 1003c070     LIBCMT:constpow.obj
 0003:000011d0       __pow10neg                 1003c1d0     LIBCMT:constpow.obj
 0003:0000132c       __confh                    1003c32c     LIBCMT:initcon.obj
 0003:00001330       __HUGE                     1003c330     LIBCMT:huge.obj
 0003:00001338       ??_R0?AVerror_category@std@@@8 1003c338     solid:C-api.obj
 0003:0000135c       ??_R0?AV_Generic_error_category@std@@@8 1003c35c     solid:C-api.obj
 0003:00001388       ??_R0?AV_Iostream_error_category@std@@@8 1003c388     solid:C-api.obj
 0003:000013b4       ??_R0?AV_System_error_category@std@@@8 1003c3b4     solid:C-api.obj
 0003:000013e0       ??_R0?AVShape@@@8          1003c3e0     solid:C-api.obj
 0003:000013f4       ??_R0?AVConvex@@@8         1003c3f4     solid:C-api.obj
 0003:0000140c       ??_R0?AVBox@@@8            1003c40c     solid:C-api.obj
 0003:00001420       ??_R0?AVCone@@@8           1003c420     solid:C-api.obj
 0003:00001434       ??_R0?AVCylinder@@@8       1003c434     solid:C-api.obj
 0003:0000144c       ??_R0?AVSphere@@@8         1003c44c     solid:C-api.obj
 0003:00001464       ??_R0?AVPolytope@@@8       1003c464     solid:C-api.obj
 0003:0000147c       ??_R0?AVComplex@@@8        1003c47c     solid:C-api.obj
 0003:00001494       ??_R0?AVSimplex@@@8        1003c494     solid:C-api.obj
 0003:000014ac       ??_R0?AVPolygon@@@8        1003c4ac     solid:C-api.obj
 0003:000014c4       ??_R0?AVPolyhedron@@@8     1003c4c4     solid:Polyhedron.obj
 0003:000014e0       ??_R0?AVbad_alloc@std@@@8  1003c4e0     libcpmt:xthrow.obj
 0003:000014fc       ??_R0?AVexception@std@@@8  1003c4fc     libcpmt:xthrow.obj
 0003:00001518       ??_R0?AVlogic_error@std@@@8 1003c518     libcpmt:xthrow.obj
 0003:00001538       ??_R0?AVlength_error@std@@@8 1003c538     libcpmt:xthrow.obj
 0003:00001558       ??_R0?AVout_of_range@std@@@8 1003c558     libcpmt:xthrow.obj
 0003:00001578       ??_R0?AVtype_info@@@8      1003c578     LIBCMT:typinfo.obj
 0003:00001590       ??_R0?AVbad_exception@std@@@8 1003c590     LIBCMT:frame.obj
 0003:00001758       ?SimDeltaTime@@3MA         1003c758     simu.obj
 0003:0000175c       ?SimTelemetry@@3HA         1003c75c     simu.obj
 0003:00001760       ?SimCarTable@@3PAUtCar@@A  1003c760     simu.obj
 0003:00001768       ?vectStart@@3PAUt3Dd@@A    1003c768     simu.obj
 0003:00001828       ?vectEnd@@3PAUt3Dd@@A      1003c828     simu.obj
 0003:000018e8       ?currentType@@3W4DtPolyType@@A 1003c8e8     solid:C-api.obj
 0003:000018ec       ?currentComplex@@3PAVComplex@@A 1003c8ec     solid:C-api.obj
 0003:000018f0       ?currentObject@@3PAVObject@@A 1003c8f0     solid:C-api.obj
 0003:000018f8       ?complexList@@3V?$vector@PAVComplex@@V?$allocator@PAVComplex@@@std@@@std@@A 1003c8f8     solid:C-api.obj
 0003:00001904       ?indexBuf@@3V?$vector@IV?$allocator@I@std@@@std@@A 1003c904     solid:C-api.obj
 0003:00001910       ?polyList@@3V?$vector@PBVPolytope@@V?$allocator@PBVPolytope@@@std@@@std@@A 1003c910     solid:C-api.obj
 0003:0000191c       ?pointBuf@@3V?$vector@VPoint@@V?$allocator@VPoint@@@std@@@std@@A 1003c91c     solid:C-api.obj
 0003:00001928       ?proxList@@3V?$set@VEncounter@@U?$less@VEncounter@@@std@@V?$allocator@VEncounter@@@3@@std@@A 1003c928     solid:C-api.obj
 0003:00001930       ?respTable@@3VRespTable@@A 1003c930     solid:C-api.obj
 0003:0000194c       ?objectList@@3V?$map@PAXPAVObject@@U?$less@PAX@std@@V?$allocator@U?$pair@QAXPAVObject@@@std@@@3@@std@@A 1003c94c     solid:C-api.obj
 0003:00001990       ?id@?$num_put@DV?$ostreambuf_iterator@DU?$char_traits@D@std@@@std@@@std@@2V0locale@2@A 1003c990     solid:C-api.obj
 0003:00001994       ?id@?$numpunct@D@std@@2V0locale@2@A 1003c994     solid:C-api.obj
 0003:00001d7c       ?free_node@@3PAVBBoxInternal@@A 1003cd7c     solid:Complex.obj
 0003:00001da0       ?coll_data@Response@@2UDtCollData@@A 1003cda0     solid:Response.obj
 0003:00001df0       ?partnerList@@3V?$vector@PAXV?$allocator@PAX@std@@@std@@A 1003cdf0     solid:RespTable.obj
 0003:000022a0       ?id@?$num_put@DV?$back_insert_iterator@V?$basic_string@DU?$char_traits@D@std@@V?$allocator@D@2@@std@@@std@@@std@@2V0locale@2@A 1003d2a0     libcpmt:xthrow.obj
 0003:000022a4       ?id@?$num_put@_WV?$back_insert_iterator@V?$basic_string@_WU?$char_traits@_W@std@@V?$allocator@_W@2@@std@@@std@@@std@@2V0locale@2@A 1003d2a4     libcpmt:xthrow.obj
 0003:000022a8       ?id@?$numpunct@_W@std@@2V0locale@2@A 1003d2a8     libcpmt:xthrow.obj
 0003:000022b0       ___fastflag                1003d2b0     LIBCMT:fpinit.obj
 0003:000022bc       __aenvptr                  1003d2bc     LIBCMT:dllcrt0.obj
 0003:000022c0       __wenvptr                  1003d2c0     LIBCMT:dllcrt0.obj
 0003:000022c4       __C_Exit_Done              1003d2c4     LIBCMT:crt0dat.obj
 0003:000022c8       ___argc                    1003d2c8     LIBCMT:crt0dat.obj
 0003:000022cc       ___argv                    1003d2cc     LIBCMT:crt0dat.obj
 0003:000022d0       ___wargv                   1003d2d0     LIBCMT:crt0dat.obj
 0003:000022d4       __environ                  1003d2d4     LIBCMT:crt0dat.obj
 0003:000022d8       __wenviron                 1003d2d8     LIBCMT:crt0dat.obj
 0003:000022dc       __pgmptr                   1003d2dc     LIBCMT:crt0dat.obj
 0003:000022e0       __wpgmptr                  1003d2e0     LIBCMT:crt0dat.obj
 0003:000022e4       __umaskval                 1003d2e4     LIBCMT:crt0dat.obj
 0003:000022e8       __exitflag                 1003d2e8     LIBCMT:crt0dat.obj
 0003:000022ec       __C_Termination_Done       1003d2ec     LIBCMT:crt0dat.obj
 0003:000022f0       ___winitenv                1003d2f0     LIBCMT:crt0dat.obj
 0003:000022f4       ___initenv                 1003d2f4     LIBCMT:crt0dat.obj
 0003:000022f8       __cflush                   1003d2f8     LIBCMT:_file.obj
 0003:00002300       ___pInvalidArgHandler      1003d300     LIBCMT:invarg.obj
 0003:00002304       __stdbuf                   1003d304     LIBCMT:_sftbuf.obj
 0003:0000230c       ___isa_available           1003d30c     LIBCMT:cpu_disp.obj
 0003:00002310       ___favor                   1003d310     LIBCMT:cpu_disp.obj
 0003:00002314       __crtheap                  1003d314     LIBCMT:heapinit.obj
 0003:00002318       ___pioinfo                 1003d318     LIBCMT:ioinit.obj
 0003:00002520       __maxwait                  1003d520     LIBCMT:crtheap.obj
 0003:00002524       ?__pInconsistency@@3P6AXXZA 1003d524     LIBCMT:hooks.obj
 0003:00002528       ___pPurecall               1003d528     LIBCMT:inithelp.obj
 0003:0000252c       ?_pnhHeap@@3P6AHI@ZA       1003d52c     LIBCMT:handler.obj
 0003:00002530       ?g_OutOfMemoryExceptionCallback@@3P6GPAXXZA 1003d530     LIBCMT:frame.obj
 0003:00002690       ___app_type                1003d690     LIBCMT:crt0msg.obj
 0003:00002cd8       ___mbcodepage              1003dcd8     LIBCMT:mbctype.obj
 0003:00002cdc       ___ismbcodepage            1003dcdc     LIBCMT:mbctype.obj
 0003:00002ce0       ___mbulinfo                1003dce0     LIBCMT:mbctype.obj
 0003:00002cec       ___mblocalename            1003dcec     LIBCMT:mbctype.obj
 0003:00003018       __outputformat             1003e018     LIBCMT:outputformat.obj
 0003:00003020       __newmode                  1003e020     LIBCMT:_newmode.obj
 0003:00003024       ?pArgList@UnDecorator@@0PAVReplicator@@A 1003e024     LIBCMT:undname.obj
 0003:00003028       ?pZNameList@UnDecorator@@0PAVReplicator@@A 1003e028     LIBCMT:undname.obj
 0003:0000302c       ?pTemplateArgList@UnDecorator@@0PAVReplicator@@A 1003e02c     LIBCMT:undname.obj
 0003:00003030       ?gName@UnDecorator@@0PBDB  1003e030     LIBCMT:undname.obj
 0003:00003034       ?name@UnDecorator@@0PBDB   1003e034     LIBCMT:undname.obj
 0003:00003038       ?outputString@UnDecorator@@0PADA 1003e038     LIBCMT:undname.obj
 0003:0000303c       ?maxStringLength@UnDecorator@@0HA 1003e03c     LIBCMT:undname.obj
 0003:00003040       ?disableFlags@UnDecorator@@0KA 1003e040     LIBCMT:undname.obj
 0003:00003044       ?fExplicitTemplateParams@UnDecorator@@0_NA 1003e044     LIBCMT:undname.obj
 0003:00003045       ?fGetTemplateArgumentList@UnDecorator@@0_NA 1003e045     LIBCMT:undname.obj
 0003:00003048       ?m_pGetParameter@UnDecorator@@0P6APADJ@ZA 1003e048     LIBCMT:undname.obj
 0003:00003060       ___error_mode              1003e060     LIBCMT:errmode.obj
 0003:00003078       ___lconv_static_null       1003e078     LIBCMT:lconv.obj
 0003:0000307c       ___lconv_static_W_null     1003e07c     LIBCMT:lconv.obj
 0003:00003080       ___locale_changed          1003e080     LIBCMT:wsetloca.obj
 0003:00003084       __debugger_hook_dummy      1003e084     <common>
 0003:00003088       ___use_sse2_mathfcns       1003e088     <common>
 0003:000030a0       _encodedKERNEL32Functions  1003e0a0     <common>
 0003:00003124       __nhandle                  1003e124     <common>
 0003:00003128       __pmatherr                 1003e128     <common>
 0003:00003140       __bufin                    1003e140     <common>
 0003:00004140       ___piob                    1003f140     <common>
 0003:00004144       __nstream                  1003f144     <common>
 0003:00004148       ___dyn_tls_init_callback   1003f148     <common>
 0003:0000414c       ___onexitend               1003f14c     <common>
 0003:00004150       ___onexitbegin             1003f150     <common>
 0003:00004154       ___mbctype_initialized     1003f154     <common>
 0003:00004158       ___env_initialized         1003f158     <common>
 0003:0000415c       __acmdln                   1003f15c     <common>

 entry point at        0001:000148f2

 Static symbols

 0001:00000320       ??__E?_Generic_object@?$_Error_objects@H@std@@2V_Generic_error_category@2@A@@YAXXZ 10001320 f   solid:C-api.obj
 0001:00000330       ??__E?_Iostream_object@?$_Error_objects@H@std@@2V_Iostream_error_category@2@A@@YAXXZ 10001330 f   solid:C-api.obj
 0001:00000340       ??__E?_System_object@?$_Error_objects@H@std@@2V_System_error_category@2@A@@YAXXZ 10001340 f   solid:C-api.obj
 0001:00000350       ??__EcomplexList@@YAXXZ    10001350 f   solid:C-api.obj
 0001:00000360       ??__EindexBuf@@YAXXZ       10001360 f   solid:C-api.obj
 0001:00000370       ??__EobjectList@@YAXXZ     10001370 f   solid:C-api.obj
 0001:00000390       ??__EpointBuf@@YAXXZ       10001390 f   solid:C-api.obj
 0001:000003a0       ??__EpolyList@@YAXXZ       100013a0 f   solid:C-api.obj
 0001:000003b0       ??__EproxList@@YAXXZ       100013b0 f   solid:C-api.obj
 0001:000003d0       ??__ErespTable@@YAXXZ      100013d0 f   solid:C-api.obj
 0001:00000440       ??__Ep@@YAXXZ              10001440 f   solid:Convex.obj
 0001:00000460       ??__Eq@@YAXXZ              10001460 f   solid:Convex.obj
 0001:00000480       ??__Ey@@YAXXZ              10001480 f   solid:Convex.obj
 0001:000004a0       ??__EpartnerList@@YAXXZ    100014a0 f   solid:RespTable.obj
 0001:000004b0       ??__EendpointList@@YAXXZ   100014b0 f   solid:Endpoint.obj
 0001:00001b30       ?SimCarUpdateForces@@YAXPAUtCar@@@Z 10002b30 f   car.obj
 0001:000022a0       ?SimCarUpdateSpeed@@YAXPAUtCar@@@Z 100032a0 f   car.obj
 0001:00002430       ?SimCarUpdatePos@@YAXPAUtCar@@@Z 10003430 f   car.obj
 0001:00002650       ?SimCarUpdateCornerPos@@YAXPAUtCar@@@Z 10003650 f   car.obj
 0001:00003630       ?SimCarCollideResponse@@YAXPAX00PBUDtCollData@@@Z 10004630 f   collide.obj
 0001:00003dc0       ?SimCarWallCollideResponse@@YAXPAX00PBUDtCollData@@@Z 10004dc0 f   collide.obj
 0001:00004300       ?getFirstWallStart@@YAPAUtrackSeg@@PAU1@H@Z 10005300 f   collide.obj
 0001:000050c0       ?updateSpool@@YAXPAUtCar@@PAUtDifferential@@H@Z 100060c0 f   differential.obj
 0001:000060b0       ?ctrlCheck@@YAXPAUtCar@@@Z 100070b0 f   simu.obj
 0001:00006350       ?RemoveCar@@YAXPAUtCar@@PAUSituation@@@Z 10007350 f   simu.obj
 0001:00006b60       ?simuInit@@YAHHPAX@Z       10007b60 f   simuitf.obj
 0001:00006f40       ?initDamper@@YAXPAUSuspension@@@Z 10007f40 f   susp.obj
 0001:00006f80       ?damperForce@@YAMPAUSuspension@@@Z 10007f80 f   susp.obj
 0001:00007030       ?springForce@@YAMPAUSuspension@@@Z 10008030 f   susp.obj
 0001:0000ab3e       __catch$??$_Insert_hint@AAU?$pair@$$CBU?$pair@PAXPAX@std@@VResponse@@@std@@PAU?$_Tree_node@U?$pair@$$CBU?$pair@PAXPAX@std@@VResponse@@@std@@PAX@2@@?$_Tree@V?$_Tmap_traits@U?$pair@PAXPAX@std@@VResponse@@U?$less@U?$pair@PAXPAX@std@@@2@V?$allocator@U?$pair@$$CBU?$pair@PAXPAX@std@@VResponse@@@std@@@2@$0A@@std@@@std@@IAE?AV?$_Tree_iterator@V?$_Tree_val@U?$_Tree_simple_types@U?$pair@$$CBU?$pair@PAXPAX@std@@VResponse@@@std@@@std@@@std@@@1@V?$_Tree_const_iterator@V?$_Tree_val@U?$_Tree_simple_types@U?$pair@$$CBU?$pair@PAXPAX@std@@VResponse@@@std@@@std@@@std@@@1@AAU?$pair@$$CBU?$pair@PAXPAX@std@@VResponse@@@1@PAU?$_Tree_node@U?$pair@$$CBU?$pair@PAXPAX@std@@VResponse@@@std@@PAX@1@@Z$0 1000bb3e f i solid:C-api.obj
 0001:0000ad23       __catch$??$_Insert_hint@AAU?$pair@QAXPAVObject@@@std@@PAU?$_Tree_node@U?$pair@QAXPAVObject@@@std@@PAX@2@@?$_Tree@V?$_Tmap_traits@PAXPAVObject@@U?$less@PAX@std@@V?$allocator@U?$pair@QAXPAVObject@@@std@@@3@$0A@@std@@@std@@IAE?AV?$_Tree_iterator@V?$_Tree_val@U?$_Tree_simple_types@U?$pair@QAXPAVObject@@@std@@@std@@@std@@@1@V?$_Tree_const_iterator@V?$_Tree_val@U?$_Tree_simple_types@U?$pair@QAXPAVObject@@@std@@@std@@@std@@@1@AAU?$pair@QAXPAVObject@@@1@PAU?$_Tree_node@U?$pair@QAXPAVObject@@@std@@PAX@1@@Z$0 1000bd23 f i solid:C-api.obj
 0001:0000af03       __catch$??$_Insert_hint@AAU?$pair@QAXVResponse@@@std@@PAU?$_Tree_node@U?$pair@QAXVResponse@@@std@@PAX@2@@?$_Tree@V?$_Tmap_traits@PAXVResponse@@U?$less@PAX@std@@V?$allocator@U?$pair@QAXVResponse@@@std@@@3@$0A@@std@@@std@@IAE?AV?$_Tree_iterator@V?$_Tree_val@U?$_Tree_simple_types@U?$pair@QAXVResponse@@@std@@@std@@@std@@@1@V?$_Tree_const_iterator@V?$_Tree_val@U?$_Tree_simple_types@U?$pair@QAXVResponse@@@std@@@std@@@std@@@1@AAU?$pair@QAXVResponse@@@1@PAU?$_Tree_node@U?$pair@QAXVResponse@@@std@@PAX@1@@Z$0 1000bf03 f i solid:C-api.obj
 0001:0000b082       __catch$??$_Insert_nohint@AAU?$pair@$$CBU?$pair@PAXPAX@std@@VResponse@@@std@@PAU?$_Tree_node@U?$pair@$$CBU?$pair@PAXPAX@std@@VResponse@@@std@@PAX@2@@?$_Tree@V?$_Tmap_traits@U?$pair@PAXPAX@std@@VResponse@@U?$less@U?$pair@PAXPAX@std@@@2@V?$allocator@U?$pair@$$CBU?$pair@PAXPAX@std@@VResponse@@@std@@@2@$0A@@std@@@std@@IAE?AU?$pair@V?$_Tree_iterator@V?$_Tree_val@U?$_Tree_simple_types@U?$pair@$$CBU?$pair@PAXPAX@std@@VResponse@@@std@@@std@@@std@@@std@@_N@1@_NAAU?$pair@$$CBU?$pair@PAXPAX@std@@VResponse@@@1@PAU?$_Tree_node@U?$pair@$$CBU?$pair@PAXPAX@std@@VResponse@@@std@@PAX@1@@Z$0 1000c082 f i solid:C-api.obj
 0001:0000b175       __catch$??$_Insert_nohint@AAU?$pair@QAXPAVObject@@@std@@PAU?$_Tree_node@U?$pair@QAXPAVObject@@@std@@PAX@2@@?$_Tree@V?$_Tmap_traits@PAXPAVObject@@U?$less@PAX@std@@V?$allocator@U?$pair@QAXPAVObject@@@std@@@3@$0A@@std@@@std@@IAE?AU?$pair@V?$_Tree_iterator@V?$_Tree_val@U?$_Tree_simple_types@U?$pair@QAXPAVObject@@@std@@@std@@@std@@@std@@_N@1@_NAAU?$pair@QAXPAVObject@@@1@PAU?$_Tree_node@U?$pair@QAXPAVObject@@@std@@PAX@1@@Z$0 1000c175 f i solid:C-api.obj
 0001:0000b285       __catch$??$_Insert_nohint@AAU?$pair@QAXVResponse@@@std@@PAU?$_Tree_node@U?$pair@QAXVResponse@@@std@@PAX@2@@?$_Tree@V?$_Tmap_traits@PAXVResponse@@U?$less@PAX@std@@V?$allocator@U?$pair@QAXVResponse@@@std@@@3@$0A@@std@@@std@@IAE?AU?$pair@V?$_Tree_iterator@V?$_Tree_val@U?$_Tree_simple_types@U?$pair@QAXVResponse@@@std@@@std@@@std@@@std@@_N@1@_NAAU?$pair@QAXVResponse@@@1@PAU?$_Tree_node@U?$pair@QAXVResponse@@@std@@PAX@1@@Z$0 1000c285 f i solid:C-api.obj
 0001:0000b3f3       __catch$??$_Insert_nohint@VEncounter@@U_Nil@std@@@?$_Tree@V?$_Tset_traits@VEncounter@@U?$less@VEncounter@@@std@@V?$allocator@VEncounter@@@3@$0A@@std@@@std@@IAE?AU?$pair@V?$_Tree_const_iterator@V?$_Tree_val@U?$_Tree_simple_types@VEncounter@@@std@@@std@@@std@@_N@1@_N$$QAVEncounter@@U_Nil@1@@Z$0 1000c3f3 f i solid:C-api.obj
 0001:0000bbfb       __catch$?_Copy@?$basic_string@DU?$char_traits@D@std@@V?$allocator@D@2@@std@@QAEXII@Z$0 1000cbfb f i solid:C-api.obj
 0001:0000bc38       __catch$?_Copy@?$basic_string@DU?$char_traits@D@std@@V?$allocator@D@2@@std@@QAEXII@Z$1 1000cc38 f i solid:C-api.obj
 0001:0000bfa4       __catch$?_Reallocate@?$vector@VPoint@@V?$allocator@VPoint@@@std@@@std@@IAEXI@Z$0 1000cfa4 f i solid:C-api.obj
 0001:00012f30       $$000000                   10013f30     LIBCMT:87ctriga.obj
 0001:00012f50       $$000000                   10013f50     LIBCMT:exp_sse2_precise.obj
 0001:00013220       $$000000                   10014220     LIBCMT:sin_sse2_precise.obj
 0001:000133f0       $$000000                   100143f0     LIBCMT:sqrt_sse2_precise.obj
 0001:00013630       $$000000                   10014630     LIBCMT:cos_sse2_precise.obj
 0001:00013990       $$000000                   10014990     LIBCMT:memset.obj
 0001:00013a20       $$000000                   10014a20     LIBCMT:tan_sse2_precise.obj
 0001:00013c90       $$000000                   10014c90     LIBCMT:asin_sse2_precise.obj
 0001:000141e0       $$000000                   100151e0     LIBCMT:atan_sse2_precise.obj
 0001:000144f0       $$000000                   100154f0     LIBCMT:log_sse2_precise.obj
 0001:00014915       ___DllMainCRTStartup       10015915 f   LIBCMT:dllcrt0.obj
 0001:00014c00       __onexit_nolock            10015c00 f   LIBCMT:onexit.obj
 0001:00014cd0       $$000000                   10015cd0     LIBCMT:memmove.obj
 0001:00014f20       LeadUpVec                  10015f20     LIBCMT:memmove.obj
 0001:00014f9c       UnwindUpVec                10015f9c     LIBCMT:memmove.obj
 0001:00015008       TrailUpVec                 10016008     LIBCMT:memmove.obj
 0001:000150ac       LeadDownVec                100160ac     LIBCMT:memmove.obj
 0001:00015138       UnwindDownVec              10016138     LIBCMT:memmove.obj
 0001:000151a4       TrailDownVec               100161a4     LIBCMT:memmove.obj
 0001:0001537c       ?CatchGuardHandler@@YA?AW4_EXCEPTION_DISPOSITION@@PAUEHExceptionRecord@@PAUCatchGuardRN@@PAX2@Z 1001637c f   LIBCMT:_trnsctrl_.obj
 0001:000153ad       ?TranslatorGuardHandler@@YA?AW4_EXCEPTION_DISPOSITION@@PAUEHExceptionRecord@@PAUTranslatorGuardRN@@PAX2@Z 100163ad f   LIBCMT:_trnsctrl_.obj
 0001:00015770       $$000000                   10016770     LIBCMT:memcpy.obj
 0001:000159c0       LeadUpVec                  100169c0     LIBCMT:memcpy.obj
 0001:00015a3c       UnwindUpVec                10016a3c     LIBCMT:memcpy.obj
 0001:00015aa8       TrailUpVec                 10016aa8     LIBCMT:memcpy.obj
 0001:00015b4c       LeadDownVec                10016b4c     LIBCMT:memcpy.obj
 0001:00015bd8       UnwindDownVec              10016bd8     LIBCMT:memcpy.obj
 0001:00015c44       TrailDownVec               10016c44     LIBCMT:memcpy.obj
 0001:00015e70       $$000000                   10016e70     LIBCMT:sqrt.obj
 0001:00015f30       $$000000                   10016f30     LIBCMT:asin.obj
 0001:00016080       $$000000                   10017080     LIBCMT:acos.obj
 0001:000161d0       $$000000                   100171d0     LIBCMT:sin.obj
 0001:00016300       $$000000                   10017300     LIBCMT:cos.obj
 0001:00016430       $$000000                   10017430     LIBCMT:tan.obj
 0001:000167af       __initterm                 100177af f   LIBCMT:crt0dat.obj
 0001:00016819       _doexit                    10017819 f   LIBCMT:crt0dat.obj
 0001:00016ac0       $$000000                   10017ac0     LIBCMT:strlen.obj
 0001:00016cc0       $$000000                   10017cc0     LIBCMT:87triga.obj
 0001:00016d70       $$000000                   10017d70     LIBCMT:87cdisp.obj
 0001:00017299       $LN79                      10018299     LIBCMT:libm_error.obj
 0001:000172e0       $$000000                   100182e0     LIBCMT:87ctran.obj
 0001:00017814       __cftoe2_l                 10018814 f   LIBCMT:cvt.obj
 0001:00017a33       __cftof2_l                 10018a33 f   LIBCMT:cvt.obj
 0001:00017e69       __shift                    10018e69 f   LIBCMT:cvt.obj
 0001:00018ca6       $LN277                     10019ca6     LIBCMT:output.obj
 0001:00018cc6       _write_char                10019cc6 f   LIBCMT:output.obj
 0001:00018d0e       _write_multi_char          10019d0e f   LIBCMT:output.obj
 0001:00018d3a       _write_string              10019d3a f   LIBCMT:output.obj
 0001:00018e40       $$000000                   10019e40     LIBCMT:sehprolg4.obj
 0001:00019e90       $$000000                   1001ae90     LIBCMT:atan.obj
 0001:00019fb0       $$000000                   1001afb0     LIBCMT:log.obj
 0001:0001a64f       _parse_cmdline             1001b64f f   LIBCMT:stdargv.obj
 0001:0001b0e0       $$000000                   1001c0e0     LIBCMT:lowhelpr.obj
 0001:0001b202       ?CallCatchBlock@@YAPAXPAUEHExceptionRecord@@PAUEHRegistrationNode@@PAU_CONTEXT@@PBU_s_FuncInfo@@PAXHK@Z 1001c202 f   LIBCMT:frame.obj
 0001:0001b3c8       ?CallUnexpected@@YAXPBU_s_ESTypeList@@@Z 1001c3c8 f   LIBCMT:frame.obj
 0001:0001b3f0       __catch$?CallUnexpected@@YAXPBU_s_ESTypeList@@@Z$0 1001c3f0 f   LIBCMT:frame.obj
 0001:0001b408       ?CatchIt@@YAXPAUEHExceptionRecord@@PAUEHRegistrationNode@@PAU_CONTEXT@@PAXPBU_s_FuncInfo@@PBU_s_HandlerType@@PBU_s_CatchableType@@PBU_s_TryBlockMapEntry@@H1E@Z 1001c408 f   LIBCMT:frame.obj
 0001:0001b483       ?ExFilterRethrow@@YAHPAU_EXCEPTION_POINTERS@@@Z 1001c483 f   LIBCMT:frame.obj
 0001:0001b4d0       ?FindHandler@@YAXPAUEHExceptionRecord@@PAUEHRegistrationNode@@PAU_CONTEXT@@PAXPBU_s_FuncInfo@@EH1@Z 1001c4d0 f   LIBCMT:frame.obj
 0001:0001b86d       ?FindHandlerForForeignException@@YAXPAUEHExceptionRecord@@PAUEHRegistrationNode@@PAU_CONTEXT@@PAXPBU_s_FuncInfo@@HH1@Z 1001c86d f   LIBCMT:frame.obj
 0001:0001b989       ?IsInExceptionSpec@@YAEPAUEHExceptionRecord@@PBU_s_ESTypeList@@@Z 1001c989 f   LIBCMT:frame.obj
 0001:0001bf00       $$000000                   1001cf00     LIBCMT:strcmp.obj
 0001:0001c000       $$000000                   1001d000     LIBCMT:87disp.obj
 0001:0001c1d0       $$000000                   1001d1d0     LIBCMT:genexcep.obj
 0001:0001c230       $$000000                   1001d230     LIBCMT:common.obj
 0001:0001c3d0       $$000000                   1001d3d0     LIBCMT:asin_pentium4.obj
 0001:0001c950       $$000000                   1001d950     LIBCMT:acos_pentium4.obj
 0001:0001ceb0       $$000000                   1001deb0     LIBCMT:sin_pentium4.obj
 0001:0001d080       $$000000                   1001e080     LIBCMT:cos_pentium4.obj
 0001:0001d230       $$000000                   1001e230     LIBCMT:tan_pentium4.obj
 0001:0001db55       _siglookup                 1001eb55 f   LIBCMT:winsig.obj
 0001:0001dbba       ?CPtoLocaleName@@YAPB_WH@Z 1001ebba f   LIBCMT:mbctype.obj
 0001:0001dbf4       ?getSystemCP@@YAHH@Z       1001ebf4 f   LIBCMT:mbctype.obj
 0001:0001dc62       ?setSBCS@@YAXPAUthreadmbcinfostruct@@@Z 1001ec62 f   LIBCMT:mbctype.obj
 0001:0001dcc1       ?setSBUpLow@@YAXPAUthreadmbcinfostruct@@@Z 1001ecc1 f   LIBCMT:mbctype.obj
 0001:0001e400       _flsall                    1001f400 f   LIBCMT:fflush.obj
 0001:0001e780       $$000000                   1001f780     LIBCMT:exp_pentium4.obj
 0001:0001ea40       $$000000                   1001fa40     LIBCMT:87tran.obj
 0001:0001f180       $$000000                   10020180     LIBCMT:strrchr.obj
 0001:0001f610       $$000000                   10020610     LIBCMT:lldvrm.obj
 0001:0001f6f0       $$000000                   100206f0     LIBCMT:ullshr.obj
 0001:0001f960       $$000000                   10020960     LIBCMT:ulldvrm.obj
 0001:0001fa00       $$000000                   10020a00     LIBCMT:exsup4.obj
 0001:0001fa90       __unwind_handler4          10020a90 f   LIBCMT:exsup4.obj
 0001:00020660       $$000000                   10021660     LIBCMT:atan_pentium4.obj
 0001:00020950       $$000000                   10021950     LIBCMT:log_pentium4.obj
 0001:00020bc0       ?x_ismbbtype_l@@YAHPAUlocaleinfo_struct@@IHH@Z 10021bc0 f   LIBCMT:ismbbyte.obj
 0001:00020eb0       $$000000                   10021eb0     LIBCMT:exsup.obj
 0001:00020ed0       __unwind_handler           10021ed0 f   LIBCMT:exsup.obj
 0001:000213bb       ?__crtLCMapStringA_stat@@YAHPAUlocaleinfo_struct@@PB_WKPBDHPADHHH@Z 100223bb f   LIBCMT:a_map.obj
 0001:00021605       ?__crtGetStringTypeA_stat@@YAHPAUlocaleinfo_struct@@KPBDHPAGHH@Z 10022605 f   LIBCMT:a_str.obj
 0001:000232e9       $LN333                     100242e9     LIBCMT:strgtold.obj
 0001:00023ced       ___hw_cw_sse2              10024ced f   LIBCMT:ieee87.obj
 0001:00024098       __hw_cw                    10025098 f   LIBCMT:ieee87.obj
 0001:00024420       $$000000                   10025420     LIBCMT:chkstk.obj
 0001:00024450       $$000000                   10025450     LIBCMT:alloca16.obj
 0001:00024850       $$000000                   10025850     LIBCMT:llmul.obj
 0001:000248a0       __ehhandler$??$_Insert_hint@AAU?$pair@$$CBU?$pair@PAXPAX@std@@VResponse@@@std@@PAU?$_Tree_node@U?$pair@$$CBU?$pair@PAXPAX@std@@VResponse@@@std@@PAX@2@@?$_Tree@V?$_Tmap_traits@U?$pair@PAXPAX@std@@VResponse@@U?$less@U?$pair@PAXPAX@std@@@2@V?$allocator@U?$pair@$$CBU?$pair@PAXPAX@std@@VResponse@@@std@@@2@$0A@@std@@@std@@IAE?AV?$_Tree_iterator@V?$_Tree_val@U?$_Tree_simple_types@U?$pair@$$CBU?$pair@PAXPAX@std@@VResponse@@@std@@@std@@@std@@@1@V?$_Tree_const_iterator@V?$_Tree_val@U?$_Tree_simple_types@U?$pair@$$CBU?$pair@PAXPAX@std@@VResponse@@@std@@@std@@@std@@@1@AAU?$pair@$$CBU?$pair@PAXPAX@std@@VResponse@@@1@PAU?$_Tree_node@U?$pair@$$CBU?$pair@PAXPAX@std@@VResponse@@@std@@PAX@1@@Z 100258a0 f   solid:C-api.obj
 0001:000248b0       __ehhandler$??$_Insert_hint@AAU?$pair@QAXPAVObject@@@std@@PAU?$_Tree_node@U?$pair@QAXPAVObject@@@std@@PAX@2@@?$_Tree@V?$_Tmap_traits@PAXPAVObject@@U?$less@PAX@std@@V?$allocator@U?$pair@QAXPAVObject@@@std@@@3@$0A@@std@@@std@@IAE?AV?$_Tree_iterator@V?$_Tree_val@U?$_Tree_simple_types@U?$pair@QAXPAVObject@@@std@@@std@@@std@@@1@V?$_Tree_const_iterator@V?$_Tree_val@U?$_Tree_simple_types@U?$pair@QAXPAVObject@@@std@@@std@@@std@@@1@AAU?$pair@QAXPAVObject@@@1@PAU?$_Tree_node@U?$pair@QAXPAVObject@@@std@@PAX@1@@Z 100258b0 f   solid:C-api.obj
 0001:000248c0       __ehhandler$??$_Insert_hint@AAU?$pair@QAXVResponse@@@std@@PAU?$_Tree_node@U?$pair@QAXVResponse@@@std@@PAX@2@@?$_Tree@V?$_Tmap_traits@PAXVResponse@@U?$less@PAX@std@@V?$allocator@U?$pair@QAXVResponse@@@std@@@3@$0A@@std@@@std@@IAE?AV?$_Tree_iterator@V?$_Tree_val@U?$_Tree_simple_types@U?$pair@QAXVResponse@@@std@@@std@@@std@@@1@V?$_Tree_const_iterator@V?$_Tree_val@U?$_Tree_simple_types@U?$pair@QAXVResponse@@@std@@@std@@@std@@@1@AAU?$pair@QAXVResponse@@@1@PAU?$_Tree_node@U?$pair@QAXVResponse@@@std@@PAX@1@@Z 100258c0 f   solid:C-api.obj
 0001:000248d0       __ehhandler$??$_Insert_nohint@AAU?$pair@$$CBU?$pair@PAXPAX@std@@VResponse@@@std@@PAU?$_Tree_node@U?$pair@$$CBU?$pair@PAXPAX@std@@VResponse@@@std@@PAX@2@@?$_Tree@V?$_Tmap_traits@U?$pair@PAXPAX@std@@VResponse@@U?$less@U?$pair@PAXPAX@std@@@2@V?$allocator@U?$pair@$$CBU?$pair@PAXPAX@std@@VResponse@@@std@@@2@$0A@@std@@@std@@IAE?AU?$pair@V?$_Tree_iterator@V?$_Tree_val@U?$_Tree_simple_types@U?$pair@$$CBU?$pair@PAXPAX@std@@VResponse@@@std@@@std@@@std@@@std@@_N@1@_NAAU?$pair@$$CBU?$pair@PAXPAX@std@@VResponse@@@1@PAU?$_Tree_node@U?$pair@$$CBU?$pair@PAXPAX@std@@VResponse@@@std@@PAX@1@@Z 100258d0 f   solid:C-api.obj
 0001:000248e0       __ehhandler$??$_Insert_nohint@AAU?$pair@QAXPAVObject@@@std@@PAU?$_Tree_node@U?$pair@QAXPAVObject@@@std@@PAX@2@@?$_Tree@V?$_Tmap_traits@PAXPAVObject@@U?$less@PAX@std@@V?$allocator@U?$pair@QAXPAVObject@@@std@@@3@$0A@@std@@@std@@IAE?AU?$pair@V?$_Tree_iterator@V?$_Tree_val@U?$_Tree_simple_types@U?$pair@QAXPAVObject@@@std@@@std@@@std@@@std@@_N@1@_NAAU?$pair@QAXPAVObject@@@1@PAU?$_Tree_node@U?$pair@QAXPAVObject@@@std@@PAX@1@@Z 100258e0 f   solid:C-api.obj
 0001:000248f0       __ehhandler$??$_Insert_nohint@AAU?$pair@QAXVResponse@@@std@@PAU?$_Tree_node@U?$pair@QAXVResponse@@@std@@PAX@2@@?$_Tree@V?$_Tmap_traits@PAXVResponse@@U?$less@PAX@std@@V?$allocator@U?$pair@QAXVResponse@@@std@@@3@$0A@@std@@@std@@IAE?AU?$pair@V?$_Tree_iterator@V?$_Tree_val@U?$_Tree_simple_types@U?$pair@QAXVResponse@@@std@@@std@@@std@@@std@@_N@1@_NAAU?$pair@QAXVResponse@@@1@PAU?$_Tree_node@U?$pair@QAXVResponse@@@std@@PAX@1@@Z 100258f0 f   solid:C-api.obj
 0001:00024900       __ehhandler$??$_Insert_nohint@VEncounter@@U_Nil@std@@@?$_Tree@V?$_Tset_traits@VEncounter@@U?$less@VEncounter@@@std@@V?$allocator@VEncounter@@@3@$0A@@std@@@std@@IAE?AU?$pair@V?$_Tree_const_iterator@V?$_Tree_val@U?$_Tree_simple_types@VEncounter@@@std@@@std@@@std@@_N@1@_N$$QAVEncounter@@U_Nil@1@@Z 10025900 f   solid:C-api.obj
 0001:00024910       __unwindfunclet$??0Simplex@@QAE@ABVVertexBase@@HQBI@Z$1 10025910 f   solid:C-api.obj
 0001:00024910       __unwindfunclet$??0Polygon@@QAE@ABVVertexBase@@HQBI@Z$1 10025910 f   solid:C-api.obj
 0001:00024918       __ehhandler$??0Simplex@@QAE@ABVVertexBase@@HQBI@Z 10025918 f   solid:C-api.obj
 0001:00024918       __ehhandler$??0Polygon@@QAE@ABVVertexBase@@HQBI@Z 10025918 f   solid:C-api.obj
 0001:00024930       __unwindfunclet$??__ErespTable@@YAXXZ$0 10025930 f   solid:C-api.obj
 0001:0002493a       __ehhandler$??__ErespTable@@YAXXZ 1002593a f   solid:C-api.obj
 0001:00024950       __ehhandler$?_Copy@?$basic_string@DU?$char_traits@D@std@@V?$allocator@D@2@@std@@QAEXII@Z 10025950 f   solid:C-api.obj
 0001:00024960       __ehhandler$?_Reallocate@?$vector@VPoint@@V?$allocator@VPoint@@@std@@@std@@IAEXI@Z 10025960 f   solid:C-api.obj
 0001:00024970       __unwindfunclet$??1Complex@@UAE@XZ$0 10025970 f   solid:Complex.obj
 0001:00024978       __ehhandler$??1Complex@@UAE@XZ 10025978 f   solid:Complex.obj
 0001:00024982       __unwindfunclet$?finish@Complex@@QAEXHPAPBVPolytope@@@Z$1 10025982 f   solid:Complex.obj
 0001:0002499c       __unwindfunclet$?finish@Complex@@QAEXHPAPBVPolytope@@@Z$3 1002599c f   solid:Complex.obj
 0001:000249ad       __ehhandler$?finish@Complex@@QAEXHPAPBVPolytope@@@Z 100259ad f   solid:Complex.obj
 0001:000249c0       __unwindfunclet$??0Object@@QAE@PAXPBVShape@@@Z$0 100259c0 f   solid:Object.obj
 0001:000249d8       __unwindfunclet$??0Object@@QAE@PAXPBVShape@@@Z$1 100259d8 f   solid:Object.obj
 0001:000249f0       __unwindfunclet$??0Object@@QAE@PAXPBVShape@@@Z$2 100259f0 f   solid:Object.obj
 0001:00024a10       __unwindfunclet$??0Object@@QAE@PAXPBVShape@@@Z$3 10025a10 f   solid:Object.obj
 0001:00024a30       __unwindfunclet$??0Object@@QAE@PAXPBVShape@@@Z$4 10025a30 f   solid:Object.obj
 0001:00024a4f       __unwindfunclet$??0Object@@QAE@PAXPBVShape@@@Z$5 10025a4f f   solid:Object.obj
 0001:00024a6f       __unwindfunclet$??0Object@@QAE@PAXPBVShape@@@Z$6 10025a6f f   solid:Object.obj
 0001:00024a8f       __unwindfunclet$??0Object@@QAE@PAXPBVShape@@@Z$7 10025a8f f   solid:Object.obj
 0001:00024aae       __ehhandler$??0Object@@QAE@PAXPBVShape@@@Z 10025aae f   solid:Object.obj
 0001:00024ab8       __unwindfunclet$?intersect@@YA_NABVObject@@0AAVVector@@@Z$0 10025ab8 f   solid:Object.obj
 0001:00024ac6       __ehhandler$?intersect@@YA_NABVObject@@0AAVVector@@@Z 10025ac6 f   solid:Object.obj
 0001:00024ad0       __unwindfunclet$?common_point@@YA_NABVObject@@0AAVVector@@AAVPoint@@2@Z$0 10025ad0 f   solid:Object.obj
 0001:00024ade       __ehhandler$?common_point@@YA_NABVObject@@0AAVVector@@AAVPoint@@2@Z 10025ade f   solid:Object.obj
 0001:00024af0       __unwindfunclet$??0Polyhedron@@QAE@ABVVertexBase@@HQBI@Z$1 10025af0 f   solid:Polyhedron.obj
 0001:00024af8       __ehhandler$??0Polyhedron@@QAE@ABVVertexBase@@HQBI@Z 10025af8 f   solid:Polyhedron.obj
 0001:00024b10       __unwindfunclet$??0BBoxInternal@@QAE@HPAVBBoxLeaf@@@Z$0 10025b10 f   solid:BBoxTree.obj
 0001:00024b21       __unwindfunclet$??0BBoxInternal@@QAE@HPAVBBoxLeaf@@@Z$1 10025b21 f   solid:BBoxTree.obj
 0001:00024b32       __ehhandler$??0BBoxInternal@@QAE@HPAVBBoxLeaf@@@Z 10025b32 f   solid:BBoxTree.obj
 0001:00024b3c       __ehhandler$?CallUnexpected@@YAXPBU_s_ESTypeList@@@Z 10025b3c f   LIBCMT:frame.obj
 0001:00024b60       ??__F?_Generic_object@?$_Error_objects@H@std@@2V_Generic_error_category@2@A@@YAXXZ 10025b60 f   solid:C-api.obj
 0001:00024b70       ??__F?_Iostream_object@?$_Error_objects@H@std@@2V_Iostream_error_category@2@A@@YAXXZ 10025b70 f   solid:C-api.obj
 0001:00024b80       ??__F?_System_object@?$_Error_objects@H@std@@2V_System_error_category@2@A@@YAXXZ 10025b80 f   solid:C-api.obj
 0001:00024b90       ??__FcomplexList@@YAXXZ    10025b90 f   solid:C-api.obj
 0001:00024bf0       ??__FindexBuf@@YAXXZ       10025bf0 f   solid:C-api.obj
 0001:00024c50       ??__FobjectList@@YAXXZ     10025c50 f   solid:C-api.obj
 0001:00024cd0       ??__FpointBuf@@YAXXZ       10025cd0 f   solid:C-api.obj
 0001:00024d30       ??__FpolyList@@YAXXZ       10025d30 f   solid:C-api.obj
 0001:00024d90       ??__FproxList@@YAXXZ       10025d90 f   solid:C-api.obj
 0001:00024e10       ??__FrespTable@@YAXXZ      10025e10 f   solid:C-api.obj
 0001:00024ef0       ??__FpartnerList@@YAXXZ    10025ef0 f   solid:RespTable.obj
 0001:00024f50       ??__FendpointList@@YAXXZ   10025f50 f   solid:Endpoint.obj
 0002:00000134       _pointBuf$initializer$     10026134     solid:C-api.obj
 0002:00000138       _indexBuf$initializer$     10026138     solid:C-api.obj
 0002:0000013c       _polyList$initializer$     1002613c     solid:C-api.obj
 0002:00000140       _complexList$initializer$  10026140     solid:C-api.obj
 0002:00000144       _objectList$initializer$   10026144     solid:C-api.obj
 0002:00000148       _respTable$initializer$    10026148     solid:C-api.obj
 0002:0000014c       _proxList$initializer$     1002614c     solid:C-api.obj
 0002:00000150       ?_Generic_object$initializer$@?$_Error_objects@H@std@@2P6AXXZA 10026150     solid:C-api.obj
 0002:00000154       ?_Iostream_object$initializer$@?$_Error_objects@H@std@@2P6AXXZA 10026154     solid:C-api.obj
 0002:00000158       ?_System_object$initializer$@?$_Error_objects@H@std@@2P6AXXZA 10026158     solid:C-api.obj
 0002:0000015c       _p$initializer$            1002615c     solid:Convex.obj
 0002:00000160       _q$initializer$            10026160     solid:Convex.obj
 0002:00000164       _y$initializer$            10026164     solid:Convex.obj
 0002:00000168       _partnerList$initializer$  10026168     solid:RespTable.obj
 0002:0000016c       _endpointList$initializer$ 1002616c     solid:Endpoint.obj
 0002:00000178       _pinit                     10026178     LIBCMT:onexit.obj
 0002:0000017c       _pinit                     1002617c     LIBCMT:_file.obj
 0002:00000180       _pinit                     10026180     LIBCMT:cpu_disp.obj
 0002:00000184       _pinit                     10026184     LIBCMT:mathfcns.obj
 0002:00000188       _pinit                     10026188     LIBCMT:mbctype.obj
 0002:00000194       _pterm                     10026194     LIBCMT:wsetloca.obj
 0002:00000198       _pterm                     10026198     LIBCMT:initcon.obj
 0002:0000019c       _pterm                     1002619c     LIBCMT:_file.obj
 0002:000001b0       _PI                        100261b0     aero.obj
 0002:000001b8       __ulEndianTest             100261b8     aero.obj
 0002:000002d0       __ulEndianTest             100262d0     axle.obj
 0002:00000338       __ulEndianTest             10026338     brake.obj
 0002:000003c0       _PI                        100263c0     car.obj
 0002:000003c8       _G                         100263c8     car.obj
 0002:000003cc       __ulEndianTest             100263cc     car.obj
 0002:000003d0       _aMax                      100263d0     car.obj
 0002:000006c0       __ulEndianTest             100266c0     categories.obj
 0002:000006c8       _PI                        100266c8     collide.obj
 0002:000006d0       __ulEndianTest             100266d0     collide.obj
 0002:00000778       __ulEndianTest             10026778     differential.obj
 0002:00000834       __ulEndianTest             10026834     engine.obj
 0002:000008e0       _PI                        100268e0     simu.obj
 0002:000008e8       __ulEndianTest             100268e8     simu.obj
 0002:00000900       __ulEndianTest             10026900     simuitf.obj
 0002:00000924       __ulEndianTest             10026924     steer.obj
 0002:0000094c       __ulEndianTest             1002694c     susp.obj
 0002:000009c0       __ulEndianTest             100269c0     transmission.obj
 0002:00000a80       _PI                        10026a80     wheel.obj
 0002:00000a88       __ulEndianTest             10026a88     wheel.obj
 0002:00000c68       _DEGS_PER_RAD              10026c68     solid:C-api.obj
 0002:00000c70       _RADS_PER_DEG              10026c70     solid:C-api.obj
 0002:00000c78       _TWO_PI                    10026c78     solid:C-api.obj
 0002:00000c80       _EPSILON                   10026c80     solid:C-api.obj
 0002:00000c88       _EPSILON2                  10026c88     solid:C-api.obj
 0002:00000c90       _INFINITY_                 10026c90     solid:C-api.obj
 0002:00000e60       _DEGS_PER_RAD              10026e60     solid:Transform.obj
 0002:00000e68       _RADS_PER_DEG              10026e68     solid:Transform.obj
 0002:00000e70       _TWO_PI                    10026e70     solid:Transform.obj
 0002:00000e78       _EPSILON                   10026e78     solid:Transform.obj
 0002:00000e80       _EPSILON2                  10026e80     solid:Transform.obj
 0002:00000e88       _DEGS_PER_RAD              10026e88     solid:Convex.obj
 0002:00000e90       _RADS_PER_DEG              10026e90     solid:Convex.obj
 0002:00000e98       _TWO_PI                    10026e98     solid:Convex.obj
 0002:00000ea0       _EPSILON                   10026ea0     solid:Convex.obj
 0002:00000ea8       _EPSILON2                  10026ea8     solid:Convex.obj
 0002:00000eb0       _INFINITY_                 10026eb0     solid:Convex.obj
 0002:00000ec0       _DEGS_PER_RAD              10026ec0     solid:Box.obj
 0002:00000ec8       _RADS_PER_DEG              10026ec8     solid:Box.obj
 0002:00000ed0       _TWO_PI                    10026ed0     solid:Box.obj
 0002:00000ed8       _EPSILON                   10026ed8     solid:Box.obj
 0002:00000ee0       _EPSILON2                  10026ee0     solid:Box.obj
 0002:00000ee8       _INFINITY_                 10026ee8     solid:Box.obj
 0002:00000ef0       _DEGS_PER_RAD              10026ef0     solid:Cone.obj
 0002:00000ef8       _RADS_PER_DEG              10026ef8     solid:Cone.obj
 0002:00000f00       _TWO_PI                    10026f00     solid:Cone.obj
 0002:00000f08       _EPSILON                   10026f08     solid:Cone.obj
 0002:00000f10       _EPSILON2                  10026f10     solid:Cone.obj
 0002:00000f18       _INFINITY_                 10026f18     solid:Cone.obj
 0002:00000f28       _DEGS_PER_RAD              10026f28     solid:Cylinder.obj
 0002:00000f30       _RADS_PER_DEG              10026f30     solid:Cylinder.obj
 0002:00000f38       _TWO_PI                    10026f38     solid:Cylinder.obj
 0002:00000f40       _EPSILON                   10026f40     solid:Cylinder.obj
 0002:00000f48       _EPSILON2                  10026f48     solid:Cylinder.obj
 0002:00000f50       _INFINITY_                 10026f50     solid:Cylinder.obj
 0002:00000f58       _DEGS_PER_RAD              10026f58     solid:Sphere.obj
 0002:00000f60       _RADS_PER_DEG              10026f60     solid:Sphere.obj
 0002:00000f68       _TWO_PI                    10026f68     solid:Sphere.obj
 0002:00000f70       _EPSILON                   10026f70     solid:Sphere.obj
 0002:00000f78       _EPSILON2                  10026f78     solid:Sphere.obj
 0002:00000f80       _INFINITY_                 10026f80     solid:Sphere.obj
 0002:00000f88       _DEGS_PER_RAD              10026f88     solid:Complex.obj
 0002:00000f90       _RADS_PER_DEG              10026f90     solid:Complex.obj
 0002:00000f98       _TWO_PI                    10026f98     solid:Complex.obj
 0002:00000fa0       _EPSILON                   10026fa0     solid:Complex.obj
 0002:00000fa8       _EPSILON2                  10026fa8     solid:Complex.obj
 0002:00000fb0       _INFINITY_                 10026fb0     solid:Complex.obj
 0002:00000fb8       _DEGS_PER_RAD              10026fb8     solid:Object.obj
 0002:00000fc0       _RADS_PER_DEG              10026fc0     solid:Object.obj
 0002:00000fc8       _TWO_PI                    10026fc8     solid:Object.obj
 0002:00000fd0       _EPSILON                   10026fd0     solid:Object.obj
 0002:00000fd8       _EPSILON2                  10026fd8     solid:Object.obj
 0002:00000fe0       _INFINITY_                 10026fe0     solid:Object.obj
 0002:00000ff0       _DEGS_PER_RAD              10026ff0     solid:Simplex.obj
 0002:00000ff8       _RADS_PER_DEG              10026ff8     solid:Simplex.obj
 0002:00001000       _TWO_PI                    10027000     solid:Simplex.obj
 0002:00001008       _EPSILON                   10027008     solid:Simplex.obj
 0002:00001010       _EPSILON2                  10027010     solid:Simplex.obj
 0002:00001018       _INFINITY_                 10027018     solid:Simplex.obj
 0002:00001020       _DEGS_PER_RAD              10027020     solid:Polygon.obj
 0002:00001028       _RADS_PER_DEG              10027028     solid:Polygon.obj
 0002:00001030       _TWO_PI                    10027030     solid:Polygon.obj
 0002:00001038       _EPSILON                   10027038     solid:Polygon.obj
 0002:00001040       _EPSILON2                  10027040     solid:Polygon.obj
 0002:00001048       _INFINITY_                 10027048     solid:Polygon.obj
 0002:00001050       _DEGS_PER_RAD              10027050     solid:Polyhedron.obj
 0002:00001058       _RADS_PER_DEG              10027058     solid:Polyhedron.obj
 0002:00001060       _TWO_PI                    10027060     solid:Polyhedron.obj
 0002:00001068       _EPSILON                   10027068     solid:Polyhedron.obj
 0002:00001070       _EPSILON2                  10027070     solid:Polyhedron.obj
 0002:00001078       _INFINITY_                 10027078     solid:Polyhedron.obj
 0002:00001098       _DEGS_PER_RAD              10027098     solid:Response.obj
 0002:000010a0       _RADS_PER_DEG              100270a0     solid:Response.obj
 0002:000010a8       _TWO_PI                    100270a8     solid:Response.obj
 0002:000010b0       _EPSILON                   100270b0     solid:Response.obj
 0002:000010b8       _EPSILON2                  100270b8     solid:Response.obj
 0002:000010c0       _DEGS_PER_RAD              100270c0     solid:RespTable.obj
 0002:000010c8       _RADS_PER_DEG              100270c8     solid:RespTable.obj
 0002:000010d0       _TWO_PI                    100270d0     solid:RespTable.obj
 0002:000010d8       _EPSILON                   100270d8     solid:RespTable.obj
 0002:000010e0       _EPSILON2                  100270e0     solid:RespTable.obj
 0002:000010e8       _DEGS_PER_RAD              100270e8     solid:BBoxTree.obj
 0002:000010f0       _RADS_PER_DEG              100270f0     solid:BBoxTree.obj
 0002:000010f8       _TWO_PI                    100270f8     solid:BBoxTree.obj
 0002:00001100       _EPSILON                   10027100     solid:BBoxTree.obj
 0002:00001108       _EPSILON2                  10027108     solid:BBoxTree.obj
 0002:00001110       _INFINITY_                 10027110     solid:BBoxTree.obj
 0002:00001130       _DEGS_PER_RAD              10027130     solid:Endpoint.obj
 0002:00001138       _RADS_PER_DEG              10027138     solid:Endpoint.obj
 0002:00001140       _TWO_PI                    10027140     solid:Endpoint.obj
 0002:00001148       _EPSILON                   10027148     solid:Endpoint.obj
 0002:00001150       _EPSILON2                  10027150     solid:Endpoint.obj
 0002:00001158       _INFINITY_                 10027158     solid:Endpoint.obj
 0002:00001168       __ulEndianTest             10027168     sg_vs2008_32:sgd.obj
 0002:0000116c       __ulEndianTest             1002716c     sg_vs2008_32:sg.obj
 0002:00001190       __ulEndianTest             10027190     ul_vs2008_32:ulError.obj
 0002:000011d8       __Win_errtab               100271d8     libcpmt:syserror.obj
 0002:00001430       __Sys_errtab               10027430     libcpmt:syserror.obj
 0002:00001f30       smask                      10027f30     LIBCMT:exp_sse2_precise.obj
 0002:00001f40       emask                      10027f40     LIBCMT:exp_sse2_precise.obj
 0002:00001f50       mmask                      10027f50     LIBCMT:exp_sse2_precise.obj
 0002:00001f60       bias                       10027f60     LIBCMT:exp_sse2_precise.obj
 0002:00001f70       Shifter                    10027f70     LIBCMT:exp_sse2_precise.obj
 0002:00001f80       twom60                     10027f80     LIBCMT:exp_sse2_precise.obj
 0002:00001f90       cv                         10027f90     LIBCMT:exp_sse2_precise.obj
 0002:00001fe0       Tbl_addr                   10027fe0     LIBCMT:exp_sse2_precise.obj
 0002:000023e0       ONE_val                    100283e0     LIBCMT:exp_sse2_precise.obj
 0002:000023e8       EMIN                       100283e8     LIBCMT:exp_sse2_precise.obj
 0002:000023f0       MAX_ARG                    100283f0     LIBCMT:exp_sse2_precise.obj
 0002:000023f8       MIN_ARG                    100283f8     LIBCMT:exp_sse2_precise.obj
 0002:00002400       INF                        10028400     LIBCMT:exp_sse2_precise.obj
 0002:00002408       ZERO                       10028408     LIBCMT:exp_sse2_precise.obj
 0002:00002410       XMAX                       10028410     LIBCMT:exp_sse2_precise.obj
 0002:00002418       XMIN                       10028418     LIBCMT:exp_sse2_precise.obj
 0002:00002420       Sm_Thres                   10028420     LIBCMT:exp_sse2_precise.obj
 0002:00002428       Del_Thres                  10028428     LIBCMT:exp_sse2_precise.obj
 0002:00002430       Ctable                     10028430     LIBCMT:sin_sse2_precise.obj
 0002:00002c30       SC_1                       10028c30     LIBCMT:sin_sse2_precise.obj
 0002:00002c40       SC_2                       10028c40     LIBCMT:sin_sse2_precise.obj
 0002:00002c50       SC_3                       10028c50     LIBCMT:sin_sse2_precise.obj
 0002:00002c60       SC_4                       10028c60     LIBCMT:sin_sse2_precise.obj
 0002:00002c70       PI32INV                    10028c70     LIBCMT:sin_sse2_precise.obj
 0002:00002c78       SHIFTER                    10028c78     LIBCMT:sin_sse2_precise.obj
 0002:00002c80       P_2                        10028c80     LIBCMT:sin_sse2_precise.obj
 0002:00002c90       P_1                        10028c90     LIBCMT:sin_sse2_precise.obj
 0002:00002c98       P_3                        10028c98     LIBCMT:sin_sse2_precise.obj
 0002:00002ca0       TWO_POW_55                 10028ca0     LIBCMT:sin_sse2_precise.obj
 0002:00002ca8       TWO_POW_M55                10028ca8     LIBCMT:sin_sse2_precise.obj
 0002:00002cb0       ALL_ONES                   10028cb0     LIBCMT:sin_sse2_precise.obj
 0002:00002cb8       NEG_ZERO                   10028cb8     LIBCMT:sin_sse2_precise.obj
 0002:00002cc0       ONE                        10028cc0     LIBCMT:sin_sse2_precise.obj
 0002:00002ce0       Ctable                     10028ce0     LIBCMT:cos_sse2_precise.obj
 0002:000034e0       SC_1                       100294e0     LIBCMT:cos_sse2_precise.obj
 0002:000034f0       SC_2                       100294f0     LIBCMT:cos_sse2_precise.obj
 0002:00003500       SC_3                       10029500     LIBCMT:cos_sse2_precise.obj
 0002:00003510       SC_4                       10029510     LIBCMT:cos_sse2_precise.obj
 0002:00003520       PI32INV                    10029520     LIBCMT:cos_sse2_precise.obj
 0002:00003528       SHIFTER                    10029528     LIBCMT:cos_sse2_precise.obj
 0002:00003530       P_2                        10029530     LIBCMT:cos_sse2_precise.obj
 0002:00003540       P_1                        10029540     LIBCMT:cos_sse2_precise.obj
 0002:00003548       P_3                        10029548     LIBCMT:cos_sse2_precise.obj
 0002:00003550       TWO_POW_55                 10029550     LIBCMT:cos_sse2_precise.obj
 0002:00003558       TWO_POW_M55                10029558     LIBCMT:cos_sse2_precise.obj
 0002:00003560       ALL_ONES                   10029560     LIBCMT:cos_sse2_precise.obj
 0002:00003568       NEG_ZERO                   10029568     LIBCMT:cos_sse2_precise.obj
 0002:00003570       ONE                        10029570     LIBCMT:cos_sse2_precise.obj
 0002:00003580       SIGN_MASK                  10029580     LIBCMT:cos_sse2_precise.obj
 0002:00003590       Ctable                     10029590     LIBCMT:tan_sse2_precise.obj
 0002:00004b90       PI32INV                    1002ab90     LIBCMT:tan_sse2_precise.obj
 0002:00004ba0       SHIFTER                    1002aba0     LIBCMT:tan_sse2_precise.obj
 0002:00004bb0       P_1                        1002abb0     LIBCMT:tan_sse2_precise.obj
 0002:00004bc0       P_2                        1002abc0     LIBCMT:tan_sse2_precise.obj
 0002:00004bd0       P_3                        1002abd0     LIBCMT:tan_sse2_precise.obj
 0002:00004be0       QQ_2                       1002abe0     LIBCMT:tan_sse2_precise.obj
 0002:00004be8       ONE                        1002abe8     LIBCMT:tan_sse2_precise.obj
 0002:00004bf0       MASK_35                    1002abf0     LIBCMT:tan_sse2_precise.obj
 0002:00004c00       sign_mask                  1002ac00     LIBCMT:tan_sse2_precise.obj
 0002:00004c08       TWO_POW_55                 1002ac08     LIBCMT:tan_sse2_precise.obj
 0002:00004c10       TWO_POW_M55                1002ac10     LIBCMT:tan_sse2_precise.obj
 0002:00004c18       TWO_POW_M53                1002ac18     LIBCMT:tan_sse2_precise.obj
 0002:00004c20       INF                        1002ac20     LIBCMT:tan_sse2_precise.obj
 0002:00004c30       Shifter                    1002ac30     LIBCMT:asin_sse2_precise.obj
 0002:00004c40       Tbl_addr                   1002ac40     LIBCMT:asin_sse2_precise.obj
 0002:00005b40       T_table                    1002bb40     LIBCMT:asin_sse2_precise.obj
 0002:00006340       PI_BY_2                    1002c340     LIBCMT:asin_sse2_precise.obj
 0002:00006350       SIGNMASK                   1002c350     LIBCMT:asin_sse2_precise.obj
 0002:00006360       HALFMASK                   1002c360     LIBCMT:asin_sse2_precise.obj
 0002:00006370       HALFMASK2                  1002c370     LIBCMT:asin_sse2_precise.obj
 0002:00006378       cv                         1002c378     LIBCMT:asin_sse2_precise.obj
 0002:00006390       cv2                        1002c390     LIBCMT:asin_sse2_precise.obj
 0002:000063d0       ABSVALMASK                 1002c3d0     LIBCMT:asin_sse2_precise.obj
 0002:000063d8       TMASK                      1002c3d8     LIBCMT:asin_sse2_precise.obj
 0002:000063e0       ONEMASK                    1002c3e0     LIBCMT:asin_sse2_precise.obj
 0002:000063e8       EMIN                       1002c3e8     LIBCMT:asin_sse2_precise.obj
 0002:000063f0       MAX_ARG                    1002c3f0     LIBCMT:asin_sse2_precise.obj
 0002:000063f8       MIN_ARG                    1002c3f8     LIBCMT:asin_sse2_precise.obj
 0002:00006400       INF                        1002c400     LIBCMT:asin_sse2_precise.obj
 0002:00006408       ZERO                       1002c408     LIBCMT:asin_sse2_precise.obj
 0002:00006410       _mexp                      1002c410     LIBCMT:atan_sse2_precise.obj
 0002:00006420       _mabs                      1002c420     LIBCMT:atan_sse2_precise.obj
 0002:00006430       _pi_2d                     1002c430     LIBCMT:atan_sse2_precise.obj
 0002:00006440       _d1400                     1002c440     LIBCMT:atan_sse2_precise.obj
 0002:00006450       _d1213                     1002c450     LIBCMT:atan_sse2_precise.obj
 0002:00006460       _d1011                     1002c460     LIBCMT:atan_sse2_precise.obj
 0002:00006470       _d89                       1002c470     LIBCMT:atan_sse2_precise.obj
 0002:00006480       _d67                       1002c480     LIBCMT:atan_sse2_precise.obj
 0002:00006490       _d45                       1002c490     LIBCMT:atan_sse2_precise.obj
 0002:000064a0       _d23                       1002c4a0     LIBCMT:atan_sse2_precise.obj
 0002:000064b0       _d01                       1002c4b0     LIBCMT:atan_sse2_precise.obj
 0002:000064c0       _p60                       1002c4c0     LIBCMT:atan_sse2_precise.obj
 0002:000064d0       _p45                       1002c4d0     LIBCMT:atan_sse2_precise.obj
 0002:000064e0       _p23                       1002c4e0     LIBCMT:atan_sse2_precise.obj
 0002:000064f0       _p01                       1002c4f0     LIBCMT:atan_sse2_precise.obj
 0002:00006500       _cntshf                    1002c500     LIBCMT:atan_sse2_precise.obj
 0002:00006508       _zero                      1002c508     LIBCMT:atan_sse2_precise.obj
 0002:00006510       _onen                      1002c510     LIBCMT:atan_sse2_precise.obj
 0002:00006518       _one                       1002c518     LIBCMT:atan_sse2_precise.obj
 0002:00006520       _cnst8                     1002c520     LIBCMT:atan_sse2_precise.obj
 0002:00006528       _in3                       1002c528     LIBCMT:atan_sse2_precise.obj
 0002:00006530       _in2                       1002c530     LIBCMT:atan_sse2_precise.obj
 0002:00006538       _in1                       1002c538     LIBCMT:atan_sse2_precise.obj
 0002:00006540       _in0                       1002c540     LIBCMT:atan_sse2_precise.obj
 0002:00006548       _in                        1002c548     LIBCMT:atan_sse2_precise.obj
 0002:00006550       _minval                    1002c550     LIBCMT:atan_sse2_precise.obj
 0002:00006558       libm_small                 1002c558     LIBCMT:atan_sse2_precise.obj
 0002:00006560       emask                      1002c560     LIBCMT:log_sse2_precise.obj
 0002:00006570       Magic                      1002c570     LIBCMT:log_sse2_precise.obj
 0002:00006580       hi_mask                    1002c580     LIBCMT:log_sse2_precise.obj
 0002:00006590       LOG_2                      1002c590     LIBCMT:log_sse2_precise.obj
 0002:000065a0       place_L                    1002c5a0     LIBCMT:log_sse2_precise.obj
 0002:000065c0       One                        1002c5c0     LIBCMT:log_sse2_precise.obj
 0002:000065d0       Zero                       1002c5d0     LIBCMT:log_sse2_precise.obj
 0002:000065e0       Two52                      1002c5e0     LIBCMT:log_sse2_precise.obj
 0002:000065f0       Infs                       1002c5f0     LIBCMT:log_sse2_precise.obj
 0002:00006600       NaN                        1002c600     LIBCMT:log_sse2_precise.obj
 0002:00006610       coeff                      1002c610     LIBCMT:log_sse2_precise.obj
 0002:00006640       B_Tbl                      1002c640     LIBCMT:log_sse2_precise.obj
 0002:00006a50       T_Tbl                      1002ca50     LIBCMT:log_sse2_precise.obj
 0002:00006e64       ?ExceptionTemplate@?1??_CxxThrowException@@9@8@4UEHExceptionRecord@@B 1002ce64     LIBCMT:throw.obj
 0002:00006f30       DblMax                     1002cf30     LIBCMT:87cdisp.obj
 0002:00006f38       DblMin                     1002cf38     LIBCMT:87cdisp.obj
 0002:00006f40       IeeeAdjO                   1002cf40     LIBCMT:87cdisp.obj
 0002:00006f48       IeeeAdjU                   1002cf48     LIBCMT:87cdisp.obj
 0002:00006f50       _infinity                  1002cf50     LIBCMT:87cdisp.obj
 0002:00006f58       _zero                      1002cf58     LIBCMT:87cdisp.obj
 0002:00006f60       _INF                       1002cf60     LIBCMT:libm_error.obj
 0002:00006f70       _BIG                       1002cf70     LIBCMT:libm_error.obj
 0002:00006f80       _ZERO                      1002cf80     LIBCMT:libm_error.obj
 0002:00006f90       _INF_32                    1002cf90     LIBCMT:libm_error.obj
 0002:00006f98       _NAN_32                    1002cf98     LIBCMT:libm_error.obj
 0002:00006fa0       _ZERO_32                   1002cfa0     LIBCMT:libm_error.obj
 0002:00006fa8       _libm_largef               1002cfa8     LIBCMT:libm_error.obj
 0002:00006fb0       _libm_smallf               1002cfb0     LIBCMT:libm_error.obj
 0002:00006fb8       _libm_small                1002cfb8     LIBCMT:libm_error.obj
 0002:00008ce4       One                        1002ece4     LIBCMT:87disp.obj
 0002:00008cec       XAMtoTagTab                1002ecec     LIBCMT:87disp.obj
 0002:00008d00       One                        1002ed00     LIBCMT:common.obj
 0002:00008d14       DblMax                     1002ed14     LIBCMT:common.obj
 0002:00008d1c       DblMin                     1002ed1c     LIBCMT:common.obj
 0002:00008d24       IeeeAdjO                   1002ed24     LIBCMT:common.obj
 0002:00008d2c       IeeeAdjU                   1002ed2c     LIBCMT:common.obj
 0002:00008d34       _infinity                  1002ed34     LIBCMT:common.obj
 0002:00008d3c       _zero                      1002ed3c     LIBCMT:common.obj
 0002:00008d50       Shifter                    1002ed50     LIBCMT:asin_pentium4.obj
 0002:00008d60       Tbl_addr                   1002ed60     LIBCMT:asin_pentium4.obj
 0002:00009c60       T_table                    1002fc60     LIBCMT:asin_pentium4.obj
 0002:0000a460       PI_BY_2                    10030460     LIBCMT:asin_pentium4.obj
 0002:0000a470       SIGNMASK                   10030470     LIBCMT:asin_pentium4.obj
 0002:0000a480       HALFMASK                   10030480     LIBCMT:asin_pentium4.obj
 0002:0000a490       HALFMASK2                  10030490     LIBCMT:asin_pentium4.obj
 0002:0000a498       cv                         10030498     LIBCMT:asin_pentium4.obj
 0002:0000a4b0       cv2                        100304b0     LIBCMT:asin_pentium4.obj
 0002:0000a4f0       ABSVALMASK                 100304f0     LIBCMT:asin_pentium4.obj
 0002:0000a4f8       TMASK                      100304f8     LIBCMT:asin_pentium4.obj
 0002:0000a500       ONEMASK                    10030500     LIBCMT:asin_pentium4.obj
 0002:0000a508       EMIN                       10030508     LIBCMT:asin_pentium4.obj
 0002:0000a510       MAX_ARG                    10030510     LIBCMT:asin_pentium4.obj
 0002:0000a518       MIN_ARG                    10030518     LIBCMT:asin_pentium4.obj
 0002:0000a520       INF                        10030520     LIBCMT:asin_pentium4.obj
 0002:0000a528       ZERO                       10030528     LIBCMT:asin_pentium4.obj
 0002:0000a530       Shifter                    10030530     LIBCMT:acos_pentium4.obj
 0002:0000a540       Tbl_addr                   10030540     LIBCMT:acos_pentium4.obj
 0002:0000b440       T_table                    10031440     LIBCMT:acos_pentium4.obj
 0002:0000bc40       PI_BY_2                    10031c40     LIBCMT:acos_pentium4.obj
 0002:0000bc50       NEG_PI                     10031c50     LIBCMT:acos_pentium4.obj
 0002:0000bc60       PI                         10031c60     LIBCMT:acos_pentium4.obj
 0002:0000bc70       SIGNMASK                   10031c70     LIBCMT:acos_pentium4.obj
 0002:0000bc80       HALFMASK                   10031c80     LIBCMT:acos_pentium4.obj
 0002:0000bc90       HALFMASK2                  10031c90     LIBCMT:acos_pentium4.obj
 0002:0000bca0       cv                         10031ca0     LIBCMT:acos_pentium4.obj
 0002:0000bcc0       cv2                        10031cc0     LIBCMT:acos_pentium4.obj
 0002:0000bd00       ABSVALMASK                 10031d00     LIBCMT:acos_pentium4.obj
 0002:0000bd08       TMASK                      10031d08     LIBCMT:acos_pentium4.obj
 0002:0000bd10       ONEMASK                    10031d10     LIBCMT:acos_pentium4.obj
 0002:0000bd18       ONE_BY_2                   10031d18     LIBCMT:acos_pentium4.obj
 0002:0000bd20       EMIN                       10031d20     LIBCMT:acos_pentium4.obj
 0002:0000bd28       MAX_ARG                    10031d28     LIBCMT:acos_pentium4.obj
 0002:0000bd30       MIN_ARG                    10031d30     LIBCMT:acos_pentium4.obj
 0002:0000bd38       INF                        10031d38     LIBCMT:acos_pentium4.obj
 0002:0000bd40       ZERO                       10031d40     LIBCMT:acos_pentium4.obj
 0002:0000bd48       ALPHA                      10031d48     LIBCMT:acos_pentium4.obj
 0002:0000bd50       Ctable                     10031d50     LIBCMT:sin_pentium4.obj
 0002:0000c550       SC_1                       10032550     LIBCMT:sin_pentium4.obj
 0002:0000c560       SC_2                       10032560     LIBCMT:sin_pentium4.obj
 0002:0000c570       SC_3                       10032570     LIBCMT:sin_pentium4.obj
 0002:0000c580       SC_4                       10032580     LIBCMT:sin_pentium4.obj
 0002:0000c590       PI32INV                    10032590     LIBCMT:sin_pentium4.obj
 0002:0000c598       SHIFTER                    10032598     LIBCMT:sin_pentium4.obj
 0002:0000c5a0       P_2                        100325a0     LIBCMT:sin_pentium4.obj
 0002:0000c5b0       P_1                        100325b0     LIBCMT:sin_pentium4.obj
 0002:0000c5b8       P_3                        100325b8     LIBCMT:sin_pentium4.obj
 0002:0000c5c0       TWO_POW_55                 100325c0     LIBCMT:sin_pentium4.obj
 0002:0000c5c8       TWO_POW_M55                100325c8     LIBCMT:sin_pentium4.obj
 0002:0000c5d0       ALL_ONES                   100325d0     LIBCMT:sin_pentium4.obj
 0002:0000c5d8       NEG_ZERO                   100325d8     LIBCMT:sin_pentium4.obj
 0002:0000c5e0       ONE                        100325e0     LIBCMT:sin_pentium4.obj
 0002:0000c5f0       Ctable                     100325f0     LIBCMT:cos_pentium4.obj
 0002:0000cdf0       SC_1                       10032df0     LIBCMT:cos_pentium4.obj
 0002:0000ce00       SC_2                       10032e00     LIBCMT:cos_pentium4.obj
 0002:0000ce10       SC_3                       10032e10     LIBCMT:cos_pentium4.obj
 0002:0000ce20       SC_4                       10032e20     LIBCMT:cos_pentium4.obj
 0002:0000ce30       PI32INV                    10032e30     LIBCMT:cos_pentium4.obj
 0002:0000ce38       SHIFTER                    10032e38     LIBCMT:cos_pentium4.obj
 0002:0000ce40       P_2                        10032e40     LIBCMT:cos_pentium4.obj
 0002:0000ce50       P_1                        10032e50     LIBCMT:cos_pentium4.obj
 0002:0000ce58       P_3                        10032e58     LIBCMT:cos_pentium4.obj
 0002:0000ce60       TWO_POW_55                 10032e60     LIBCMT:cos_pentium4.obj
 0002:0000ce68       TWO_POW_M55                10032e68     LIBCMT:cos_pentium4.obj
 0002:0000ce70       ALL_ONES                   10032e70     LIBCMT:cos_pentium4.obj
 0002:0000ce78       NEG_ZERO                   10032e78     LIBCMT:cos_pentium4.obj
 0002:0000ce80       ONE                        10032e80     LIBCMT:cos_pentium4.obj
 0002:0000ce90       SIGN_MASK                  10032e90     LIBCMT:cos_pentium4.obj
 0002:0000cea0       Ctable                     10032ea0     LIBCMT:tan_pentium4.obj
 0002:0000e4a0       PI32INV                    100344a0     LIBCMT:tan_pentium4.obj
 0002:0000e4b0       SHIFTER                    100344b0     LIBCMT:tan_pentium4.obj
 0002:0000e4c0       P_1                        100344c0     LIBCMT:tan_pentium4.obj
 0002:0000e4d0       P_2                        100344d0     LIBCMT:tan_pentium4.obj
 0002:0000e4e0       P_3                        100344e0     LIBCMT:tan_pentium4.obj
 0002:0000e4f0       QQ_2                       100344f0     LIBCMT:tan_pentium4.obj
 0002:0000e4f8       ONE                        100344f8     LIBCMT:tan_pentium4.obj
 0002:0000e500       MASK_35                    10034500     LIBCMT:tan_pentium4.obj
 0002:0000e510       sign_mask                  10034510     LIBCMT:tan_pentium4.obj
 0002:0000e518       TWO_POW_55                 10034518     LIBCMT:tan_pentium4.obj
 0002:0000e520       TWO_POW_M55                10034520     LIBCMT:tan_pentium4.obj
 0002:0000e528       TWO_POW_M53                10034528     LIBCMT:tan_pentium4.obj
 0002:0000e530       INF                        10034530     LIBCMT:tan_pentium4.obj
 0002:0000e540       _rterrs                    10034540     LIBCMT:crt0msg.obj
 0002:0000efa4       __mb_locale_names          10034fa4     LIBCMT:mbctype.obj
 0002:0000efe4       _GS_ExceptionPointers      10034fe4     LIBCMT:gs_report.obj
 0002:0000eff0       smask                      10034ff0     LIBCMT:exp_pentium4.obj
 0002:0000f000       emask                      10035000     LIBCMT:exp_pentium4.obj
 0002:0000f010       mmask                      10035010     LIBCMT:exp_pentium4.obj
 0002:0000f020       bias                       10035020     LIBCMT:exp_pentium4.obj
 0002:0000f030       Shifter                    10035030     LIBCMT:exp_pentium4.obj
 0002:0000f040       twom60                     10035040     LIBCMT:exp_pentium4.obj
 0002:0000f050       cv                         10035050     LIBCMT:exp_pentium4.obj
 0002:0000f0a0       Tbl_addr                   100350a0     LIBCMT:exp_pentium4.obj
 0002:0000f4a0       ONE_val                    100354a0     LIBCMT:exp_pentium4.obj
 0002:0000f4a8       EMIN                       100354a8     LIBCMT:exp_pentium4.obj
 0002:0000f4b0       MAX_ARG                    100354b0     LIBCMT:exp_pentium4.obj
 0002:0000f4b8       MIN_ARG                    100354b8     LIBCMT:exp_pentium4.obj
 0002:0000f4c0       INF                        100354c0     LIBCMT:exp_pentium4.obj
 0002:0000f4c8       ZERO                       100354c8     LIBCMT:exp_pentium4.obj
 0002:0000f4d0       XMAX                       100354d0     LIBCMT:exp_pentium4.obj
 0002:0000f4d8       XMIN                       100354d8     LIBCMT:exp_pentium4.obj
 0002:0000f4e0       Sm_Thres                   100354e0     LIBCMT:exp_pentium4.obj
 0002:0000f4e8       Del_Thres                  100354e8     LIBCMT:exp_pentium4.obj
 0002:0000f50e       _log2max                   1003550e     LIBCMT:87tran.obj
 0002:0000f518       _smallarg                  10035518     LIBCMT:87tran.obj
 0002:0000f522       _half                      10035522     LIBCMT:87tran.obj
 0002:0000f910       _mexp                      10035910     LIBCMT:atan_pentium4.obj
 0002:0000f920       _mabs                      10035920     LIBCMT:atan_pentium4.obj
 0002:0000f930       _pi_2d                     10035930     LIBCMT:atan_pentium4.obj
 0002:0000f940       _d1400                     10035940     LIBCMT:atan_pentium4.obj
 0002:0000f950       _d1213                     10035950     LIBCMT:atan_pentium4.obj
 0002:0000f960       _d1011                     10035960     LIBCMT:atan_pentium4.obj
 0002:0000f970       _d89                       10035970     LIBCMT:atan_pentium4.obj
 0002:0000f980       _d67                       10035980     LIBCMT:atan_pentium4.obj
 0002:0000f990       _d45                       10035990     LIBCMT:atan_pentium4.obj
 0002:0000f9a0       _d23                       100359a0     LIBCMT:atan_pentium4.obj
 0002:0000f9b0       _d01                       100359b0     LIBCMT:atan_pentium4.obj
 0002:0000f9c0       _p60                       100359c0     LIBCMT:atan_pentium4.obj
 0002:0000f9d0       _p45                       100359d0     LIBCMT:atan_pentium4.obj
 0002:0000f9e0       _p23                       100359e0     LIBCMT:atan_pentium4.obj
 0002:0000f9f0       _p01                       100359f0     LIBCMT:atan_pentium4.obj
 0002:0000fa00       _cntshf                    10035a00     LIBCMT:atan_pentium4.obj
 0002:0000fa08       _zero                      10035a08     LIBCMT:atan_pentium4.obj
 0002:0000fa10       _onen                      10035a10     LIBCMT:atan_pentium4.obj
 0002:0000fa18       _one                       10035a18     LIBCMT:atan_pentium4.obj
 0002:0000fa20       _cnst8                     10035a20     LIBCMT:atan_pentium4.obj
 0002:0000fa28       _in3                       10035a28     LIBCMT:atan_pentium4.obj
 0002:0000fa30       _in2                       10035a30     LIBCMT:atan_pentium4.obj
 0002:0000fa38       _in1                       10035a38     LIBCMT:atan_pentium4.obj
 0002:0000fa40       _in0                       10035a40     LIBCMT:atan_pentium4.obj
 0002:0000fa48       _in                        10035a48     LIBCMT:atan_pentium4.obj
 0002:0000fa50       _minval                    10035a50     LIBCMT:atan_pentium4.obj
 0002:0000fa58       libm_small                 10035a58     LIBCMT:atan_pentium4.obj
 0002:0000fa60       emask                      10035a60     LIBCMT:log_pentium4.obj
 0002:0000fa70       Magic                      10035a70     LIBCMT:log_pentium4.obj
 0002:0000fa80       hi_mask                    10035a80     LIBCMT:log_pentium4.obj
 0002:0000fa90       LOG_2                      10035a90     LIBCMT:log_pentium4.obj
 0002:0000faa0       place_L                    10035aa0     LIBCMT:log_pentium4.obj
 0002:0000fac0       One                        10035ac0     LIBCMT:log_pentium4.obj
 0002:0000fad0       Zero                       10035ad0     LIBCMT:log_pentium4.obj
 0002:0000fae0       Two52                      10035ae0     LIBCMT:log_pentium4.obj
 0002:0000faf0       Infs                       10035af0     LIBCMT:log_pentium4.obj
 0002:0000fb00       NaN                        10035b00     LIBCMT:log_pentium4.obj
 0002:0000fb10       coeff                      10035b10     LIBCMT:log_pentium4.obj
 0002:0000fb40       B_Tbl                      10035b40     LIBCMT:log_pentium4.obj
 0002:0000ff50       T_Tbl                      10035f50     LIBCMT:log_pentium4.obj
 0002:000123d8       _tokenTable                100383d8     LIBCMT:undname.obj
 0002:00012410       _nameTable                 10038410     LIBCMT:undname.obj
 0002:00012550       _rttiTable                 10038550     LIBCMT:undname.obj
 0002:00012ba0       __first_127char            10038ba0     LIBCMT:wsetloca.obj
 0002:00013bc0       __catchsym$?_Copy@?$basic_string@DU?$char_traits@D@std@@V?$allocator@D@2@@std@@QAEXII@Z$5 10039bc0     solid:C-api.obj
 0002:00013bd0       __catchsym$?_Copy@?$basic_string@DU?$char_traits@D@std@@V?$allocator@D@2@@std@@QAEXII@Z$4 10039bd0     solid:C-api.obj
 0002:00013be0       __unwindtable$?_Copy@?$basic_string@DU?$char_traits@D@std@@V?$allocator@D@2@@std@@QAEXII@Z 10039be0     solid:C-api.obj
 0002:00013c00       __ehfuncinfo$?_Copy@?$basic_string@DU?$char_traits@D@std@@V?$allocator@D@2@@std@@QAEXII@Z 10039c00     solid:C-api.obj
 0002:00013c24       __tryblocktable$?_Copy@?$basic_string@DU?$char_traits@D@std@@V?$allocator@D@2@@std@@QAEXII@Z 10039c24     solid:C-api.obj
 0002:00013c4c       __unwindtable$??0Simplex@@QAE@ABVVertexBase@@HQBI@Z 10039c4c     solid:C-api.obj
 0002:00013c4c       __unwindtable$??0Polygon@@QAE@ABVVertexBase@@HQBI@Z 10039c4c     solid:C-api.obj
 0002:00013c54       __ehfuncinfo$??0Polygon@@QAE@ABVVertexBase@@HQBI@Z 10039c54     solid:C-api.obj
 0002:00013c54       __ehfuncinfo$??0Simplex@@QAE@ABVVertexBase@@HQBI@Z 10039c54     solid:C-api.obj
 0002:00013c78       __catchsym$?_Reallocate@?$vector@VPoint@@V?$allocator@VPoint@@@std@@@std@@IAEXI@Z$2 10039c78     solid:C-api.obj
 0002:00013c88       __unwindtable$?_Reallocate@?$vector@VPoint@@V?$allocator@VPoint@@@std@@@std@@IAEXI@Z 10039c88     solid:C-api.obj
 0002:00013c98       __tryblocktable$?_Reallocate@?$vector@VPoint@@V?$allocator@VPoint@@@std@@@std@@IAEXI@Z 10039c98     solid:C-api.obj
 0002:00013cac       __ehfuncinfo$?_Reallocate@?$vector@VPoint@@V?$allocator@VPoint@@@std@@@std@@IAEXI@Z 10039cac     solid:C-api.obj
 0002:00013cd0       __unwindtable$??__ErespTable@@YAXXZ 10039cd0     solid:C-api.obj
 0002:00013cd8       __ehfuncinfo$??__ErespTable@@YAXXZ 10039cd8     solid:C-api.obj
 0002:00013cfc       __catchsym$??$_Insert_nohint@VEncounter@@U_Nil@std@@@?$_Tree@V?$_Tset_traits@VEncounter@@U?$less@VEncounter@@@std@@V?$allocator@VEncounter@@@3@$0A@@std@@@std@@IAE?AU?$pair@V?$_Tree_const_iterator@V?$_Tree_val@U?$_Tree_simple_types@VEncounter@@@std@@@std@@@std@@_N@1@_N$$QAVEncounter@@U_Nil@1@@Z$2 10039cfc     solid:C-api.obj
 0002:00013d0c       __unwindtable$??$_Insert_nohint@VEncounter@@U_Nil@std@@@?$_Tree@V?$_Tset_traits@VEncounter@@U?$less@VEncounter@@@std@@V?$allocator@VEncounter@@@3@$0A@@std@@@std@@IAE?AU?$pair@V?$_Tree_const_iterator@V?$_Tree_val@U?$_Tree_simple_types@VEncounter@@@std@@@std@@@std@@_N@1@_N$$QAVEncounter@@U_Nil@1@@Z 10039d0c     solid:C-api.obj
 0002:00013d1c       __tryblocktable$??$_Insert_nohint@VEncounter@@U_Nil@std@@@?$_Tree@V?$_Tset_traits@VEncounter@@U?$less@VEncounter@@@std@@V?$allocator@VEncounter@@@3@$0A@@std@@@std@@IAE?AU?$pair@V?$_Tree_const_iterator@V?$_Tree_val@U?$_Tree_simple_types@VEncounter@@@std@@@std@@@std@@_N@1@_N$$QAVEncounter@@U_Nil@1@@Z 10039d1c     solid:C-api.obj
 0002:00013d30       __ehfuncinfo$??$_Insert_nohint@VEncounter@@U_Nil@std@@@?$_Tree@V?$_Tset_traits@VEncounter@@U?$less@VEncounter@@@std@@V?$allocator@VEncounter@@@3@$0A@@std@@@std@@IAE?AU?$pair@V?$_Tree_const_iterator@V?$_Tree_val@U?$_Tree_simple_types@VEncounter@@@std@@@std@@@std@@_N@1@_N$$QAVEncounter@@U_Nil@1@@Z 10039d30     solid:C-api.obj
 0002:00013d54       __catchsym$??$_Insert_hint@AAU?$pair@QAXVResponse@@@std@@PAU?$_Tree_node@U?$pair@QAXVResponse@@@std@@PAX@2@@?$_Tree@V?$_Tmap_traits@PAXVResponse@@U?$less@PAX@std@@V?$allocator@U?$pair@QAXVResponse@@@std@@@3@$0A@@std@@@std@@IAE?AV?$_Tree_iterator@V?$_Tree_val@U?$_Tree_simple_types@U?$pair@QAXVResponse@@@std@@@std@@@std@@@1@V?$_Tree_const_iterator@V?$_Tree_val@U?$_Tree_simple_types@U?$pair@QAXVResponse@@@std@@@std@@@std@@@1@AAU?$pair@QAXVResponse@@@1@PAU?$_Tree_node@U?$pair@QAXVResponse@@@std@@PAX@1@@Z$2 10039d54     solid:C-api.obj
 0002:00013d64       __unwindtable$??$_Insert_hint@AAU?$pair@QAXVResponse@@@std@@PAU?$_Tree_node@U?$pair@QAXVResponse@@@std@@PAX@2@@?$_Tree@V?$_Tmap_traits@PAXVResponse@@U?$less@PAX@std@@V?$allocator@U?$pair@QAXVResponse@@@std@@@3@$0A@@std@@@std@@IAE?AV?$_Tree_iterator@V?$_Tree_val@U?$_Tree_simple_types@U?$pair@QAXVResponse@@@std@@@std@@@std@@@1@V?$_Tree_const_iterator@V?$_Tree_val@U?$_Tree_simple_types@U?$pair@QAXVResponse@@@std@@@std@@@std@@@1@AAU?$pair@QAXVResponse@@@1@PAU?$_Tree_node@U?$pair@QAXVResponse@@@std@@PAX@1@@Z 10039d64     solid:C-api.obj
 0002:00013d74       __tryblocktable$??$_Insert_hint@AAU?$pair@QAXVResponse@@@std@@PAU?$_Tree_node@U?$pair@QAXVResponse@@@std@@PAX@2@@?$_Tree@V?$_Tmap_traits@PAXVResponse@@U?$less@PAX@std@@V?$allocator@U?$pair@QAXVResponse@@@std@@@3@$0A@@std@@@std@@IAE?AV?$_Tree_iterator@V?$_Tree_val@U?$_Tree_simple_types@U?$pair@QAXVResponse@@@std@@@std@@@std@@@1@V?$_Tree_const_iterator@V?$_Tree_val@U?$_Tree_simple_types@U?$pair@QAXVResponse@@@std@@@std@@@std@@@1@AAU?$pair@QAXVResponse@@@1@PAU?$_Tree_node@U?$pair@QAXVResponse@@@std@@PAX@1@@Z 10039d74     solid:C-api.obj
 0002:00013d88       __ehfuncinfo$??$_Insert_hint@AAU?$pair@QAXVResponse@@@std@@PAU?$_Tree_node@U?$pair@QAXVResponse@@@std@@PAX@2@@?$_Tree@V?$_Tmap_traits@PAXVResponse@@U?$less@PAX@std@@V?$allocator@U?$pair@QAXVResponse@@@std@@@3@$0A@@std@@@std@@IAE?AV?$_Tree_iterator@V?$_Tree_val@U?$_Tree_simple_types@U?$pair@QAXVResponse@@@std@@@std@@@std@@@1@V?$_Tree_const_iterator@V?$_Tree_val@U?$_Tree_simple_types@U?$pair@QAXVResponse@@@std@@@std@@@std@@@1@AAU?$pair@QAXVResponse@@@1@PAU?$_Tree_node@U?$pair@QAXVResponse@@@std@@PAX@1@@Z 10039d88     solid:C-api.obj
 0002:00013dac       __catchsym$??$_Insert_hint@AAU?$pair@$$CBU?$pair@PAXPAX@std@@VResponse@@@std@@PAU?$_Tree_node@U?$pair@$$CBU?$pair@PAXPAX@std@@VResponse@@@std@@PAX@2@@?$_Tree@V?$_Tmap_traits@U?$pair@PAXPAX@std@@VResponse@@U?$less@U?$pair@PAXPAX@std@@@2@V?$allocator@U?$pair@$$CBU?$pair@PAXPAX@std@@VResponse@@@std@@@2@$0A@@std@@@std@@IAE?AV?$_Tree_iterator@V?$_Tree_val@U?$_Tree_simple_types@U?$pair@$$CBU?$pair@PAXPAX@std@@VResponse@@@std@@@std@@@std@@@1@V?$_Tree_const_iterator@V?$_Tree_val@U?$_Tree_simple_types@U?$pair@$$CBU?$pair@PAXPAX@std@@VResponse@@@std@@@std@@@std@@@1@AAU?$pair@$$CBU?$pair@PAXPAX@std@@VResponse@@@1@PAU?$_Tree_node@U?$pair@$$CBU?$pair@PAXPAX@std@@VResponse@@@std@@PAX@1@@Z$2 10039dac     solid:C-api.obj
 0002:00013dbc       __unwindtable$??$_Insert_hint@AAU?$pair@$$CBU?$pair@PAXPAX@std@@VResponse@@@std@@PAU?$_Tree_node@U?$pair@$$CBU?$pair@PAXPAX@std@@VResponse@@@std@@PAX@2@@?$_Tree@V?$_Tmap_traits@U?$pair@PAXPAX@std@@VResponse@@U?$less@U?$pair@PAXPAX@std@@@2@V?$allocator@U?$pair@$$CBU?$pair@PAXPAX@std@@VResponse@@@std@@@2@$0A@@std@@@std@@IAE?AV?$_Tree_iterator@V?$_Tree_val@U?$_Tree_simple_types@U?$pair@$$CBU?$pair@PAXPAX@std@@VResponse@@@std@@@std@@@std@@@1@V?$_Tree_const_iterator@V?$_Tree_val@U?$_Tree_simple_types@U?$pair@$$CBU?$pair@PAXPAX@std@@VResponse@@@std@@@std@@@std@@@1@AAU?$pair@$$CBU?$pair@PAXPAX@std@@VResponse@@@1@PAU?$_Tree_node@U?$pair@$$CBU?$pair@PAXPAX@std@@VResponse@@@std@@PAX@1@@Z 10039dbc     solid:C-api.obj
 0002:00013dcc       __tryblocktable$??$_Insert_hint@AAU?$pair@$$CBU?$pair@PAXPAX@std@@VResponse@@@std@@PAU?$_Tree_node@U?$pair@$$CBU?$pair@PAXPAX@std@@VResponse@@@std@@PAX@2@@?$_Tree@V?$_Tmap_traits@U?$pair@PAXPAX@std@@VResponse@@U?$less@U?$pair@PAXPAX@std@@@2@V?$allocator@U?$pair@$$CBU?$pair@PAXPAX@std@@VResponse@@@std@@@2@$0A@@std@@@std@@IAE?AV?$_Tree_iterator@V?$_Tree_val@U?$_Tree_simple_types@U?$pair@$$CBU?$pair@PAXPAX@std@@VResponse@@@std@@@std@@@std@@@1@V?$_Tree_const_iterator@V?$_Tree_val@U?$_Tree_simple_types@U?$pair@$$CBU?$pair@PAXPAX@std@@VResponse@@@std@@@std@@@std@@@1@AAU?$pair@$$CBU?$pair@PAXPAX@std@@VResponse@@@1@PAU?$_Tree_node@U?$pair@$$CBU?$pair@PAXPAX@std@@VResponse@@@std@@PAX@1@@Z 10039dcc     solid:C-api.obj
 0002:00013de0       __ehfuncinfo$??$_Insert_hint@AAU?$pair@$$CBU?$pair@PAXPAX@std@@VResponse@@@std@@PAU?$_Tree_node@U?$pair@$$CBU?$pair@PAXPAX@std@@VResponse@@@std@@PAX@2@@?$_Tree@V?$_Tmap_traits@U?$pair@PAXPAX@std@@VResponse@@U?$less@U?$pair@PAXPAX@std@@@2@V?$allocator@U?$pair@$$CBU?$pair@PAXPAX@std@@VResponse@@@std@@@2@$0A@@std@@@std@@IAE?AV?$_Tree_iterator@V?$_Tree_val@U?$_Tree_simple_types@U?$pair@$$CBU?$pair@PAXPAX@std@@VResponse@@@std@@@std@@@std@@@1@V?$_Tree_const_iterator@V?$_Tree_val@U?$_Tree_simple_types@U?$pair@$$CBU?$pair@PAXPAX@std@@VResponse@@@std@@@std@@@std@@@1@AAU?$pair@$$CBU?$pair@PAXPAX@std@@VResponse@@@1@PAU?$_Tree_node@U?$pair@$$CBU?$pair@PAXPAX@std@@VResponse@@@std@@PAX@1@@Z 10039de0     solid:C-api.obj
 0002:00013e04       __catchsym$??$_Insert_hint@AAU?$pair@QAXPAVObject@@@std@@PAU?$_Tree_node@U?$pair@QAXPAVObject@@@std@@PAX@2@@?$_Tree@V?$_Tmap_traits@PAXPAVObject@@U?$less@PAX@std@@V?$allocator@U?$pair@QAXPAVObject@@@std@@@3@$0A@@std@@@std@@IAE?AV?$_Tree_iterator@V?$_Tree_val@U?$_Tree_simple_types@U?$pair@QAXPAVObject@@@std@@@std@@@std@@@1@V?$_Tree_const_iterator@V?$_Tree_val@U?$_Tree_simple_types@U?$pair@QAXPAVObject@@@std@@@std@@@std@@@1@AAU?$pair@QAXPAVObject@@@1@PAU?$_Tree_node@U?$pair@QAXPAVObject@@@std@@PAX@1@@Z$2 10039e04     solid:C-api.obj
 0002:00013e14       __unwindtable$??$_Insert_hint@AAU?$pair@QAXPAVObject@@@std@@PAU?$_Tree_node@U?$pair@QAXPAVObject@@@std@@PAX@2@@?$_Tree@V?$_Tmap_traits@PAXPAVObject@@U?$less@PAX@std@@V?$allocator@U?$pair@QAXPAVObject@@@std@@@3@$0A@@std@@@std@@IAE?AV?$_Tree_iterator@V?$_Tree_val@U?$_Tree_simple_types@U?$pair@QAXPAVObject@@@std@@@std@@@std@@@1@V?$_Tree_const_iterator@V?$_Tree_val@U?$_Tree_simple_types@U?$pair@QAXPAVObject@@@std@@@std@@@std@@@1@AAU?$pair@QAXPAVObject@@@1@PAU?$_Tree_node@U?$pair@QAXPAVObject@@@std@@PAX@1@@Z 10039e14     solid:C-api.obj
 0002:00013e24       __tryblocktable$??$_Insert_hint@AAU?$pair@QAXPAVObject@@@std@@PAU?$_Tree_node@U?$pair@QAXPAVObject@@@std@@PAX@2@@?$_Tree@V?$_Tmap_traits@PAXPAVObject@@U?$less@PAX@std@@V?$allocator@U?$pair@QAXPAVObject@@@std@@@3@$0A@@std@@@std@@IAE?AV?$_Tree_iterator@V?$_Tree_val@U?$_Tree_simple_types@U?$pair@QAXPAVObject@@@std@@@std@@@std@@@1@V?$_Tree_const_iterator@V?$_Tree_val@U?$_Tree_simple_types@U?$pair@QAXPAVObject@@@std@@@std@@@std@@@1@AAU?$pair@QAXPAVObject@@@1@PAU?$_Tree_node@U?$pair@QAXPAVObject@@@std@@PAX@1@@Z 10039e24     solid:C-api.obj
 0002:00013e38       __ehfuncinfo$??$_Insert_hint@AAU?$pair@QAXPAVObject@@@std@@PAU?$_Tree_node@U?$pair@QAXPAVObject@@@std@@PAX@2@@?$_Tree@V?$_Tmap_traits@PAXPAVObject@@U?$less@PAX@std@@V?$allocator@U?$pair@QAXPAVObject@@@std@@@3@$0A@@std@@@std@@IAE?AV?$_Tree_iterator@V?$_Tree_val@U?$_Tree_simple_types@U?$pair@QAXPAVObject@@@std@@@std@@@std@@@1@V?$_Tree_const_iterator@V?$_Tree_val@U?$_Tree_simple_types@U?$pair@QAXPAVObject@@@std@@@std@@@std@@@1@AAU?$pair@QAXPAVObject@@@1@PAU?$_Tree_node@U?$pair@QAXPAVObject@@@std@@PAX@1@@Z 10039e38     solid:C-api.obj
 0002:00013e5c       __catchsym$??$_Insert_nohint@AAU?$pair@QAXVResponse@@@std@@PAU?$_Tree_node@U?$pair@QAXVResponse@@@std@@PAX@2@@?$_Tree@V?$_Tmap_traits@PAXVResponse@@U?$less@PAX@std@@V?$allocator@U?$pair@QAXVResponse@@@std@@@3@$0A@@std@@@std@@IAE?AU?$pair@V?$_Tree_iterator@V?$_Tree_val@U?$_Tree_simple_types@U?$pair@QAXVResponse@@@std@@@std@@@std@@@std@@_N@1@_NAAU?$pair@QAXVResponse@@@1@PAU?$_Tree_node@U?$pair@QAXVResponse@@@std@@PAX@1@@Z$2 10039e5c     solid:C-api.obj
 0002:00013e6c       __unwindtable$??$_Insert_nohint@AAU?$pair@QAXVResponse@@@std@@PAU?$_Tree_node@U?$pair@QAXVResponse@@@std@@PAX@2@@?$_Tree@V?$_Tmap_traits@PAXVResponse@@U?$less@PAX@std@@V?$allocator@U?$pair@QAXVResponse@@@std@@@3@$0A@@std@@@std@@IAE?AU?$pair@V?$_Tree_iterator@V?$_Tree_val@U?$_Tree_simple_types@U?$pair@QAXVResponse@@@std@@@std@@@std@@@std@@_N@1@_NAAU?$pair@QAXVResponse@@@1@PAU?$_Tree_node@U?$pair@QAXVResponse@@@std@@PAX@1@@Z 10039e6c     solid:C-api.obj
 0002:00013e7c       __tryblocktable$??$_Insert_nohint@AAU?$pair@QAXVResponse@@@std@@PAU?$_Tree_node@U?$pair@QAXVResponse@@@std@@PAX@2@@?$_Tree@V?$_Tmap_traits@PAXVResponse@@U?$less@PAX@std@@V?$allocator@U?$pair@QAXVResponse@@@std@@@3@$0A@@std@@@std@@IAE?AU?$pair@V?$_Tree_iterator@V?$_Tree_val@U?$_Tree_simple_types@U?$pair@QAXVResponse@@@std@@@std@@@std@@@std@@_N@1@_NAAU?$pair@QAXVResponse@@@1@PAU?$_Tree_node@U?$pair@QAXVResponse@@@std@@PAX@1@@Z 10039e7c     solid:C-api.obj
 0002:00013e90       __ehfuncinfo$??$_Insert_nohint@AAU?$pair@QAXVResponse@@@std@@PAU?$_Tree_node@U?$pair@QAXVResponse@@@std@@PAX@2@@?$_Tree@V?$_Tmap_traits@PAXVResponse@@U?$less@PAX@std@@V?$allocator@U?$pair@QAXVResponse@@@std@@@3@$0A@@std@@@std@@IAE?AU?$pair@V?$_Tree_iterator@V?$_Tree_val@U?$_Tree_simple_types@U?$pair@QAXVResponse@@@std@@@std@@@std@@@std@@_N@1@_NAAU?$pair@QAXVResponse@@@1@PAU?$_Tree_node@U?$pair@QAXVResponse@@@std@@PAX@1@@Z 10039e90     solid:C-api.obj
 0002:00013eb4       __catchsym$??$_Insert_nohint@AAU?$pair@$$CBU?$pair@PAXPAX@std@@VResponse@@@std@@PAU?$_Tree_node@U?$pair@$$CBU?$pair@PAXPAX@std@@VResponse@@@std@@PAX@2@@?$_Tree@V?$_Tmap_traits@U?$pair@PAXPAX@std@@VResponse@@U?$less@U?$pair@PAXPAX@std@@@2@V?$allocator@U?$pair@$$CBU?$pair@PAXPAX@std@@VResponse@@@std@@@2@$0A@@std@@@std@@IAE?AU?$pair@V?$_Tree_iterator@V?$_Tree_val@U?$_Tree_simple_types@U?$pair@$$CBU?$pair@PAXPAX@std@@VResponse@@@std@@@std@@@std@@@std@@_N@1@_NAAU?$pair@$$CBU?$pair@PAXPAX@std@@VResponse@@@1@PAU?$_Tree_node@U?$pair@$$CBU?$pair@PAXPAX@std@@VResponse@@@std@@PAX@1@@Z$2 10039eb4     solid:C-api.obj
 0002:00013ec4       __unwindtable$??$_Insert_nohint@AAU?$pair@$$CBU?$pair@PAXPAX@std@@VResponse@@@std@@PAU?$_Tree_node@U?$pair@$$CBU?$pair@PAXPAX@std@@VResponse@@@std@@PAX@2@@?$_Tree@V?$_Tmap_traits@U?$pair@PAXPAX@std@@VResponse@@U?$less@U?$pair@PAXPAX@std@@@2@V?$allocator@U?$pair@$$CBU?$pair@PAXPAX@std@@VResponse@@@std@@@2@$0A@@std@@@std@@IAE?AU?$pair@V?$_Tree_iterator@V?$_Tree_val@U?$_Tree_simple_types@U?$pair@$$CBU?$pair@PAXPAX@std@@VResponse@@@std@@@std@@@std@@@std@@_N@1@_NAAU?$pair@$$CBU?$pair@PAXPAX@std@@VResponse@@@1@PAU?$_Tree_node@U?$pair@$$CBU?$pair@PAXPAX@std@@VResponse@@@std@@PAX@1@@Z 10039ec4     solid:C-api.obj
 0002:00013ed4       __tryblocktable$??$_Insert_nohint@AAU?$pair@$$CBU?$pair@PAXPAX@std@@VResponse@@@std@@PAU?$_Tree_node@U?$pair@$$CBU?$pair@PAXPAX@std@@VResponse@@@std@@PAX@2@@?$_Tree@V?$_Tmap_traits@U?$pair@PAXPAX@std@@VResponse@@U?$less@U?$pair@PAXPAX@std@@@2@V?$allocator@U?$pair@$$CBU?$pair@PAXPAX@std@@VResponse@@@std@@@2@$0A@@std@@@std@@IAE?AU?$pair@V?$_Tree_iterator@V?$_Tree_val@U?$_Tree_simple_types@U?$pair@$$CBU?$pair@PAXPAX@std@@VResponse@@@std@@@std@@@std@@@std@@_N@1@_NAAU?$pair@$$CBU?$pair@PAXPAX@std@@VResponse@@@1@PAU?$_Tree_node@U?$pair@$$CBU?$pair@PAXPAX@std@@VResponse@@@std@@PAX@1@@Z 10039ed4     solid:C-api.obj
 0002:00013ee8       __ehfuncinfo$??$_Insert_nohint@AAU?$pair@$$CBU?$pair@PAXPAX@std@@VResponse@@@std@@PAU?$_Tree_node@U?$pair@$$CBU?$pair@PAXPAX@std@@VResponse@@@std@@PAX@2@@?$_Tree@V?$_Tmap_traits@U?$pair@PAXPAX@std@@VResponse@@U?$less@U?$pair@PAXPAX@std@@@2@V?$allocator@U?$pair@$$CBU?$pair@PAXPAX@std@@VResponse@@@std@@@2@$0A@@std@@@std@@IAE?AU?$pair@V?$_Tree_iterator@V?$_Tree_val@U?$_Tree_simple_types@U?$pair@$$CBU?$pair@PAXPAX@std@@VResponse@@@std@@@std@@@std@@@std@@_N@1@_NAAU?$pair@$$CBU?$pair@PAXPAX@std@@VResponse@@@1@PAU?$_Tree_node@U?$pair@$$CBU?$pair@PAXPAX@std@@VResponse@@@std@@PAX@1@@Z 10039ee8     solid:C-api.obj
 0002:00013f0c       __catchsym$??$_Insert_nohint@AAU?$pair@QAXPAVObject@@@std@@PAU?$_Tree_node@U?$pair@QAXPAVObject@@@std@@PAX@2@@?$_Tree@V?$_Tmap_traits@PAXPAVObject@@U?$less@PAX@std@@V?$allocator@U?$pair@QAXPAVObject@@@std@@@3@$0A@@std@@@std@@IAE?AU?$pair@V?$_Tree_iterator@V?$_Tree_val@U?$_Tree_simple_types@U?$pair@QAXPAVObject@@@std@@@std@@@std@@@std@@_N@1@_NAAU?$pair@QAXPAVObject@@@1@PAU?$_Tree_node@U?$pair@QAXPAVObject@@@std@@PAX@1@@Z$2 10039f0c     solid:C-api.obj
 0002:00013f1c       __unwindtable$??$_Insert_nohint@AAU?$pair@QAXPAVObject@@@std@@PAU?$_Tree_node@U?$pair@QAXPAVObject@@@std@@PAX@2@@?$_Tree@V?$_Tmap_traits@PAXPAVObject@@U?$less@PAX@std@@V?$allocator@U?$pair@QAXPAVObject@@@std@@@3@$0A@@std@@@std@@IAE?AU?$pair@V?$_Tree_iterator@V?$_Tree_val@U?$_Tree_simple_types@U?$pair@QAXPAVObject@@@std@@@std@@@std@@@std@@_N@1@_NAAU?$pair@QAXPAVObject@@@1@PAU?$_Tree_node@U?$pair@QAXPAVObject@@@std@@PAX@1@@Z 10039f1c     solid:C-api.obj
 0002:00013f2c       __tryblocktable$??$_Insert_nohint@AAU?$pair@QAXPAVObject@@@std@@PAU?$_Tree_node@U?$pair@QAXPAVObject@@@std@@PAX@2@@?$_Tree@V?$_Tmap_traits@PAXPAVObject@@U?$less@PAX@std@@V?$allocator@U?$pair@QAXPAVObject@@@std@@@3@$0A@@std@@@std@@IAE?AU?$pair@V?$_Tree_iterator@V?$_Tree_val@U?$_Tree_simple_types@U?$pair@QAXPAVObject@@@std@@@std@@@std@@@std@@_N@1@_NAAU?$pair@QAXPAVObject@@@1@PAU?$_Tree_node@U?$pair@QAXPAVObject@@@std@@PAX@1@@Z 10039f2c     solid:C-api.obj
 0002:00013f40       __ehfuncinfo$??$_Insert_nohint@AAU?$pair@QAXPAVObject@@@std@@PAU?$_Tree_node@U?$pair@QAXPAVObject@@@std@@PAX@2@@?$_Tree@V?$_Tmap_traits@PAXPAVObject@@U?$less@PAX@std@@V?$allocator@U?$pair@QAXPAVObject@@@std@@@3@$0A@@std@@@std@@IAE?AU?$pair@V?$_Tree_iterator@V?$_Tree_val@U?$_Tree_simple_types@U?$pair@QAXPAVObject@@@std@@@std@@@std@@@std@@_N@1@_NAAU?$pair@QAXPAVObject@@@1@PAU?$_Tree_node@U?$pair@QAXPAVObject@@@std@@PAX@1@@Z 10039f40     solid:C-api.obj
 0002:00013f64       __unwindtable$??1Complex@@UAE@XZ 10039f64     solid:Complex.obj
 0002:00013f6c       __unwindtable$?finish@Complex@@QAEXHPAPBVPolytope@@@Z 10039f6c     solid:Complex.obj
 0002:00013f7c       __ehfuncinfo$?finish@Complex@@QAEXHPAPBVPolytope@@@Z 10039f7c     solid:Complex.obj
 0002:00013fa0       __ehfuncinfo$??1Complex@@UAE@XZ 10039fa0     solid:Complex.obj
 0002:00013fc4       __unwindtable$?common_point@@YA_NABVObject@@0AAVVector@@AAVPoint@@2@Z 10039fc4     solid:Object.obj
 0002:00013fcc       __unwindtable$?intersect@@YA_NABVObject@@0AAVVector@@@Z 10039fcc     solid:Object.obj
 0002:00013fd4       __ehfuncinfo$?common_point@@YA_NABVObject@@0AAVVector@@AAVPoint@@2@Z 10039fd4     solid:Object.obj
 0002:00013ff8       __ehfuncinfo$?intersect@@YA_NABVObject@@0AAVVector@@@Z 10039ff8     solid:Object.obj
 0002:0001401c       __ehfuncinfo$??0Object@@QAE@PAXPBVShape@@@Z 1003a01c     solid:Object.obj
 0002:00014040       __unwindtable$??0Object@@QAE@PAXPBVShape@@@Z 1003a040     solid:Object.obj
 0002:00014080       __unwindtable$??0Polyhedron@@QAE@ABVVertexBase@@HQBI@Z 1003a080     solid:Polyhedron.obj
 0002:00014088       __ehfuncinfo$??0Polyhedron@@QAE@ABVVertexBase@@HQBI@Z 1003a088     solid:Polyhedron.obj
 0002:000140ac       __unwindtable$??0BBoxInternal@@QAE@HPAVBBoxLeaf@@@Z 1003a0ac     solid:BBoxTree.obj
 0002:000140bc       __ehfuncinfo$??0BBoxInternal@@QAE@HPAVBBoxLeaf@@@Z 1003a0bc     solid:BBoxTree.obj
 0002:000141c8       __sehtable$_printf         1003a1c8     LIBCMT:printf.obj
 0002:000141e8       __sehtable$__CRT_INIT@12   1003a1e8     LIBCMT:dllcrt0.obj
 0002:00014208       __sehtable$___DllMainCRTStartup 1003a208     LIBCMT:dllcrt0.obj
 0002:00014228       __sehtable$??_M@YGXPAXIHP6EX0@Z@Z 1003a228     LIBCMT:ehvecdtr.obj
 0002:00014248       __sehtable$?__ArrayUnwind@@YGXPAXIHP6EX0@Z@Z 1003a248     LIBCMT:ehvecdtr.obj
 0002:00014268       __sehtable$__onexit        1003a268     LIBCMT:onexit.obj
 0002:00014288       __sehtable$??_L@YGXPAXIHP6EX0@Z1@Z 1003a288     LIBCMT:ehvecctr.obj
 0002:000142a8       __sehtable$_doexit         1003a2a8     LIBCMT:crt0dat.obj
 0002:000142c8       __sehtable$__freefls@4     1003a2c8     LIBCMT:tidtable.obj
 0002:000142f0       __sehtable$__initptd       1003a2f0     LIBCMT:tidtable.obj
 0002:00014318       __sehtable$___set_fpsr_sse2 1003a318     LIBCMT:fpctrl.obj
 0002:00014338       __sehtable$__ioinit        1003a338     LIBCMT:ioinit.obj
 0002:00014358       __sehtable$?terminate@@YAXXZ 1003a358     LIBCMT:hooks.obj
 0002:00014378       __sehtable$?_inconsistency@@YAXXZ 1003a378     LIBCMT:hooks.obj
 0002:00014398       __sehtable$___FrameUnwindToState 1003a398     LIBCMT:frame.obj
 0002:000143c0       __sehtable$?CallCatchBlock@@YAPAXPAUEHExceptionRecord@@PAUEHRegistrationNode@@PAU_CONTEXT@@PBU_s_FuncInfo@@PAXHK@Z 1003a3c0     LIBCMT:frame.obj
 0002:000143e8       __sehtable$___BuildCatchObject 1003a3e8     LIBCMT:frame.obj
 0002:00014408       __sehtable$___DestructExceptionObject 1003a408     LIBCMT:frame.obj
 0002:00014424       __catchsym$?CallUnexpected@@YAXPBU_s_ESTypeList@@@Z$2 1003a424     LIBCMT:frame.obj
 0002:00014434       __unwindtable$?CallUnexpected@@YAXPBU_s_ESTypeList@@@Z 1003a434     LIBCMT:frame.obj
 0002:00014444       __tryblocktable$?CallUnexpected@@YAXPBU_s_ESTypeList@@@Z 1003a444     LIBCMT:frame.obj
 0002:00014458       __ehfuncinfo$?CallUnexpected@@YAXPBU_s_ESTypeList@@@Z 1003a458     LIBCMT:frame.obj
 0002:00014480       __sehtable$___BuildCatchObjectHelper 1003a480     LIBCMT:frame.obj
 0002:000144d8       __sehtable$?_Type_info_dtor@type_info@@CAXPAV1@@Z 1003a4d8     LIBCMT:typname.obj
 0002:000144f8       __sehtable$__mtinitlocknum 1003a4f8     LIBCMT:mlock.obj
 0002:00014518       __sehtable$__IsNonwritableInCurrentImage 1003a518     LIBCMT:pesect.obj
 0002:00014538       __sehtable$_raise          1003a538     LIBCMT:winsig.obj
 0002:00014558       __sehtable$___updatetmbcinfo 1003a558     LIBCMT:mbctype.obj
 0002:00014578       __sehtable$__setmbcp       1003a578     LIBCMT:mbctype.obj
 0002:00014598       __sehtable$__fcloseall     1003a598     LIBCMT:closeall.obj
 0002:000145b8       __sehtable$_flsall         1003a5b8     LIBCMT:fflush.obj
 0002:000145e0       __sehtable$___updatetlocinfo 1003a5e0     LIBCMT:localref.obj
 0002:00014600       __sehtable$__write         1003a600     LIBCMT:write.obj
 0002:00014620       __sehtable$__lseeki64      1003a620     LIBCMT:lseeki64.obj
 0002:00014640       __sehtable$_fclose         1003a640     LIBCMT:fclose.obj
 0002:00014660       __sehtable$__commit        1003a660     LIBCMT:commit.obj
 0002:00014680       __sehtable$__locterm       1003a680     LIBCMT:wsetloca.obj
 0002:000146a0       __sehtable$___lock_fhandle 1003a6a0     LIBCMT:osfinfo.obj
 0002:000146c0       __sehtable$__close         1003a6c0     LIBCMT:close.obj
 0002:000146e0       .edata                     1003a6e0     simuv2.exp
 0002:00014708       rgpv                       1003a708     simuv2.exp
 0002:0001470c       rgszName                   1003a70c     simuv2.exp
 0002:00014710       rgwOrd                     1003a710     simuv2.exp
 0002:00014712       szName                     1003a712     simuv2.exp
 0002:0001471d       $N00001                    1003a71d     simuv2.exp
 0002:0001491c       .idata$6                   1003a91c     tgf:tgf.dll
 0002:00014990       .idata$6                   1003a990     robottools:robottools.dll
 0002:00014e06       .idata$6                   1003ae06     kernel32:KERNEL32.dll
 0003:00000000       _WingSect                  1003b000     aero.obj
 0003:00000008       _AxleSect                  1003b008     axle.obj
 0003:00000038       ?VELSCALE@?BA@??SimCarCollideXYScene@@YAXPAUtCar@@@Z@4MA 1003b038     collide.obj
 0003:0000003c       ?VELMAX@?BA@??SimCarCollideXYScene@@YAXPAUtCar@@@Z@4MA 1003b03c     collide.obj
 0003:00000040       ?VELMAX@?CJ@??SimCarCollideResponse@@YAXPAX00PBUDtCollData@@@Z@4MA 1003b040     collide.obj
 0003:00000044       ?VELMAX@?BK@??SimCarWallCollideResponse@@YAXPAX00PBUDtCollData@@@Z@4MA 1003b044     collide.obj
 0003:00000048       ?weps@?9??buildWalls@@YAXPAUtrackSeg@@H@Z@4MA 1003b048     collide.obj
 0003:0000004c       ?PULL_Z_OFFSET@?1??RemoveCar@@YAXPAUtCar@@PAUSituation@@@Z@4MA 1003b04c     simu.obj
 0003:00000050       ?PULL_SPD@?1??RemoveCar@@YAXPAUtCar@@PAUSituation@@@Z@4MA 1003b050     simu.obj
 0003:00000054       _gearname                  1003b054     transmission.obj
 0003:0000007c       _WheelSect                 1003b07c     wheel.obj
 0003:0000008c       _SuspSect                  1003b08c     wheel.obj
 0003:0000009c       _BrkSect                   1003b09c     wheel.obj
 0003:00000104       __ulSeverityText           1003b104     ul_vs2008_32:ulError.obj
 0003:00000120       _NAME_                     1003b120     LIBCMT:sqrt.obj
 0003:00000130       _NAME_                     1003b130     LIBCMT:asin.obj
 0003:00000140       _NAME_                     1003b140     LIBCMT:acos.obj
 0003:00000150       _NAME_                     1003b150     LIBCMT:sin.obj
 0003:00000160       _NAME_                     1003b160     LIBCMT:cos.obj
 0003:00000170       _NAME_                     1003b170     LIBCMT:tan.obj
 0003:00000430       _errtable                  1003b430     LIBCMT:dosmap.obj
 0003:00000598       _ErrnoNoMem                1003b598     LIBCMT:dosmap.obj
 0003:0000059c       _DoserrorNoMem             1003b59c     LIBCMT:dosmap.obj
 0003:000005d8       ?_names@?1??_get_fname@@9@9 1003b5d8     LIBCMT:fpexcept.obj
 0003:000006c0       _over                      1003b6c0     LIBCMT:fpctrl.obj
 0003:000006cc       _under                     1003b6cc     LIBCMT:fpctrl.obj
 0003:000006d8       ?__DAZ_ENABLED@?1??__set_fpsr_sse2@@9@9 1003b6d8     LIBCMT:fpctrl.obj
 0003:000006e0       _NAME_                     1003b6e0     LIBCMT:atan.obj
 0003:000006f0       LOG_name                   1003b6f0     LIBCMT:log.obj
 0003:00000738       ?isPackaged@?1??__crtIsPackagedApp@@9@9 1003b738     LIBCMT:winapisupp.obj
 0003:00000740       __locktable                1003b740     LIBCMT:mlock.obj
 0003:00000c88       ___rgctypeflag             1003bc88     LIBCMT:mbctype.obj
 0003:00000c90       ___rgcode_page_info        1003bc90     LIBCMT:mbctype.obj
 0003:0000102c       __ctype_loc_style          1003c02c     LIBCMT:wsetloca.obj
 0003:00001030       _DoubleFormat              1003c030     LIBCMT:intrncvt.obj
 0003:00001048       _FloatFormat               1003c048     LIBCMT:intrncvt.obj
 0003:000015c0       _fixedobjects              1003c5c0     collide.obj
 0003:00001750       _fixedid                   1003c750     collide.obj
 0003:00001764       _SimNbCars                 1003c764     simu.obj
 0003:000018f4       __Tuple_alloc              1003c8f4     solid:C-api.obj
 0003:000018f5       _ignore                    1003c8f5     solid:C-api.obj
 0003:000018f6       _allocator_arg             1003c8f6     solid:C-api.obj
 0003:000018f7       _piecewise_construct       1003c8f7     solid:C-api.obj
 0003:00001954       __Nil_obj                  1003c954     solid:C-api.obj
 0003:00001958       ?p1@?1??object_test@@YA_NAAVEncounter@@@Z@4VPoint@@A 1003c958     solid:C-api.obj
 0003:00001970       ?$S1@?1??object_test@@YA_NAAVEncounter@@@Z@4IA 1003c970     solid:C-api.obj
 0003:00001978       ?p2@?1??object_test@@YA_NAAVEncounter@@@Z@4VPoint@@A 1003c978     solid:C-api.obj
 0003:00001998       _allocator_arg             1003c998     solid:Transform.obj
 0003:00001999       _piecewise_construct       1003c999     solid:Transform.obj
 0003:000019a0       _q                         1003c9a0     solid:Convex.obj
 0003:00001a00       _allocator_arg             1003ca00     solid:Convex.obj
 0003:00001a01       _piecewise_construct       1003ca01     solid:Convex.obj
 0003:00001a08       _p                         1003ca08     solid:Convex.obj
 0003:00001a68       _y                         1003ca68     solid:Convex.obj
 0003:00001ac8       _bits                      1003cac8     solid:Convex.obj
 0003:00001acc       _last                      1003cacc     solid:Convex.obj
 0003:00001ad0       _last_bit                  1003cad0     solid:Convex.obj
 0003:00001ad4       _all_bits                  1003cad4     solid:Convex.obj
 0003:00001ad8       _det                       1003cad8     solid:Convex.obj
 0003:00001cd8       ?dp@?1??compute_det@@YAXXZ@4PAY03NA 1003ccd8     solid:Convex.obj
 0003:00001d58       ?zero@?1??closest_points@@YAXABVConvex@@0ABVTransform@@1AAVPoint@@2@Z@4VVector@@A 1003cd58     solid:Convex.obj
 0003:00001d70       ?$S1@?1??closest_points@@YAXABVConvex@@0ABVTransform@@1AAVPoint@@2@Z@4IA 1003cd70     solid:Convex.obj
 0003:00001d74       _allocator_arg             1003cd74     solid:Box.obj
 0003:00001d75       _piecewise_construct       1003cd75     solid:Box.obj
 0003:00001d76       _allocator_arg             1003cd76     solid:Cone.obj
 0003:00001d77       _piecewise_construct       1003cd77     solid:Cone.obj
 0003:00001d78       _allocator_arg             1003cd78     solid:Cylinder.obj
 0003:00001d79       _piecewise_construct       1003cd79     solid:Cylinder.obj
 0003:00001d7a       _allocator_arg             1003cd7a     solid:Sphere.obj
 0003:00001d7b       _piecewise_construct       1003cd7b     solid:Sphere.obj
 0003:00001d80       _allocator_arg             1003cd80     solid:Complex.obj
 0003:00001d81       _piecewise_construct       1003cd81     solid:Complex.obj
 0003:00001d82       _allocator_arg             1003cd82     solid:Object.obj
 0003:00001d83       _piecewise_construct       1003cd83     solid:Object.obj
 0003:00001d84       ?intersectTable@?1??intersect@@YA_NABVObject@@0AAVVector@@@Z@4PAV?$AlgoTable@P6A_NABVShape@@0ABVTransform@@1AAVVector@@@Z@@A 1003cd84     solid:Object.obj
 0003:00001d88       ?$S1@?1??intersect@@YA_NABVObject@@0AAVVector@@@Z@4IA 1003cd88     solid:Object.obj
 0003:00001d8c       ?common_pointTable@?1??common_point@@YA_NABVObject@@0AAVVector@@AAVPoint@@2@Z@4PAV?$AlgoTable@P6A_NABVShape@@0ABVTransform@@1AAVVector@@AAVPoint@@3@Z@@A 1003cd8c     solid:Object.obj
 0003:00001d90       ?$S2@?1??common_point@@YA_NABVObject@@0AAVVector@@AAVPoint@@2@Z@4IA 1003cd90     solid:Object.obj
 0003:00001d94       _allocator_arg             1003cd94     solid:Simplex.obj
 0003:00001d95       _piecewise_construct       1003cd95     solid:Simplex.obj
 0003:00001d96       _allocator_arg             1003cd96     solid:Polygon.obj
 0003:00001d97       _piecewise_construct       1003cd97     solid:Polygon.obj
 0003:00001d98       _allocator_arg             1003cd98     solid:Polyhedron.obj
 0003:00001d99       _piecewise_construct       1003cd99     solid:Polyhedron.obj
 0003:00001de8       _allocator_arg             1003cde8     solid:Response.obj
 0003:00001de9       _piecewise_construct       1003cde9     solid:Response.obj
 0003:00001dec       __Tuple_alloc              1003cdec     solid:RespTable.obj
 0003:00001ded       _ignore                    1003cded     solid:RespTable.obj
 0003:00001dee       _allocator_arg             1003cdee     solid:RespTable.obj
 0003:00001def       _piecewise_construct       1003cdef     solid:RespTable.obj
 0003:00001dfc       _allocator_arg             1003cdfc     solid:BBoxTree.obj
 0003:00001dfd       _piecewise_construct       1003cdfd     solid:BBoxTree.obj
 0003:00001e00       _allocator_arg             1003ce00     solid:Endpoint.obj
 0003:00001e01       _piecewise_construct       1003ce01     solid:Endpoint.obj
 0003:00001e08       _endpointList              1003ce08     solid:Endpoint.obj
 0003:00001e98       __ulErrorBuffer            1003ce98     ul_vs2008_32:ulError.obj
 0003:00002298       __ulErrorCB                1003d298     ul_vs2008_32:ulError.obj
 0003:0000229c       __Tuple_alloc              1003d29c     libcpmt:xthrow.obj
 0003:0000229d       _ignore                    1003d29d     libcpmt:xthrow.obj
 0003:0000229e       _allocator_arg             1003d29e     libcpmt:xthrow.obj
 0003:0000229f       _piecewise_construct       1003d29f     libcpmt:xthrow.obj
 0003:000022ac       _allocator_arg             1003d2ac     libcpmt:syserror.obj
 0003:000022ad       _piecewise_construct       1003d2ad     libcpmt:syserror.obj
 0003:000022b4       ___enable_percent_n        1003d2b4     LIBCMT:printf.obj
 0003:000022b8       ___proc_attached           1003d2b8     LIBCMT:dllcrt0.obj
 0003:000022fc       __pmatherr_set             1003d2fc     LIBCMT:libm_error.obj
 0003:00002418       ?_pgmname@?1??_setargv@@9@9 1003d418     LIBCMT:stdargv.obj
 0003:00002534       ___type_info_root_node     1003d534     LIBCMT:typname.obj
 0003:00002540       _lclcritsects              1003d540     LIBCMT:mlock.obj
 0003:00002698       ?outmsg@?9??_NMSG_WRITE@@9@9 1003d698     LIBCMT:crt0msg.obj
 0003:00002cc0       _ctrlc_action              1003dcc0     LIBCMT:winsig.obj
 0003:00002cc4       _ctrlbreak_action          1003dcc4     LIBCMT:winsig.obj
 0003:00002cc8       _abort_action              1003dcc8     LIBCMT:winsig.obj
 0003:00002ccc       _term_action               1003dccc     LIBCMT:winsig.obj
 0003:00002cd0       _ConsoleCtrlHandler_Installed 1003dcd0     LIBCMT:winsig.obj
 0003:00002cd4       _g_pfnRtlGenRandom         1003dcd4     LIBCMT:rand_s.obj
 0003:00002cf0       _fSystemSet                1003dcf0     LIBCMT:mbctype.obj
 0003:00002cf8       _GS_ExceptionRecord        1003dcf8     LIBCMT:gs_report.obj
 0003:00002d48       _GS_ContextRecord          1003dd48     LIBCMT:gs_report.obj
 0003:00003014       _DebuggerWasPresent        1003e014     LIBCMT:gs_report.obj
 0003:0000301c       ___crtCallProc             1003e01c     LIBCMT:winapinls.obj
 0003:0000304c       _heap                      1003e04c     LIBCMT:undname.obj
 0003:00003064       ?pfnMessageBox@?1??__crtMessageBoxW@@9@9 1003e064     LIBCMT:crtmboxw.obj
 0003:00003068       ?pfnGetActiveWindow@?1??__crtMessageBoxW@@9@9 1003e068     LIBCMT:crtmboxw.obj
 0003:0000306c       ?pfnGetLastActivePopup@?1??__crtMessageBoxW@@9@9 1003e06c     LIBCMT:crtmboxw.obj
 0003:00003070       ?pfnGetProcessWindowStation@?1??__crtMessageBoxW@@9@9 1003e070     LIBCMT:crtmboxw.obj
 0003:00003074       ?pfnGetUserObjectInformation@?1??__crtMessageBoxW@@9@9 1003e074     LIBCMT:crtmboxw.obj
