 damned

 Timestamp is 588115fa (Thu Jan 19 19:39:38 2017)

 Preferred load address is 10000000

 Start         Length     Name                   Class
 0001:00000000 000042daH .text                   CODE
 0001:000042e0 00000021H .text$di                CODE
 0001:00004310 0005ec4cH .text$mn                CODE
 0001:00062f60 00000243H .text$x                 CODE
 0002:00000000 0000018cH .idata$5                DATA
 0002:0000018c 00000004H .CRT$XCA                DATA
 0002:00000190 00000004H .CRT$XCU                DATA
 0002:00000194 00000004H .CRT$XCZ                DATA
 0002:00000198 00000004H .CRT$XIA                DATA
 0002:0000019c 00000014H .CRT$XIC                DATA
 0002:000001b0 00000004H .CRT$XIZ                DATA
 0002:000001b4 00000004H .CRT$XPA                DATA
 0002:000001b8 00000008H .CRT$XPX                DATA
 0002:000001c0 00000004H .CRT$XPXA               DATA
 0002:000001c4 00000004H .CRT$XPZ                DATA
 0002:000001c8 00000004H .CRT$XTA                DATA
 0002:000001cc 00000004H .CRT$XTZ                DATA
 0002:000001d0 00016668H .rdata                  DATA
 0002:00016838 000000c4H .rdata$debug            DATA
 0002:000168fc 000004b8H .rdata$r                DATA
 0002:00016db4 00000004H .rtc$IAA                DATA
 0002:00016db8 00000020H .rtc$IMZ                DATA
 0002:00016dd8 00000004H .rtc$IZZ                DATA
 0002:00016ddc 00000004H .rtc$TAA                DATA
 0002:00016de0 00000020H .rtc$TMZ                DATA
 0002:00016e00 00000004H .rtc$TZZ                DATA
 0002:00016e08 00000d78H .xdata$x                DATA
 0002:00017b80 00000044H .edata                  DATA
 0002:00017bc4 0000003cH .idata$2                DATA
 0002:00017c00 00000014H .idata$3                DATA
 0002:00017c14 0000018cH .idata$4                DATA
 0002:00017da0 000006f4H .idata$6                DATA
 0003:00000000 00001418H .data                   DATA
 0003:00001418 000001cbH .data$r                 DATA
 0003:00001600 000023e0H .bss                    DATA

  Address         Publics by Value              Rva+Base       Lib:Object

 0000:00000000       ___guard_flags             00000000     <absolute>
 0000:00000000       ___safe_se_handler_table   00000000     <absolute>
 0000:00000000       ___guard_fids_table        00000000     <absolute>
 0000:00000000       ___safe_se_handler_count   00000000     <absolute>
 0000:00000000       ___guard_fids_count        00000000     <absolute>
 0000:00000000       __except_list              00000000     <absolute>
 0000:00000000       ___ImageBase               10000000     <linker-defined>
 0001:00000000       ?sgdSqrt@@YANN@Z           10001000 f i sg_vs2008_32:sgd.obj
 0001:00000010       ?sgdSquare@@YANN@Z         10001010 f i sg_vs2008_32:sgd.obj
 0001:00000020       ?sgdAbs@@YANN@Z            10001020 f i sg_vs2008_32:sgd.obj
 0001:00000040       ?sgdASin@@YANN@Z           10001040 f i sg_vs2008_32:sgd.obj
 0001:00000050       ?sgdACos@@YANN@Z           10001050 f i sg_vs2008_32:sgd.obj
 0001:00000060       ?sgdATan2@@YANNN@Z         10001060 f i sg_vs2008_32:sgd.obj
 0001:00000080       ?sgdSin@@YANN@Z            10001080 f i sg_vs2008_32:sgd.obj
 0001:00000090       ?sgdCos@@YANN@Z            10001090 f i sg_vs2008_32:sgd.obj
 0001:000000a0       ?sgdZeroVec3@@YAXQAN@Z     100010a0 f i sg_vs2008_32:sgd.obj
 0001:000000b0       ?sgdSetVec3@@YAXQANNNN@Z   100010b0 f i sg_vs2008_32:sgd.obj
 0001:000000d0       ?sgdSetVec4@@YAXQANNNNN@Z  100010d0 f i sg_vs2008_32:sgd.obj
 0001:000000f0       ?sgdCopyVec3@@YAXQANQBN@Z  100010f0 f i sg_vs2008_32:sgd.obj
 0001:00000110       ?sgdCopyVec4@@YAXQANQBN@Z  10001110 f i sg_vs2008_32:sgd.obj
 0001:00000130       ?sgdAddVec3@@YAXQANQBN1@Z  10001130 f i sg_vs2008_32:sgd.obj
 0001:00000160       ?sgdSubVec2@@YAXQANQBN1@Z  10001160 f i sg_vs2008_32:sgd.obj
 0001:00000180       ?sgdSubVec3@@YAXQANQBN1@Z  10001180 f i sg_vs2008_32:sgd.obj
 0001:000001b0       ?sgdNegateVec3@@YAXQAN@Z   100011b0 f i sg_vs2008_32:sgd.obj
 0001:000001d0       ?sgdScaleVec2@@YAXQANN@Z   100011d0 f i sg_vs2008_32:sgd.obj
 0001:000001f0       ?sgdScaleVec3@@YAXQANN@Z   100011f0 f i sg_vs2008_32:sgd.obj
 0001:00000210       ?sgdScaleVec3@@YAXQANQBNN@Z 10001210 f i sg_vs2008_32:sgd.obj
 0001:00000240       ?sgdScaleVec4@@YAXQANQBNN@Z 10001240 f i sg_vs2008_32:sgd.obj
 0001:00000270       ?sgdAddScaledVec3@@YAXQANQBN1N@Z 10001270 f i sg_vs2008_32:sgd.obj
 0001:000002a0       ?sgdScalarProductVec2@@YANQBN0@Z 100012a0 f i sg_vs2008_32:sgd.obj
 0001:000002c0       ?sgdScalarProductVec3@@YANQBN0@Z 100012c0 f i sg_vs2008_32:sgd.obj
 0001:000002e0       ?sgdScalarProductVec4@@YANQBN0@Z 100012e0 f i sg_vs2008_32:sgd.obj
 0001:00000310       ?sgdDistanceSquaredVec3@@YANQBN0@Z 10001310 f i sg_vs2008_32:sgd.obj
 0001:00000340       ?sgdDistanceVec3@@YANQBN0@Z 10001340 f i sg_vs2008_32:sgd.obj
 0001:00000370       ?sgdLengthVec2@@YANQBN@Z   10001370 f i sg_vs2008_32:sgd.obj
 0001:00000390       ?sgdLengthVec3@@YANQBN@Z   10001390 f i sg_vs2008_32:sgd.obj
 0001:000003c0       ?sgdNormaliseVec2@@YAXQAN@Z 100013c0 f i sg_vs2008_32:sgd.obj
 0001:000003f0       ?sgdNormaliseVec3@@YAXQAN@Z 100013f0 f i sg_vs2008_32:sgd.obj
 0001:00000430       ?sgdNormaliseVec3@@YAXQANQBN@Z 10001430 f i sg_vs2008_32:sgd.obj
 0001:00000470       ?sgdCopyMat4@@YAXQAY03NQAY03$$CBN@Z 10001470 f i sg_vs2008_32:sgd.obj
 0001:000004e0       ?sgdScaleMat4@@YAXQAY03NQAY03$$CBNN@Z 100014e0 f i sg_vs2008_32:sgd.obj
 0001:00000570       ?sgdMakeIdentMat4@@YAXQAY03N@Z 10001570 f i sg_vs2008_32:sgd.obj
 0001:000005b0       ?sgdLineSegment3ToLine3@@YAXPAUsgdLine3@@UsgdLineSegment3@@@Z 100015b0 f i sg_vs2008_32:sgd.obj
 0001:00000620       ?sgdAngleBetweenNormalizedVec3@@YANQAN0@Z 10001620 f i sg_vs2008_32:sgd.obj
 0001:00000690       ?getCenter@sgdSphere@@QBEPBNXZ 10001690 f i sg_vs2008_32:sgd.obj
 0001:000006a0       ?getRadius@sgdSphere@@QBENXZ 100016a0 f i sg_vs2008_32:sgd.obj
 0001:000006b0       ?isEmpty@sgdSphere@@QBEHXZ 100016b0 f i sg_vs2008_32:sgd.obj
 0001:000006d0       ?getMin@sgdBox@@QBEPBNXZ   100016d0 f i sg_vs2008_32:sgd.obj
 0001:000006e0       ?getMax@sgdBox@@QBEPBNXZ   100016e0 f i sg_vs2008_32:sgd.obj
 0001:000006f0       ?isEmpty@sgdBox@@QBEHXZ    100016f0 f i sg_vs2008_32:sgd.obj
 0001:00000720       ?sgdVectorProductVec3@@YAXQANQBN1@Z 10001720 f   sg_vs2008_32:sgd.obj
 0001:00000760       ?_sgdClampToUnity@@YANN@Z  10001760 f i sg_vs2008_32:sgd.obj
 0001:00000790       ?sgdCompare3DSqdDist@@YAHQBN0N@Z 10001790 f   sg_vs2008_32:sgd.obj
 0001:000007f0       ?sgdMakeRotMat4@@YAXQAY03NNQBN@Z 100017f0 f   sg_vs2008_32:sgd.obj
 0001:00000920       ?sgdMakePickMatrix@@YAXQAY03NNNNNQAN@Z 10001920 f   sg_vs2008_32:sgd.obj
 0001:000009a0       ?sgdMakeLookAtMat4@@YAXQAY03NQBN11@Z 100019a0 f   sg_vs2008_32:sgd.obj
 0001:00000b20       ?sgdAngleBetweenVec3@@YANQAN0@Z 10001b20 f   sg_vs2008_32:sgd.obj
 0001:00000bc0       ?sgdAngleBetweenNormalizedVec3@@YANQAN00@Z 10001bc0 f   sg_vs2008_32:sgd.obj
 0001:00000d50       ?sgdAngleBetweenVec3@@YANQAN00@Z 10001d50 f   sg_vs2008_32:sgd.obj
 0001:00000df0       ?extend@sgdBox@@QAEXQBN@Z  10001df0 f   sg_vs2008_32:sgd.obj
 0001:00000ec0       ?extend@sgdBox@@QAEXPBV1@@Z 10001ec0 f   sg_vs2008_32:sgd.obj
 0001:00000f50       ?extend@sgdBox@@QAEXPBVsgdSphere@@@Z 10001f50 f   sg_vs2008_32:sgd.obj
 0001:00000fc0       ?intersects@sgdBox@@QBEHQBN@Z 10001fc0 f   sg_vs2008_32:sgd.obj
 0001:00001100       ?extend@sgdSphere@@QAEXQBN@Z 10002100 f   sg_vs2008_32:sgd.obj
 0001:000011b0       ?extend@sgdSphere@@QAEXPBVsgdBox@@@Z 100021b0 f   sg_vs2008_32:sgd.obj
 0001:00001340       ?extend@sgdSphere@@QAEXPBV1@@Z 10002340 f   sg_vs2008_32:sgd.obj
 0001:00001410       ?intersects@sgdSphere@@QBEHPBVsgdBox@@@Z 10002410 f   sg_vs2008_32:sgd.obj
 0001:000014c0       ?update@sgdFrustum@@AAEXXZ 100024c0 f   sg_vs2008_32:sgd.obj
 0001:000018c0       ?contains@sgdFrustum@@QBEHPBVsgdSphere@@@Z 100028c0 f   sg_vs2008_32:sgd.obj
 0001:00001a30       ?sgdDistSquaredToLineVec3@@YANUsgdLine3@@QBN@Z 10002a30 f   sg_vs2008_32:sgd.obj
 0001:00001a70       ?sgdDistSquaredToLineSegmentVec3@@YANUsgdLineSegment3@@QBN@Z 10002a70 f   sg_vs2008_32:sgd.obj
 0001:00001b80       ?sgdMakeCoordMat4@@YAXQAY03NNNNNNN@Z 10002b80 f   sg_vs2008_32:sgd.obj
 0001:00001d40       ?sgdMakeTransMat4@@YAXQAY03NQBN@Z 10002d40 f   sg_vs2008_32:sgd.obj
 0001:00001d90       ?sgdMakeTransMat4@@YAXQAY03NNNN@Z 10002d90 f   sg_vs2008_32:sgd.obj
 0001:00001de0       ?sgdSetCoord@@YAXPAUsgdCoord@@QAY03$$CBN@Z 10002de0 f   sg_vs2008_32:sgd.obj
 0001:000020e0       ?sgdMakeNormal@@YAXQANQBN1@Z 100030e0 f   sg_vs2008_32:sgd.obj
 0001:00002130       ?sgdMakeNormal@@YAXQANQBN11@Z 10003130 f   sg_vs2008_32:sgd.obj
 0001:000021d0       ?sgdMultMat4@@YAXQAY03NQAY03$$CBN1@Z 100031d0 f   sg_vs2008_32:sgd.obj
 0001:00002280       ?sgdTransposeNegateMat4@@YAXQAY03NQAY03$$CBN@Z 10003280 f   sg_vs2008_32:sgd.obj
 0001:00002320       ?sgdTransposeNegateMat4@@YAXQAY03N@Z 10003320 f   sg_vs2008_32:sgd.obj
 0001:00002350       ?sgdInvertMat4@@YAXQAY03NQAY03$$CBN@Z 10003350 f   sg_vs2008_32:sgd.obj
 0001:00002570       ?sgdXformVec3@@YAXQANQBNQAY03$$CBN@Z 10003570 f   sg_vs2008_32:sgd.obj
 0001:000025d0       ?sgdXformPnt3@@YAXQANQBNQAY03$$CBN@Z 100035d0 f   sg_vs2008_32:sgd.obj
 0001:00002630       ?sgdXformPnt4@@YAXQANQBNQAY03$$CBN@Z 10003630 f   sg_vs2008_32:sgd.obj
 0001:000026c0       ?sgdFullXformPnt3@@YAXQANQBNQAY03$$CBN@Z 100036c0 f   sg_vs2008_32:sgd.obj
 0001:00002720       ?sgdHPRfromVec3@@YAXQAN0@Z 10003720 f   sg_vs2008_32:sgd.obj
 0001:000027c0       ?sgdQuatToAngleAxis@@YAXPANQANQBN@Z 100037c0 f   sg_vs2008_32:sgd.obj
 0001:00002840       ?sgdAngleAxisToQuat@@YAXQANNQBN@Z 10003840 f   sg_vs2008_32:sgd.obj
 0001:000028e0       ?sgdMatrixToQuat@@YAXQANQAY03$$CBN@Z 100038e0 f   sg_vs2008_32:sgd.obj
 0001:00002a40       ?sgdMultQuat@@YAXQANQBN1@Z 10003a40 f   sg_vs2008_32:sgd.obj
 0001:00002b10       ?sgdMultQuat2@@YAXQANQBN1@Z 10003b10 f   sg_vs2008_32:sgd.obj
 0001:00002be0       ?sgdEulerToQuat@@YAXQANQBN@Z 10003be0 f   sg_vs2008_32:sgd.obj
 0001:00002cd0       ?sgdQuatToEuler@@YAXQANQBN@Z 10003cd0 f   sg_vs2008_32:sgd.obj
 0001:00002e30       ?sgdQuatToMatrix@@YAXQAY03NQBN@Z 10003e30 f   sg_vs2008_32:sgd.obj
 0001:00002f00       ?sgdMakeRotMat42@@YAXQAY03NQAN@Z 10003f00 f   sg_vs2008_32:sgd.obj
 0001:00002fd0       ?sgdSlerpQuat2@@YAXQANQBN1N@Z 10003fd0 f   sg_vs2008_32:sgd.obj
 0001:000030f0       ?sgdSlerpQuat@@YAXQANQBN1N@Z 100040f0 f   sg_vs2008_32:sgd.obj
 0001:000031e0       ?sgdRotateVecQuat@@YAXQAN0@Z 100041e0 f   sg_vs2008_32:sgd.obj
 0001:000032d0       ?sgdRotateCoordQuat@@YAXQAN0@Z 100042d0 f   sg_vs2008_32:sgd.obj
 0001:000033c0       ?sgdDistSquaredToLineLineSegment@@YANUsgdLineSegment3@@UsgdLine3@@@Z 100043c0 f   sg_vs2008_32:sgd.obj
 0001:000035d0       ?sgdReflectInPlaneVec3@@YAXQANQBN1@Z 100045d0 f   sg_vs2008_32:sgd.obj
 0001:00003620       ?sgdClassifyMat4@@YAHQAY03$$CBN@Z 10004620 f   sg_vs2008_32:sgd.obj
 0001:000038e0       ?sgdTriangleSolver_SAStoArea@@YANNNN@Z 100048e0 f   sg_vs2008_32:sgd.obj
 0001:00003900       ?sgdTriangleSolver_SSStoArea@@YANNNN@Z 10004900 f   sg_vs2008_32:sgd.obj
 0001:00003950       ?sgdTriangleSolver_SSStoAAA@@YAXNNNPAN00@Z 10004950 f   sg_vs2008_32:sgd.obj
 0001:00003af0       ?sgdTriangleSolver_SAStoASA@@YAXNNNPAN00@Z 10004af0 f   sg_vs2008_32:sgd.obj
 0001:00003b70       ?sgdTriangleSolver_ASAtoSAS@@YAXNNNPAN00@Z 10004b70 f   sg_vs2008_32:sgd.obj
 0001:00003c20       ?sgdTriangleSolver_ASStoSAA@@YAXNNNHPAN00@Z 10004c20 f   sg_vs2008_32:sgd.obj
 0001:00003cb0       ?sgdTriangleSolver_SAAtoASS@@YAXNNNPAN00@Z 10004cb0 f   sg_vs2008_32:sgd.obj
 0001:00003d00       ?sgdTriArea@@YANQAN00@Z    10004d00 f   sg_vs2008_32:sgd.obj
 0001:00003de0       ?getOutcode@sgdFrustum@@ABEHQBN@Z 10004de0 f   sg_vs2008_32:sgd.obj
 0001:00003ec0       ?contains@sgdFrustum@@QBEHQBN@Z 10004ec0 f   sg_vs2008_32:sgd.obj
 0001:00003ee0       ?contains@sgdFrustum@@QBEHPBVsgdBox@@@Z 10004ee0 f   sg_vs2008_32:sgd.obj
 0001:00004000       ?sgdPreMultMat4@@YAXQAY03NQAY03$$CBN@Z 10005000 f   sg_vs2008_32:sgd.obj
 0001:00004040       ?sgdPostMultMat4@@YAXQAY03NQAY03$$CBN@Z 10005040 f   sg_vs2008_32:sgd.obj
 0001:00004080       ?sgdQuatToAngleAxis@@YAXPAN000QBN@Z 10005080 f   sg_vs2008_32:sgd.obj
 0001:000040c0       ?sgdAngleAxisToQuat@@YAXQANNNNN@Z 100050c0 f   sg_vs2008_32:sgd.obj
 0001:00004100       ?sgdTriangleSolver_ASAtoArea@@YANNNN@Z 10005100 f   sg_vs2008_32:sgd.obj
 0001:00004170       ?sgdTriangleSolver_ASStoArea@@YANNNNH@Z 10005170 f   sg_vs2008_32:sgd.obj
 0001:000041d0       ?sgdTriangleSolver_SAAtoArea@@YANNNN@Z 100051d0 f   sg_vs2008_32:sgd.obj
 0001:00004230       ?ulSetError@@YAXW4ulSeverity@@PBDZZ 10005230 f   ul_vs2008_32:ulError.obj
 0001:000042a0       ?ulGetError@@YAPADXZ       100052a0 f   ul_vs2008_32:ulError.obj
 0001:000042b0       ?ulClearError@@YAXXZ       100052b0 f   ul_vs2008_32:ulError.obj
 0001:000042c0       ?ulGetErrorCallback@@YAP6AXW4ulSeverity@@PAD@ZXZ 100052c0 f   ul_vs2008_32:ulError.obj
 0001:000042d0       ?ulSetErrorCallback@@YAXP6AXW4ulSeverity@@PAD@Z@Z 100052d0 f   ul_vs2008_32:ulError.obj
 0001:00004310       ?update@SingleCardata@@QAEXXZ 10005310 f   cardata.obj
 0001:000044a0       ?getSpeed@SingleCardata@@KAMPAUCarElt@@M@Z 100054a0 f   cardata.obj
 0001:00004580       ??0Cardata@@QAE@PAUSituation@@@Z 10005580 f   cardata.obj
 0001:00004620       ??1Cardata@@QAE@XZ         10005620 f   cardata.obj
 0001:00004660       ?update@Cardata@@QAEXXZ    10005660 f   cardata.obj
 0001:000046c0       ?findCar@Cardata@@QAEPAVSingleCardata@@PAUCarElt@@@Z 100056c0 f   cardata.obj
 0001:00004730       ??0?$v2t@M@@QAE@XZ         10005730 f i cardata.obj
 0001:00004750       ??D?$v2t@M@@QBEMABV0@@Z    10005750 f i cardata.obj
 0001:000047a0       ?cos@@YAMM@Z               100057a0 f i cardata.obj
 0001:000047c0       ?init@SingleCardata@@QAEXPAUCarElt@@@Z 100057c0 f i cardata.obj
 0001:000047e0       ?sgdMakeCoordMat4@@YAXQAY03NPBUsgdCoord@@@Z 100057e0 f i cardata.obj
 0001:00004810       ?sgdMakeCoordMat4@@YAXQAY03NQBN1@Z 10005810 f i cardata.obj
 0001:000048c0       ?sin@@YAMM@Z               100058c0 f i cardata.obj
 0001:000048e0       ?thisCar@SingleCardata@@QAE_NPAUCarElt@@@Z 100058e0 f i cardata.obj
 0001:00004920       _cosf                      10005920 f i cardata.obj
 0001:00004960       _sinf                      10005960 f i cardata.obj
 0001:00004bb0       _damned                    10005bb0 f   damned.obj
 0001:00004c60       ??_GDriver@@QAEPAXI@Z      10005c60 f i damned.obj
 0001:00004ca0       ??0Driver@@QAE@H@Z         10005ca0 f   driver.obj
 0001:00004cc0       ??1Driver@@QAE@XZ          10005cc0 f   driver.obj
 0001:00004e00       ?initTrack@Driver@@QAEXPAUtTrack@@PAXPAPAXPAUSituation@@@Z 10005e00 f   driver.obj
 0001:00005080       ?newRace@Driver@@QAEXPAUCarElt@@PAUSituation@@@Z 10006080 f   driver.obj
 0001:000053b0       ?drive@Driver@@QAEXPAUSituation@@@Z 100063b0 f   driver.obj
 0001:000055a0       ?pitCommand@Driver@@QAEHPAUSituation@@@Z 100065a0 f   driver.obj
 0001:00005640       ?endRace@Driver@@QAEXPAUSituation@@@Z 10006640 f   driver.obj
 0001:00005660       ?isStuck@Driver@@AAE_NXZ   10006660 f   driver.obj
 0001:00005770       ?update@Driver@@AAEXPAUSituation@@@Z 10006770 f   driver.obj
 0001:00005a00       ?getAllowedSpeed@Driver@@AAEMPAUtrackSeg@@@Z 10006a00 f   driver.obj
 0001:00005bf0       ?getAccel@Driver@@AAEMXZ   10006bf0 f   driver.obj
 0001:00005ce0       ?getDistToSegEnd@Driver@@AAEMXZ 10006ce0 f   driver.obj
 0001:00005d80       ?getBrake@Driver@@AAEMXZ   10006d80 f   driver.obj
 0001:00005f40       ?getGear@Driver@@AAEHXZ    10006f40 f   driver.obj
 0001:000060c0       ?getSteer@Driver@@AAEMXZ   100070c0 f   driver.obj
 0001:00006210       ?getClutch@Driver@@AAEMXZ  10007210 f   driver.obj
 0001:000064e0       ?getTargetPoint@Driver@@AAE?AV?$v2t@M@@XZ 100074e0 f   driver.obj
 0001:000069c0       ?getOffset@Driver@@AAEMXZ  100079c0 f   driver.obj
 0001:000071a0       ?brakedist@Driver@@AAEMMM@Z 100081a0 f   driver.obj
 0001:00007280       ?filterOverlap@Driver@@AAEMM@Z 10008280 f   driver.obj
 0001:00007320       ?filterBColl@Driver@@AAEMM@Z 10008320 f   driver.obj
 0001:00007410       ?filterABS@Driver@@AAEMM@Z 10008410 f   driver.obj
 0001:00007530       ?filterBPit@Driver@@AAEMM@Z 10008530 f   driver.obj
 0001:00007870       ?filterBrakeSpeed@Driver@@AAEMM@Z 10008870 f   driver.obj
 0001:00007910       ?filterTCL@Driver@@AAEMM@Z 10008910 f   driver.obj
 0001:000079d0       ?filterTrk@Driver@@AAEMM@Z 100089d0 f   driver.obj
 0001:00007b70       ?filterSColl@Driver@@AAEMM@Z 10008b70 f   driver.obj
 0001:00008080       ?filterTCL_RWD@Driver@@AAEMXZ 10009080 f   driver.obj
 0001:00008100       ?filterTCL_FWD@Driver@@AAEMXZ 10009100 f   driver.obj
 0001:00008180       ?filterTCL_4WD@Driver@@AAEMXZ 10009180 f   driver.obj
 0001:00008240       ?initTCLfilter@Driver@@AAEXXZ 10009240 f   driver.obj
 0001:000082f0       ?initCa@Driver@@AAEXXZ     100092f0 f   driver.obj
 0001:00008590       ?initCw@Driver@@AAEXXZ     10009590 f   driver.obj
 0001:00008640       ?initTireMu@Driver@@AAEXXZ 10009640 f   driver.obj
 0001:000087a0       ?computeRadius@Driver@@AAEXPAM@Z 100097a0 f   driver.obj
 0001:00008900       ?isAlone@Driver@@AAEHXZ    10009900 f   driver.obj
 0001:00008970       ??$?DM@@YA?AV?$v2t@M@@MABV0@@Z 10009970 f i driver.obj
 0001:000089b0       ??0?$v2t@M@@QAE@MM@Z       100099b0 f i driver.obj
 0001:000089e0       ??0SimpleStrategy2@@QAE@XZ 100099e0 f i driver.obj
 0001:00008a10       ??4?$v2t@M@@QAEAAV0@ABV0@@Z 10009a10 f i driver.obj
 0001:00008a40       ??D?$v2t@M@@QBE?AV0@M@Z    10009a40 f i driver.obj
 0001:00008a90       ??G?$v2t@M@@QBE?AV0@ABV0@@Z 10009a90 f i driver.obj
 0001:00008af0       ??H?$v2t@M@@QBE?AV0@ABV0@@Z 10009af0 f i driver.obj
 0001:00008b50       ??_GCardata@@QAEPAXI@Z     10009b50 f i driver.obj
 0001:00008b90       ??_GOpponents@@QAEPAXI@Z   10009b90 f i driver.obj
 0001:00008bd0       ??_GPit@@QAEPAXI@Z         10009bd0 f i driver.obj
 0001:00008c10       ??_GSegLearn@@QAEPAXI@Z    10009c10 f i driver.obj
 0001:00008c50       ??_ESimpleStrategy2@@UAEPAXI@Z 10009c50 f i driver.obj
 0001:00008c50       ??_GSimpleStrategy2@@UAEPAXI@Z 10009c50 f i driver.obj
 0001:00008c90       ?atan2@@YAMMM@Z            10009c90 f i driver.obj
 0001:00008cc0       ?exp@@YAMM@Z               10009cc0 f i driver.obj
 0001:00008ce0       ?fabs@@YAMM@Z              10009ce0 f i driver.obj
 0001:00008d00       ?getCarAngle@SingleCardata@@QAEMXZ 10009d00 f i driver.obj
 0001:00008d20       ?getCarPtr@Opponent@@QAEPAUCarElt@@XZ 10009d20 f i driver.obj
 0001:00008d40       ?getCatchDist@Opponent@@QAEMXZ 10009d40 f i driver.obj
 0001:00008d60       ?getDamage@Opponent@@QAEHXZ 10009d60 f i driver.obj
 0001:00008d80       ?getDistance@Opponent@@QAEMXZ 10009d80 f i driver.obj
 0001:00008da0       ?getInPit@Pit@@QAE_NXZ     10009da0 f i driver.obj
 0001:00008dc0       ?getNOpponents@Opponents@@QAEHXZ 10009dc0 f i driver.obj
 0001:00008de0       ?getNPitEnd@Pit@@QAEMXZ    10009de0 f i driver.obj
 0001:00008e10       ?getNPitLoc@Pit@@QAEMXZ    10009e10 f i driver.obj
 0001:00008e40       ?getNPitStart@Pit@@QAEMXZ  10009e40 f i driver.obj
 0001:00008e70       ?getOpponentPtr@Opponents@@QAEPAVOpponent@@XZ 10009e70 f i driver.obj
 0001:00008e90       ?getPitstop@Pit@@QAE_NXZ   10009e90 f i driver.obj
 0001:00008eb0       ?getRadius@SegLearn@@QAEMPAUtrackSeg@@@Z 10009eb0 f i driver.obj
 0001:00008ee0       ?getSideDist@Opponent@@QAEMXZ 10009ee0 f i driver.obj
 0001:00008f00       ?getSpeed@Opponent@@QAEMXZ 10009f00 f i driver.obj
 0001:00008f30       ?getSpeedInTrackDirection@SingleCardata@@QAEMXZ 10009f30 f i driver.obj
 0001:00008f50       ?getSpeedlimit@Pit@@QAEMXZ 10009f50 f i driver.obj
 0001:00008f70       ?getSpeedlimitSqr@Pit@@QAEMXZ 10009f70 f i driver.obj
 0001:00008f90       ?getState@Opponent@@QAEHXZ 10009f90 f i driver.obj
 0001:00008fb0       ?getTrackangle@SingleCardata@@QAEMXZ 10009fb0 f i driver.obj
 0001:00008fd0       ?getWidth@Opponent@@QAEMXZ 10009fd0 f i driver.obj
 0001:00009000       ?getWidthOnTrack@SingleCardata@@QAEMXZ 1000a000 f i driver.obj
 0001:00009020       ?isTeamMate@Opponent@@QAE_NXZ 1000a020 f i driver.obj
 0001:00009040       ?len@?$v2t@M@@QBEMXZ       1000a040 f i driver.obj
 0001:00009090       ?log@@YAMM@Z               1000a090 f i driver.obj
 0001:000090b0       ?normalize@?$v2t@M@@QAEXXZ 1000a0b0 f i driver.obj
 0001:00009110       ?rotate@?$v2t@M@@QBE?AV1@ABV1@M@Z 1000a110 f i driver.obj
 0001:00009210       ?sqrt@@YAMM@Z              1000a210 f i driver.obj
 0001:00009230       ?strrchr@@YAPADPADH@Z      1000a230 f i driver.obj
 0001:00009250       _atan2f                    1000a250 f i driver.obj
 0001:000092a0       _expf                      1000a2a0 f i driver.obj
 0001:000092e0       _fabsf                     1000a2e0 f i driver.obj
 0001:00009320       _logf                      1000a320 f i driver.obj
 0001:00009360       _sqrtf                     1000a360 f i driver.obj
 0001:000093a0       ??0SegLearn@@QAE@PAUtTrack@@PAUSituation@@H@Z 1000a3a0 f   learn.obj
 0001:00009540       ??1SegLearn@@QAE@XZ        1000a540 f   learn.obj
 0001:000095a0       ?update@SegLearn@@QAEXPAUSituation@@PAUtTrack@@PAUCarElt@@HMMPAM@Z 1000a5a0 f   learn.obj
 0001:000098d0       ?writeKarma@SegLearn@@AAEXXZ 1000a8d0 f   learn.obj
 0001:00009b20       ?getKarmaFilename@SegLearn@@AAEPAU_iobuf@@PAUtTrack@@PAUSituation@@H@Z 1000ab20 f   learn.obj
 0001:00009d90       ?tryKarmaFilename@SegLearn@@AAEPAU_iobuf@@PADHPBDH1_N@Z 1000ad90 f   learn.obj
 0001:00009e50       ?readKarma@SegLearn@@AAE_NPAUtTrack@@PAUSituation@@PAMPAHH@Z 1000ae50 f   learn.obj
 0001:0000a040       ?strchr@@YAPADPADH@Z       1000b040 f i learn.obj
 0001:0000a060       ??0Opponent@@QAE@XZ        1000b060 f   opponent.obj
 0001:0000a080       ?update@Opponent@@QAEXPAUSituation@@PAVDriver@@@Z 1000b080 f   opponent.obj
 0001:0000a7c0       ?getDistToSegStart@Opponent@@AAEMXZ 1000b7c0 f   opponent.obj
 0001:0000a830       ?updateOverlapTimer@Opponent@@AAEXPAUSituation@@PAUCarElt@@@Z 1000b830 f   opponent.obj
 0001:0000a970       ??0Opponents@@QAE@PAUSituation@@PAVDriver@@PAVCardata@@@Z 1000b970 f   opponent.obj
 0001:0000aaf0       ??1Opponents@@QAE@XZ       1000baf0 f   opponent.obj
 0001:0000ab30       ?update@Opponents@@QAEXPAUSituation@@PAVDriver@@@Z 1000bb30 f   opponent.obj
 0001:0000ab90       ?setTeamMate@Opponents@@QAEXPBD@Z 1000bb90 f   opponent.obj
 0001:0000ac10       ??0?$straight2t@M@@QAE@MMMM@Z 1000bc10 f i opponent.obj
 0001:0000ac90       ??_H@YGXPAXIHP6EPAX0@Z@Z   1000bc90 f i opponent.obj
 0001:0000acd0       ?dist@?$straight2t@M@@QBEMABV?$v2t@M@@@Z 1000bcd0 f i opponent.obj
 0001:0000ad80       ?getCarPtr@Driver@@QAEPAUCarElt@@XZ 1000bd80 f i opponent.obj
 0001:0000ada0       ?getSpeed@Driver@@QAEMXZ   1000bda0 f i opponent.obj
 0001:0000add0       ?getTrackPtr@Driver@@QAEPAUtTrack@@XZ 1000bdd0 f i opponent.obj
 0001:0000adf0       ?markAsTeamMate@Opponent@@QAEXXZ 1000bdf0 f i opponent.obj
 0001:0000ae10       ?setCarDataPtr@Opponent@@QAEXPAVSingleCardata@@@Z 1000be10 f i opponent.obj
 0001:0000ae30       ?setCarPtr@Opponent@@QAEXPAUCarElt@@@Z 1000be30 f i opponent.obj
 0001:0000ae50       ?setTrackPtr@Opponent@@SAXPAUtTrack@@@Z 1000be50 f i opponent.obj
 0001:0000ae60       ??0Pit@@QAE@PAUSituation@@PAVDriver@@@Z 1000be60 f   pit.obj
 0001:0000b340       ??1Pit@@QAE@XZ             1000c340 f   pit.obj
 0001:0000b390       ?setPitstop@Pit@@QAEX_N@Z  1000c390 f   pit.obj
 0001:0000b420       ?getPitOffset@Pit@@QAEMMM@Z 1000c420 f   pit.obj
 0001:0000b4b0       ?isBetween@Pit@@QAE_NM@Z   1000c4b0 f   pit.obj
 0001:0000b530       ?isTimeout@Pit@@QAE_NM@Z   1000c530 f   pit.obj
 0001:0000b5f0       ?toSplineCoord@Pit@@QAEMM@Z 1000c5f0 f   pit.obj
 0001:0000b640       ?getSpeedLimitBrake@Pit@@QAEMM@Z 1000c640 f   pit.obj
 0001:0000b690       ?update@Pit@@QAEXXZ        1000c690 f   pit.obj
 0001:0000b720       ?setInPit@Pit@@QAEX_N@Z    1000c720 f i pit.obj
 0001:0000b740       ??0Spline@@QAE@HPAVSplinePoint@@@Z 1000c740 f   spline.obj
 0001:0000b770       ?evaluate@Spline@@QAEMM@Z  1000c770 f   spline.obj
 0001:0000b8f0       ??0SimpleStrategy@@QAE@XZ  1000c8f0 f   strategy.obj
 0001:0000b960       ??1SimpleStrategy@@UAE@XZ  1000c960 f   strategy.obj
 0001:0000b990       ?setFuelAtRaceStart@SimpleStrategy@@UAEXPAUtTrack@@PAPAXPAUSituation@@H@Z 1000c990 f   strategy.obj
 0001:0000baa0       ?update@SimpleStrategy@@UAEXPAUCarElt@@PAUSituation@@@Z 1000caa0 f   strategy.obj
 0001:0000bbd0       ?needPitstop@SimpleStrategy@@UAE_NPAUCarElt@@PAUSituation@@@Z 1000cbd0 f   strategy.obj
 0001:0000bcd0       ?pitRefuel@SimpleStrategy@@UAEMPAUCarElt@@PAUSituation@@@Z 1000ccd0 f   strategy.obj
 0001:0000be80       ?pitRepair@SimpleStrategy@@UAEHPAUCarElt@@PAUSituation@@@Z 1000ce80 f   strategy.obj
 0001:0000bea0       ?isPitFree@SimpleStrategy@@UAE_NPAUCarElt@@@Z 1000cea0 f   strategy.obj
 0001:0000bee0       ??1SimpleStrategy2@@UAE@XZ 1000cee0 f   strategy.obj
 0001:0000bf10       ?setFuelAtRaceStart@SimpleStrategy2@@UAEXPAUtTrack@@PAPAXPAUSituation@@H@Z 1000cf10 f   strategy.obj
 0001:0000c1c0       ?pitRefuel@SimpleStrategy2@@UAEMPAUCarElt@@PAUSituation@@@Z 1000d1c0 f   strategy.obj
 0001:0000c3f0       ?update@SimpleStrategy2@@UAEXPAUCarElt@@PAUSituation@@@Z 1000d3f0 f   strategy.obj
 0001:0000c500       ?updateFuelStrategy@SimpleStrategy2@@MAEXPAUCarElt@@PAUSituation@@@Z 1000d500 f   strategy.obj
 0001:0000c6c0       ??0AbstractStrategy@@QAE@XZ 1000d6c0 f i strategy.obj
 0001:0000c6e0       ??1AbstractStrategy@@UAE@XZ 1000d6e0 f i strategy.obj
 0001:0000c700       ??_EAbstractStrategy@@UAEPAXI@Z 1000d700 f i strategy.obj
 0001:0000c700       ??_GAbstractStrategy@@UAEPAXI@Z 1000d700 f i strategy.obj
 0001:0000c740       ??_GSimpleStrategy@@UAEPAXI@Z 1000d740 f i strategy.obj
 0001:0000c740       ??_ESimpleStrategy@@UAEPAXI@Z 1000d740 f i strategy.obj
 0001:0000c780       ?ceil@@YAMM@Z              1000d780 f i strategy.obj
 0001:0000c7a0       _ceilf                     1000d7a0 f i strategy.obj
 0001:0000c7d4       ?_tgf_win_strdup@@YAPADPBD@Z 1000d7d4 f   tgf:tgf.dll
 0001:0000c7da       ?GfParmReadFile@@YAPAXPBDH@Z 1000d7da f   tgf:tgf.dll
 0001:0000c7e0       ?GfParmGetStr@@YAPBDPAXPBD11@Z 1000d7e0 f   tgf:tgf.dll
 0001:0000c7e6       ?GfParmGetNum@@YAMPAXPBD11M@Z 1000d7e6 f   tgf:tgf.dll
 0001:0000c7ec       ?GetLocalDir@@YAPADXZ      1000d7ec f   tgf:tgf.dll
 0001:0000c7f2       ?GetDataDir@@YAPADXZ       1000d7f2 f   tgf:tgf.dll
 0001:0000c7f8       ?GfCreateDir@@YAHPAD@Z     1000d7f8 f   tgf:tgf.dll
 0001:0000c7fe       ?GfParmSetNum@@YAHPAXPBD11M@Z 1000d7fe f   tgf:tgf.dll
 0001:0000c804       ?RtTrackSideTgAngleL@@YAMPAUtTrkLocPos@@@Z 1000d804 f   robottools:robottools.dll
 0001:0000c80a       ?RtDistToPit@@YAHPAUCarElt@@PAUtTrack@@PAM2@Z 1000d80a f   robottools:robottools.dll
 0001:0000c810       ??0bad_alloc@std@@QAE@ABV01@@Z 1000d810 f i LIBCMTD:new.obj
 0001:0000c840       ??0bad_alloc@std@@QAE@XZ   1000d840 f i LIBCMTD:new.obj
 0001:0000c870       ??1bad_alloc@std@@UAE@XZ   1000d870 f i LIBCMTD:new.obj
 0001:0000c890       ??2@YAPAXI@Z               1000d890 f   LIBCMTD:new.obj
 0001:0000c8e0       ??_Ebad_alloc@std@@UAEPAXI@Z 1000d8e0 f i LIBCMTD:new.obj
 0001:0000c8e0       ??_Gbad_alloc@std@@UAEPAXI@Z 1000d8e0 f i LIBCMTD:new.obj
 0001:0000c910       ??3@YAXPAX@Z               1000d910 f   LIBCMTD:dbgdel.obj
 0001:0000ca00       _cos                       1000da00 f   LIBCMTD:cos.obj
 0001:0000ca40       __CIcos                    1000da40 f   LIBCMTD:cos.obj
 0001:0000ca7b       __CIcos_default            1000da7b f   LIBCMTD:cos.obj
 0001:0000ca8f       __cos_default              1000da8f     LIBCMTD:cos.obj
 0001:0000cb30       _sin                       1000db30 f   LIBCMTD:sin.obj
 0001:0000cb70       __CIsin                    1000db70 f   LIBCMTD:sin.obj
 0001:0000cbab       __CIsin_default            1000dbab f   LIBCMTD:sin.obj
 0001:0000cbbf       __sin_default              1000dbbf     LIBCMTD:sin.obj
 0001:0000cc60       @_RTC_AllocaHelper@12      1000dc60 f   LIBCMTD:stack.obj
 0001:0000cca0       @_RTC_CheckStackVars2@12   1000dca0 f   LIBCMTD:stack.obj
 0001:0000cd80       @_RTC_CheckStackVars@8     1000dd80 f   LIBCMTD:stack.obj
 0001:0000cde0       __RTC_CheckEsp             1000dde0 f   LIBCMTD:stack.obj
 0001:0000ce10       __RTC_InitBase             1000de10 f   LIBCMTD:init.obj
 0001:0000ce40       __RTC_Shutdown             1000de40 f   LIBCMTD:init.obj
 0001:0000ce60       __fpmath                   1000de60 f   LIBCMTD:fpinit.obj
 0001:0000ce80       ___setfflag                1000de80 f   LIBCMTD:fpinit.obj
 0001:0000cea0       __cfltcvt_init             1000dea0 f   LIBCMTD:fpinit.obj
 0001:0000cf60       _memset                    1000df60 f   LIBCMTD:memset.obj
 0001:0000cff0       @__security_check_cookie@4 1000dff0 f   LIBCMTD:secchk.obj
 0001:0000d100       ?_CallCatchBlock2@@YAPAXPAUEHRegistrationNode@@PBU_s_FuncInfo@@PAXHK@Z 1000e100 f   LIBCMTD:_trnsctrl_.obj
 0001:0000d170       ?_CallMemberFunction0@@YGXPAX0@Z 1000e170 f   LIBCMTD:_trnsctrl_.obj
 0001:0000d180       ?_CallMemberFunction1@@YGXPAX00@Z 1000e180 f   LIBCMTD:_trnsctrl_.obj
 0001:0000d190       ?_CallMemberFunction2@@YGXPAX00H@Z 1000e190 f   LIBCMTD:_trnsctrl_.obj
 0001:0000d1a0       ?_CallSETranslator@@YAHPAUEHExceptionRecord@@PAUEHRegistrationNode@@PAX2PBU_s_FuncInfo@@H1@Z 1000e1a0 f   LIBCMTD:_trnsctrl_.obj
 0001:0000d290       ?_GetRangeOfTrysToCheck@@YAPBU_s_TryBlockMapEntry@@PBU_s_FuncInfo@@HHPAI1@Z 1000e290 f   LIBCMTD:_trnsctrl_.obj
 0001:0000d320       ?_JumpToContinuation@@YGXPAXPAUEHRegistrationNode@@@Z 1000e320 f   LIBCMTD:_trnsctrl_.obj
 0001:0000d360       ?_UnwindNestedFrames@@YGXPAUEHRegistrationNode@@PAUEHExceptionRecord@@@Z 1000e360 f   LIBCMTD:_trnsctrl_.obj
 0001:0000d3c0       __CreateFrameInfo          1000e3c0 f   LIBCMTD:_trnsctrl_.obj
 0001:0000d3f0       __FindAndUnlinkFrame       1000e3f0 f   LIBCMTD:_trnsctrl_.obj
 0001:0000d450       __IsExceptionObjectToBeDestroyed 1000e450 f   LIBCMTD:_trnsctrl_.obj
 0001:0000d480       ___CxxFrameHandler         1000e480 f   LIBCMTD:_trnsctrl_.obj
 0001:0000d4c0       ___CxxFrameHandler2        1000e4c0 f   LIBCMTD:_trnsctrl_.obj
 0001:0000d500       ___CxxFrameHandler3        1000e500 f   LIBCMTD:_trnsctrl_.obj
 0001:0000d540       ___CxxLongjmpUnwind@4      1000e540 f   LIBCMTD:_trnsctrl_.obj
 0001:0000d570       __snprintf                 1000e570 f   LIBCMTD:snprintf.obj
 0001:0000d750       __snprintf_l               1000e750 f   LIBCMTD:snprintf.obj
 0001:0000d780       _strcmp                    1000e780 f   LIBCMTD:strcmp.obj
 0001:0000d810       _strrchr                   1000e810 f   LIBCMTD:strrchr.obj
 0001:0000d950       _atan2                     1000e950 f   LIBCMTD:87ctriga.obj
 0001:0000d95a       __CIatan2                  1000e95a f   LIBCMTD:87ctriga.obj
 0001:0000d970       _exp                       1000e970 f   LIBCMTD:87ctran.obj
 0001:0000d9ac       __CIexp                    1000e9ac f   LIBCMTD:87ctran.obj
 0001:0000d9e7       __exp_default              1000e9e7 f   LIBCMTD:87ctran.obj
 0001:0000d9f1       __CIexp_default            1000e9f1 f   LIBCMTD:87ctran.obj
 0001:0000da00       _fabs                      1000ea00 f   LIBCMTD:fabs.obj
 0001:0000db00       _log                       1000eb00 f   LIBCMTD:log.obj
 0001:0000db40       __CIlog                    1000eb40 f   LIBCMTD:log.obj
 0001:0000db7b       __CIlog_default            1000eb7b f   LIBCMTD:log.obj
 0001:0000db8f       __log_default              1000eb8f     LIBCMTD:log.obj
 0001:0000dc50       __CIsqrt                   1000ec50 f   LIBCMTD:sqrt.obj
 0001:0000dc64       _sqrt                      1000ec64     LIBCMTD:sqrt.obj
 0001:0000dd10       ??0type_info@@AAE@ABV0@@Z  1000ed10 f   LIBCMTD:typinfo.obj
 0001:0000dd30       ??1type_info@@UAE@XZ       1000ed30 f   LIBCMTD:typinfo.obj
 0001:0000dd50       ??4type_info@@AAEAAV0@ABV0@@Z 1000ed50 f   LIBCMTD:typinfo.obj
 0001:0000dd60       ??8type_info@@QBE_NABV0@@Z 1000ed60 f   LIBCMTD:typinfo.obj
 0001:0000dda0       ??9type_info@@QBE_NABV0@@Z 1000eda0 f   LIBCMTD:typinfo.obj
 0001:0000dde0       ??_Etype_info@@UAEPAXI@Z   1000ede0 f i LIBCMTD:typinfo.obj
 0001:0000dde0       ??_Gtype_info@@UAEPAXI@Z   1000ede0 f i LIBCMTD:typinfo.obj
 0001:0000de10       ?_name_internal_method@type_info@@QBEPBDPAU__type_info_node@@@Z 1000ee10 f   LIBCMTD:typinfo.obj
 0001:0000de30       ?_type_info_dtor_internal_method@type_info@@QAEXXZ 1000ee30 f   LIBCMTD:typinfo.obj
 0001:0000de50       ?before@type_info@@QBE_NABV1@@Z 1000ee50 f   LIBCMTD:typinfo.obj
 0001:0000de90       ?name@type_info@@QBEPBDPAU__type_info_node@@@Z 1000ee90 f   LIBCMTD:typinfo.obj
 0001:0000deb0       ?raw_name@type_info@@QBEPBDXZ 1000eeb0 f   LIBCMTD:typinfo.obj
 0001:0000ded0       ___raise_securityfailure   1000eed0 f   LIBCMTD:gs_report.obj
 0001:0000df20       ___report_gsfailure        1000ef20 f   LIBCMTD:gs_report.obj
 0001:0000e030       ___report_rangecheckfailure 1000f030 f   LIBCMTD:gs_report.obj
 0001:0000e040       ___report_securityfailure  1000f040 f   LIBCMTD:gs_report.obj
 0001:0000e120       ___report_securityfailureEx 1000f120 f   LIBCMTD:gs_report.obj
 0001:0000e250       __fclose_nolock            1000f250 f   LIBCMTD:fclose.obj
 0001:0000e360       _fclose                    1000f360 f   LIBCMTD:fclose.obj
 0001:0000e480       __fsopen                   1000f480 f   LIBCMTD:fopen.obj
 0001:0000e6d0       _fopen                     1000f6d0 f   LIBCMTD:fopen.obj
 0001:0000e6f0       _fopen_s                   1000f6f0 f   LIBCMTD:fopen.obj
 0001:0000e7b0       __fread_nolock             1000f7b0 f   LIBCMTD:fread.obj
 0001:0000e7d0       __fread_nolock_s           1000f7d0 f   LIBCMTD:fread.obj
 0001:0000ee00       _fread                     1000fe00 f   LIBCMTD:fread.obj
 0001:0000ee20       _fread_s                   1000fe20 f   LIBCMTD:fread.obj
 0001:0000ef70       __fwrite_nolock            1000ff70 f   LIBCMTD:fwrite.obj
 0001:0000f380       _fwrite                    10010380 f   LIBCMTD:fwrite.obj
 0001:0000f4a0       _strchr                    100104a0 f   LIBCMTD:strchr.obj
 0001:0000f50e       ___from_strstr_to_strchr   1001050e     LIBCMTD:strchr.obj
 0001:0000f5d0       _strncmp                   100105d0 f   LIBCMTD:strncmp.obj
 0001:0000f650       _strncpy                   10010650 f   LIBCMTD:strncpy.obj
 0001:0000f780       __get_purecall_handler     10010780 f   LIBCMTD:purevirt.obj
 0001:0000f7a0       __purecall                 100107a0 f   LIBCMTD:purevirt.obj
 0001:0000f7e0       __set_purecall_handler     100107e0 f   LIBCMTD:purevirt.obj
 0001:0000f810       _ceil                      10010810 f   LIBCMTD:ceil_pentium4.obj
 0001:0000f850       __ceil_pentium4            10010850 f   LIBCMTD:ceil_pentium4.obj
 0001:0000f930       __ftol2_sse                10010930 f   LIBCMTD:ftol2.obj
 0001:0000f939       __ftol2_pentium4           10010939 f   LIBCMTD:ftol2.obj
 0001:0000f94c       __ftol2_sse_excpt          1001094c f   LIBCMTD:ftol2.obj
 0001:0000f966       __ftol2                    10010966 f   LIBCMTD:ftol2.obj
 0001:0000f9e0       __CRT_INIT@12              100109e0 f   LIBCMTD:dllcrt0.obj
 0001:0000fc30       __DllMainCRTStartup@12     10010c30 f   LIBCMTD:dllcrt0.obj
 0001:0000fe20       ___DllXcptFilter           10010e20 f   LIBCMTD:dllcrt0.obj
 0001:0000fe50       _asin                      10010e50 f   LIBCMTD:asin.obj
 0001:0000fe90       __CIasin                   10010e90 f   LIBCMTD:asin.obj
 0001:0000fecb       __CIasin_default           10010ecb f   LIBCMTD:asin.obj
 0001:0000fedf       __asin_default             10010edf     LIBCMTD:asin.obj
 0001:0000ffa0       _acos                      10010fa0 f   LIBCMTD:acos.obj
 0001:0000ffe0       __CIacos                   10010fe0 f   LIBCMTD:acos.obj
 0001:0001001b       __CIacos_default           1001101b f   LIBCMTD:acos.obj
 0001:0001002f       __acos_default             1001102f     LIBCMTD:acos.obj
 0001:000100f0       _tan                       100110f0 f   LIBCMTD:tan.obj
 0001:00010130       __CItan                    10011130 f   LIBCMTD:tan.obj
 0001:0001016b       __CItan_default            1001116b f   LIBCMTD:tan.obj
 0001:0001017f       __tan_default              1001117f     LIBCMTD:tan.obj
 0001:00010220       ___copy_path_to_wide_string 10011220 f   LIBCMTD:crt0dat.obj
 0001:00010410       ___copy_to_char            10011410 f   LIBCMTD:crt0dat.obj
 0001:00010600       ___crtCorExitProcess       10011600 f   LIBCMTD:crt0dat.obj
 0001:00010640       ___crtExitProcess          10011640 f   LIBCMTD:crt0dat.obj
 0001:00010660       ___freeCrtMemory           10011660 f   LIBCMTD:crt0dat.obj
 0001:00010830       __amsg_exit                10011830 f   LIBCMTD:crt0dat.obj
 0001:00010850       __c_exit                   10011850 f   LIBCMTD:crt0dat.obj
 0001:00010870       __cexit                    10011870 f   LIBCMTD:crt0dat.obj
 0001:00010890       __cinit                    10011890 f   LIBCMTD:crt0dat.obj
 0001:00010930       __exit                     10011930 f   LIBCMTD:crt0dat.obj
 0001:00010950       __exit_app                 10011950 f   LIBCMTD:crt0dat.obj
 0001:00010970       __get_pgmptr               10011970 f   LIBCMTD:crt0dat.obj
 0001:00010a90       __get_wpgmptr              10011a90 f   LIBCMTD:crt0dat.obj
 0001:00010bb0       __init_pointers            10011bb0 f   LIBCMTD:crt0dat.obj
 0001:00010c40       __initterm_e               10011c40 f   LIBCMTD:crt0dat.obj
 0001:00010c80       __lockexit                 10011c80 f   LIBCMTD:crt0dat.obj
 0001:00010c90       __unlockexit               10011c90 f   LIBCMTD:crt0dat.obj
 0001:00010e90       _exit                      10011e90 f   LIBCMTD:crt0dat.obj
 0001:00010eb0       __fprintf_l                10011eb0 f   LIBCMTD:fprintf.obj
 0001:00010ee0       __fprintf_p                10011ee0 f   LIBCMTD:fprintf.obj
 0001:00010f10       __fprintf_p_l              10011f10 f   LIBCMTD:fprintf.obj
 0001:00010f40       __fprintf_s_l              10011f40 f   LIBCMTD:fprintf.obj
 0001:00010f70       _fprintf                   10011f70 f   LIBCMTD:fprintf.obj
 0001:00011240       _fprintf_s                 10012240 f   LIBCMTD:fprintf.obj
 0001:00011270       ___initstdio               10012270 f   LIBCMTD:_file.obj
 0001:00011340       ___endstdio                10012340 f   LIBCMTD:_file.obj
 0001:00011380       ___iob_func                10012380 f   LIBCMTD:_file.obj
 0001:00011390       __lock_file                10012390 f   LIBCMTD:_file.obj
 0001:000113f0       __lock_file2               100123f0 f   LIBCMTD:_file.obj
 0001:00011430       __unlock_file              10012430 f   LIBCMTD:_file.obj
 0001:00011490       __unlock_file2             10012490 f   LIBCMTD:_file.obj
 0001:000114d0       __vscprintf                100124d0 f   LIBCMTD:vsprintf.obj
 0001:000114f0       __vscprintf_helper         100124f0 f   LIBCMTD:vsprintf.obj
 0001:000115e0       __vscprintf_l              100125e0 f   LIBCMTD:vsprintf.obj
 0001:00011600       __vscprintf_p              10012600 f   LIBCMTD:vsprintf.obj
 0001:00011620       __vscprintf_p_l            10012620 f   LIBCMTD:vsprintf.obj
 0001:00011640       __vsprintf_l               10012640 f   LIBCMTD:vsprintf.obj
 0001:00011800       _vsprintf                  10012800 f   LIBCMTD:vsprintf.obj
 0001:00011820       _malloc                    10012820 f   LIBCMTD:dbgmalloc.obj
 0001:00011850       ??0__non_rtti_object@std@@QAE@ABV01@@Z 10012850 f   LIBCMTD:stdexcpt.obj
 0001:00011880       ??0__non_rtti_object@std@@QAE@PBD@Z 10012880 f   LIBCMTD:stdexcpt.obj
 0001:000118b0       ??0bad_cast@std@@QAE@ABV01@@Z 100128b0 f   LIBCMTD:stdexcpt.obj
 0001:000118e0       ??0bad_cast@std@@QAE@PBD@Z 100128e0 f   LIBCMTD:stdexcpt.obj
 0001:00011910       ??0bad_typeid@std@@QAE@ABV01@@Z 10012910 f   LIBCMTD:stdexcpt.obj
 0001:00011940       ??0bad_typeid@std@@QAE@PBD@Z 10012940 f   LIBCMTD:stdexcpt.obj
 0001:00011970       ??0exception@std@@QAE@ABQBD@Z 10012970 f   LIBCMTD:stdexcpt.obj
 0001:000119b0       ??0exception@std@@QAE@ABQBDH@Z 100129b0 f   LIBCMTD:stdexcpt.obj
 0001:000119e0       ??0exception@std@@QAE@ABV01@@Z 100129e0 f   LIBCMTD:stdexcpt.obj
 0001:00011a20       ??0exception@std@@QAE@XZ   10012a20 f   LIBCMTD:stdexcpt.obj
 0001:00011a50       ??1__non_rtti_object@std@@UAE@XZ 10012a50 f   LIBCMTD:stdexcpt.obj
 0001:00011a70       ??1bad_cast@std@@UAE@XZ    10012a70 f   LIBCMTD:stdexcpt.obj
 0001:00011a90       ??1bad_typeid@std@@UAE@XZ  10012a90 f   LIBCMTD:stdexcpt.obj
 0001:00011ab0       ??1exception@std@@UAE@XZ   10012ab0 f   LIBCMTD:stdexcpt.obj
 0001:00011ad0       ??4exception@std@@QAEAAV01@ABV01@@Z 10012ad0 f   LIBCMTD:stdexcpt.obj
 0001:00011b20       ??_E__non_rtti_object@std@@UAEPAXI@Z 10012b20 f i LIBCMTD:stdexcpt.obj
 0001:00011b20       ??_G__non_rtti_object@std@@UAEPAXI@Z 10012b20 f i LIBCMTD:stdexcpt.obj
 0001:00011b50       ??_Ebad_cast@std@@UAEPAXI@Z 10012b50 f i LIBCMTD:stdexcpt.obj
 0001:00011b50       ??_Gbad_cast@std@@UAEPAXI@Z 10012b50 f i LIBCMTD:stdexcpt.obj
 0001:00011b80       ??_Ebad_typeid@std@@UAEPAXI@Z 10012b80 f i LIBCMTD:stdexcpt.obj
 0001:00011b80       ??_Gbad_typeid@std@@UAEPAXI@Z 10012b80 f i LIBCMTD:stdexcpt.obj
 0001:00011bb0       ??_Gexception@std@@UAEPAXI@Z 10012bb0 f i LIBCMTD:stdexcpt.obj
 0001:00011bb0       ??_Eexception@std@@UAEPAXI@Z 10012bb0 f i LIBCMTD:stdexcpt.obj
 0001:00011be0       ?_Copy_str@exception@std@@AAEXPBD@Z 10012be0 f   LIBCMTD:stdexcpt.obj
 0001:00011c40       ?_Tidy@exception@std@@AAEXXZ 10012c40 f   LIBCMTD:stdexcpt.obj
 0001:00011c80       ?what@exception@std@@UBEPBDXZ 10012c80 f   LIBCMTD:stdexcpt.obj
 0001:00011cb0       ?_query_new_handler@@YAP6AHI@ZXZ 10012cb0 f   LIBCMTD:handler.obj
 0001:00011cd0       ?_set_new_handler@@YAP6AHI@ZH@Z 10012cd0 f   LIBCMTD:handler.obj
 0001:00011d10       ?_set_new_handler@@YAP6AHI@ZP6AHI@Z@Z 10012d10 f   LIBCMTD:handler.obj
 0001:00011d50       __callnewh                 10012d50 f   LIBCMTD:handler.obj
 0001:00011d90       __initp_heap_handler       10012d90 f   LIBCMTD:handler.obj
 0001:00011da0       __CxxThrowException@8      10012da0 f   LIBCMTD:throw.obj
 0001:00011e40       __lock                     10012e40 f   LIBCMTD:mlock.obj
 0001:00011e80       __lockerr_exit             10012e80 f   LIBCMTD:mlock.obj
 0001:00011eb0       __mtdeletelocks            10012eb0 f   LIBCMTD:mlock.obj
 0001:00011f70       __mtinitlocknum            10012f70 f   LIBCMTD:mlock.obj
 0001:00012090       __mtinitlocks              10013090 f   LIBCMTD:mlock.obj
 0001:00012110       __unlock                   10013110 f   LIBCMTD:mlock.obj
 0001:00012130       ?_CrtDbgReportW@@YAHHPBGH00ZZ 10013130 f   LIBCMTD:dbgrptw.obj
 0001:00012180       __CrtDbgReportW            10013180 f   LIBCMTD:dbgrptw.obj
 0001:000121d0       __CrtDbgReportWV           100131d0 f i LIBCMTD:dbgrptw.obj
 0001:00012200       __CrtSetReportHookW2       10013200 f   LIBCMTD:dbgrptw.obj
 0001:00012550       ___crtMessageWindowW       10013550 f   LIBCMTD:dbgrptw.obj
 0001:00012a00       __invoke_watson_if_error   10013a00 f i LIBCMTD:dbgrptw.obj
 0001:00012a30       __invoke_watson_if_oneof   10013a30 f i LIBCMTD:dbgrptw.obj
 0001:00012a70       ??0_LocaleUpdate@@QAE@PAUlocaleinfo_struct@@@Z 10013a70 f i LIBCMTD:dbgheap.obj
 0001:00012b50       ??1_LocaleUpdate@@QAE@XZ   10013b50 f i LIBCMTD:dbgheap.obj
 0001:00012b80       ?GetLocaleT@_LocaleUpdate@@QAEPAUlocaleinfo_struct@@XZ 10013b80 f i LIBCMTD:dbgheap.obj
 0001:00013020       __CrtCheckMemory           10014020 f   LIBCMTD:dbgheap.obj
 0001:00013480       __CrtDoForAllClientObjects 10014480 f   LIBCMTD:dbgheap.obj
 0001:000135b0       __CrtDumpMemoryLeaks       100145b0 f   LIBCMTD:dbgheap.obj
 0001:00013650       __CrtGetAllocHook          10014650 f   LIBCMTD:dbgheap.obj
 0001:00013660       __CrtGetCheckCount         10014660 f   LIBCMTD:dbgheap.obj
 0001:00013670       __CrtGetDumpClient         10014670 f   LIBCMTD:dbgheap.obj
 0001:00013680       __CrtIsMemoryBlock         10014680 f   LIBCMTD:dbgheap.obj
 0001:000137f0       __CrtIsValidHeapPointer    100147f0 f   LIBCMTD:dbgheap.obj
 0001:00013830       __CrtIsValidPointer        10014830 f   LIBCMTD:dbgheap.obj
 0001:00013860       __CrtMemCheckpoint         10014860 f   LIBCMTD:dbgheap.obj
 0001:00013a90       __CrtMemDifference         10014a90 f   LIBCMTD:dbgheap.obj
 0001:00013cf0       __CrtMemDumpAllObjectsSince 10014cf0 f   LIBCMTD:dbgheap.obj
 0001:00013d30       __CrtMemDumpStatistics     10014d30 f   LIBCMTD:dbgheap.obj
 0001:00013e50       __CrtReportBlockType       10014e50 f   LIBCMTD:dbgheap.obj
 0001:00013e80       __CrtSetAllocHook          10014e80 f   LIBCMTD:dbgheap.obj
 0001:00013ea0       __CrtSetBreakAlloc         10014ea0 f   LIBCMTD:dbgheap.obj
 0001:00013ec0       __CrtSetCheckCount         10014ec0 f   LIBCMTD:dbgheap.obj
 0001:00013ee0       __CrtSetDbgBlockType       10014ee0 f   LIBCMTD:dbgheap.obj
 0001:00013fd0       __CrtSetDbgFlag            10014fd0 f   LIBCMTD:dbgheap.obj
 0001:00014120       __CrtSetDebugFillThreshold 10015120 f   LIBCMTD:dbgheap.obj
 0001:00014140       __CrtSetDumpClient         10015140 f   LIBCMTD:dbgheap.obj
 0001:00014160       __aligned_free             10015160 f   LIBCMTD:dbgheap.obj
 0001:00014180       __aligned_free_dbg         10015180 f   LIBCMTD:dbgheap.obj
 0001:00014230       __aligned_malloc           10015230 f   LIBCMTD:dbgheap.obj
 0001:00014250       __aligned_malloc_dbg       10015250 f   LIBCMTD:dbgheap.obj
 0001:00014270       __aligned_msize            10015270 f   LIBCMTD:dbgheap.obj
 0001:00014290       __aligned_msize_dbg        10015290 f   LIBCMTD:dbgheap.obj
 0001:000143b0       __aligned_offset_malloc    100153b0 f   LIBCMTD:dbgheap.obj
 0001:000143d0       __aligned_offset_malloc_dbg 100153d0 f   LIBCMTD:dbgheap.obj
 0001:000145b0       __aligned_offset_realloc   100155b0 f   LIBCMTD:dbgheap.obj
 0001:000145e0       __aligned_offset_realloc_dbg 100155e0 f   LIBCMTD:dbgheap.obj
 0001:000148f0       __aligned_offset_recalloc  100158f0 f   LIBCMTD:dbgheap.obj
 0001:00014920       __aligned_offset_recalloc_dbg 10015920 f   LIBCMTD:dbgheap.obj
 0001:000149e0       __aligned_realloc          100159e0 f   LIBCMTD:dbgheap.obj
 0001:00014a00       __aligned_realloc_dbg      10015a00 f   LIBCMTD:dbgheap.obj
 0001:00014a30       __aligned_recalloc         10015a30 f   LIBCMTD:dbgheap.obj
 0001:00014a60       __aligned_recalloc_dbg     10015a60 f   LIBCMTD:dbgheap.obj
 0001:00014a90       __calloc_dbg               10015a90 f   LIBCMTD:dbgheap.obj
 0001:00014af0       __calloc_dbg_impl          10015af0 f   LIBCMTD:dbgheap.obj
 0001:00014b70       __expand                   10015b70 f   LIBCMTD:dbgheap.obj
 0001:00014ba0       __expand_dbg               10015ba0 f   LIBCMTD:dbgheap.obj
 0001:00014cd0       __free_dbg                 10015cd0 f   LIBCMTD:dbgheap.obj
 0001:00014d50       __free_dbg_nolock          10015d50 f   LIBCMTD:dbgheap.obj
 0001:00015250       __free_nolock              10016250 f   LIBCMTD:dbgheap.obj
 0001:00015270       __heap_alloc               10016270 f   LIBCMTD:dbgheap.obj
 0001:00015290       __heap_alloc_dbg           10016290 f   LIBCMTD:dbgheap.obj
 0001:000156b0       __malloc_dbg               100166b0 f   LIBCMTD:dbgheap.obj
 0001:000156e0       __msize                    100166e0 f   LIBCMTD:dbgheap.obj
 0001:00015700       __msize_dbg                10016700 f   LIBCMTD:dbgheap.obj
 0001:00015910       __nh_malloc                10016910 f   LIBCMTD:dbgheap.obj
 0001:00015930       __nh_malloc_dbg            10016930 f   LIBCMTD:dbgheap.obj
 0001:00015bc0       __realloc_dbg              10016bc0 f   LIBCMTD:dbgheap.obj
 0001:00015c60       __recalloc                 10016c60 f   LIBCMTD:dbgheap.obj
 0001:00015c90       __recalloc_dbg             10016c90 f   LIBCMTD:dbgheap.obj
 0001:000163b0       __except_handler4          100173b0 f   LIBCMTD:chandler4.obj
 0001:00016570       __sse2_mathfcns_init       10017570 f   LIBCMTD:mathfcns.obj
 0001:00016590       __set_SSE2_enable          10017590 f   LIBCMTD:mathfcns.obj
 0001:000165e0       __CIcos_pentium4           100175e0 f   LIBCMTD:cos_pentium4.obj
 0001:000165f8       __cos_pentium4             100175f8     LIBCMTD:cos_pentium4.obj
 0001:00016790       __trandisp1                10017790 f   LIBCMTD:87disp.obj
 0001:000167f7       __trandisp2                100177f7 f   LIBCMTD:87disp.obj
 0001:00016883       __rttospopde               10017883     LIBCMTD:87disp.obj
 0001:00016888       __rttospop                 10017888     LIBCMTD:87disp.obj
 0001:0001688a       __rtnospop                 1001788a     LIBCMTD:87disp.obj
 0001:0001688c       __rttosnpop                1001788c     LIBCMTD:87disp.obj
 0001:0001688d       __rtnospopde               1001788d     LIBCMTD:87disp.obj
 0001:00016894       __rtzeropop                10017894     LIBCMTD:87disp.obj
 0001:00016896       __rtzeronpop               10017896     LIBCMTD:87disp.obj
 0001:0001689b       __rtonepop                 1001789b     LIBCMTD:87disp.obj
 0001:0001689d       __rtonenpop                1001789d     LIBCMTD:87disp.obj
 0001:000168a2       __tosnan1                  100178a2     LIBCMTD:87disp.obj
 0001:000168cd       __nosnan2                  100178cd     LIBCMTD:87disp.obj
 0001:000168cf       __tosnan2                  100178cf     LIBCMTD:87disp.obj
 0001:000168f7       __nan2                     100178f7     LIBCMTD:87disp.obj
 0001:00016936       __rtindfpop                10017936     LIBCMTD:87disp.obj
 0001:00016938       __rtindfnpop               10017938     LIBCMTD:87disp.obj
 0001:00016949       __rttosnpopde              10017949     LIBCMTD:87disp.obj
 0001:00016953       __rtchsifneg               10017953     LIBCMTD:87disp.obj
 0001:00016960       __twoToTOS                 10017960 f   LIBCMTD:common.obj
 0001:00016975       __load_CW                  10017975 f   LIBCMTD:common.obj
 0001:0001698c       __convertTOStoQNaN         1001798c f   LIBCMTD:common.obj
 0001:000169a5       __fload_withFB             100179a5 f   LIBCMTD:common.obj
 0001:000169e8       __checkTOS_withFB          100179e8 f   LIBCMTD:common.obj
 0001:000169fe       __fast_exit                100179fe f   LIBCMTD:common.obj
 0001:00016a0b       __math_exit                10017a0b f   LIBCMTD:common.obj
 0001:00016a35       __check_overflow_exit      10017a35 f   LIBCMTD:common.obj
 0001:00016a49       __check_range_exit         10017a49 f   LIBCMTD:common.obj
 0001:00016af0       __startTwoArgErrorHandling 10017af0 f   LIBCMTD:genexcep.obj
 0001:00016b07       __startOneArgErrorHandling 10017b07 f   LIBCMTD:genexcep.obj
 0001:00016b50       __CIsin_pentium4           10017b50 f   LIBCMTD:sin_pentium4.obj
 0001:00016b68       __sin_pentium4             10017b68     LIBCMTD:sin_pentium4.obj
 0001:00016e70       ?_RTC_AllocaFailure@@YAXPAXPAU_RTC_ALLOCA_NODE@@H@Z 10017e70 f   LIBCMTD:error.obj
 0001:00016ff0       ?_RTC_Failure@@YAXPAXH@Z   10017ff0 f   LIBCMTD:error.obj
 0001:00017040       ?_RTC_StackFailure@@YAXPAXPBD@Z 10018040 f   LIBCMTD:error.obj
 0001:000173c0       __RTC_UninitUse            100183c0 f   LIBCMTD:error.obj
 0001:000174b0       ?_RTC_GetErrorFunc@@YAP6AHHPBDH00ZZPBX@Z 100184b0 f   LIBCMTD:userapi.obj
 0001:000174c0       ?_RTC_GetErrorFuncW@@YAP6AHHPB_WH00ZZPBX@Z 100184c0 f   LIBCMTD:userapi.obj
 0001:000174d0       __RTC_GetErrDesc           100184d0 f   LIBCMTD:userapi.obj
 0001:000174f0       __RTC_NumErrors            100184f0 f   LIBCMTD:userapi.obj
 0001:00017500       __RTC_SetErrorFunc         10018500 f   LIBCMTD:userapi.obj
 0001:00017520       __RTC_SetErrorFuncW        10018520 f   LIBCMTD:userapi.obj
 0001:00017540       __RTC_SetErrorType         10018540 f   LIBCMTD:userapi.obj
 0001:00017570       __CRT_RTC_INIT             10018570 f   LIBCMTD:chkesp.obj
 0001:00017580       __CRT_RTC_INITW            10018580 f   LIBCMTD:chkesp.obj
 0001:00017590       __chkesp                   10018590 f   LIBCMTD:chkesp.obj
 0001:000175d0       __cfltcvt                  100185d0 f   LIBCMTD:cvt.obj
 0001:00017600       __cfltcvt_l                10018600 f   LIBCMTD:cvt.obj
 0001:000176c0       __cftoa                    100186c0 f   LIBCMTD:cvt.obj
 0001:000176f0       __cftoa_l                  100186f0 f   LIBCMTD:cvt.obj
 0001:00017f60       __cftoe                    10018f60 f   LIBCMTD:cvt.obj
 0001:000183a0       __cftoe_l                  100193a0 f   LIBCMTD:cvt.obj
 0001:000185d0       __cftof                    100195d0 f   LIBCMTD:cvt.obj
 0001:00018880       __cftof_l                  10019880 f   LIBCMTD:cvt.obj
 0001:00018a80       __cftog                    10019a80 f   LIBCMTD:cvt.obj
 0001:00018ab0       __cftog_l                  10019ab0 f   LIBCMTD:cvt.obj
 0001:00018d40       __cropzeros                10019d40 f   LIBCMTD:cvt.obj
 0001:00018d60       __cropzeros_l              10019d60 f   LIBCMTD:cvt.obj
 0001:00018e80       __fassign                  10019e80 f   LIBCMTD:cvt.obj
 0001:00018ea0       __fassign_l                10019ea0 f   LIBCMTD:cvt.obj
 0001:00018ef0       __forcdecpt                10019ef0 f   LIBCMTD:cvt.obj
 0001:00018f10       __forcdecpt_l              10019f10 f   LIBCMTD:cvt.obj
 0001:00018fe0       __positive                 10019fe0 f   LIBCMTD:cvt.obj
 0001:00019040       __setdefaultprecision      1001a040 f   LIBCMTD:fp8.obj
 0001:00019080       __initp_misc_cfltcvt_tab   1001a080 f   LIBCMTD:cmiscdat.obj
 0001:000190c0       __VEC_memset               1001a0c0 f   LIBCMTD:p4_memset.obj
 0001:00019190       ___isa_available_init      1001a190 f   LIBCMTD:cpu_disp.obj
 0001:00019440       ___get_flsindex            1001a440 f   LIBCMTD:tidtable.obj
 0001:00019450       ___threadhandle            1001a450 f   LIBCMTD:tidtable.obj
 0001:00019460       ___threadid                1001a460 f   LIBCMTD:tidtable.obj
 0001:00019470       __freefls@4                1001a470 f   LIBCMTD:tidtable.obj
 0001:00019670       __freeptd                  1001a670 f   LIBCMTD:tidtable.obj
 0001:000196b0       __getptd                   1001a6b0 f   LIBCMTD:tidtable.obj
 0001:000196e0       __getptd_noexit            1001a6e0 f   LIBCMTD:tidtable.obj
 0001:00019790       __initptd                  1001a790 f   LIBCMTD:tidtable.obj
 0001:000198d0       __mtinit                   1001a8d0 f   LIBCMTD:tidtable.obj
 0001:00019980       __mtterm                   1001a980 f   LIBCMTD:tidtable.obj
 0001:000199b0       __CallSettingFrame@12      1001a9b0 f   LIBCMTD:lowhelpr.obj
 0001:000199d7       __NLG_Return               1001a9d7     LIBCMTD:lowhelpr.obj
 0001:00019a00       ?_inconsistency@@YAXXZ     1001aa00 f   LIBCMTD:hooks.obj
 0001:00019a90       ?terminate@@YAXXZ          1001aa90 f   LIBCMTD:hooks.obj
 0001:00019b10       ?unexpected@@YAXXZ         1001ab10 f   LIBCMTD:hooks.obj
 0001:00019b40       __initp_eh_hooks           1001ab40 f   LIBCMTD:hooks.obj
 0001:00019b60       ___DestructExceptionObject 1001ab60 f   LIBCMTD:frame.obj
 0001:00019c80       ??0bad_exception@std@@QAE@ABV01@@Z 1001ac80 f i LIBCMTD:frame.obj
 0001:00019cb0       ??0bad_exception@std@@QAE@PBD@Z 1001acb0 f i LIBCMTD:frame.obj
 0001:00019ce0       ??1bad_exception@std@@UAE@XZ 1001ace0 f i LIBCMTD:frame.obj
 0001:00019d00       ??_Gbad_exception@std@@UAEPAXI@Z 1001ad00 f i LIBCMTD:frame.obj
 0001:00019d00       ??_Ebad_exception@std@@UAEPAXI@Z 1001ad00 f i LIBCMTD:frame.obj
 0001:0001a8f0       ?__uncaught_exception@@YA_NXZ 1001b8f0 f   LIBCMTD:frame.obj
 0001:0001a920       ?_is_exception_typeof@@YAHABVtype_info@@PAU_EXCEPTION_POINTERS@@@Z 1001b920 f   LIBCMTD:frame.obj
 0001:0001aa00       __SetWinRTOutOfMemoryExceptionCallback 1001ba00 f   LIBCMTD:frame.obj
 0001:0001aa10       ___AdjustPointer           1001ba10 f   LIBCMTD:frame.obj
 0001:0001aa60       ___BuildCatchObject        1001ba60 f   LIBCMTD:frame.obj
 0001:0001ab70       ___BuildCatchObjectHelper  1001bb70 f   LIBCMTD:frame.obj
 0001:0001ae70       ___CxxDetectRethrow        1001be70 f   LIBCMTD:frame.obj
 0001:0001aef0       ___CxxExceptionFilter      1001bef0 f   LIBCMTD:frame.obj
 0001:0001b0f0       ___CxxQueryExceptionSize   1001c0f0 f   LIBCMTD:frame.obj
 0001:0001b100       ___CxxRegisterExceptionObject 1001c100 f   LIBCMTD:frame.obj
 0001:0001b240       ___CxxUnregisterExceptionObject 1001c240 f   LIBCMTD:frame.obj
 0001:0001b3c0       ___FrameUnwindFilter       1001c3c0 f   LIBCMTD:frame.obj
 0001:0001b440       ___FrameUnwindToState      1001c440 f   LIBCMTD:frame.obj
 0001:0001b5c0       ___GetPlatformExceptionInfo 1001c5c0 f   LIBCMTD:frame.obj
 0001:0001b680       ___InternalCxxFrameHandler 1001c680 f   LIBCMTD:frame.obj
 0001:0001b7f0       ___TypeMatch               1001c7f0 f   LIBCMTD:frame.obj
 0001:0001b8d0       ?_invalid_parameter@@YAXPBG00II@Z 1001c8d0 f   LIBCMTD:invarg.obj
 0001:0001b900       ?_invoke_watson@@YAXPBG00II@Z 1001c900 f   LIBCMTD:invarg.obj
 0001:0001b920       __call_reportfault         1001c920 f   LIBCMTD:invarg.obj
 0001:0001ba80       __get_invalid_parameter_handler 1001ca80 f   LIBCMTD:invarg.obj
 0001:0001bab0       __initp_misc_invarg        1001cab0 f   LIBCMTD:invarg.obj
 0001:0001bac0       __invalid_parameter        1001cac0 f   LIBCMTD:invarg.obj
 0001:0001bb20       __invoke_watson            1001cb20 f   LIBCMTD:invarg.obj
 0001:0001bb60       __set_invalid_parameter_handler 1001cb60 f   LIBCMTD:invarg.obj
 0001:0001bba0       __flsbuf                   1001cba0 f   LIBCMTD:_flsbuf.obj
 0001:0001be70       __vsnprintf                1001ce70 f   LIBCMTD:vsnprint.obj
 0001:0001be90       __vsnprintf_l              1001ce90 f   LIBCMTD:vsnprint.obj
 0001:0001c070       __output_l                 1001d070 f   LIBCMTD:output.obj
 0001:0001d720       _get_int64_arg             1001e720 f i LIBCMTD:output.obj
 0001:0001d740       _get_int_arg               1001e740 f i LIBCMTD:output.obj
 0001:0001d760       _get_short_arg             1001e760 f i LIBCMTD:output.obj
 0001:0001d920       ___doserrno                1001e920 f   LIBCMTD:dosmap.obj
 0001:0001d950       __dosmaperr                1001e950 f   LIBCMTD:dosmap.obj
 0001:0001d980       __errno                    1001e980 f   LIBCMTD:dosmap.obj
 0001:0001d9b0       __get_doserrno             1001e9b0 f   LIBCMTD:dosmap.obj
 0001:0001da40       __get_errno                1001ea40 f   LIBCMTD:dosmap.obj
 0001:0001dad0       __get_errno_from_oserr     1001ead0 f   LIBCMTD:dosmap.obj
 0001:0001db50       __set_doserrno             1001eb50 f   LIBCMTD:dosmap.obj
 0001:0001db80       __set_errno                1001eb80 f   LIBCMTD:dosmap.obj
 0001:0001dbcc       __fFATN2                   1001ebcc     LIBCMTD:87triga.obj
 0001:0001dc1c       __rtpiby2                  1001ec1c     LIBCMTD:87triga.obj
 0001:0001dc60       __cintrindisp2             1001ec60 f   LIBCMTD:87cdisp.obj
 0001:0001dc9e       __cintrindisp1             1001ec9e f   LIBCMTD:87cdisp.obj
 0001:0001dcdb       __ctrandisp2               1001ecdb f   LIBCMTD:87cdisp.obj
 0001:0001de6a       __ctrandisp1               1001ee6a f   LIBCMTD:87cdisp.obj
 0001:0001de9d       __fload                    1001ee9d f   LIBCMTD:87cdisp.obj
 0001:0001dee0       __CIexp_pentium4           1001eee0 f   LIBCMTD:exp_pentium4.obj
 0001:0001def8       __exp_pentium4             1001eef8     LIBCMTD:exp_pentium4.obj
 0001:0001e1b1       __fFEXP                    1001f1b1     LIBCMTD:87tran.obj
 0001:0001e208       __rtinfpopse               1001f208     LIBCMTD:87tran.obj
 0001:0001e20a       __rtinfnpopse              1001f20a     LIBCMTD:87tran.obj
 0001:0001e21a       __fFLN                     1001f21a     LIBCMTD:87tran.obj
 0001:0001e2cf       __rtinfpop                 1001f2cf     LIBCMTD:87tran.obj
 0001:0001e2d1       __rtinfnpop                1001f2d1     LIBCMTD:87tran.obj
 0001:0001e2ee       __ffexpm1                  1001f2ee     LIBCMTD:87tran.obj
 0001:0001e3a0       __errcode                  1001f3a0 f   LIBCMTD:fpexcept.obj
 0001:0001e410       __except1                  1001f410 f   LIBCMTD:fpexcept.obj
 0001:0001e510       __except2                  1001f510 f   LIBCMTD:fpexcept.obj
 0001:0001e660       __handle_exc               1001f660 f   LIBCMTD:fpexcept.obj
 0001:0001e980       __handle_qnan1             1001f980 f   LIBCMTD:fpexcept.obj
 0001:0001e9e0       __handle_qnan2             1001f9e0 f   LIBCMTD:fpexcept.obj
 0001:0001ea50       __raise_exc                1001fa50 f   LIBCMTD:fpexcept.obj
 0001:0001ea80       __raise_exc_ex             1001fa80 f   LIBCMTD:fpexcept.obj
 0001:0001f000       __raise_excf               10020000 f   LIBCMTD:fpexcept.obj
 0001:0001f030       __set_errno_from_matherr   10020030 f   LIBCMTD:fpexcept.obj
 0001:0001f070       __umatherr                 10020070 f   LIBCMTD:fpexcept.obj
 0001:0001f110       __add_exp                  10020110 f   LIBCMTD:util.obj
 0001:0001f140       __decomp                   10020140 f   LIBCMTD:util.obj
 0001:0001f260       __get_exp                  10020260 f   LIBCMTD:util.obj
 0001:0001f290       __set_bexp                 10020290 f   LIBCMTD:util.obj
 0001:0001f2c0       __set_exp                  100202c0 f   LIBCMTD:util.obj
 0001:0001f300       __sptype                   10020300 f   LIBCMTD:util.obj
 0001:0001f380       ___clrfp_sse2              10020380 f   LIBCMTD:fpctrl.obj
 0001:0001f3c0       ___ctrlfp_sse2             100203c0 f   LIBCMTD:fpctrl.obj
 0001:0001f420       ___fclrf_sse2              10020420 f   LIBCMTD:fpctrl.obj
 0001:0001f440       ___get_fpsr_sse2           10020440 f   LIBCMTD:fpctrl.obj
 0001:0001f470       ___set_fpsr_sse2           10020470 f   LIBCMTD:fpctrl.obj
 0001:0001f550       ___set_statfp_sse2         10020550 f   LIBCMTD:fpctrl.obj
 0001:0001f580       ___statfp_sse2             10020580 f   LIBCMTD:fpctrl.obj
 0001:0001f5b0       __clrfp                    100205b0 f   LIBCMTD:fpctrl.obj
 0001:0001f5d0       __ctrlfp                   100205d0 f   LIBCMTD:fpctrl.obj
 0001:0001f600       __set_statfp               10020600 f   LIBCMTD:fpctrl.obj
 0001:0001f670       __statfp                   10020670 f   LIBCMTD:fpctrl.obj
 0001:0001f680       __CIlog_pentium4           10020680 f   LIBCMTD:log_pentium4.obj
 0001:0001f698       __log_pentium4             10020698     LIBCMTD:log_pentium4.obj
 0001:0001f8f0       ?_Name_base@type_info@@CAPBDPBV1@PAU__type_info_node@@@Z 100208f0 f   LIBCMTD:typname.obj
 0001:0001faa0       ?_Name_base_internal@type_info@@CAPBDPBV1@PAU__type_info_node@@@Z 10020aa0 f   LIBCMTD:typname.obj
 0001:0001fc60       ?_Type_info_dtor@type_info@@CAXPAV1@@Z 10020c60 f   LIBCMTD:typname.obj
 0001:0001fd70       ?_Type_info_dtor_internal@type_info@@CAXPAV1@@Z 10020d70 f   LIBCMTD:typname.obj
 0001:0001fe80       ___clean_type_info_names_internal 10020e80 f   LIBCMTD:typname.obj
 0001:0001ff30       ___unDNameHelper           10020f30 f   LIBCMTD:typname.obj
 0001:0001ff70       __CrtDefaultAllocHook      10020f70 f   LIBCMTD:dbghook.obj
 0001:0001ff80       __crt_debugger_hook        10020f80 f   LIBCMTD:dbghook.obj
 0001:0001ffe0       ___crtCloseThreadpoolTimer 10020fe0 f   LIBCMTD:winapisupp.obj
 0001:00020010       ___crtCloseThreadpoolWait  10021010 f   LIBCMTD:winapisupp.obj
 0001:00020040       ___crtCreateEventExW       10021040 f   LIBCMTD:winapisupp.obj
 0001:000200a0       ___crtCreateSemaphoreExW   100210a0 f   LIBCMTD:winapisupp.obj
 0001:00020100       ___crtCreateSymbolicLinkW  10021100 f   LIBCMTD:winapisupp.obj
 0001:00020140       ___crtCreateThreadpoolTimer 10021140 f   LIBCMTD:winapisupp.obj
 0001:00020180       ___crtCreateThreadpoolWait 10021180 f   LIBCMTD:winapisupp.obj
 0001:000201c0       ___crtFlsAlloc             100211c0 f   LIBCMTD:winapisupp.obj
 0001:000201f0       ___crtFlsFree              100211f0 f   LIBCMTD:winapisupp.obj
 0001:00020230       ___crtFlsGetValue          10021230 f   LIBCMTD:winapisupp.obj
 0001:00020270       ___crtFlsSetValue          10021270 f   LIBCMTD:winapisupp.obj
 0001:000202b0       ___crtFlushProcessWriteBuffers 100212b0 f   LIBCMTD:winapisupp.obj
 0001:000202e0       ___crtFreeLibraryWhenCallbackReturns 100212e0 f   LIBCMTD:winapisupp.obj
 0001:00020310       ___crtGetCurrentProcessorNumber 10021310 f   LIBCMTD:winapisupp.obj
 0001:00020340       ___crtGetFileInformationByHandleEx 10021340 f   LIBCMTD:winapisupp.obj
 0001:00020380       ___crtGetLogicalProcessorInformation 10021380 f   LIBCMTD:winapisupp.obj
 0001:000203c0       ___crtGetShowWindowMode    100213c0 f   LIBCMTD:winapisupp.obj
 0001:000203f0       ___crtGetTickCount64       100213f0 f   LIBCMTD:winapisupp.obj
 0001:00020420       ___crtInitializeCriticalSectionEx 10021420 f   LIBCMTD:winapisupp.obj
 0001:00020470       ___crtIsPackagedApp        10021470 f   LIBCMTD:winapisupp.obj
 0001:000204b0       ___crtLoadWinApiPointers   100214b0 f   LIBCMTD:winapisupp.obj
 0001:00020950       ___crtSetFileInformationByHandle 10021950 f   LIBCMTD:winapisupp.obj
 0001:00020990       ___crtSetThreadStackGuarantee 10021990 f   LIBCMTD:winapisupp.obj
 0001:000209c0       ___crtSetThreadpoolTimer   100219c0 f   LIBCMTD:winapisupp.obj
 0001:00020a00       ___crtSetThreadpoolWait    10021a00 f   LIBCMTD:winapisupp.obj
 0001:00020a30       ___crtSetUnhandledExceptionFilter 10021a30 f   LIBCMTD:winapisupp.obj
 0001:00020a40       ___crtSleep                10021a40 f   LIBCMTD:winapisupp.obj
 0001:00020a50       ___crtTerminateProcess     10021a50 f   LIBCMTD:winapisupp.obj
 0001:00020a70       ___crtUnhandledException   10021a70 f   LIBCMTD:winapisupp.obj
 0001:00020a90       ___crtWaitForThreadpoolTimerCallbacks 10021a90 f   LIBCMTD:winapisupp.obj
 0001:00020ac0       __fileno                   10021ac0 f   LIBCMTD:fileno.obj
 0001:00020b50       __close                    10021b50 f   LIBCMTD:close.obj
 0001:00020d90       __close_nolock             10021d90 f   LIBCMTD:close.obj
 0001:00020e70       __freebuf                  10021e70 f   LIBCMTD:_freebuf.obj
 0001:00020f00       __fflush_nolock            10021f00 f   LIBCMTD:fflush.obj
 0001:00020f70       __flush                    10021f70 f   LIBCMTD:fflush.obj
 0001:00021030       __flushall                 10022030 f   LIBCMTD:fflush.obj
 0001:00021040       _fflush                    10022040 f   LIBCMTD:fflush.obj
 0001:00021280       __getstream                10022280 f   LIBCMTD:stream.obj
 0001:000214b0       __openfile                 100224b0 f   LIBCMTD:_open.obj
 0001:00021cb0       __local_unwind4            10022cb0 f   LIBCMTD:exsup4.obj
 0001:00021d86       __seh_longjmp_unwind4@4    10022d86 f   LIBCMTD:exsup4.obj
 0001:00021da2       @_EH4_CallFilterFunc@8     10022da2 f   LIBCMTD:exsup4.obj
 0001:00021db9       @_EH4_TransferToHandler@8  10022db9 f   LIBCMTD:exsup4.obj
 0001:00021dd2       @_EH4_GlobalUnwind2@8      10022dd2 f   LIBCMTD:exsup4.obj
 0001:00021deb       @_EH4_LocalUnwind@16       10022deb f   LIBCMTD:exsup4.obj
 0001:00021e10       __filbuf                   10022e10 f   LIBCMTD:_filbuf.obj
 0001:00022080       _memcpy_s                  10023080 f   LIBCMTD:memcpy_s.obj
 0001:00022250       __read                     10023250 f   LIBCMTD:read.obj
 0001:00022520       __read_nolock              10023520 f   LIBCMTD:read.obj
 0001:00023760       _memcpy                    10024760 f   LIBCMTD:memcpy.obj
 0001:00023db0       __write                    10024db0 f   LIBCMTD:write.obj
 0001:00024000       __write_nolock             10025000 f   LIBCMTD:write.obj
 0001:00024db0       __FF_MSGBANNER             10025db0 f   LIBCMTD:crt0msg.obj
 0001:00024e00       __GET_RTERRMSG             10025e00 f   LIBCMTD:crt0msg.obj
 0001:00024e40       __NMSG_WRITE               10025e40 f   LIBCMTD:crt0msg.obj
 0001:00025200       __set_abort_behavior       10026200 f   LIBCMTD:abort.obj
 0001:00025230       _abort                     10026230 f   LIBCMTD:abort.obj
 0001:000252a0       ___getlocaleinfo           100262a0 f   LIBCMTD:inithelp.obj
 0001:000255a0       __initp_misc_purevirt      100265a0 f   LIBCMTD:inithelp.obj
 0001:000255b0       ___libm_error_support      100265b0 f   LIBCMTD:libm_error.obj
 0001:00026180       ___libm_setusermatherr     10027180 f   LIBCMTD:libm_error.obj
 0001:000261b0       __ceil_default             100271b0 f   LIBCMTD:ceil.obj
 0001:000262f0       __XcptFilter               100272f0 f   LIBCMTD:winxfltr.obj
 0001:000264f0       ___CppXcptFilter           100274f0 f   LIBCMTD:winxfltr.obj
 0001:00026580       __get_heap_handle          10027580 f   LIBCMTD:heapinit.obj
 0001:000265c0       __heap_init                100275c0 f   LIBCMTD:heapinit.obj
 0001:000265f0       __heap_term                100275f0 f   LIBCMTD:heapinit.obj
 0001:00026600       __ioinit                   10027600 f   LIBCMTD:ioinit.obj
 0001:00026ae0       __ioterm                   10027ae0 f   LIBCMTD:ioinit.obj
 0001:00026b80       __set_pgmptr               10027b80 f i LIBCMTD:stdargv.obj
 0001:00026b90       __setargv                  10027b90 f   LIBCMTD:stdargv.obj
 0001:00027060       __setenvp                  10028060 f   LIBCMTD:stdenvp.obj
 0001:00027200       ___security_init_cookie    10028200 f   LIBCMTD:gs_support.obj
 0001:000272e0       _DllMain@12                100282e0 f   LIBCMTD:dllmain.obj
 0001:000272f0       ___crtGetEnvironmentStringsA 100282f0 f   LIBCMTD:a_env.obj
 0001:000273f0       __RTC_Initialize           100283f0 f   LIBCMTD:initsect.obj
 0001:00027420       __RTC_Terminate            10028420 f   LIBCMTD:initsect.obj
 0001:00027450       __CIasin_pentium4          10028450 f   LIBCMTD:asin_pentium4.obj
 0001:00027468       __asin_pentium4            10028468     LIBCMTD:asin_pentium4.obj
 0001:000279d0       __CIacos_pentium4          100289d0 f   LIBCMTD:acos_pentium4.obj
 0001:000279e8       __acos_pentium4            100289e8     LIBCMTD:acos_pentium4.obj
 0001:00027f30       __CItan_pentium4           10028f30 f   LIBCMTD:tan_pentium4.obj
 0001:00027f48       __tan_pentium4             10028f48     LIBCMTD:tan_pentium4.obj
 0001:00028190       __FindPESection            10029190 f   LIBCMTD:pesect.obj
 0001:00028210       __IsNonwritableInCurrentImage 10029210 f   LIBCMTD:pesect.obj
 0001:00028340       __ValidateImageBase        10029340 f   LIBCMTD:pesect.obj
 0001:000283a0       ___onexitinit              100293a0 f   LIBCMTD:onexit.obj
 0001:00028400       __onexit                   10029400 f   LIBCMTD:onexit.obj
 0001:000285c0       _atexit                    100295c0 f   LIBCMTD:onexit.obj
 0001:000285f0       ___fpecode                 100295f0 f   LIBCMTD:winsig.obj
 0001:00028600       ___get_sigabrt             10029600 f   LIBCMTD:winsig.obj
 0001:00028620       ___pxcptinfoptrs           10029620 f   LIBCMTD:winsig.obj
 0001:00028630       __initp_misc_winsig        10029630 f   LIBCMTD:winsig.obj
 0001:00028760       _raise                     10029760 f   LIBCMTD:winsig.obj
 0001:00028af0       _signal                    10029af0 f   LIBCMTD:winsig.obj
 0001:00028ea0       __initp_misc_rand_s        10029ea0 f   LIBCMTD:rand_s.obj
 0001:00028eb0       _rand_s                    10029eb0 f   LIBCMTD:rand_s.obj
 0001:00029110       ___initmbctable            1002a110 f   LIBCMTD:mbctype.obj
 0001:00029730       ___updatetmbcinfo          1002a730 f   LIBCMTD:mbctype.obj
 0001:00029850       __getmbcp                  1002a850 f   LIBCMTD:mbctype.obj
 0001:000298c0       __setmbcp                  1002a8c0 f   LIBCMTD:mbctype.obj
 0001:00029b60       __setmbcp_nolock           1002ab60 f   LIBCMTD:mbctype.obj
 0001:00029ee0       __ftbuf                    1002aee0 f   LIBCMTD:_sftbuf.obj
 0001:00029f70       __stbuf                    1002af70 f   LIBCMTD:_sftbuf.obj
 0001:0002a0e0       __vfprintf_l               1002b0e0 f   LIBCMTD:vfprintf.obj
 0001:0002a110       __vfprintf_p               1002b110 f   LIBCMTD:vfprintf.obj
 0001:0002a130       __vfprintf_p_l             1002b130 f   LIBCMTD:vfprintf.obj
 0001:0002a160       __vfprintf_s_l             1002b160 f   LIBCMTD:vfprintf.obj
 0001:0002a190       _vfprintf                  1002b190 f   LIBCMTD:vfprintf.obj
 0001:0002a1b0       _vfprintf_helper           1002b1b0 f   LIBCMTD:vfprintf.obj
 0001:0002a480       _vfprintf_s                1002b480 f   LIBCMTD:vfprintf.obj
 0001:0002a4a0       __fcloseall                1002b4a0 f   LIBCMTD:closeall.obj
 0001:0002a5d0       __output_p_l               1002b5d0 f   LIBCMTD:outputp.obj
 0001:0002e3d0       __validate_param_reuseA    1002f3d0 f   LIBCMTD:outputp.obj
 0001:0002e6c0       _get_crtdouble_arg         1002f6c0 f i LIBCMTD:outputp.obj
 0001:0002e880       _free                      1002f880 f   LIBCMTD:dbgfree.obj
 0001:0002e8a0       _strcpy_s                  1002f8a0 f   LIBCMTD:strcpy_s.obj
 0001:0002eba0       _strlen                    1002fba0 f   LIBCMTD:strlen.obj
 0001:0002ec30       _wcscpy_s                  1002fc30 f   LIBCMTD:wcscpy_s.obj
 0001:0002ef40       _wcslen                    1002ff40 f   LIBCMTD:wcslen.obj
 0001:0002ef80       ___swprintf_l              1002ff80 f   LIBCMTD:swprintf.obj
 0001:0002efb0       __scwprintf                1002ffb0 f   LIBCMTD:swprintf.obj
 0001:0002efd0       __scwprintf_l              1002ffd0 f   LIBCMTD:swprintf.obj
 0001:0002f000       __scwprintf_p              10030000 f   LIBCMTD:swprintf.obj
 0001:0002f020       __scwprintf_p_l            10030020 f   LIBCMTD:swprintf.obj
 0001:0002f050       __snwprintf_s              10030050 f   LIBCMTD:swprintf.obj
 0001:0002f080       __snwprintf_s_l            10030080 f   LIBCMTD:swprintf.obj
 0001:0002f0b0       __swprintf                 100300b0 f   LIBCMTD:swprintf.obj
 0001:0002f2d0       __swprintf_p               100302d0 f   LIBCMTD:swprintf.obj
 0001:0002f300       __swprintf_p_l             10030300 f   LIBCMTD:swprintf.obj
 0001:0002f330       __swprintf_s_l             10030330 f   LIBCMTD:swprintf.obj
 0001:0002f360       _swprintf_s                10030360 f   LIBCMTD:swprintf.obj
 0001:0002f390       ___crtMessageBoxW          10030390 f   LIBCMTD:crtmboxw.obj
 0001:0002f6a0       ___crtMessageBoxWaitThreadW@4 100306a0 f   LIBCMTD:crtmboxw.obj
 0001:0002f6e0       __CrtDbgBreak              100306e0 f   LIBCMTD:dbgrptt.obj
 0001:0002f6f0       __CrtGetReportHook         100306f0 f   LIBCMTD:dbgrptt.obj
 0001:0002f700       __CrtSetReportFile         10030700 f   LIBCMTD:dbgrptt.obj
 0001:0002f800       __CrtSetReportHook         10030800 f   LIBCMTD:dbgrptt.obj
 0001:0002f820       __CrtSetReportMode         10030820 f   LIBCMTD:dbgrptt.obj
 0001:0002f960       __VCrtDbgReportA           10030960 f   LIBCMTD:dbgrptt.obj
 0001:000301d0       __VCrtDbgReportW           100311d0 f   LIBCMTD:dbgrptt.obj
 0001:00030b50       __chkstk                   10031b50 f   LIBCMTD:chkstk.obj
 0001:00030b50       __alloca_probe             10031b50 f   LIBCMTD:chkstk.obj
 0001:00030b80       ___addlocaleref            10031b80 f   LIBCMTD:localref.obj
 0001:00030ca0       ___freetlocinfo            10031ca0 f   LIBCMTD:localref.obj
 0001:00030f90       ___removelocaleref         10031f90 f   LIBCMTD:localref.obj
 0001:000310b0       ___updatetlocinfo          100320b0 f   LIBCMTD:localref.obj
 0001:00031180       __updatetlocinfoEx_nolock  10032180 f   LIBCMTD:localref.obj
 0001:00031200       __chvalidator              10032200 f   LIBCMTD:isctype.obj
 0001:00031250       __chvalidator_l            10032250 f   LIBCMTD:isctype.obj
 0001:00031310       __isctype                  10032310 f   LIBCMTD:isctype.obj
 0001:00031350       __isctype_l                10032350 f   LIBCMTD:isctype.obj
 0001:000314a0       __free_base                100324a0 f   LIBCMTD:free.obj
 0001:000314f0       __realloc_base             100324f0 f   LIBCMTD:realloc.obj
 0001:000315f0       __expand_base              100325f0 f   LIBCMTD:expand.obj
 0001:00031760       __CrtDbgReport             10032760 f   LIBCMTD:dbgrpt.obj
 0001:000317b0       __CrtDbgReportV            100327b0 f i LIBCMTD:dbgrpt.obj
 0001:000317e0       __CrtSetReportHook2        100327e0 f   LIBCMTD:dbgrpt.obj
 0001:00031b30       ___crtMessageWindowA       10032b30 f   LIBCMTD:dbgrpt.obj
 0001:00031fe0       __heapchk                  10032fe0 f   LIBCMTD:heapchk.obj
 0001:00032010       __heapset                  10033010 f   LIBCMTD:heapchk.obj
 0001:00032020       __scprintf                 10033020 f   LIBCMTD:sprintf.obj
 0001:00032040       __scprintf_l               10033040 f   LIBCMTD:sprintf.obj
 0001:00032070       __scprintf_p               10033070 f   LIBCMTD:sprintf.obj
 0001:00032090       __scprintf_p_l             10033090 f   LIBCMTD:sprintf.obj
 0001:000320c0       __snprintf_s               100330c0 f   LIBCMTD:sprintf.obj
 0001:000320f0       __snprintf_s_l             100330f0 f   LIBCMTD:sprintf.obj
 0001:00032120       __sprintf_l                10033120 f   LIBCMTD:sprintf.obj
 0001:00032150       __sprintf_p                10033150 f   LIBCMTD:sprintf.obj
 0001:00032180       __sprintf_p_l              10033180 f   LIBCMTD:sprintf.obj
 0001:000321b0       __sprintf_s_l              100331b0 f   LIBCMTD:sprintf.obj
 0001:000321e0       _sprintf                   100331e0 f   LIBCMTD:sprintf.obj
 0001:000323a0       _sprintf_s                 100333a0 f   LIBCMTD:sprintf.obj
 0001:000323d0       __heap_alloc_base          100333d0 f i LIBCMTD:malloc.obj
 0001:00032430       __malloc_base              10033430 f   LIBCMTD:malloc.obj
 0001:000324c0       __87except                 100334c0 f   LIBCMTD:87except.obj
 0001:00032b00       ?_RTC_GetSrcLine@@YAHPAEPA_WKPAH1K@Z 10033b00 f   LIBCMTD:pdblkup.obj
 0001:00032db0       ___isascii                 10033db0 f i LIBCMTD:_ctype.obj
 0001:00032de0       ___iscsym                  10033de0 f i LIBCMTD:_ctype.obj
 0001:00032e20       ___iscsymf                 10033e20 f i LIBCMTD:_ctype.obj
 0001:00032e60       ___toascii                 10033e60 f i LIBCMTD:_ctype.obj
 0001:00032e70       __isalnum_l                10033e70 f i LIBCMTD:_ctype.obj
 0001:00032ef0       __isalpha_l                10033ef0 f i LIBCMTD:_ctype.obj
 0001:00032f70       __isblank_l                10033f70 f i LIBCMTD:_ctype.obj
 0001:00033000       __iscntrl_l                10034000 f i LIBCMTD:_ctype.obj
 0001:00033080       __iscsym_l                 10034080 f i LIBCMTD:_ctype.obj
 0001:000330c0       __iscsymf_l                100340c0 f i LIBCMTD:_ctype.obj
 0001:00033100       __isdigit_l                10034100 f i LIBCMTD:_ctype.obj
 0001:00033180       __isgraph_l                10034180 f i LIBCMTD:_ctype.obj
 0001:00033200       __islower_l                10034200 f i LIBCMTD:_ctype.obj
 0001:00033280       __isprint_l                10034280 f i LIBCMTD:_ctype.obj
 0001:00033300       __ispunct_l                10034300 f i LIBCMTD:_ctype.obj
 0001:00033380       __isspace_l                10034380 f i LIBCMTD:_ctype.obj
 0001:00033400       __isupper_l                10034400 f i LIBCMTD:_ctype.obj
 0001:00033480       __isxdigit_l               10034480 f i LIBCMTD:_ctype.obj
 0001:00033500       _isalnum                   10034500 f i LIBCMTD:_ctype.obj
 0001:00033540       _isalpha                   10034540 f i LIBCMTD:_ctype.obj
 0001:00033580       _isblank                   10034580 f i LIBCMTD:_ctype.obj
 0001:000335d0       _iscntrl                   100345d0 f i LIBCMTD:_ctype.obj
 0001:00033600       _isdigit                   10034600 f i LIBCMTD:_ctype.obj
 0001:00033630       _isgraph                   10034630 f i LIBCMTD:_ctype.obj
 0001:00033670       _islower                   10034670 f i LIBCMTD:_ctype.obj
 0001:000336a0       _isprint                   100346a0 f i LIBCMTD:_ctype.obj
 0001:000336e0       _ispunct                   100346e0 f i LIBCMTD:_ctype.obj
 0001:00033710       _isspace                   10034710 f i LIBCMTD:_ctype.obj
 0001:00033740       _isupper                   10034740 f i LIBCMTD:_ctype.obj
 0001:00033770       _isxdigit                  10034770 f i LIBCMTD:_ctype.obj
 0001:000337b0       __tolower                  100347b0 f   LIBCMTD:tolower.obj
 0001:000337c0       __tolower_l                100347c0 f   LIBCMTD:tolower.obj
 0001:00033a00       _tolower                   10034a00 f   LIBCMTD:tolower.obj
 0001:00033a50       _memmove                   10034a50 f   LIBCMTD:memmove.obj
 0001:000340a0       __fptostr                  100350a0 f   LIBCMTD:_fptostr.obj
 0001:000343c0       ___crt_atoflt_l            100353c0 f   LIBCMTD:atodbl.obj
 0001:000344d0       __atodbl                   100354d0 f   LIBCMTD:atodbl.obj
 0001:000344f0       __atodbl_l                 100354f0 f   LIBCMTD:atodbl.obj
 0001:000345f0       __atoflt                   100355f0 f   LIBCMTD:atodbl.obj
 0001:00034610       __atoflt_l                 10035610 f   LIBCMTD:atodbl.obj
 0001:00034630       __atoldbl                  10035630 f   LIBCMTD:atodbl.obj
 0001:00034650       __atoldbl_l                10035650 f   LIBCMTD:atodbl.obj
 0001:00034750       ___dtold                   10035750 f   LIBCMTD:cfout.obj
 0001:000348b0       __fltout2                  100358b0 f   LIBCMTD:cfout.obj
 0001:00034960       __alldiv                   10035960 f   LIBCMTD:lldiv.obj
 0001:00034a10       __allrem                   10035a10 f   LIBCMTD:llrem.obj
 0001:00034ad0       __allshl                   10035ad0 f   LIBCMTD:llshl.obj
 0001:00034af0       __aullshr                  10035af0 f   LIBCMTD:ullshr.obj
 0001:00034b10       __get_output_format        10035b10 f   LIBCMTD:outputformat.obj
 0001:00034b20       __set_output_format        10035b20 f   LIBCMTD:outputformat.obj
 0001:00034bc0       __controlfp_s              10035bc0 f   LIBCMTD:contrlfp.obj
 0001:00034cb0       __fptrap                   10035cb0 f   LIBCMTD:crt0fp.obj
 0001:00034cc0       __global_unwind2           10035cc0 f   LIBCMTD:exsup.obj
 0001:00034d25       __local_unwind2            10035d25 f   LIBCMTD:exsup.obj
 0001:00034da9       __abnormal_termination     10035da9 f   LIBCMTD:exsup.obj
 0001:00034dcc       __NLG_Notify1              10035dcc f   LIBCMTD:exsup.obj
 0001:00034dd5       __NLG_Notify               10035dd5 f   LIBCMTD:exsup.obj
 0001:00034dec       __NLG_Dispatch2            10035dec     LIBCMTD:exsup.obj
 0001:00034dec       __NLG_Dispatch             10035dec     LIBCMTD:exsup.obj
 0001:00034df4       __NLG_Call                 10035df4 f   LIBCMTD:exsup.obj
 0001:00034df6       __NLG_Return2              10035df6     LIBCMTD:exsup.obj
 0001:00034e00       ?_ValidateExecute@@YAHP6GHXZ@Z 10035e00 f   LIBCMTD:validate.obj
 0001:00034e20       ?_ValidateRead@@YAHPBXI@Z  10035e20 f   LIBCMTD:validate.obj
 0001:00034e40       ?_ValidateWrite@@YAHPAXI@Z 10035e40 f   LIBCMTD:validate.obj
 0001:00034e60       __isatty                   10035e60 f   LIBCMTD:isatty.obj
 0001:00034f20       __lseeki64                 10035f20 f   LIBCMTD:lseeki64.obj
 0001:00035190       __lseeki64_nolock          10036190 f   LIBCMTD:lseeki64.obj
 0001:00035260       __getbuf                   10036260 f   LIBCMTD:_getbuf.obj
 0001:00035330       ___iswcsym                 10036330 f i LIBCMTD:_wctype.obj
 0001:00035370       ___iswcsymf                10036370 f i LIBCMTD:_wctype.obj
 0001:000353b0       __isleadbyte_l             100363b0 f i LIBCMTD:_wctype.obj
 0001:00035400       __iswalnum_l               10036400 f i LIBCMTD:_wctype.obj
 0001:00035420       __iswalpha_l               10036420 f i LIBCMTD:_wctype.obj
 0001:00035440       __iswblank_l               10036440 f i LIBCMTD:_wctype.obj
 0001:00035470       __iswcntrl_l               10036470 f i LIBCMTD:_wctype.obj
 0001:00035490       __iswcsym_l                10036490 f i LIBCMTD:_wctype.obj
 0001:000354d0       __iswcsymf_l               100364d0 f i LIBCMTD:_wctype.obj
 0001:00035510       __iswdigit_l               10036510 f i LIBCMTD:_wctype.obj
 0001:00035530       __iswgraph_l               10036530 f i LIBCMTD:_wctype.obj
 0001:00035550       __iswlower_l               10036550 f i LIBCMTD:_wctype.obj
 0001:00035570       __iswprint_l               10036570 f i LIBCMTD:_wctype.obj
 0001:00035590       __iswpunct_l               10036590 f i LIBCMTD:_wctype.obj
 0001:000355b0       __iswspace_l               100365b0 f i LIBCMTD:_wctype.obj
 0001:000355d0       __iswupper_l               100365d0 f i LIBCMTD:_wctype.obj
 0001:000355f0       __iswxdigit_l              100365f0 f i LIBCMTD:_wctype.obj
 0001:00035610       _isleadbyte                10036610 f i LIBCMTD:_wctype.obj
 0001:00035630       _iswalnum                  10036630 f i LIBCMTD:_wctype.obj
 0001:00035650       _iswalpha                  10036650 f i LIBCMTD:_wctype.obj
 0001:00035670       _iswascii                  10036670 f i LIBCMTD:_wctype.obj
 0001:000356a0       _iswblank                  100366a0 f i LIBCMTD:_wctype.obj
 0001:000356d0       _iswcntrl                  100366d0 f i LIBCMTD:_wctype.obj
 0001:000356f0       _iswdigit                  100366f0 f i LIBCMTD:_wctype.obj
 0001:00035710       _iswgraph                  10036710 f i LIBCMTD:_wctype.obj
 0001:00035730       _iswlower                  10036730 f i LIBCMTD:_wctype.obj
 0001:00035750       _iswprint                  10036750 f i LIBCMTD:_wctype.obj
 0001:00035770       _iswpunct                  10036770 f i LIBCMTD:_wctype.obj
 0001:00035790       _iswspace                  10036790 f i LIBCMTD:_wctype.obj
 0001:000357b0       _iswupper                  100367b0 f i LIBCMTD:_wctype.obj
 0001:000357d0       _iswxdigit                 100367d0 f i LIBCMTD:_wctype.obj
 0001:000357f0       __get_printf_count_output  100367f0 f   LIBCMTD:printf.obj
 0001:00035820       __printf_l                 10036820 f   LIBCMTD:printf.obj
 0001:00035850       __printf_p                 10036850 f   LIBCMTD:printf.obj
 0001:00035870       __printf_p_l               10036870 f   LIBCMTD:printf.obj
 0001:000358a0       __printf_s_l               100368a0 f   LIBCMTD:printf.obj
 0001:000358d0       __set_printf_count_output  100368d0 f   LIBCMTD:printf.obj
 0001:00035930       _printf                    10036930 f   LIBCMTD:printf.obj
 0001:00035ab0       _printf_s                  10036ab0 f   LIBCMTD:printf.obj
 0001:00035ad0       __wctomb_l                 10036ad0 f   LIBCMTD:wctomb.obj
 0001:00035b50       __wctomb_s_l               10036b50 f   LIBCMTD:wctomb.obj
 0001:00035ea0       _wctomb                    10036ea0 f   LIBCMTD:wctomb.obj
 0001:00035ef0       _wctomb_s                  10036ef0 f   LIBCMTD:wctomb.obj
 0001:00035f10       __aulldiv                  10036f10 f   LIBCMTD:ulldiv.obj
 0001:00035f80       __aullrem                  10036f80 f   LIBCMTD:ullrem.obj
 0001:00036000       __d_inttype                10037000 f   LIBCMTD:powhlp.obj
 0001:00036090       __powhlp                   10037090 f   LIBCMTD:powhlp.obj
 0001:00036240       __matherr                  10037240 f   LIBCMTD:matherr.obj
 0001:00036250       ??0Block@_HeapManager@@QAE@XZ 10037250 f i LIBCMTD:undname.obj
 0001:00036270       ??0DName@@QAE@AAPBDD@Z     10037270 f   LIBCMTD:undname.obj
 0001:00036530       ??0DName@@QAE@ABV0@@Z      10037530 f i LIBCMTD:undname.obj
 0001:00036550       ??0DName@@QAE@D@Z          10037550 f   LIBCMTD:undname.obj
 0001:00036630       ??0DName@@QAE@PAV0@@Z      10037630 f   LIBCMTD:undname.obj
 0001:00036770       ??0DName@@QAE@PBD@Z        10037770 f   LIBCMTD:undname.obj
 0001:00036860       ??0DName@@QAE@W4DNameStatus@@@Z 10037860 f   LIBCMTD:undname.obj
 0001:00036980       ??0DName@@QAE@XZ           10037980 f i LIBCMTD:undname.obj
 0001:00036a40       ??0DName@@QAE@_J@Z         10037a40 f   LIBCMTD:undname.obj
 0001:00036bc0       ??0DName@@QAE@_K@Z         10037bc0 f   LIBCMTD:undname.obj
 0001:00036d00       ??0DNameNode@@IAE@XZ       10037d00 f   LIBCMTD:undname.obj
 0001:00036d20       ??0DNameStatusNode@@AAE@W4DNameStatus@@@Z 10037d20 f   LIBCMTD:undname.obj
 0001:00036d70       ??0Replicator@@QAE@XZ      10037d70 f i LIBCMTD:undname.obj
 0001:00036d90       ??0UnDecorator@@QAE@PADPBDHP6APADJ@ZK@Z 10037d90 f i LIBCMTD:undname.obj
 0001:00036e30       ??0charNode@@QAE@D@Z       10037e30 f   LIBCMTD:undname.obj
 0001:00036e60       ??0pDNameNode@@QAE@PAVDName@@@Z 10037e60 f   LIBCMTD:undname.obj
 0001:00036ec0       ??0pairNode@@QAE@PAVDNameNode@@0@Z 10037ec0 f   LIBCMTD:undname.obj
 0001:00036f00       ??0pcharNode@@QAE@PBDH@Z   10037f00 f   LIBCMTD:undname.obj
 0001:00036fa0       ??2@YAPAXIAAV_HeapManager@@H@Z 10037fa0 f i LIBCMTD:undname.obj
 0001:00036fc0       ??4DName@@QAEAAV0@ABV0@@Z  10037fc0 f   LIBCMTD:undname.obj
 0001:00036fe0       ??4DName@@QAEAAV0@D@Z      10037fe0 f i LIBCMTD:undname.obj
 0001:000370c0       ??4DName@@QAEAAV0@PAV0@@Z  100380c0 f   LIBCMTD:undname.obj
 0001:000371f0       ??4DName@@QAEAAV0@PBD@Z    100381f0 f   LIBCMTD:undname.obj
 0001:000372d0       ??4DName@@QAEAAV0@W4DNameStatus@@@Z 100382d0 f   LIBCMTD:undname.obj
 0001:000373d0       ??AReplicator@@QBE?AVDName@@H@Z 100383d0 f   LIBCMTD:undname.obj
 0001:00037440       ??BUnDecorator@@QAEPADXZ   10038440 f i LIBCMTD:undname.obj
 0001:000376f0       ??H@YA?AVDName@@DABV0@@Z   100386f0 f i LIBCMTD:undname.obj
 0001:00037720       ??H@YA?AVDName@@PBDABV0@@Z 10038720 f i LIBCMTD:undname.obj
 0001:00037750       ??H@YA?AVDName@@W4DNameStatus@@ABV0@@Z 10038750 f i LIBCMTD:undname.obj
 0001:00037780       ??HDName@@QBE?AV0@ABV0@@Z  10038780 f   LIBCMTD:undname.obj
 0001:000377c0       ??HDName@@QBE?AV0@D@Z      100387c0 f   LIBCMTD:undname.obj
 0001:00037800       ??HDName@@QBE?AV0@PAV0@@Z  10038800 f   LIBCMTD:undname.obj
 0001:00037840       ??HDName@@QBE?AV0@PBD@Z    10038840 f   LIBCMTD:undname.obj
 0001:00037880       ??HDName@@QBE?AV0@W4DNameStatus@@@Z 10038880 f   LIBCMTD:undname.obj
 0001:000378c0       ??YDName@@QAEAAV0@ABV0@@Z  100388c0 f   LIBCMTD:undname.obj
 0001:00037930       ??YDName@@QAEAAV0@D@Z      10038930 f   LIBCMTD:undname.obj
 0001:000379b0       ??YDName@@QAEAAV0@PAV0@@Z  100389b0 f   LIBCMTD:undname.obj
 0001:00037a60       ??YDName@@QAEAAV0@PBD@Z    10038a60 f   LIBCMTD:undname.obj
 0001:00037b00       ??YDName@@QAEAAV0@W4DNameStatus@@@Z 10038b00 f   LIBCMTD:undname.obj
 0001:00037b60       ??YReplicator@@QAEAAV0@ABVDName@@@Z 10038b60 f   LIBCMTD:undname.obj
 0001:00037bf0       ??_5DName@@QAEAAV0@ABV0@@Z 10038bf0 f   LIBCMTD:undname.obj
 0001:00037c50       ?Constructor@_HeapManager@@QAEXP6APAXI@ZP6AXPAX@Z@Z 10038c50 f i LIBCMTD:undname.obj
 0001:00037c90       ?Destructor@_HeapManager@@QAEXXZ 10038c90 f i LIBCMTD:undname.obj
 0001:00037ce0       ?UScore@UnDecorator@@SAPBDW4Tokens@@@Z 10038ce0 f   LIBCMTD:undname.obj
 0001:00037d10       ?append@DName@@AAEXPAVDNameNode@@@Z 10038d10 f   LIBCMTD:undname.obj
 0001:00037da0       ?composeDeclaration@UnDecorator@@CA?AVDName@@ABV2@@Z 10038da0 f i LIBCMTD:undname.obj
 0001:00039a20       ?dbGetString@DName@@QBEPADXZ 1003aa20 f   LIBCMTD:undname.obj
 0001:00039a40       ?doAccessSpecifiers@UnDecorator@@SAHXZ 1003aa40 f i LIBCMTD:undname.obj
 0001:00039a70       ?doAllocationLanguage@UnDecorator@@SAHXZ 1003aa70 f i LIBCMTD:undname.obj
 0001:00039aa0       ?doAllocationModel@UnDecorator@@SAHXZ 1003aaa0 f i LIBCMTD:undname.obj
 0001:00039ad0       ?doEcsu@UnDecorator@@SAHXZ 1003aad0 f i LIBCMTD:undname.obj
 0001:00039b00       ?doEllipsis@UnDecorator@@SAHXZ 1003ab00 f i LIBCMTD:undname.obj
 0001:00039b30       ?doFunctionReturns@UnDecorator@@SAHXZ 1003ab30 f i LIBCMTD:undname.obj
 0001:00039b60       ?doMSKeywords@UnDecorator@@SAHXZ 1003ab60 f i LIBCMTD:undname.obj
 0001:00039b90       ?doMemberTypes@UnDecorator@@SAHXZ 1003ab90 f i LIBCMTD:undname.obj
 0001:00039bc0       ?doNameOnly@UnDecorator@@SAHXZ 1003abc0 f i LIBCMTD:undname.obj
 0001:00039bd0       ?doNoIdentCharCheck@UnDecorator@@SAHXZ 1003abd0 f i LIBCMTD:undname.obj
 0001:00039be0       ?doPchar@DName@@AAEXPBDH@Z 1003abe0 f   LIBCMTD:undname.obj
 0001:00039d20       ?doPtr64@UnDecorator@@SAHXZ 1003ad20 f i LIBCMTD:undname.obj
 0001:00039d50       ?doRestrictionSpec@UnDecorator@@SAHXZ 1003ad50 f i LIBCMTD:undname.obj
 0001:00039d80       ?doThisTypes@UnDecorator@@SAHXZ 1003ad80 f i LIBCMTD:undname.obj
 0001:00039db0       ?doThrowTypes@UnDecorator@@SAHXZ 1003adb0 f i LIBCMTD:undname.obj
 0001:00039de0       ?doTypeOnly@UnDecorator@@SAHXZ 1003ade0 f i LIBCMTD:undname.obj
 0001:00039df0       ?doUnderScore@UnDecorator@@SAHXZ 1003adf0 f i LIBCMTD:undname.obj
 0001:00039e20       ?getArgumentList@UnDecorator@@CA?AVDName@@XZ 1003ae20 f   LIBCMTD:undname.obj
 0001:00039f70       ?getArgumentTypes@UnDecorator@@CA?AVDName@@XZ 1003af70 f   LIBCMTD:undname.obj
 0001:0003a0d0       ?getArrayType@UnDecorator@@CA?AVDName@@ABV2@@Z 1003b0d0 f i LIBCMTD:undname.obj
 0001:0003a310       ?getBasedType@UnDecorator@@CA?AVDName@@XZ 1003b310 f   LIBCMTD:undname.obj
 0001:0003a3d0       ?getBasicDataType@UnDecorator@@CA?AVDName@@ABV2@@Z 1003b3d0 f   LIBCMTD:undname.obj
 0001:0003a990       ?getCallIndex@UnDecorator@@CA?AVDName@@XZ 1003b990 f i LIBCMTD:undname.obj
 0001:0003a9b0       ?getCallingConvention@UnDecorator@@CA?AVDName@@XZ 1003b9b0 f   LIBCMTD:undname.obj
 0001:0003ab40       ?getDataIndirectType@UnDecorator@@CA?AVDName@@ABV2@PBD0H@Z 1003bb40 f   LIBCMTD:undname.obj
 0001:0003b260       ?getDataIndirectType@UnDecorator@@CA?AVDName@@XZ 1003c260 f i LIBCMTD:undname.obj
 0001:0003b2a0       ?getDataType@UnDecorator@@CA?AVDName@@PAV2@@Z 1003c2a0 f   LIBCMTD:undname.obj
 0001:0003b3c0       ?getDecoratedName@UnDecorator@@CA?AVDName@@XZ 1003c3c0 f   LIBCMTD:undname.obj
 0001:0003b6e0       ?getDimension@UnDecorator@@CA?AVDName@@_N@Z 1003c6e0 f   LIBCMTD:undname.obj
 0001:0003b990       ?getDispatchTarget@UnDecorator@@CA?AVDName@@XZ 1003c990 f   LIBCMTD:undname.obj
 0001:0003ba30       ?getDisplacement@UnDecorator@@CA?AVDName@@XZ 1003ca30 f i LIBCMTD:undname.obj
 0001:0003ba50       ?getECSUDataType@UnDecorator@@CA?AVDName@@XZ 1003ca50 f   LIBCMTD:undname.obj
 0001:0003bc20       ?getECSUName@UnDecorator@@CA?AVDName@@XZ 1003cc20 f i LIBCMTD:undname.obj
 0001:0003bc40       ?getEnumType@UnDecorator@@CA?AVDName@@XZ 1003cc40 f i LIBCMTD:undname.obj
 0001:0003bd90       ?getExtendedDataIndirectType@UnDecorator@@CA?AVDName@@AAPBDAA_NH@Z 1003cd90 f   LIBCMTD:undname.obj
 0001:0003bfe0       ?getExternalDataType@UnDecorator@@CA?AVDName@@ABV2@@Z 1003cfe0 f i LIBCMTD:undname.obj
 0001:0003c070       ?getFunctionIndirectType@UnDecorator@@CA?AVDName@@ABV2@@Z 1003d070 f   LIBCMTD:undname.obj
 0001:0003c4e0       ?getGuardNumber@UnDecorator@@CA?AVDName@@XZ 1003d4e0 f i LIBCMTD:undname.obj
 0001:0003c500       ?getLastChar@DName@@QBEDXZ 1003d500 f i LIBCMTD:undname.obj
 0001:0003c530       ?getLastChar@DNameStatusNode@@UBEDXZ 1003d530 f i LIBCMTD:undname.obj
 0001:0003c560       ?getLastChar@charNode@@UBEDXZ 1003d560 f i LIBCMTD:undname.obj
 0001:0003c580       ?getLastChar@pDNameNode@@UBEDXZ 1003d580 f i LIBCMTD:undname.obj
 0001:0003c5b0       ?getLastChar@pairNode@@UBEDXZ 1003d5b0 f i LIBCMTD:undname.obj
 0001:0003c600       ?getLastChar@pcharNode@@UBEDXZ 1003d600 f i LIBCMTD:undname.obj
 0001:0003c640       ?getLexicalFrame@UnDecorator@@CA?AVDName@@XZ 1003d640 f i LIBCMTD:undname.obj
 0001:0003c680       ?getMemory@_HeapManager@@QAEPAXIH@Z 1003d680 f   LIBCMTD:undname.obj
 0001:0003c790       ?getNumberOfDimensions@UnDecorator@@CAHXZ 1003d790 f   LIBCMTD:undname.obj
 0001:0003c890       ?getOperatorName@UnDecorator@@CA?AVDName@@_NPA_N@Z 1003d890 f i LIBCMTD:undname.obj
 0001:0003d220       ?getPointerType@UnDecorator@@CA?AVDName@@ABV2@0@Z 1003e220 f i LIBCMTD:undname.obj
 0001:0003d250       ?getPointerTypeArray@UnDecorator@@CA?AVDName@@ABV2@0@Z 1003e250 f i LIBCMTD:undname.obj
 0001:0003d280       ?getPrimaryDataType@UnDecorator@@CA?AVDName@@ABV2@@Z 1003e280 f   LIBCMTD:undname.obj
 0001:0003d620       ?getPtrRefDataType@UnDecorator@@CA?AVDName@@ABV2@H@Z 1003e620 f i LIBCMTD:undname.obj
 0001:0003d760       ?getPtrRefType@UnDecorator@@CA?AVDName@@ABV2@0PBD@Z 1003e760 f   LIBCMTD:undname.obj
 0001:0003d8d0       ?getReferenceType@UnDecorator@@CA?AVDName@@ABV2@0PBD@Z 1003e8d0 f i LIBCMTD:undname.obj
 0001:0003d8f0       ?getRestrictionSpec@UnDecorator@@CA?AVDName@@XZ 1003e8f0 f   LIBCMTD:undname.obj
 0001:0003da40       ?getReturnType@UnDecorator@@CA?AVDName@@PAV2@@Z 1003ea40 f   LIBCMTD:undname.obj
 0001:0003da90       ?getScope@UnDecorator@@CA?AVDName@@XZ 1003ea90 f   LIBCMTD:undname.obj
 0001:0003df80       ?getScopedName@UnDecorator@@CA?AVDName@@XZ 1003ef80 f   LIBCMTD:undname.obj
 0001:0003e0a0       ?getSignedDimension@UnDecorator@@CA?AVDName@@XZ 1003f0a0 f   LIBCMTD:undname.obj
 0001:0003e120       ?getStorageConvention@UnDecorator@@CA?AVDName@@XZ 1003f120 f i LIBCMTD:undname.obj
 0001:0003e140       ?getString@DName@@QBEPADPAD0@Z 1003f140 f i LIBCMTD:undname.obj
 0001:0003e180       ?getString@DName@@QBEPADPADH@Z 1003f180 f i LIBCMTD:undname.obj
 0001:0003e210       ?getString@DNameStatusNode@@UBEPADPAD0@Z 1003f210 f i LIBCMTD:undname.obj
 0001:0003e250       ?getString@charNode@@UBEPADPAD0@Z 1003f250 f i LIBCMTD:undname.obj
 0001:0003e280       ?getString@pDNameNode@@UBEPADPAD0@Z 1003f280 f i LIBCMTD:undname.obj
 0001:0003e2c0       ?getString@pairNode@@UBEPADPAD0@Z 1003f2c0 f i LIBCMTD:undname.obj
 0001:0003e320       ?getString@pcharNode@@UBEPADPAD0@Z 1003f320 f i LIBCMTD:undname.obj
 0001:0003e350       ?getStringEncoding@UnDecorator@@CA?AVDName@@PADH@Z 1003f350 f   LIBCMTD:undname.obj
 0001:0003e460       ?getStringHelper@@YAPADPAD00H@Z 1003f460 f i LIBCMTD:undname.obj
 0001:0003e4a0       ?getSymbolName@UnDecorator@@CA?AVDName@@XZ 1003f4a0 f i LIBCMTD:undname.obj
 0001:0003e530       ?getTemplateArgumentList@UnDecorator@@CA?AVDName@@XZ 1003f530 f   LIBCMTD:undname.obj
 0001:0003e850       ?getTemplateConstant@UnDecorator@@CA?AVDName@@XZ 1003f850 f   LIBCMTD:undname.obj
 0001:0003ed40       ?getTemplateName@UnDecorator@@CA?AVDName@@_N@Z 1003fd40 f   LIBCMTD:undname.obj
 0001:0003ef10       ?getThisType@UnDecorator@@CA?AVDName@@XZ 1003ff10 f i LIBCMTD:undname.obj
 0001:0003ef50       ?getThrowTypes@UnDecorator@@CA?AVDName@@XZ 1003ff50 f   LIBCMTD:undname.obj
 0001:0003f000       ?getTypeEncoding@UnDecorator@@CAHXZ 10040000 f i LIBCMTD:undname.obj
 0001:0003fa40       ?getVCallThunkType@UnDecorator@@CA?AVDName@@XZ 10040a40 f i LIBCMTD:undname.obj
 0001:0003faa0       ?getVbTableType@UnDecorator@@CA?AVDName@@ABV2@@Z 10040aa0 f i LIBCMTD:undname.obj
 0001:0003fac0       ?getVdispMapType@UnDecorator@@CA?AVDName@@ABV2@@Z 10040ac0 f i LIBCMTD:undname.obj
 0001:0003fb30       ?getVfTableType@UnDecorator@@CA?AVDName@@ABV2@@Z 10040b30 f i LIBCMTD:undname.obj
 0001:0003fcf0       ?getZName@UnDecorator@@CA?AVDName@@_N0@Z 10040cf0 f   LIBCMTD:undname.obj
 0001:0003ffa0       ?haveTemplateParameters@UnDecorator@@SAHXZ 10040fa0 f i LIBCMTD:undname.obj
 0001:0003ffb0       ?isArray@DName@@QBEHXZ     10040fb0 f i LIBCMTD:undname.obj
 0001:0003ffd0       ?isComArray@DName@@QBEHXZ  10040fd0 f i LIBCMTD:undname.obj
 0001:0003fff0       ?isEmpty@DName@@QBEHXZ     10040ff0 f i LIBCMTD:undname.obj
 0001:00040020       ?isFull@Replicator@@QBEHXZ 10041020 f i LIBCMTD:undname.obj
 0001:00040050       ?isNoTE@DName@@QBEHXZ      10041050 f i LIBCMTD:undname.obj
 0001:00040070       ?isPinPtr@DName@@QBEHXZ    10041070 f i LIBCMTD:undname.obj
 0001:00040090       ?isPtrRef@DName@@QBEHXZ    10041090 f i LIBCMTD:undname.obj
 0001:000400b0       ?isUDC@DName@@QBEHXZ       100410b0 f i LIBCMTD:undname.obj
 0001:000400f0       ?isUDTThunk@DName@@QBEHXZ  100410f0 f i LIBCMTD:undname.obj
 0001:00040130       ?isVCallThunk@DName@@QBEHXZ 10041130 f i LIBCMTD:undname.obj
 0001:00040150       ?isValid@DName@@QBEHXZ     10041150 f i LIBCMTD:undname.obj
 0001:00040190       ?length@DName@@QBEHXZ      10041190 f i LIBCMTD:undname.obj
 0001:000401c0       ?length@DNameStatusNode@@UBEHXZ 100411c0 f i LIBCMTD:undname.obj
 0001:000401e0       ?length@charNode@@UBEHXZ   100411e0 f i LIBCMTD:undname.obj
 0001:000401f0       ?length@pDNameNode@@UBEHXZ 100411f0 f i LIBCMTD:undname.obj
 0001:00040220       ?length@pairNode@@UBEHXZ   10041220 f i LIBCMTD:undname.obj
 0001:00040270       ?length@pcharNode@@UBEHXZ  10041270 f i LIBCMTD:undname.obj
 0001:00040290       ?make@DNameStatusNode@@SAPAV1@W4DNameStatus@@@Z 10041290 f i LIBCMTD:undname.obj
 0001:00040340       ?setIsArray@DName@@QAEXXZ  10041340 f i LIBCMTD:undname.obj
 0001:00040360       ?setIsComArray@DName@@QAEXXZ 10041360 f i LIBCMTD:undname.obj
 0001:00040380       ?setIsNoTE@DName@@QAEXXZ   10041380 f i LIBCMTD:undname.obj
 0001:000403a0       ?setIsPinPtr@DName@@QAEXXZ 100413a0 f i LIBCMTD:undname.obj
 0001:000403c0       ?setIsUDC@DName@@QAEXXZ    100413c0 f i LIBCMTD:undname.obj
 0001:000403f0       ?setIsVCallThunk@DName@@QAEXXZ 100413f0 f i LIBCMTD:undname.obj
 0001:00040410       ?setPtrRef@DName@@QAEAAV1@XZ 10041410 f i LIBCMTD:undname.obj
 0001:00040430       ?status@DName@@QBE?AW4DNameStatus@@XZ 10041430 f i LIBCMTD:undname.obj
 0001:00040530       ___unDName                 10041530 f   LIBCMTD:undname.obj
 0001:00040610       ___unDNameEx               10041610 f   LIBCMTD:undname.obj
 0001:000406f0       ___lock_fhandle            100416f0 f   LIBCMTD:osfinfo.obj
 0001:000407e0       __alloc_osfhnd             100417e0 f   LIBCMTD:osfinfo.obj
 0001:00040a80       __free_osfhnd              10041a80 f   LIBCMTD:osfinfo.obj
 0001:00040b70       __get_osfhandle            10041b70 f   LIBCMTD:osfinfo.obj
 0001:00040cf0       __open_osfhandle           10041cf0 f   LIBCMTD:osfinfo.obj
 0001:00040f20       __set_osfhnd               10041f20 f   LIBCMTD:osfinfo.obj
 0001:00040ff0       __unlock_fhandle           10041ff0 f   LIBCMTD:osfinfo.obj
 0001:00041020       __commit                   10042020 f   LIBCMTD:commit.obj
 0001:00041260       __open                     10042260 f   LIBCMTD:open.obj
 0001:00041400       __sopen                    10042400 f   LIBCMTD:open.obj
 0001:00041470       __sopen_helper             10042470 f   LIBCMTD:open.obj
 0001:00041710       __sopen_nolock             10042710 f   LIBCMTD:open.obj
 0001:00041780       __sopen_s                  10042780 f   LIBCMTD:open.obj
 0001:000417b0       __mbsnbcmp                 100427b0 f   LIBCMTD:mbsnbcmp.obj
 0001:000417d0       __mbsnbcmp_l               100427d0 f   LIBCMTD:mbsnbcmp.obj
 0001:00041af0       __mbsnbicmp                10042af0 f   LIBCMTD:mbsnbicm.obj
 0001:00041b10       __mbsnbicmp_l              10042b10 f   LIBCMTD:mbsnbicm.obj
 0001:00042050       __mbtowc_l                 10043050 f   LIBCMTD:mbtowc.obj
 0001:00042290       _mbtowc                    10043290 f   LIBCMTD:mbtowc.obj
 0001:000422b0       __putwch                   100432b0 f   LIBCMTD:putwch.obj
 0001:00042340       __putwch_nolock            10043340 f   LIBCMTD:putwch.obj
 0001:00042390       _wcscat_s                  10043390 f   LIBCMTD:wcscat_s.obj
 0001:000427a0       _wcsncpy_s                 100437a0 f   LIBCMTD:wcsncpy_s.obj
 0001:00042bd0       ___set_app_type            10043bd0 f   LIBCMTD:errmode.obj
 0001:00042be0       __set_error_mode           10043be0 f   LIBCMTD:errmode.obj
 0001:00042ca0       _strncpy_s                 10043ca0 f   LIBCMTD:strncpy_s.obj
 0001:000431f0       __MallocaIsSizeInRange     100441f0 f i LIBCMTD:a_loc.obj
 0001:00043220       __MarkAllocaS              10044220 f i LIBCMTD:a_loc.obj
 0001:00043240       ___crtGetLocaleInfoA       10044240 f   LIBCMTD:a_loc.obj
 0001:00043290       __freea                    10044290 f i LIBCMTD:a_loc.obj
 0001:00043300       _GetTableIndexFromLcid     10044300 f   LIBCMTD:winapinls.obj
 0001:00043370       _GetTableIndexFromLocaleName 10044370 f   LIBCMTD:winapinls.obj
 0001:00043400       ___crtCompareStringEx      10044400 f   LIBCMTD:winapinls.obj
 0001:00043470       ___crtDownlevelLCIDToLocaleName 10044470 f   LIBCMTD:winapinls.obj
 0001:00043540       ___crtDownlevelLocaleNameToLCID 10044540 f   LIBCMTD:winapinls.obj
 0001:000435a0       ___crtEnumSystemLocalesEx  100445a0 f   LIBCMTD:winapinls.obj
 0001:00043610       ___crtGetDateFormatEx      10044610 f   LIBCMTD:winapinls.obj
 0001:00043680       ___crtGetLocaleInfoEx      10044680 f   LIBCMTD:winapinls.obj
 0001:000436e0       ___crtGetTimeFormatEx      100446e0 f   LIBCMTD:winapinls.obj
 0001:00043750       ___crtGetUserDefaultLocaleName 10044750 f   LIBCMTD:winapinls.obj
 0001:000437a0       ___crtIsValidLocaleName    100447a0 f   LIBCMTD:winapinls.obj
 0001:000437e0       ___crtLCMapStringEx        100447e0 f   LIBCMTD:winapinls.obj
 0001:00043850       ___wcsnicmp_ascii          10044850 f   LIBCMTD:winapinls.obj
 0001:00043920       __frnd                     10044920 f   LIBCMTD:frnd.obj
 0001:00043a00       __ismbbalnum               10044a00 f   LIBCMTD:ismbbyte.obj
 0001:00043a20       __ismbbalnum_l             10044a20 f   LIBCMTD:ismbbyte.obj
 0001:00043a40       __ismbbalpha               10044a40 f   LIBCMTD:ismbbyte.obj
 0001:00043a60       __ismbbalpha_l             10044a60 f   LIBCMTD:ismbbyte.obj
 0001:00043a80       __ismbbblank               10044a80 f   LIBCMTD:ismbbyte.obj
 0001:00043ab0       __ismbbblank_l             10044ab0 f   LIBCMTD:ismbbyte.obj
 0001:00043af0       __ismbbgraph               10044af0 f   LIBCMTD:ismbbyte.obj
 0001:00043b10       __ismbbgraph_l             10044b10 f   LIBCMTD:ismbbyte.obj
 0001:00043b30       __ismbbkalnum              10044b30 f   LIBCMTD:ismbbyte.obj
 0001:00043b50       __ismbbkalnum_l            10044b50 f   LIBCMTD:ismbbyte.obj
 0001:00043b70       __ismbbkana                10044b70 f   LIBCMTD:ismbbyte.obj
 0001:00043b90       __ismbbkana_l              10044b90 f   LIBCMTD:ismbbyte.obj
 0001:00043c00       __ismbbkprint              10044c00 f   LIBCMTD:ismbbyte.obj
 0001:00043c20       __ismbbkprint_l            10044c20 f   LIBCMTD:ismbbyte.obj
 0001:00043c40       __ismbbkpunct              10044c40 f   LIBCMTD:ismbbyte.obj
 0001:00043c60       __ismbbkpunct_l            10044c60 f   LIBCMTD:ismbbyte.obj
 0001:00043c80       __ismbblead                10044c80 f   LIBCMTD:ismbbyte.obj
 0001:00043ca0       __ismbblead_l              10044ca0 f   LIBCMTD:ismbbyte.obj
 0001:00043cc0       __ismbbprint               10044cc0 f   LIBCMTD:ismbbyte.obj
 0001:00043ce0       __ismbbprint_l             10044ce0 f   LIBCMTD:ismbbyte.obj
 0001:00043d00       __ismbbpunct               10044d00 f   LIBCMTD:ismbbyte.obj
 0001:00043d20       __ismbbpunct_l             10044d20 f   LIBCMTD:ismbbyte.obj
 0001:00043d40       __ismbbtrail               10044d40 f   LIBCMTD:ismbbyte.obj
 0001:00043d60       __ismbbtrail_l             10044d60 f   LIBCMTD:ismbbyte.obj
 0001:000440b0       ___crtLCMapStringA         100450b0 f   LIBCMTD:a_map.obj
 0001:00044250       ___crtGetStringTypeA       10045250 f   LIBCMTD:a_str.obj
 0001:000442a0       __output_s_l               100452a0 f   LIBCMTD:outputs.obj
 0001:00046150       __strtol_l                 10047150 f   LIBCMTD:strtol.obj
 0001:00046170       __strtoul_l                10047170 f   LIBCMTD:strtol.obj
 0001:00046190       _strtol                    10047190 f   LIBCMTD:strtol.obj
 0001:000461e0       _strtoul                   100471e0 f   LIBCMTD:strtol.obj
 0001:00046230       ___vswprintf_l             10047230 f   LIBCMTD:vswprint.obj
 0001:00046250       __vscwprintf               10047250 f   LIBCMTD:vswprint.obj
 0001:00046270       __vscwprintf_helper        10047270 f   LIBCMTD:vswprint.obj
 0001:00046360       __vscwprintf_l             10047360 f   LIBCMTD:vswprint.obj
 0001:00046380       __vscwprintf_p             10047380 f   LIBCMTD:vswprint.obj
 0001:000463a0       __vscwprintf_p_l           100473a0 f   LIBCMTD:vswprint.obj
 0001:000463c0       __vswprintf                100473c0 f   LIBCMTD:vswprint.obj
 0001:000463e0       __vswprintf_l              100473e0 f   LIBCMTD:vswprint.obj
 0001:00046600       __vsnwprintf_s             10047600 f   LIBCMTD:vswprnc.obj
 0001:00046630       __vsnwprintf_s_l           10047630 f   LIBCMTD:vswprnc.obj
 0001:00046a00       __vswprintf_c              10047a00 f   LIBCMTD:vswprnc.obj
 0001:00046a50       __vswprintf_c_l            10047a50 f   LIBCMTD:vswprnc.obj
 0001:00046aa0       __vswprintf_helper         10047aa0 f   LIBCMTD:vswprnc.obj
 0001:00046d10       __vswprintf_p              10047d10 f   LIBCMTD:vswprnc.obj
 0001:00046d60       __vswprintf_p_l            10047d60 f   LIBCMTD:vswprnc.obj
 0001:00046db0       __vswprintf_s_l            10047db0 f   LIBCMTD:vswprnc.obj
 0001:00047040       _vswprintf_s               10048040 f   LIBCMTD:vswprnc.obj
 0001:00047060       __woutput_l                10048060 f   LIBCMTD:woutput.obj
 0001:00048650       _strcat_s                  10049650 f   LIBCMTD:strcat_s.obj
 0001:00048e80       __i64toa_s                 10049e80 f   LIBCMTD:xtoas.obj
 0001:00048ed0       __itoa_s                   10049ed0 f   LIBCMTD:xtoas.obj
 0001:00048f30       __ltoa_s                   10049f30 f   LIBCMTD:xtoas.obj
 0001:00048f70       __ui64toa_s                10049f70 f   LIBCMTD:xtoas.obj
 0001:00048f90       __ultoa_s                  10049f90 f   LIBCMTD:xtoas.obj
 0001:00049390       __mbstowcs_l               1004a390 f   LIBCMTD:mbstowcs.obj
 0001:000493b0       __mbstowcs_l_helper        1004a3b0 f   LIBCMTD:mbstowcs.obj
 0001:00049740       __mbstowcs_s_l             1004a740 f   LIBCMTD:mbstowcs.obj
 0001:00049b00       _mbstowcs                  1004ab00 f   LIBCMTD:mbstowcs.obj
 0001:00049b50       _mbstowcs_s                1004ab50 f   LIBCMTD:mbstowcs.obj
 0001:00049be0       __wcstombs_l               1004abe0 f   LIBCMTD:wcstombs.obj
 0001:00049c00       __wcstombs_l_helper        1004ac00 f   LIBCMTD:wcstombs.obj
 0001:0004a110       __wcstombs_s_l             1004b110 f   LIBCMTD:wcstombs.obj
 0001:0004a470       _wcstombs                  1004b470 f   LIBCMTD:wcstombs.obj
 0001:0004a490       _wcstombs_s                1004b490 f   LIBCMTD:wcstombs.obj
 0001:0004a900       __i64tow_s                 1004b900 f   LIBCMTD:xtows.obj
 0001:0004a950       __itow_s                   1004b950 f   LIBCMTD:xtows.obj
 0001:0004a9b0       __ltow_s                   1004b9b0 f   LIBCMTD:xtows.obj
 0001:0004a9f0       __ui64tow_s                1004b9f0 f   LIBCMTD:xtows.obj
 0001:0004aa10       __ultow_s                  1004ba10 f   LIBCMTD:xtows.obj
 0001:0004ae30       __vsnprintf_c              1004be30 f   LIBCMTD:vsnprnc.obj
 0001:0004ae80       __vsnprintf_c_l            1004be80 f   LIBCMTD:vsnprnc.obj
 0001:0004aed0       __vsnprintf_helper         1004bed0 f   LIBCMTD:vsnprnc.obj
 0001:0004b0d0       __vsnprintf_s              1004c0d0 f   LIBCMTD:vsnprnc.obj
 0001:0004b100       __vsnprintf_s_l            1004c100 f   LIBCMTD:vsnprnc.obj
 0001:0004b4c0       __vsprintf_p               1004c4c0 f   LIBCMTD:vsnprnc.obj
 0001:0004b510       __vsprintf_p_l             1004c510 f   LIBCMTD:vsnprnc.obj
 0001:0004b560       __vsprintf_s_l             1004c560 f   LIBCMTD:vsnprnc.obj
 0001:0004b7f0       _vsprintf_s                1004c7f0 f   LIBCMTD:vsnprnc.obj
 0001:0004b810       ___free_lconv_mon          1004c810 f   LIBCMTD:initmon.obj
 0001:0004b9c0       ___init_monetary           1004c9c0 f   LIBCMTD:initmon.obj
 0001:0004bfd0       ___free_lconv_num          1004cfd0 f   LIBCMTD:initnum.obj
 0001:0004c080       ___init_numeric            1004d080 f   LIBCMTD:initnum.obj
 0001:0004c450       ___free_lc_time            1004d450 f   LIBCMTD:inittime.obj
 0001:0004cd80       ___init_time               1004dd80 f   LIBCMTD:inittime.obj
 0001:0004dd80       _localeconv                1004ed80 f   LIBCMTD:lconv.obj
 0001:0004ddd0       ___init_dummy              1004edd0 f   LIBCMTD:wsetloca.obj
 0001:0004dde0       __locterm                  1004ede0 f   LIBCMTD:wsetloca.obj
 0001:0004de70       ____setlc_active_func      1004ee70 f   LIBCMTD:wsetloca.obj
 0001:0004de80       ____unguarded_readlc_active_add_func 1004ee80 f   LIBCMTD:wsetloca.obj
 0001:0004de90       ___copy_locale_name        1004ee90 f   LIBCMTD:wsetloca.obj
 0001:0004df30       ___create_locale           1004ef30 f   LIBCMTD:wsetloca.obj
 0001:0004df50       ___free_locale             1004ef50 f   LIBCMTD:wsetloca.obj
 0001:0004df70       ___get_current_locale      1004ef70 f   LIBCMTD:wsetloca.obj
 0001:0004df80       ___lc_lctowcs              1004ef80 f   LIBCMTD:wsetloca.obj
 0001:0004e030       ___lc_wcstolc              1004f030 f   LIBCMTD:wsetloca.obj
 0001:0004e250       __configthreadlocale       1004f250 f   LIBCMTD:wsetloca.obj
 0001:0004e3b0       __create_locale            1004f3b0 f   LIBCMTD:wsetloca.obj
 0001:0004e420       __expandlocale             1004f420 f   LIBCMTD:wsetloca.obj
 0001:0004e910       __free_locale              1004f910 f   LIBCMTD:wsetloca.obj
 0001:0004ea40       __get_current_locale       1004fa40 f   LIBCMTD:wsetloca.obj
 0001:0004eb60       __wcreate_locale           1004fb60 f   LIBCMTD:wsetloca.obj
 0001:0004ed50       __wcscats                  1004fd50 f   LIBCMTD:wsetloca.obj
 0001:0004edd0       __wsetlocale               1004fdd0 f   LIBCMTD:wsetloca.obj
 0001:0004fe60       ___pctype_func             10050e60 f   LIBCMTD:ctype.obj
 0001:0004feb0       ___pwctype_func            10050eb0 f   LIBCMTD:ctype.obj
 0001:0004fec0       __wmakepath_s              10050ec0 f   LIBCMTD:wmakepath_s.obj
 0001:00050280       __wsplitpath_s             10051280 f   LIBCMTD:wsplitpath_s.obj
 0001:000508c0       __CopyMan                  100518c0 f i LIBCMTD:intrncvt.obj
 0001:00050910       __FillZeroMan              10051910 f i LIBCMTD:intrncvt.obj
 0001:00050940       __IncMan                   10051940 f i LIBCMTD:intrncvt.obj
 0001:000509f0       __IsZeroMan                100519f0 f i LIBCMTD:intrncvt.obj
 0001:00050a30       __RoundMan                 10051a30 f i LIBCMTD:intrncvt.obj
 0001:00050b10       __ShrMan                   10051b10 f i LIBCMTD:intrncvt.obj
 0001:00050c00       __ZeroTail                 10051c00 f i LIBCMTD:intrncvt.obj
 0001:00050c90       ___addl                    10051c90 f i LIBCMTD:intrncvt.obj
 0001:00050cd0       __ld12cvt                  10051cd0 f i LIBCMTD:intrncvt.obj
 0001:00050f90       __ld12tod                  10051f90 f   LIBCMTD:intrncvt.obj
 0001:00050fb0       __ld12tof                  10051fb0 f   LIBCMTD:intrncvt.obj
 0001:00050fd0       __ld12told                 10051fd0 f   LIBCMTD:intrncvt.obj
 0001:000510d0       ___STRINGTOLD_L            100520d0 f   LIBCMTD:strgtold.obj
 0001:00051140       ___ld12mul                 10052140 f i LIBCMTD:strgtold.obj
 0001:00051550       ___multtenpow12            10052550 f i LIBCMTD:strgtold.obj
 0001:00051630       ___shl_12                  10052630 f i LIBCMTD:strgtold.obj
 0001:000516b0       ___shr_12                  100526b0 f i LIBCMTD:strgtold.obj
 0001:00051730       ___strgtold12_l            10052730 f   LIBCMTD:strgtold.obj
 0001:00052220       _$I10_OUTPUT               10053220 f   LIBCMTD:x10fout.obj
 0001:00052830       ___add_12                  10053830 f i LIBCMTD:x10fout.obj
 0001:00052ae0       ___control87_2             10053ae0 f   LIBCMTD:ieee87.obj
 0001:00052f80       __clearfp                  10053f80 f   LIBCMTD:ieee87.obj
 0001:00052fc0       __control87                10053fc0 f i LIBCMTD:ieee87.obj
 0001:00053070       __controlfp                10054070 f   LIBCMTD:ieee87.obj
 0001:00053090       __fpreset                  10054090 f   LIBCMTD:ieee87.obj
 0001:00053250       __set_controlfp            10054250 f   LIBCMTD:ieee87.obj
 0001:000532e0       __statusfp                 100542e0 f   LIBCMTD:ieee87.obj
 0001:00053320       __statusfp2                10054320 f   LIBCMTD:ieee87.obj
 0001:00053360       __iswctype_l               10054360 f   LIBCMTD:iswctype.obj
 0001:00053380       _is_wctype                 10054380 f   LIBCMTD:iswctype.obj
 0001:000533a0       _iswctype                  100543a0 f   LIBCMTD:iswctype.obj
 0001:00053400       __vprintf_l                10054400 f   LIBCMTD:vprintf.obj
 0001:00053420       __vprintf_p                10054420 f   LIBCMTD:vprintf.obj
 0001:00053440       __vprintf_p_l              10054440 f   LIBCMTD:vprintf.obj
 0001:00053460       __vprintf_s_l              10054460 f   LIBCMTD:vprintf.obj
 0001:00053480       _vprintf                   10054480 f   LIBCMTD:vprintf.obj
 0001:000534a0       _vprintf_helper            100544a0 f   LIBCMTD:vprintf.obj
 0001:000535e0       _vprintf_s                 100545e0 f   LIBCMTD:vprintf.obj
 0001:00053600       ____lc_codepage_func       10054600 f   LIBCMTD:initctyp.obj
 0001:00053650       ____lc_collate_cp_func     10054650 f   LIBCMTD:initctyp.obj
 0001:000536a0       ____lc_locale_name_func    100546a0 f   LIBCMTD:initctyp.obj
 0001:000536f0       ____mb_cur_max_func        100546f0 f   LIBCMTD:initctyp.obj
 0001:00053740       ____mb_cur_max_l_func      10054740 f   LIBCMTD:initctyp.obj
 0001:00053770       ___init_ctype              10054770 f   LIBCMTD:initctyp.obj
 0001:00053db0       __chgsign                  10054db0 f   LIBCMTD:ieeemisc.obj
 0001:00053df0       __chgsignf                 10054df0 f   LIBCMTD:ieeemisc.obj
 0001:00053e30       __copysign                 10054e30 f   LIBCMTD:ieeemisc.obj
 0001:00053e60       __copysignf                10054e60 f   LIBCMTD:ieeemisc.obj
 0001:00053ea0       __finite                   10054ea0 f   LIBCMTD:ieeemisc.obj
 0001:00053ec0       __fpclass                  10054ec0 f   LIBCMTD:ieeemisc.obj
 0001:00053fb0       __isnan                    10054fb0 f   LIBCMTD:ieeemisc.obj
 0001:00053ff0       __logb                     10054ff0 f   LIBCMTD:ieeemisc.obj
 0001:00054120       __nextafter                10055120 f   LIBCMTD:ieeemisc.obj
 0001:00054440       __scalb                    10055440 f   LIBCMTD:ieeemisc.obj
 0001:00054460       __atoi64                   10055460 f   LIBCMTD:atox.obj
 0001:00054480       __atoi64_l                 10055480 f   LIBCMTD:atox.obj
 0001:000544a0       __atoi_l                   100554a0 f   LIBCMTD:atox.obj
 0001:000544c0       __atol_l                   100554c0 f   LIBCMTD:atox.obj
 0001:000544e0       __atoll_l                  100554e0 f   LIBCMTD:atox.obj
 0001:00054500       _atoi                      10055500 f   LIBCMTD:atox.obj
 0001:00054520       _atol                      10055520 f   LIBCMTD:atox.obj
 0001:00054540       _atoll                     10055540 f   LIBCMTD:atox.obj
 0001:00054600       __wopen                    10055600 f   LIBCMTD:wopen.obj
 0001:000547a0       __wsopen                   100557a0 f   LIBCMTD:wopen.obj
 0001:00054810       __wsopen_helper            10055810 f   LIBCMTD:wopen.obj
 0001:00054ab0       __wsopen_nolock            10055ab0 f   LIBCMTD:wopen.obj
 0001:00055b30       __wsopen_s                 10056b30 f   LIBCMTD:wopen.obj
 0001:00055b60       __strnicmp                 10056b60 f   LIBCMTD:strnicmp.obj
 0001:00055d30       __strnicmp_l               10056d30 f   LIBCMTD:strnicmp.obj
 0001:00055fc0       ___termconout              10056fc0 f   LIBCMTD:initcon.obj
 0001:00055ff0       ___initconout              10056ff0 f   LIBCMTD:initcon.obj
 0001:00056020       _wcsnlen                   10057020 f   LIBCMTD:wcslen_s.obj
 0001:00056060       __validate_param_reuseW    10057060 f   LIBCMTD:woutputp.obj
 0001:00056340       __woutput_p_l              10057340 f   LIBCMTD:woutputp.obj
 0001:00059e40       __woutput_s_l              1005ae40 f   LIBCMTD:woutputs.obj
 0001:0005b590       __fputwc_nolock            1005c590 f   LIBCMTD:fputwc.obj
 0001:0005b880       _fputwc                    1005c880 f   LIBCMTD:fputwc.obj
 0001:0005b990       _putwc                     1005c990 f   LIBCMTD:fputwc.obj
 0001:0005b9b0       ___init_collate            1005c9b0 f   LIBCMTD:initcoll.obj
 0001:0005bb70       _memcmp                    1005cb70 f   LIBCMTD:memcmp.obj
 0001:0005c440       _wcscmp                    1005d440 f   LIBCMTD:wcscmp.obj
 0001:0005c4a0       _wcscspn                   1005d4a0 f   LIBCMTD:wcscspn.obj
 0001:0005c510       _wcsncmp                   1005d510 f   LIBCMTD:wcsncmp.obj
 0001:0005c570       _wcspbrk                   1005d570 f   LIBCMTD:wcspbrk.obj
 0001:0005d100       ___get_qualified_locale    1005e100 f   LIBCMTD:getqloc.obj
 0001:0005e0d0       ___get_qualified_locale_downlevel 1005f0d0 f   LIBCMTD:getqloc_downlevel.obj
 0001:0005e3a0       ___mtold12                 1005f3a0 f   LIBCMTD:mantold.obj
 0001:0005e4f0       _ldexp                     1005f4f0 f   LIBCMTD:ldexp.obj
 0001:0005ed00       __strtof_l                 1005fd00 f   LIBCMTD:strtoq.obj
 0001:0005ed30       __strtoi64                 1005fd30 f   LIBCMTD:strtoq.obj
 0001:0005ed80       __strtoi64_l               1005fd80 f   LIBCMTD:strtoq.obj
 0001:0005eda0       __strtoimax_l              1005fda0 f   LIBCMTD:strtoq.obj
 0001:0005edc0       __strtold_l                1005fdc0 f   LIBCMTD:strtoq.obj
 0001:0005ede0       __strtoll_l                1005fde0 f   LIBCMTD:strtoq.obj
 0001:0005ee00       __strtoui64                1005fe00 f   LIBCMTD:strtoq.obj
 0001:0005ee50       __strtoui64_l              1005fe50 f   LIBCMTD:strtoq.obj
 0001:0005ee70       __strtoull_l               1005fe70 f   LIBCMTD:strtoq.obj
 0001:0005ee90       __strtoumax_l              1005fe90 f   LIBCMTD:strtoq.obj
 0001:0005eeb0       _strtof                    1005feb0 f   LIBCMTD:strtoq.obj
 0001:0005eee0       _strtoimax                 1005fee0 f   LIBCMTD:strtoq.obj
 0001:0005ef00       _strtold                   1005ff00 f   LIBCMTD:strtoq.obj
 0001:0005ef20       _strtoll                   1005ff20 f   LIBCMTD:strtoq.obj
 0001:0005ef40       _strtoull                  1005ff40 f   LIBCMTD:strtoq.obj
 0001:0005ef60       _strtoumax                 1005ff60 f   LIBCMTD:strtoq.obj
 0001:0005ef80       __chsize                   1005ff80 f   LIBCMTD:chsize.obj
 0001:0005efc0       __chsize_nolock            1005ffc0 f   LIBCMTD:chsize.obj
 0001:0005f270       __chsize_s                 10060270 f   LIBCMTD:chsize.obj
 0001:0005f540       __get_fmode                10060540 f   LIBCMTD:setmode.obj
 0001:0005f5e0       __set_fmode                100605e0 f   LIBCMTD:setmode.obj
 0001:0005f690       __setmode                  10060690 f   LIBCMTD:setmode.obj
 0001:0005f950       __setmode_nolock           10060950 f   LIBCMTD:setmode.obj
 0001:0005fbc0       ___ascii_strnicmp          10060bc0 f   LIBCMTD:_strnicm.obj
 0001:0005fff0       __wcstol_l                 10060ff0 f   LIBCMTD:wcstol.obj
 0001:00060010       __wcstoul_l                10061010 f   LIBCMTD:wcstol.obj
 0001:00060030       _wcstol                    10061030 f   LIBCMTD:wcstol.obj
 0001:00060050       _wcstoul                   10061050 f   LIBCMTD:wcstol.obj
 0001:00060070       __flswbuf                  10061070 f   LIBCMTD:_flswbuf.obj
 0001:00060360       __wtoi                     10061360 f   LIBCMTD:wtox.obj
 0001:00060380       __wtoi64                   10061380 f   LIBCMTD:wtox.obj
 0001:000603a0       __wtoi64_l                 100613a0 f   LIBCMTD:wtox.obj
 0001:000603c0       __wtoi_l                   100613c0 f   LIBCMTD:wtox.obj
 0001:000603e0       __wtol                     100613e0 f   LIBCMTD:wtox.obj
 0001:00060400       __wtol_l                   10061400 f   LIBCMTD:wtox.obj
 0001:00060420       __wtoll                    10061420 f   LIBCMTD:wtox.obj
 0001:00060440       __wtoll_l                  10061440 f   LIBCMTD:wtox.obj
 0001:00060460       _wcschr                    10061460 f   LIBCMTD:wcschr.obj
 0001:000605e0       __wcsicmp                  100615e0 f   LIBCMTD:wcsicmp.obj
 0001:000607b0       __wcsicmp_l                100617b0 f   LIBCMTD:wcsicmp.obj
 0001:00060a20       __wcsnicmp                 10061a20 f   LIBCMTD:wcsnicmp.obj
 0001:00060c10       __wcsnicmp_l               10061c10 f   LIBCMTD:wcsnicmp.obj
 0001:00060e70       __strtod_l                 10061e70 f   LIBCMTD:strtod.obj
 0001:00061080       _strtod                    10062080 f   LIBCMTD:strtod.obj
 0001:000610a0       __allmul                   100620a0 f   LIBCMTD:llmul.obj
 0001:000610e0       __wchartodigit             100620e0 f   LIBCMTD:wchtodig.obj
 0001:00061950       __wcstof_l                 10062950 f   LIBCMTD:wcstoq.obj
 0001:00061a60       __wcstoi64                 10062a60 f   LIBCMTD:wcstoq.obj
 0001:00061ab0       __wcstoi64_l               10062ab0 f   LIBCMTD:wcstoq.obj
 0001:00061ad0       __wcstoimax_l              10062ad0 f   LIBCMTD:wcstoq.obj
 0001:00061af0       __wcstold_l                10062af0 f   LIBCMTD:wcstoq.obj
 0001:00061b10       __wcstoll_l                10062b10 f   LIBCMTD:wcstoq.obj
 0001:00061b30       __wcstoui64                10062b30 f   LIBCMTD:wcstoq.obj
 0001:00061b80       __wcstoui64_l              10062b80 f   LIBCMTD:wcstoq.obj
 0001:00061ba0       __wcstoull_l               10062ba0 f   LIBCMTD:wcstoq.obj
 0001:00061bc0       __wcstoumax_l              10062bc0 f   LIBCMTD:wcstoq.obj
 0001:00061be0       _wcstof                    10062be0 f   LIBCMTD:wcstoq.obj
 0001:00061c00       _wcstoimax                 10062c00 f   LIBCMTD:wcstoq.obj
 0001:00061c20       _wcstold                   10062c20 f   LIBCMTD:wcstoq.obj
 0001:00061c40       _wcstoll                   10062c40 f   LIBCMTD:wcstoq.obj
 0001:00061c60       _wcstoull                  10062c60 f   LIBCMTD:wcstoq.obj
 0001:00061c80       _wcstoumax                 10062c80 f   LIBCMTD:wcstoq.obj
 0001:00061ca0       __towlower_l               10062ca0 f   LIBCMTD:towlower.obj
 0001:00061df0       _towlower                  10062df0 f   LIBCMTD:towlower.obj
 0001:00061e10       __fltin2                   10062e10 f   LIBCMTD:cfin.obj
 0001:00061ef0       __wcstod_l                 10062ef0 f   LIBCMTD:wcstod.obj
 0001:000620b0       _wcstod                    100630b0 f   LIBCMTD:wcstod.obj
 0001:000620d0       ___crtLCMapStringW         100630d0 f   LIBCMTD:w_map.obj
 0001:00062110       __wfltin2                  10063110 f   LIBCMTD:wcfin.obj
 0001:000621f0       ___WSTRINGTOLD_L           100631f0 f   LIBCMTD:wstrgtold.obj
 0001:00062260       ___wstrgtold12_l           10063260 f   LIBCMTD:wstrgtold.obj
 0001:00062d58       _RtlUnwind@16              10063d58 f   kernel32:KERNEL32.dll
 0001:00062d5e       _IsDebuggerPresent@0       10063d5e f   kernel32:KERNEL32.dll
 0001:00062d64       _IsProcessorFeaturePresent@4 10063d64 f   kernel32:KERNEL32.dll
 0001:00062d6a       _EncodePointer@4           10063d6a f   kernel32:KERNEL32.dll
 0001:00062d70       _DecodePointer@4           10063d70 f   kernel32:KERNEL32.dll
 0001:00062d76       _GetCommandLineA@0         10063d76 f   kernel32:KERNEL32.dll
 0001:00062d7c       _GetCurrentThreadId@0      10063d7c f   kernel32:KERNEL32.dll
 0001:00062d82       _GetLastError@0            10063d82 f   kernel32:KERNEL32.dll
 0001:00062d88       _ExitProcess@4             10063d88 f   kernel32:KERNEL32.dll
 0001:00062d8e       _GetModuleHandleExW@12     10063d8e f   kernel32:KERNEL32.dll
 0001:00062d94       _GetProcAddress@8          10063d94 f   kernel32:KERNEL32.dll
 0001:00062d9a       _AreFileApisANSI@0         10063d9a f   kernel32:KERNEL32.dll
 0001:00062da0       _MultiByteToWideChar@24    10063da0 f   kernel32:KERNEL32.dll
 0001:00062da6       _WideCharToMultiByte@32    10063da6 f   kernel32:KERNEL32.dll
 0001:00062dac       _EnterCriticalSection@4    10063dac f   kernel32:KERNEL32.dll
 0001:00062db2       _LeaveCriticalSection@4    10063db2 f   kernel32:KERNEL32.dll
 0001:00062db8       _RaiseException@16         10063db8 f   kernel32:KERNEL32.dll
 0001:00062dbe       _DeleteCriticalSection@4   10063dbe f   kernel32:KERNEL32.dll
 0001:00062dc4       _FatalAppExitA@8           10063dc4 f   kernel32:KERNEL32.dll
 0001:00062dca       _GetModuleFileNameW@12     10063dca f   kernel32:KERNEL32.dll
 0001:00062dd0       _HeapValidate@12           10063dd0 f   kernel32:KERNEL32.dll
 0001:00062dd6       _GetSystemInfo@4           10063dd6 f   kernel32:KERNEL32.dll
 0001:00062ddc       _LoadLibraryExW@12         10063ddc f   kernel32:KERNEL32.dll
 0001:00062de2       _SetLastError@4            10063de2 f   kernel32:KERNEL32.dll
 0001:00062de8       _GetCurrentThread@0        10063de8 f   kernel32:KERNEL32.dll
 0001:00062dee       _UnhandledExceptionFilter@4 10063dee f   kernel32:KERNEL32.dll
 0001:00062df4       _SetUnhandledExceptionFilter@4 10063df4 f   kernel32:KERNEL32.dll
 0001:00062dfa       _InitializeCriticalSectionAndSpinCount@8 10063dfa f   kernel32:KERNEL32.dll
 0001:00062e00       _CreateEventW@16           10063e00 f   kernel32:KERNEL32.dll
 0001:00062e06       _Sleep@4                   10063e06 f   kernel32:KERNEL32.dll
 0001:00062e0c       _GetCurrentProcess@0       10063e0c f   kernel32:KERNEL32.dll
 0001:00062e12       _TerminateProcess@8        10063e12 f   kernel32:KERNEL32.dll
 0001:00062e18       _TlsAlloc@0                10063e18 f   kernel32:KERNEL32.dll
 0001:00062e1e       _TlsGetValue@4             10063e1e f   kernel32:KERNEL32.dll
 0001:00062e24       _TlsSetValue@8             10063e24 f   kernel32:KERNEL32.dll
 0001:00062e2a       _TlsFree@4                 10063e2a f   kernel32:KERNEL32.dll
 0001:00062e30       _GetStartupInfoW@4         10063e30 f   kernel32:KERNEL32.dll
 0001:00062e36       _GetTickCount@0            10063e36 f   kernel32:KERNEL32.dll
 0001:00062e3c       _GetModuleHandleW@4        10063e3c f   kernel32:KERNEL32.dll
 0001:00062e42       _CreateSemaphoreW@16       10063e42 f   kernel32:KERNEL32.dll
 0001:00062e48       _CloseHandle@4             10063e48 f   kernel32:KERNEL32.dll
 0001:00062e4e       _ReadFile@20               10063e4e f   kernel32:KERNEL32.dll
 0001:00062e54       _GetConsoleMode@8          10063e54 f   kernel32:KERNEL32.dll
 0001:00062e5a       _ReadConsoleW@20           10063e5a f   kernel32:KERNEL32.dll
 0001:00062e60       _WriteFile@20              10063e60 f   kernel32:KERNEL32.dll
 0001:00062e66       _GetConsoleCP@0            10063e66 f   kernel32:KERNEL32.dll
 0001:00062e6c       _GetStdHandle@4            10063e6c f   kernel32:KERNEL32.dll
 0001:00062e72       _GetProcessHeap@0          10063e72 f   kernel32:KERNEL32.dll
 0001:00062e78       _GetFileType@4             10063e78 f   kernel32:KERNEL32.dll
 0001:00062e7e       _GetModuleFileNameA@12     10063e7e f   kernel32:KERNEL32.dll
 0001:00062e84       _QueryPerformanceCounter@4 10063e84 f   kernel32:KERNEL32.dll
 0001:00062e8a       _GetCurrentProcessId@0     10063e8a f   kernel32:KERNEL32.dll
 0001:00062e90       _GetSystemTimeAsFileTime@4 10063e90 f   kernel32:KERNEL32.dll
 0001:00062e96       _GetEnvironmentStringsW@0  10063e96 f   kernel32:KERNEL32.dll
 0001:00062e9c       _FreeEnvironmentStringsW@4 10063e9c f   kernel32:KERNEL32.dll
 0001:00062ea2       _SetConsoleCtrlHandler@8   10063ea2 f   kernel32:KERNEL32.dll
 0001:00062ea8       _FreeLibrary@4             10063ea8 f   kernel32:KERNEL32.dll
 0001:00062eae       _IsValidCodePage@4         10063eae f   kernel32:KERNEL32.dll
 0001:00062eb4       _GetACP@0                  10063eb4 f   kernel32:KERNEL32.dll
 0001:00062eba       _GetOEMCP@0                10063eba f   kernel32:KERNEL32.dll
 0001:00062ec0       _GetCPInfo@8               10063ec0 f   kernel32:KERNEL32.dll
 0001:00062ec6       _OutputDebugStringW@4      10063ec6 f   kernel32:KERNEL32.dll
 0001:00062ecc       _WaitForSingleObjectEx@12  10063ecc f   kernel32:KERNEL32.dll
 0001:00062ed2       _CreateThread@24           10063ed2 f   kernel32:KERNEL32.dll
 0001:00062ed8       _OutputDebugStringA@4      10063ed8 f   kernel32:KERNEL32.dll
 0001:00062ede       _WriteConsoleW@20          10063ede f   kernel32:KERNEL32.dll
 0001:00062ee4       _HeapFree@12               10063ee4 f   kernel32:KERNEL32.dll
 0001:00062eea       _HeapReAlloc@16            10063eea f   kernel32:KERNEL32.dll
 0001:00062ef0       _HeapSize@12               10063ef0 f   kernel32:KERNEL32.dll
 0001:00062ef6       _HeapQueryInformation@20   10063ef6 f   kernel32:KERNEL32.dll
 0001:00062efc       _HeapAlloc@12              10063efc f   kernel32:KERNEL32.dll
 0001:00062f02       _VirtualQuery@12           10063f02 f   kernel32:KERNEL32.dll
 0001:00062f08       _SetFilePointerEx@20       10063f08 f   kernel32:KERNEL32.dll
 0001:00062f0e       _SetStdHandle@8            10063f0e f   kernel32:KERNEL32.dll
 0001:00062f14       _FlushFileBuffers@4        10063f14 f   kernel32:KERNEL32.dll
 0001:00062f1a       _GetDateFormatW@24         10063f1a f   kernel32:KERNEL32.dll
 0001:00062f20       _GetTimeFormatW@24         10063f20 f   kernel32:KERNEL32.dll
 0001:00062f26       _CompareStringW@24         10063f26 f   kernel32:KERNEL32.dll
 0001:00062f2c       _LCMapStringW@24           10063f2c f   kernel32:KERNEL32.dll
 0001:00062f32       _GetLocaleInfoW@16         10063f32 f   kernel32:KERNEL32.dll
 0001:00062f38       _IsValidLocale@8           10063f38 f   kernel32:KERNEL32.dll
 0001:00062f3e       _GetUserDefaultLCID@0      10063f3e f   kernel32:KERNEL32.dll
 0001:00062f44       _EnumSystemLocalesW@8      10063f44 f   kernel32:KERNEL32.dll
 0001:00062f4a       _GetStringTypeW@16         10063f4a f   kernel32:KERNEL32.dll
 0001:00062f50       _CreateFileW@28            10063f50 f   kernel32:KERNEL32.dll
 0001:00062f56       _SetEndOfFile@4            10063f56 f   kernel32:KERNEL32.dll
 0002:00000000       __imp__GetTickCount@0      10065000     kernel32:KERNEL32.dll
 0002:00000004       __imp__SetEndOfFile@4      10065004     kernel32:KERNEL32.dll
 0002:00000008       __imp__CreateFileW@28      10065008     kernel32:KERNEL32.dll
 0002:0000000c       __imp__GetStringTypeW@16   1006500c     kernel32:KERNEL32.dll
 0002:00000010       __imp__EnumSystemLocalesW@8 10065010     kernel32:KERNEL32.dll
 0002:00000014       __imp__GetUserDefaultLCID@0 10065014     kernel32:KERNEL32.dll
 0002:00000018       __imp__IsValidLocale@8     10065018     kernel32:KERNEL32.dll
 0002:0000001c       __imp__GetLocaleInfoW@16   1006501c     kernel32:KERNEL32.dll
 0002:00000020       __imp__LCMapStringW@24     10065020     kernel32:KERNEL32.dll
 0002:00000024       __imp__CompareStringW@24   10065024     kernel32:KERNEL32.dll
 0002:00000028       __imp__GetTimeFormatW@24   10065028     kernel32:KERNEL32.dll
 0002:0000002c       __imp__GetDateFormatW@24   1006502c     kernel32:KERNEL32.dll
 0002:00000030       __imp__RtlUnwind@16        10065030     kernel32:KERNEL32.dll
 0002:00000034       __imp__IsDebuggerPresent@0 10065034     kernel32:KERNEL32.dll
 0002:00000038       __imp__IsProcessorFeaturePresent@4 10065038     kernel32:KERNEL32.dll
 0002:0000003c       __imp__EncodePointer@4     1006503c     kernel32:KERNEL32.dll
 0002:00000040       __imp__DecodePointer@4     10065040     kernel32:KERNEL32.dll
 0002:00000044       __imp__GetCommandLineA@0   10065044     kernel32:KERNEL32.dll
 0002:00000048       __imp__GetCurrentThreadId@0 10065048     kernel32:KERNEL32.dll
 0002:0000004c       __imp__GetLastError@0      1006504c     kernel32:KERNEL32.dll
 0002:00000050       __imp__ExitProcess@4       10065050     kernel32:KERNEL32.dll
 0002:00000054       __imp__GetModuleHandleExW@12 10065054     kernel32:KERNEL32.dll
 0002:00000058       __imp__GetProcAddress@8    10065058     kernel32:KERNEL32.dll
 0002:0000005c       __imp__AreFileApisANSI@0   1006505c     kernel32:KERNEL32.dll
 0002:00000060       __imp__MultiByteToWideChar@24 10065060     kernel32:KERNEL32.dll
 0002:00000064       __imp__WideCharToMultiByte@32 10065064     kernel32:KERNEL32.dll
 0002:00000068       __imp__EnterCriticalSection@4 10065068     kernel32:KERNEL32.dll
 0002:0000006c       __imp__LeaveCriticalSection@4 1006506c     kernel32:KERNEL32.dll
 0002:00000070       __imp__RaiseException@16   10065070     kernel32:KERNEL32.dll
 0002:00000074       __imp__DeleteCriticalSection@4 10065074     kernel32:KERNEL32.dll
 0002:00000078       __imp__FatalAppExitA@8     10065078     kernel32:KERNEL32.dll
 0002:0000007c       __imp__GetModuleFileNameW@12 1006507c     kernel32:KERNEL32.dll
 0002:00000080       __imp__HeapValidate@12     10065080     kernel32:KERNEL32.dll
 0002:00000084       __imp__GetSystemInfo@4     10065084     kernel32:KERNEL32.dll
 0002:00000088       __imp__LoadLibraryExW@12   10065088     kernel32:KERNEL32.dll
 0002:0000008c       __imp__SetLastError@4      1006508c     kernel32:KERNEL32.dll
 0002:00000090       __imp__GetCurrentThread@0  10065090     kernel32:KERNEL32.dll
 0002:00000094       __imp__UnhandledExceptionFilter@4 10065094     kernel32:KERNEL32.dll
 0002:00000098       __imp__SetUnhandledExceptionFilter@4 10065098     kernel32:KERNEL32.dll
 0002:0000009c       __imp__InitializeCriticalSectionAndSpinCount@8 1006509c     kernel32:KERNEL32.dll
 0002:000000a0       __imp__CreateEventW@16     100650a0     kernel32:KERNEL32.dll
 0002:000000a4       __imp__Sleep@4             100650a4     kernel32:KERNEL32.dll
 0002:000000a8       __imp__GetCurrentProcess@0 100650a8     kernel32:KERNEL32.dll
 0002:000000ac       __imp__TerminateProcess@8  100650ac     kernel32:KERNEL32.dll
 0002:000000b0       __imp__TlsAlloc@0          100650b0     kernel32:KERNEL32.dll
 0002:000000b4       __imp__TlsGetValue@4       100650b4     kernel32:KERNEL32.dll
 0002:000000b8       __imp__TlsSetValue@8       100650b8     kernel32:KERNEL32.dll
 0002:000000bc       __imp__TlsFree@4           100650bc     kernel32:KERNEL32.dll
 0002:000000c0       __imp__GetStartupInfoW@4   100650c0     kernel32:KERNEL32.dll
 0002:000000c4       __imp__GetModuleHandleW@4  100650c4     kernel32:KERNEL32.dll
 0002:000000c8       __imp__CreateSemaphoreW@16 100650c8     kernel32:KERNEL32.dll
 0002:000000cc       __imp__CloseHandle@4       100650cc     kernel32:KERNEL32.dll
 0002:000000d0       __imp__ReadFile@20         100650d0     kernel32:KERNEL32.dll
 0002:000000d4       __imp__GetConsoleMode@8    100650d4     kernel32:KERNEL32.dll
 0002:000000d8       __imp__ReadConsoleW@20     100650d8     kernel32:KERNEL32.dll
 0002:000000dc       __imp__WriteFile@20        100650dc     kernel32:KERNEL32.dll
 0002:000000e0       __imp__GetConsoleCP@0      100650e0     kernel32:KERNEL32.dll
 0002:000000e4       __imp__GetStdHandle@4      100650e4     kernel32:KERNEL32.dll
 0002:000000e8       __imp__GetProcessHeap@0    100650e8     kernel32:KERNEL32.dll
 0002:000000ec       __imp__GetFileType@4       100650ec     kernel32:KERNEL32.dll
 0002:000000f0       __imp__GetModuleFileNameA@12 100650f0     kernel32:KERNEL32.dll
 0002:000000f4       __imp__QueryPerformanceCounter@4 100650f4     kernel32:KERNEL32.dll
 0002:000000f8       __imp__GetCurrentProcessId@0 100650f8     kernel32:KERNEL32.dll
 0002:000000fc       __imp__GetSystemTimeAsFileTime@4 100650fc     kernel32:KERNEL32.dll
 0002:00000100       __imp__GetEnvironmentStringsW@0 10065100     kernel32:KERNEL32.dll
 0002:00000104       __imp__FreeEnvironmentStringsW@4 10065104     kernel32:KERNEL32.dll
 0002:00000108       __imp__SetConsoleCtrlHandler@8 10065108     kernel32:KERNEL32.dll
 0002:0000010c       __imp__FreeLibrary@4       1006510c     kernel32:KERNEL32.dll
 0002:00000110       __imp__IsValidCodePage@4   10065110     kernel32:KERNEL32.dll
 0002:00000114       __imp__GetACP@0            10065114     kernel32:KERNEL32.dll
 0002:00000118       __imp__GetOEMCP@0          10065118     kernel32:KERNEL32.dll
 0002:0000011c       __imp__GetCPInfo@8         1006511c     kernel32:KERNEL32.dll
 0002:00000120       __imp__OutputDebugStringW@4 10065120     kernel32:KERNEL32.dll
 0002:00000124       __imp__WaitForSingleObjectEx@12 10065124     kernel32:KERNEL32.dll
 0002:00000128       __imp__CreateThread@24     10065128     kernel32:KERNEL32.dll
 0002:0000012c       __imp__OutputDebugStringA@4 1006512c     kernel32:KERNEL32.dll
 0002:00000130       __imp__WriteConsoleW@20    10065130     kernel32:KERNEL32.dll
 0002:00000134       __imp__HeapFree@12         10065134     kernel32:KERNEL32.dll
 0002:00000138       __imp__HeapReAlloc@16      10065138     kernel32:KERNEL32.dll
 0002:0000013c       __imp__HeapSize@12         1006513c     kernel32:KERNEL32.dll
 0002:00000140       __imp__HeapQueryInformation@20 10065140     kernel32:KERNEL32.dll
 0002:00000144       __imp__HeapAlloc@12        10065144     kernel32:KERNEL32.dll
 0002:00000148       __imp__VirtualQuery@12     10065148     kernel32:KERNEL32.dll
 0002:0000014c       __imp__SetFilePointerEx@20 1006514c     kernel32:KERNEL32.dll
 0002:00000150       __imp__SetStdHandle@8      10065150     kernel32:KERNEL32.dll
 0002:00000154       __imp__FlushFileBuffers@4  10065154     kernel32:KERNEL32.dll
 0002:00000158       \177KERNEL32_NULL_THUNK_DATA 10065158     kernel32:KERNEL32.dll
 0002:0000015c       __imp_?RtDistToPit@@YAHPAUCarElt@@PAUtTrack@@PAM2@Z 1006515c     robottools:robottools.dll
 0002:00000160       __imp_?RtTrackSideTgAngleL@@YAMPAUtTrkLocPos@@@Z 10065160     robottools:robottools.dll
 0002:00000164       \177robottools_NULL_THUNK_DATA 10065164     robottools:robottools.dll
 0002:00000168       __imp_?GfParmSetNum@@YAHPAXPBD11M@Z 10065168     tgf:tgf.dll
 0002:0000016c       __imp_?GfCreateDir@@YAHPAD@Z 1006516c     tgf:tgf.dll
 0002:00000170       __imp_?GetDataDir@@YAPADXZ 10065170     tgf:tgf.dll
 0002:00000174       __imp_?GetLocalDir@@YAPADXZ 10065174     tgf:tgf.dll
 0002:00000178       __imp_?GfParmGetNum@@YAMPAXPBD11M@Z 10065178     tgf:tgf.dll
 0002:0000017c       __imp_?GfParmGetStr@@YAPBDPAXPBD11@Z 1006517c     tgf:tgf.dll
 0002:00000180       __imp_?GfParmReadFile@@YAPAXPBDH@Z 10065180     tgf:tgf.dll
 0002:00000184       __imp_?_tgf_win_strdup@@YAPADPBD@Z 10065184     tgf:tgf.dll
 0002:00000188       \177tgf_NULL_THUNK_DATA    10065188     tgf:tgf.dll
 0002:0000018c       ___xc_a                    1006518c     LIBCMTD:crt0init.obj
 0002:00000194       ___xc_z                    10065194     LIBCMTD:crt0init.obj
 0002:00000198       ___xi_a                    10065198     LIBCMTD:crt0init.obj
 0002:000001b0       ___xi_z                    100651b0     LIBCMTD:crt0init.obj
 0002:000001b4       ___xp_a                    100651b4     LIBCMTD:crt0init.obj
 0002:000001c4       ___xp_z                    100651c4     LIBCMTD:crt0init.obj
 0002:000001c8       ___xt_a                    100651c8     LIBCMTD:crt0init.obj
 0002:000001cc       ___xt_z                    100651cc     LIBCMTD:crt0init.obj
 0002:00000218       __real@4000000000000000    10065218     cardata.obj
 0002:00000220       __xmm@80000000000000008000000000000000 10065220     cardata.obj
 0002:000004d8       ?UNSTUCK_TIME_LIMIT@Driver@@0MB 100654d8     driver.obj
 0002:000004dc       ?MAX_UNSTUCK_SPEED@Driver@@0MB 100654dc     driver.obj
 0002:000004e0       ?MIN_UNSTUCK_DIST@Driver@@0MB 100654e0     driver.obj
 0002:000004e4       ?G@Driver@@0MB             100654e4     driver.obj
 0002:000004e8       ?FULL_ACCEL_MARGIN@Driver@@0MB 100654e8     driver.obj
 0002:000004ec       ?SHIFT@Driver@@0MB         100654ec     driver.obj
 0002:000004f0       ?SHIFT_MARGIN@Driver@@0MB  100654f0     driver.obj
 0002:000004f4       ?ABS_SLIP@Driver@@0MB      100654f4     driver.obj
 0002:000004f8       ?ABS_RANGE@Driver@@0MB     100654f8     driver.obj
 0002:000004fc       ?ABS_MINSPEED@Driver@@0MB  100654fc     driver.obj
 0002:00000500       ?TCL_SLIP@Driver@@0MB      10065500     driver.obj
 0002:00000504       ?LOOKAHEAD_CONST@Driver@@0MB 10065504     driver.obj
 0002:00000508       ?LOOKAHEAD_FACTOR@Driver@@0MB 10065508     driver.obj
 0002:0000050c       ?WIDTHDIV@Driver@@0MB      1006550c     driver.obj
 0002:00000510       ?SIDECOLL_MARGIN@Driver@@0MB 10065510     driver.obj
 0002:00000514       ?BORDER_OVERTAKE_MARGIN@Driver@@0MB 10065514     driver.obj
 0002:00000518       ?OVERTAKE_OFFSET_SPEED@Driver@@0MB 10065518     driver.obj
 0002:0000051c       ?PIT_LOOKAHEAD@Driver@@0MB 1006551c     driver.obj
 0002:00000520       ?PIT_BRAKE_AHEAD@Driver@@0MB 10065520     driver.obj
 0002:00000524       ?PIT_MU@Driver@@0MB        10065524     driver.obj
 0002:00000528       ?MAX_SPEED@Driver@@0MB     10065528     driver.obj
 0002:0000052c       ?TCL_RANGE@Driver@@0MB     1006552c     driver.obj
 0002:00000530       ?MAX_FUEL_PER_METER@Driver@@0MB 10065530     driver.obj
 0002:00000534       ?CLUTCH_SPEED@Driver@@0MB  10065534     driver.obj
 0002:00000538       ?CENTERDIV@Driver@@0MB     10065538     driver.obj
 0002:0000053c       ?DISTCUTOFF@Driver@@0MB    1006553c     driver.obj
 0002:00000540       ?MAX_INC_FACTOR@Driver@@0MB 10065540     driver.obj
 0002:00000544       ?CATCH_FACTOR@Driver@@0MB  10065544     driver.obj
 0002:00000548       ?CLUTCH_FULL_MAX_TIME@Driver@@0MB 10065548     driver.obj
 0002:0000054c       ?USE_LEARNED_OFFSET_RANGE@Driver@@0MB 1006554c     driver.obj
 0002:00000550       ?TEAM_REAR_DIST@Driver@@0MB 10065550     driver.obj
 0002:00000554       ?TEAM_DAMAGE_CHANGE_LEAD@Driver@@0HB 10065554     driver.obj
 0002:000005d8       ??_7SimpleStrategy2@@6B@   100655d8     driver.obj
 0002:000005f8       __real@00000000            100655f8     driver.obj
 0002:00000600       __real@0000000000000000    10065600     driver.obj
 0002:00000608       __real@3ca3d70a            10065608     driver.obj
 0002:0000060c       __real@3e4ccccd            1006560c     driver.obj
 0002:00000610       __real@3f000000            10065610     driver.obj
 0002:00000614       __real@3f251eb8            10065614     driver.obj
 0002:00000618       __real@3f30a3d7            10065618     driver.obj
 0002:0000061c       __real@3f800000            1006561c     driver.obj
 0002:00000620       __real@3f947ae147ae147b    10065620     driver.obj
 0002:00000628       __real@3f9d70a4            10065628     driver.obj
 0002:00000630       __real@3fb5555560000000    10065630     driver.obj
 0002:00000638       __real@3fc00000            10065638     driver.obj
 0002:00000640       __real@3ff0000000000000    10065640     driver.obj
 0002:00000648       __real@40000000            10065648     driver.obj
 0002:0000064c       __real@40800000            1006564c     driver.obj
 0002:00000650       __real@447a0000            10065650     driver.obj
 0002:00000654       __real@7f7fffff            10065654     driver.obj
 0002:00000658       __real@bf800000            10065658     driver.obj
 0002:0000065c       __real@c0400000            1006565c     driver.obj
 0002:00000660       __real@c47a0000            10065660     driver.obj
 0002:00000670       __xmm@80000000800000008000000080000000 10065670     driver.obj
 0002:00000714       __real@41200000            10065714     learn.obj
 0002:0000071c       ?FRONTCOLLDIST@Opponent@@0MB 1006571c     opponent.obj
 0002:00000720       ?BACKCOLLDIST@Opponent@@0MB 10065720     opponent.obj
 0002:00000724       ?LENGTH_MARGIN@Opponent@@0MB 10065724     opponent.obj
 0002:00000728       ?SIDE_MARGIN@Opponent@@0MB 10065728     opponent.obj
 0002:0000072c       ?EXACT_DIST@Opponent@@0MB  1006572c     opponent.obj
 0002:00000730       ?LAP_BACK_TIME_PENALTY@Opponent@@0MB 10065730     opponent.obj
 0002:00000734       ?OVERLAP_WAIT_TIME@Opponent@@0MB 10065734     opponent.obj
 0002:00000738       ?SPEED_PASS_MARGIN@Opponent@@0MB 10065738     opponent.obj
 0002:00000740       ?SPEED_LIMIT_MARGIN@Pit@@0MB 10065740     pit.obj
 0002:00000744       __real@40400000            10065744     pit.obj
 0002:00000748       __real@4049000000000000    10065748     pit.obj
 0002:00000750       __real@bff0000000000000    10065750     pit.obj
 0002:000007dc       ?MAX_FUEL_PER_METER@SimpleStrategy@@1MB 100657dc     strategy.obj
 0002:000007e0       ?PIT_DAMMAGE@SimpleStrategy@@1HB 100657e0     strategy.obj
 0002:00000834       ??_7AbstractStrategy@@6B@  10065834     strategy.obj
 0002:00000854       ??_7SimpleStrategy@@6B@    10065854     strategy.obj
 0002:00000870       __real@3ff8000000000000    10065870     strategy.obj
 0002:00000878       __real@41000000            10065878     strategy.obj
 0002:0000087c       __real@41c80000            1006587c     strategy.obj
 0002:00000880       __real@42ae0000            10065880     strategy.obj
 0002:00000884       __real@42c80000            10065884     strategy.obj
 0002:00000890       __real@404ca5dc1a63c1f8    10065890     sg_vs2008_32:sgd.obj
 0002:00000898       __real@3f91df46a2529d39    10065898     sg_vs2008_32:sgd.obj
 0002:000008a0       __real@4022d97c7f3321d2    100658a0     sg_vs2008_32:sgd.obj
 0002:000008a8       __real@400921fb54442d18    100658a8     sg_vs2008_32:sgd.obj
 0002:000008b0       __real@401921fb54442d18    100658b0     sg_vs2008_32:sgd.obj
 0002:000008b8       __real@3ff921fb54442d18    100658b8     sg_vs2008_32:sgd.obj
 0002:000008c0       __real@3fefffeb074a771d    100658c0     sg_vs2008_32:sgd.obj
 0002:000008c8       __real@bff921fb54442d18    100658c8     sg_vs2008_32:sgd.obj
 0002:000008d0       __real@bfefffeb074a771d    100658d0     sg_vs2008_32:sgd.obj
 0002:000008d8       ??_C@_0CL@MFADICKC@sgdGetAngleBetweenVectors?3?5Norma@ 100658d8     sg_vs2008_32:sgd.obj
 0002:00000908       __real@3fe0000000000000    10065908     sg_vs2008_32:sgd.obj
 0002:00000910       __real@c000000000000000    10065910     sg_vs2008_32:sgd.obj
 0002:00000918       ??_C@_0ED@LKGOFPEJ@sgFrustum?3?5Can?8t?5support?5fields?5@ 10065918     sg_vs2008_32:sgd.obj
 0002:0000095c       ??_C@_0DF@MFOAFILF@sgFrustum?3?5Can?8t?5support?5width?5o@ 1006595c     sg_vs2008_32:sgd.obj
 0002:00000994       ??_C@_0DE@FLABMHND@sgdFrustum?3?5Can?8t?5support?5depth?5@ 10065994     sg_vs2008_32:sgd.obj
 0002:000009c8       __real@3fb999999999999a    100659c8     sg_vs2008_32:sgd.obj
 0002:000009d0       __real@bee4f8b588e368f1    100659d0     sg_vs2008_32:sgd.obj
 0002:000009d8       ??_C@_0CE@HBHLABFJ@sgdMat4ToCoord?3?5ERROR?5?9?5Bad?5Matr@ 100659d8     sg_vs2008_32:sgd.obj
 0002:00000a00       __real@3ee4f8b588e368f1    10065a00     sg_vs2008_32:sgd.obj
 0002:00000a08       ??_C@_0CJ@BEEFNIHJ@sg?3?5ERROR?5?9?5Singular?5matrix?0?5no?5@ 10065a08     sg_vs2008_32:sgd.obj
 0002:00000a38       __real@3cb0000000000000    10065a38     sg_vs2008_32:sgd.obj
 0002:00000a40       __real@c04ca5dc1a63c1f8    10065a40     sg_vs2008_32:sgd.obj
 0002:00000a48       __real@3feffffde7210be9    10065a48     sg_vs2008_32:sgd.obj
 0002:00000a50       __real@3eb0c6f7a0b5ed8d    10065a50     sg_vs2008_32:sgd.obj
 0002:00000a58       __real@404e000000000000    10065a58     sg_vs2008_32:sgd.obj
 0002:00000a60       __real@4056800000000000    10065a60     sg_vs2008_32:sgd.obj
 0002:00000a68       __real@4066800000000000    10065a68     sg_vs2008_32:sgd.obj
 0002:00000a70       ??_C@_05JLFELJNP@FATAL?$AA@ 10065a70     ul_vs2008_32:ulError.obj
 0002:00000a78       ??_C@_07KCOHIFOP@WARNING?$AA@ 10065a78     ul_vs2008_32:ulError.obj
 0002:00000a80       ??_C@_05KOLFGEDA@DEBUG?$AA@ 10065a80     ul_vs2008_32:ulError.obj
 0002:00000a8c       ??_C@_07KJFPOMFC@?$CFs?3?5?$CFs?6?$AA@ 10065a8c     ul_vs2008_32:ulError.obj
 0002:00000a94       ?value@?$integral_constant@_N$0A@@std@@2_NB 10065a94     LIBCMTD:new.obj
 0002:00000a95       ?value@?$integral_constant@_N$00@std@@2_NB 10065a95     LIBCMTD:new.obj
 0002:00000a9c       ??_7bad_alloc@std@@6B@     10065a9c     LIBCMTD:new.obj
 0002:00000aa4       ??_C@_0P@GHFPNOJB@bad?5allocation?$AA@ 10065aa4     LIBCMTD:new.obj
 0002:00000ab8       ??_C@_1EO@LHDAJOCM@?$AA_?$AAB?$AAL?$AAO?$AAC?$AAK?$AA_?$AAT?$AAY?$AAP?$AAE?$AA_?$AAI?$AAS?$AA_?$AAV?$AAA?$AAL?$AAI?$AAD?$AA?$CI?$AAp?$AAH?$AAe?$AAa?$AAd?$AA?9?$AA?$DO?$AAn?$AAB?$AAl?$AAo@ 10065ab8     LIBCMTD:dbgdel.obj
 0002:00000b08       ??_C@_15GANGMFKL@?$AA?$CF?$AAs?$AA?$AA@ 10065b08     LIBCMTD:dbgdel.obj
 0002:00000b10       ??_C@_1FC@BHNGAOAE@?$AAf?$AA?3?$AA?2?$AAd?$AAd?$AA?2?$AAv?$AAc?$AAt?$AAo?$AAo?$AAl?$AAs?$AA?2?$AAc?$AAr?$AAt?$AA?2?$AAc?$AAr?$AAt?$AAw?$AA3?$AA2?$AA?2?$AAm?$AAi?$AAs?$AAc?$AA?2?$AAd?$AAb@ 10065b10     LIBCMTD:dbgdel.obj
 0002:00000b64       __FPinit                   10065b64     LIBCMTD:fpinit.obj
 0002:00000b68       ?ProcessDetach@NativeDll@<CrtImplementationDetails>@@0IB 10065b68     LIBCMTD:_trnsctrl_.obj
 0002:00000b6c       ?ProcessAttach@NativeDll@<CrtImplementationDetails>@@0IB 10065b6c     LIBCMTD:_trnsctrl_.obj
 0002:00000b70       ?ThreadAttach@NativeDll@<CrtImplementationDetails>@@0IB 10065b70     LIBCMTD:_trnsctrl_.obj
 0002:00000b74       ?ThreadDetach@NativeDll@<CrtImplementationDetails>@@0IB 10065b74     LIBCMTD:_trnsctrl_.obj
 0002:00000b78       ?ProcessVerifier@NativeDll@<CrtImplementationDetails>@@0IB 10065b78     LIBCMTD:_trnsctrl_.obj
 0002:00000b7c       ??_C@_1CC@MGIEJOME@?$AA?$CI?$AAf?$AAo?$AAr?$AAm?$AAa?$AAt?$AA?5?$AA?$CB?$AA?$DN?$AA?5?$AAN?$AAU?$AAL?$AAL?$AA?$CJ?$AA?$AA@ 10065b7c     LIBCMTD:snprintf.obj
 0002:00000ba0       ??_C@_1FC@JALKILNE@?$AAf?$AA?3?$AA?2?$AAd?$AAd?$AA?2?$AAv?$AAc?$AAt?$AAo?$AAo?$AAl?$AAs?$AA?2?$AAc?$AAr?$AAt?$AA?2?$AAc?$AAr?$AAt?$AAw?$AA3?$AA2?$AA?2?$AAs?$AAt?$AAd?$AAi?$AAo?$AA?2?$AAs@ 10065ba0     LIBCMTD:snprintf.obj
 0002:00000bf4       ??_C@_1BE@CHNFPLHD@?$AA_?$AAs?$AAn?$AAp?$AAr?$AAi?$AAn?$AAt?$AAf?$AA?$AA@ 10065bf4     LIBCMTD:snprintf.obj
 0002:00000c08       ??_C@_1EC@FABAOFFO@?$AA?$CI?$AAc?$AAo?$AAu?$AAn?$AAt?$AA?5?$AA?$DN?$AA?$DN?$AA?5?$AA0?$AA?$CJ?$AA?5?$AA?$HM?$AA?$HM?$AA?5?$AA?$CI?$AAs?$AAt?$AAr?$AAi?$AAn?$AAg?$AA?5?$AA?$CB?$AA?$DN?$AA?5?$AAN?$AAU?$AAL?$AAL?$AA?$CJ@ 10065c08     LIBCMTD:snprintf.obj
 0002:00000c50       ??_7type_info@@6B@         10065c50     LIBCMTD:typinfo.obj
 0002:00000c5c       ??_C@_1CC@FADMNIL@?$AA?$CI?$AAs?$AAt?$AAr?$AAe?$AAa?$AAm?$AA?5?$AA?$CB?$AA?$DN?$AA?5?$AAN?$AAU?$AAL?$AAL?$AA?$CJ?$AA?$AA@ 10065c5c     LIBCMTD:fclose.obj
 0002:00000c80       ??_C@_1FA@HHFEGMDA@?$AAf?$AA?3?$AA?2?$AAd?$AAd?$AA?2?$AAv?$AAc?$AAt?$AAo?$AAo?$AAl?$AAs?$AA?2?$AAc?$AAr?$AAt?$AA?2?$AAc?$AAr?$AAt?$AAw?$AA3?$AA2?$AA?2?$AAs?$AAt?$AAd?$AAi?$AAo?$AA?2?$AAf@ 10065c80     LIBCMTD:fclose.obj
 0002:00000cd0       ??_C@_1O@EGMJNCOI@?$AAf?$AAc?$AAl?$AAo?$AAs?$AAe?$AA?$AA@ 10065cd0     LIBCMTD:fclose.obj
 0002:00000ce0       ??_C@_1BM@JMKHIAHP@?$AA?$CI?$AAs?$AAt?$AAr?$AA?5?$AA?$CB?$AA?$DN?$AA?5?$AAN?$AAU?$AAL?$AAL?$AA?$CJ?$AA?$AA@ 10065ce0     LIBCMTD:fclose.obj
 0002:00000cfc       ??_C@_1BO@JINCABEC@?$AA_?$AAf?$AAc?$AAl?$AAo?$AAs?$AAe?$AA_?$AAn?$AAo?$AAl?$AAo?$AAc?$AAk?$AA?$AA@ 10065cfc     LIBCMTD:fclose.obj
 0002:00000d1c       ??_C@_1BO@CLGIAEOJ@?$AA?$CI?$AAf?$AAi?$AAl?$AAe?$AA?5?$AA?$CB?$AA?$DN?$AA?5?$AAN?$AAU?$AAL?$AAL?$AA?$CJ?$AA?$AA@ 10065d1c     LIBCMTD:fopen.obj
 0002:00000d40       ??_C@_1EO@HOHPPGLK@?$AAf?$AA?3?$AA?2?$AAd?$AAd?$AA?2?$AAv?$AAc?$AAt?$AAo?$AAo?$AAl?$AAs?$AA?2?$AAc?$AAr?$AAt?$AA?2?$AAc?$AAr?$AAt?$AAw?$AA3?$AA2?$AA?2?$AAs?$AAt?$AAd?$AAi?$AAo?$AA?2?$AAf@ 10065d40     LIBCMTD:fopen.obj
 0002:00000d90       ??_C@_1BA@HNEAFMNL@?$AA_?$AAf?$AAs?$AAo?$AAp?$AAe?$AAn?$AA?$AA@ 10065d90     LIBCMTD:fopen.obj
 0002:00000da0       ??_C@_1BO@MJMKAKCJ@?$AA?$CI?$AAm?$AAo?$AAd?$AAe?$AA?5?$AA?$CB?$AA?$DN?$AA?5?$AAN?$AAU?$AAL?$AAL?$AA?$CJ?$AA?$AA@ 10065da0     LIBCMTD:fopen.obj
 0002:00000dc0       ??_C@_1CI@HBNALCBB@?$AA?$CI?$AA?$CK?$AAm?$AAo?$AAd?$AAe?$AA?5?$AA?$CB?$AA?$DN?$AA?5?$AA_?$AAT?$AA?$CI?$AA?8?$AA?2?$AA0?$AA?8?$AA?$CJ?$AA?$CJ?$AA?$AA@ 10065dc0     LIBCMTD:fopen.obj
 0002:00000de8       ??_C@_1CA@LLJLFCDN@?$AA?$CI?$AAp?$AAf?$AAi?$AAl?$AAe?$AA?5?$AA?$CB?$AA?$DN?$AA?5?$AAN?$AAU?$AAL?$AAL?$AA?$CJ?$AA?$AA@ 10065de8     LIBCMTD:fopen.obj
 0002:00000e08       ??_C@_1BA@PBGKCCAP@?$AAf?$AAo?$AAp?$AAe?$AAn?$AA_?$AAs?$AA?$AA@ 10065e08     LIBCMTD:fopen.obj
 0002:00000e18       ??_C@_1EO@KDKHJMND@?$AAf?$AA?3?$AA?2?$AAd?$AAd?$AA?2?$AAv?$AAc?$AAt?$AAo?$AAo?$AAl?$AAs?$AA?2?$AAc?$AAr?$AAt?$AA?2?$AAc?$AAr?$AAt?$AAw?$AA3?$AA2?$AA?2?$AAs?$AAt?$AAd?$AAi?$AAo?$AA?2?$AAf@ 10065e18     LIBCMTD:fread.obj
 0002:00000e68       ??_C@_1BA@CMLCEIGG@?$AAf?$AAr?$AAe?$AAa?$AAd?$AA_?$AAs?$AA?$AA@ 10065e68     LIBCMTD:fread.obj
 0002:00000e78       ??_C@_1CC@CGFEEBMC@?$AA?$CI?$AAb?$AAu?$AAf?$AAf?$AAe?$AAr?$AA?5?$AA?$CB?$AA?$DN?$AA?5?$AAN?$AAU?$AAL?$AAL?$AA?$CJ?$AA?$AA@ 10065e78     LIBCMTD:fread.obj
 0002:00000e9c       ??_C@_1CA@IDPOGFL@?$AA_?$AAf?$AAr?$AAe?$AAa?$AAd?$AA_?$AAn?$AAo?$AAl?$AAo?$AAc?$AAk?$AA_?$AAs?$AA?$AA@ 10065e9c     LIBCMTD:fread.obj
 0002:00000ec0       ??_C@_1EA@FAMECDND@?$AAn?$AAu?$AAm?$AA?5?$AA?$DM?$AA?$DN?$AA?5?$AA?$CI?$AAS?$AAI?$AAZ?$AAE?$AA_?$AAM?$AAA?$AAX?$AA?5?$AA?1?$AA?5?$AAe?$AAl?$AAe?$AAm?$AAe?$AAn?$AAt?$AAS?$AAi?$AAz?$AAe?$AA?$CJ?$AA?$AA@ 10065ec0     LIBCMTD:fread.obj
 0002:00000f00       ??_C@_1LG@DCNDJCHK@?$AA?$CI?$AA?$CC?$AAI?$AAn?$AAc?$AAo?$AAn?$AAs?$AAi?$AAs?$AAt?$AAe?$AAn?$AAt?$AA?5?$AAS?$AAt?$AAr?$AAe?$AAa?$AAm?$AA?5?$AAC?$AAo?$AAu?$AAn?$AAt?$AA?4?$AA?5?$AAF?$AAl?$AAu@ 10065f00     LIBCMTD:fread.obj
 0002:00000fb8       ??_C@_1DA@DKEFLDMG@?$AA?$CI?$AA?$CC?$AAb?$AAu?$AAf?$AAf?$AAe?$AAr?$AA?5?$AAt?$AAo?$AAo?$AA?5?$AAs?$AAm?$AAa?$AAl?$AAl?$AA?$CC?$AA?0?$AA?5?$AA0?$AA?$CJ?$AA?$AA@ 10065fb8     LIBCMTD:fread.obj
 0002:00000fe8       ??_C@_1FA@OFIKMJFM@?$AAf?$AA?3?$AA?2?$AAd?$AAd?$AA?2?$AAv?$AAc?$AAt?$AAo?$AAo?$AAl?$AAs?$AA?2?$AAc?$AAr?$AAt?$AA?2?$AAc?$AAr?$AAt?$AAw?$AA3?$AA2?$AA?2?$AAs?$AAt?$AAd?$AAi?$AAo?$AA?2?$AAf@ 10065fe8     LIBCMTD:fwrite.obj
 0002:00001038       ??_C@_1O@KLNKIMAP@?$AAf?$AAw?$AAr?$AAi?$AAt?$AAe?$AA?$AA@ 10066038     LIBCMTD:fwrite.obj
 0002:00001048       ??_C@_1BO@JGPKCBCE@?$AA_?$AAf?$AAw?$AAr?$AAi?$AAt?$AAe?$AA_?$AAn?$AAo?$AAl?$AAo?$AAc?$AAk?$AA?$AA@ 10066048     LIBCMTD:fwrite.obj
 0002:00001068       ??_C@_1DC@FHEPNAPF@?$AAn?$AAu?$AAm?$AA?5?$AA?$DM?$AA?$DN?$AA?5?$AA?$CI?$AAS?$AAI?$AAZ?$AAE?$AA_?$AAM?$AAA?$AAX?$AA?5?$AA?1?$AA?5?$AAs?$AAi?$AAz?$AAe?$AA?$CJ?$AA?$AA@ 10066068     LIBCMTD:fwrite.obj
 0002:000010e8       __pDefaultRawDllMain       100660e8     LIBCMTD:dllcrt0.obj
 0002:000010e8       __pRawDllMain              100660e8     LIBCMTD:dllcrt0.obj
 0002:000010ec       ??_C@_0CL@OOIKPIHN@f?3?2dd?2vctools?2crt?2crtw32?2startup@ 100660ec     LIBCMTD:dllcrt0.obj
 0002:00001118       ??_C@_1BI@BGOHAHKC@?$AAm?$AAs?$AAc?$AAo?$AAr?$AAe?$AAe?$AA?4?$AAd?$AAl?$AAl?$AA?$AA@ 10066118     LIBCMTD:crt0dat.obj
 0002:00001130       ??_C@_0P@MIGLKIOC@CorExitProcess?$AA@ 10066130     LIBCMTD:crt0dat.obj
 0002:00001140       ??_C@_1BO@LKEBEKJP@?$AAp?$AAV?$AAa?$AAl?$AAu?$AAe?$AA?5?$AA?$CB?$AA?$DN?$AA?5?$AAN?$AAU?$AAL?$AAL?$AA?$AA@ 10066140     LIBCMTD:crt0dat.obj
 0002:00001160       ??_C@_1FG@MHCBBJEK@?$AAf?$AA?3?$AA?2?$AAd?$AAd?$AA?2?$AAv?$AAc?$AAt?$AAo?$AAo?$AAl?$AAs?$AA?2?$AAc?$AAr?$AAt?$AA?2?$AAc?$AAr?$AAt?$AAw?$AA3?$AA2?$AA?2?$AAs?$AAt?$AAa?$AAr?$AAt?$AAu?$AAp@ 10066160     LIBCMTD:crt0dat.obj
 0002:000011b8       ??_C@_1BK@PNLDCCDP@?$AA_?$AAg?$AAe?$AAt?$AA_?$AAw?$AAp?$AAg?$AAm?$AAp?$AAt?$AAr?$AA?$AA@ 100661b8     LIBCMTD:crt0dat.obj
 0002:000011d4       ??_C@_1CC@CDIPMFPD@?$AA_?$AAw?$AAp?$AAg?$AAm?$AAp?$AAt?$AAr?$AA?5?$AA?$CB?$AA?$DN?$AA?5?$AAN?$AAU?$AAL?$AAL?$AA?$AA@ 100661d4     LIBCMTD:crt0dat.obj
 0002:000011f8       ??_C@_1BI@COAAPHJK@?$AA_?$AAg?$AAe?$AAt?$AA_?$AAp?$AAg?$AAm?$AAp?$AAt?$AAr?$AA?$AA@ 100661f8     LIBCMTD:crt0dat.obj
 0002:00001210       ??_C@_1CA@BBNAFCKO@?$AA_?$AAp?$AAg?$AAm?$AAp?$AAt?$AAr?$AA?5?$AA?$CB?$AA?$DN?$AA?5?$AAN?$AAU?$AAL?$AAL?$AA?$AA@ 10066210     LIBCMTD:crt0dat.obj
 0002:00001230       ??_C@_1BK@DJNILIMN@?$AAp?$AAa?$AAt?$AAh?$AA?5?$AA?$CB?$AA?$DN?$AA?5?$AAN?$AAU?$AAL?$AAL?$AA?$AA@ 10066230     LIBCMTD:crt0dat.obj
 0002:0000124c       ??_C@_1DG@KANBJOCK@?$AA_?$AA_?$AAc?$AAo?$AAp?$AAy?$AA_?$AAp?$AAa?$AAt?$AAh?$AA_?$AAt?$AAo?$AA_?$AAw?$AAi?$AAd?$AAe?$AA_?$AAs?$AAt?$AAr?$AAi?$AAn?$AAg?$AA?$AA@ 1006624c     LIBCMTD:crt0dat.obj
 0002:00001284       ??_C@_1CA@BGODLPHH@?$AAo?$AAu?$AAt?$AAP?$AAa?$AAt?$AAh?$AA?5?$AA?$CB?$AA?$DN?$AA?5?$AAN?$AAU?$AAL?$AAL?$AA?$AA@ 10066284     LIBCMTD:crt0dat.obj
 0002:000012a4       ??_C@_0CL@LMMOJFEN@f?3?2dd?2vctools?2crt?2crtw32?2startup@ 100662a4     LIBCMTD:crt0dat.obj
 0002:000012d0       ??_C@_1CC@NLGECIOD@?$AAi?$AAn?$AAS?$AAt?$AAr?$AAi?$AAn?$AAg?$AA?5?$AA?$CB?$AA?$DN?$AA?5?$AAN?$AAU?$AAL?$AAL?$AA?$AA@ 100662d0     LIBCMTD:crt0dat.obj
 0002:000012f4       ??_C@_1BO@PNPLHAEP@?$AA_?$AA_?$AAc?$AAo?$AAp?$AAy?$AA_?$AAt?$AAo?$AA_?$AAc?$AAh?$AAa?$AAr?$AA?$AA@ 100662f4     LIBCMTD:crt0dat.obj
 0002:00001314       ??_C@_1CE@HIPDKGHC@?$AAo?$AAu?$AAt?$AAS?$AAt?$AAr?$AAi?$AAn?$AAg?$AA?5?$AA?$CB?$AA?$DN?$AA?5?$AAN?$AAU?$AAL?$AAL?$AA?$AA@ 10066314     LIBCMTD:crt0dat.obj
 0002:00001338       ??_C@_1FC@FLPGPAOO@?$AAf?$AA?3?$AA?2?$AAd?$AAd?$AA?2?$AAv?$AAc?$AAt?$AAo?$AAo?$AAl?$AAs?$AA?2?$AAc?$AAr?$AAt?$AA?2?$AAc?$AAr?$AAt?$AAw?$AA3?$AA2?$AA?2?$AAs?$AAt?$AAd?$AAi?$AAo?$AA?2?$AAf@ 10066338     LIBCMTD:fprintf.obj
 0002:0000138c       ??_C@_1BA@DNOHIGNM@?$AAf?$AAp?$AAr?$AAi?$AAn?$AAt?$AAf?$AA?$AA@ 1006638c     LIBCMTD:fprintf.obj
 0002:000013a0       ??_C@_1BAA@ODEGEDCK@?$AA?$CI?$AA?5?$AA?$CI?$AA_?$AAS?$AAt?$AAr?$AAe?$AAa?$AAm?$AA?9?$AA?$DO?$AA_?$AAf?$AAl?$AAa?$AAg?$AA?5?$AA?$CG?$AA?5?$AA_?$AAI?$AAO?$AAS?$AAT?$AAR?$AAG?$AA?$CJ?$AA?5?$AA?$HM?$AA?$HM?$AA?5@ 100663a0     LIBCMTD:fprintf.obj
 0002:000014a0       ??_C@_0CH@FPHLCLAF@f?3?2dd?2vctools?2crt?2crtw32?2stdio?2_@ 100664a0     LIBCMTD:_file.obj
 0002:000014c8       ??_C@_1FE@CKCGICM@?$AAf?$AA?3?$AA?2?$AAd?$AAd?$AA?2?$AAv?$AAc?$AAt?$AAo?$AAo?$AAl?$AAs?$AA?2?$AAc?$AAr?$AAt?$AA?2?$AAc?$AAr?$AAt?$AAw?$AA3?$AA2?$AA?2?$AAs?$AAt?$AAd?$AAi?$AAo?$AA?2?$AAv@ 100664c8     LIBCMTD:vsprintf.obj
 0002:0000151c       ??_C@_1BI@IGILPKD@?$AA_?$AAv?$AAs?$AAp?$AAr?$AAi?$AAn?$AAt?$AAf?$AA_?$AAl?$AA?$AA@ 1006651c     LIBCMTD:vsprintf.obj
 0002:00001534       ??_C@_1CC@OLIJCKA@?$AA?$CI?$AAs?$AAt?$AAr?$AAi?$AAn?$AAg?$AA?5?$AA?$CB?$AA?$DN?$AA?5?$AAN?$AAU?$AAL?$AAL?$AA?$CJ?$AA?$AA@ 10066534     LIBCMTD:vsprintf.obj
 0002:00001558       ??_C@_1CE@HMKDJHB@?$AA_?$AAv?$AAs?$AAc?$AAp?$AAr?$AAi?$AAn?$AAt?$AAf?$AA_?$AAh?$AAe?$AAl?$AAp?$AAe?$AAr?$AA?$AA@ 10066558     LIBCMTD:vsprintf.obj
 0002:00001580       ??_7exception@std@@6B@     10066580     LIBCMTD:stdexcpt.obj
 0002:00001588       ??_C@_0BC@EOODALEL@Unknown?5exception?$AA@ 10066588     LIBCMTD:stdexcpt.obj
 0002:000015a0       ??_7bad_cast@std@@6B@      100665a0     LIBCMTD:stdexcpt.obj
 0002:000015ac       ??_7bad_typeid@std@@6B@    100665ac     LIBCMTD:stdexcpt.obj
 0002:000015b8       ??_7__non_rtti_object@std@@6B@ 100665b8     LIBCMTD:stdexcpt.obj
 0002:000015c0       ??_C@_1BC@JLLICHIC@?$AAp?$AAn?$AAh?$AA?5?$AA?$DN?$AA?$DN?$AA?5?$AA0?$AA?$AA@ 100665c0     LIBCMTD:handler.obj
 0002:000015d8       ??_C@_1FE@HELBPGKC@?$AAf?$AA?3?$AA?2?$AAd?$AAd?$AA?2?$AAv?$AAc?$AAt?$AAo?$AAo?$AAl?$AAs?$AA?2?$AAc?$AAr?$AAt?$AA?2?$AAc?$AAr?$AAt?$AAw?$AA3?$AA2?$AA?2?$AAh?$AAe?$AAa?$AAp?$AA?2?$AAh?$AAa@ 100665d8     LIBCMTD:handler.obj
 0002:0000164c       ??_C@_0CJ@LPLBAFNO@f?3?2dd?2vctools?2crt?2crtw32?2startup@ 1006664c     LIBCMTD:mlock.obj
 0002:00001684       ??_C@_1BA@GLMCNLEM@?$AAW?$AAa?$AAr?$AAn?$AAi?$AAn?$AAg?$AA?$AA@ 10066684     LIBCMTD:dbgrptw.obj
 0002:00001694       ??_C@_1M@ILHOPKA@?$AAE?$AAr?$AAr?$AAo?$AAr?$AA?$AA@ 10066694     LIBCMTD:dbgrptw.obj
 0002:000016a0       ??_C@_1CC@CGHMNGDG@?$AAA?$AAs?$AAs?$AAe?$AAr?$AAt?$AAi?$AAo?$AAn?$AA?5?$AAF?$AAa?$AAi?$AAl?$AAe?$AAd?$AA?$AA@ 100666a0     LIBCMTD:dbgrptw.obj
 0002:000016c4       ??_C@_17LGKOMLJ@?$AA?4?$AA?4?$AA?4?$AA?$AA@ 100666c4     LIBCMTD:dbgrptw.obj
 0002:000016d0       ??_C@_1HI@OFEHGPPC@?$AAm?$AAo?$AAd?$AAe?$AA?5?$AA?$DN?$AA?$DN?$AA?5?$AA_?$AAC?$AAR?$AAT?$AA_?$AAR?$AAP?$AAT?$AAH?$AAO?$AAO?$AAK?$AA_?$AAI?$AAN?$AAS?$AAT?$AAA?$AAL?$AAL?$AA?5?$AA?$HM?$AA?$HM?$AA?5@ 100666d0     LIBCMTD:dbgrptw.obj
 0002:00001748       ??_C@_1EO@JACJHHCK@?$AAf?$AA?3?$AA?2?$AAd?$AAd?$AA?2?$AAv?$AAc?$AAt?$AAo?$AAo?$AAl?$AAs?$AA?2?$AAc?$AAr?$AAt?$AA?2?$AAc?$AAr?$AAt?$AAw?$AA3?$AA2?$AA?2?$AAm?$AAi?$AAs?$AAc?$AA?2?$AAd?$AAb@ 10066748     LIBCMTD:dbgrptw.obj
 0002:00001798       ??_C@_1CI@IIHEAKEI@?$AA_?$AAC?$AAr?$AAt?$AAS?$AAe?$AAt?$AAR?$AAe?$AAp?$AAo?$AAr?$AAt?$AAH?$AAo?$AAo?$AAk?$AAW?$AA2?$AA?$AA@ 10066798     LIBCMTD:dbgrptw.obj
 0002:000017c0       ??_C@_1CG@JBJEFOCM@?$AAp?$AAf?$AAn?$AAN?$AAe?$AAw?$AAH?$AAo?$AAo?$AAk?$AA?5?$AA?$CB?$AA?$DN?$AA?5?$AAN?$AAU?$AAL?$AAL?$AA?$AA@ 100667c0     LIBCMTD:dbgrptw.obj
 0002:000017e8       ??_C@_1FI@PHIAFFHM@?$AA?$CI?$AA?$CC?$AAT?$AAh?$AAe?$AA?5?$AAh?$AAo?$AAo?$AAk?$AA?5?$AAf?$AAu?$AAn?$AAc?$AAt?$AAi?$AAo?$AAn?$AA?5?$AAi?$AAs?$AA?5?$AAn?$AAo?$AAt?$AA?5?$AAi?$AAn?$AA?5?$AAt?$AAh@ 100667e8     LIBCMTD:dbgrptw.obj
 0002:00001840       ??_C@_0CH@BBGAHGHC@f?3?2dd?2vctools?2crt?2crtw32?2misc?2db@ 10066840     LIBCMTD:dbgrptw.obj
 0002:00001868       ??_C@_1CI@PGJIFDEK@?$AA_?$AA_?$AAc?$AAr?$AAt?$AAM?$AAe?$AAs?$AAs?$AAa?$AAg?$AAe?$AAW?$AAi?$AAn?$AAd?$AAo?$AAw?$AAW?$AA?$AA@ 10066868     LIBCMTD:dbgrptw.obj
 0002:00001890       ??_C@_1GI@DEDNNLCI@?$AAw?$AAc?$AAs?$AAc?$AAp?$AAy?$AA_?$AAs?$AA?$CI?$AAs?$AAz?$AAE?$AAx?$AAe?$AAN?$AAa?$AAm?$AAe?$AA?0?$AA?5?$AA2?$AA6?$AA0?$AA?0?$AA?5?$AAL?$AA?$CC?$AA?$DM?$AAp?$AAr?$AAo?$AAg@ 10066890     LIBCMTD:dbgrptw.obj
 0002:000018f8       ??_C@_1CO@EAEJAADC@?$AA?$DM?$AAp?$AAr?$AAo?$AAg?$AAr?$AAa?$AAm?$AA?5?$AAn?$AAa?$AAm?$AAe?$AA?5?$AAu?$AAn?$AAk?$AAn?$AAo?$AAw?$AAn?$AA?$DO?$AA?$AA@ 100668f8     LIBCMTD:dbgrptw.obj
 0002:00001928       ??_C@_1NO@LECLLHOL@?$AAm?$AAe?$AAm?$AAc?$AAp?$AAy?$AA_?$AAs?$AA?$CI?$AAs?$AAz?$AAS?$AAh?$AAo?$AAr?$AAt?$AAP?$AAr?$AAo?$AAg?$AAN?$AAa?$AAm?$AAe?$AA?0?$AA?5?$AAs?$AAi?$AAz?$AAe?$AAo?$AAf@ 10066928     LIBCMTD:dbgrptw.obj
 0002:00001a08       ??_C@_1OG@PMPPFHAF@?$AA?6?$AA?6?$AAF?$AAo?$AAr?$AA?5?$AAi?$AAn?$AAf?$AAo?$AAr?$AAm?$AAa?$AAt?$AAi?$AAo?$AAn?$AA?5?$AAo?$AAn?$AA?5?$AAh?$AAo?$AAw?$AA?5?$AAy?$AAo?$AAu?$AAr?$AA?5?$AAp?$AAr@ 10066a08     LIBCMTD:dbgrptw.obj
 0002:00001af0       ??_C@_11LOCGONAA@?$AA?$AA@ 10066af0     LIBCMTD:dbgrptw.obj
 0002:00001af4       ??_C@_1BK@PEDCIPMA@?$AAE?$AAx?$AAp?$AAr?$AAe?$AAs?$AAs?$AAi?$AAo?$AAn?$AA?3?$AA?5?$AA?$AA@ 10066af4     LIBCMTD:dbgrptw.obj
 0002:00001b10       ??_C@_15IABLJNFO@?$AA?6?$AA?6?$AA?$AA@ 10066b10     LIBCMTD:dbgrptw.obj
 0002:00001b18       ??_C@_1BA@GLLGCPCK@?$AA?6?$AAL?$AAi?$AAn?$AAe?$AA?3?$AA?5?$AA?$AA@ 10066b18     LIBCMTD:dbgrptw.obj
 0002:00001b28       ??_C@_1BA@LNHECFIM@?$AA?6?$AAF?$AAi?$AAl?$AAe?$AA?3?$AA?5?$AA?$AA@ 10066b28     LIBCMTD:dbgrptw.obj
 0002:00001b38       ??_C@_1BE@CGCJKGHI@?$AA?6?$AAM?$AAo?$AAd?$AAu?$AAl?$AAe?$AA?3?$AA?5?$AA?$AA@ 10066b38     LIBCMTD:dbgrptw.obj
 0002:00001b50       ??_C@_1KM@HNMIBKJH@?$AAD?$AAe?$AAb?$AAu?$AAg?$AA?5?$AA?$CF?$AAs?$AA?$CB?$AA?6?$AA?6?$AAP?$AAr?$AAo?$AAg?$AAr?$AAa?$AAm?$AA?3?$AA?5?$AA?$CF?$AAs?$AA?$CF?$AAs?$AA?$CF?$AAs?$AA?$CF?$AAs?$AA?$CF?$AAs?$AA?$CF?$AAs@ 10066b50     LIBCMTD:dbgrptw.obj
 0002:00001bfc       ??_C@_1BI@KALLJECN@?$AA?$CI?$AA?$CK?$AA_?$AAe?$AAr?$AAr?$AAn?$AAo?$AA?$CI?$AA?$CJ?$AA?$CJ?$AA?$AA@ 10066bfc     LIBCMTD:dbgrptw.obj
 0002:00001c18       ??_C@_1JI@EACPGHID@?$AAw?$AAc?$AAs?$AAc?$AAp?$AAy?$AA_?$AAs?$AA?$CI?$AAs?$AAz?$AAO?$AAu?$AAt?$AAM?$AAe?$AAs?$AAs?$AAa?$AAg?$AAe?$AA?0?$AA?5?$AA4?$AA0?$AA9?$AA6?$AA?0?$AA?5?$AAL?$AA?$CC?$AA_@ 10066c18     LIBCMTD:dbgrptw.obj
 0002:00001cb0       ??_C@_1FG@BBOLDHGF@?$AA_?$AAC?$AAr?$AAt?$AAD?$AAb?$AAg?$AAR?$AAe?$AAp?$AAo?$AAr?$AAt?$AA?3?$AA?5?$AAS?$AAt?$AAr?$AAi?$AAn?$AAg?$AA?5?$AAt?$AAo?$AAo?$AA?5?$AAl?$AAo?$AAn?$AAg?$AA?5?$AAo@ 10066cb0     LIBCMTD:dbgrptw.obj
 0002:00001d08       ??_C@_1EK@MBDPDCGA@?$AAM?$AAi?$AAc?$AAr?$AAo?$AAs?$AAo?$AAf?$AAt?$AA?5?$AAV?$AAi?$AAs?$AAu?$AAa?$AAl?$AA?5?$AAC?$AA?$CL?$AA?$CL?$AA?5?$AAR?$AAu?$AAn?$AAt?$AAi?$AAm?$AAe?$AA?5?$AAL?$AAi?$AAb@ 10066d08     LIBCMTD:dbgrptw.obj
 0002:00001d68       ??_C@_04HJMOFLDF@Free?$AA@ 10066d68     LIBCMTD:dbgheap.obj
 0002:00001d70       ??_C@_06EFAGIKOH@Normal?$AA@ 10066d70     LIBCMTD:dbgheap.obj
 0002:00001d78       ??_C@_03OGPFLFLO@CRT?$AA@  10066d78     LIBCMTD:dbgheap.obj
 0002:00001d7c       ??_C@_06KMEJCCGM@Ignore?$AA@ 10066d7c     LIBCMTD:dbgheap.obj
 0002:00001d84       ??_C@_06PJIGMIJB@Client?$AA@ 10066d84     LIBCMTD:dbgheap.obj
 0002:00001d8c       ??_C@_1CE@LJFEPPMP@?$AA_?$AAC?$AAr?$AAt?$AAC?$AAh?$AAe?$AAc?$AAk?$AAM?$AAe?$AAm?$AAo?$AAr?$AAy?$AA?$CI?$AA?$CJ?$AA?$AA@ 10066d8c     LIBCMTD:dbgheap.obj
 0002:00001db0       ??_C@_1FA@JKEKCOIC@?$AAf?$AA?3?$AA?2?$AAd?$AAd?$AA?2?$AAv?$AAc?$AAt?$AAo?$AAo?$AAl?$AAs?$AA?2?$AAc?$AAr?$AAt?$AA?2?$AAc?$AAr?$AAt?$AAw?$AA3?$AA2?$AA?2?$AAm?$AAi?$AAs?$AAc?$AA?2?$AAd?$AAb@ 10066db0     LIBCMTD:dbgheap.obj
 0002:00001e00       ??_C@_0DF@BBEGIFEK@Client?5hook?5allocation?5failure?5a@ 10066e00     LIBCMTD:dbgheap.obj
 0002:00001e38       ??_C@_0CB@CCLOLAHO@Client?5hook?5allocation?5failure?4?6@ 10066e38     LIBCMTD:dbgheap.obj
 0002:00001e5c       ??_C@_02DKCKIIND@?$CFs?$AA@ 10066e5c     LIBCMTD:dbgheap.obj
 0002:00001e60       ??_C@_0CF@BICKFLAF@Invalid?5allocation?5size?3?5?$CFIu?5byt@ 10066e60     LIBCMTD:dbgheap.obj
 0002:00001e88       ??_C@_0DC@JEMAGEKG@Error?3?5memory?5allocation?3?5bad?5me@ 10066e88     LIBCMTD:dbgheap.obj
 0002:00001ebc       ??_C@_0DI@KKJPDPGM@Client?5hook?5re?9allocation?5failur@ 10066ebc     LIBCMTD:dbgheap.obj
 0002:00001ef4       ??_C@_0CE@DOFMDOL@Client?5hook?5re?9allocation?5failur@ 10066ef4     LIBCMTD:dbgheap.obj
 0002:00001f18       ??_C@_0ED@GPCPBAGP@Invalid?5allocation?5size?3?5?$CFIu?5byt@ 10066f18     LIBCMTD:dbgheap.obj
 0002:00001f60       ??_C@_0FA@EFEIGJKG@Error?3?5memory?5allocation?3?5bad?5me@ 10066f60     LIBCMTD:dbgheap.obj
 0002:00001fb0       ??_C@_0EM@LGFLMAGJ@The?5Block?5at?50x?$CFp?5was?5allocated?5@ 10066fb0     LIBCMTD:dbgheap.obj
 0002:00002000       ??_C@_1EE@GFOPCECE@?$AA_?$AAC?$AAr?$AAt?$AAI?$AAs?$AAV?$AAa?$AAl?$AAi?$AAd?$AAH?$AAe?$AAa?$AAp?$AAP?$AAo?$AAi?$AAn?$AAt?$AAe?$AAr?$AA?$CI?$AAp?$AAU?$AAs?$AAe?$AAr?$AAD?$AAa?$AAt?$AAa@ 10067000     LIBCMTD:dbgheap.obj
 0002:00002048       ??_C@_1IK@DCPKDGNH@?$AAp?$AAO?$AAl?$AAd?$AAB?$AAl?$AAo?$AAc?$AAk?$AA?9?$AA?$DO?$AAn?$AAL?$AAi?$AAn?$AAe?$AA?5?$AA?$DN?$AA?$DN?$AA?5?$AAI?$AAG?$AAN?$AAO?$AAR?$AAE?$AA_?$AAL?$AAI?$AAN?$AAE?$AA?5@ 10067048     LIBCMTD:dbgheap.obj
 0002:000020d4       ??_C@_0DA@HFBKENN@Error?3?5possible?5heap?5corruption?5@ 100670d4     LIBCMTD:dbgheap.obj
 0002:00002108       ??_C@_1GE@PCKLOLAO@?$AAf?$AAR?$AAe?$AAa?$AAl?$AAl?$AAo?$AAc?$AA?5?$AA?$HM?$AA?$HM?$AA?5?$AA?$CI?$AA?$CB?$AAf?$AAR?$AAe?$AAa?$AAl?$AAl?$AAo?$AAc?$AA?5?$AA?$CG?$AA?$CG?$AA?5?$AAp?$AAN?$AAe?$AAw?$AAB?$AAl@ 10067108     LIBCMTD:dbgheap.obj
 0002:0000216c       ??_C@_1DC@GEFKNOOL@?$AA_?$AAp?$AAL?$AAa?$AAs?$AAt?$AAB?$AAl?$AAo?$AAc?$AAk?$AA?5?$AA?$DN?$AA?$DN?$AA?5?$AAp?$AAO?$AAl?$AAd?$AAB?$AAl?$AAo?$AAc?$AAk?$AA?$AA@ 1006716c     LIBCMTD:dbgheap.obj
 0002:000021a0       ??_C@_1DE@KOOKLFBB@?$AA_?$AAp?$AAF?$AAi?$AAr?$AAs?$AAt?$AAB?$AAl?$AAo?$AAc?$AAk?$AA?5?$AA?$DN?$AA?$DN?$AA?5?$AAp?$AAO?$AAl?$AAd?$AAB?$AAl?$AAo?$AAc?$AAk?$AA?$AA@ 100671a0     LIBCMTD:dbgheap.obj
 0002:000021d4       ??_C@_1CE@CJACEFBA@?$AAp?$AAU?$AAs?$AAe?$AAr?$AAD?$AAa?$AAt?$AAa?$AA?5?$AA?$CB?$AA?$DN?$AA?5?$AAN?$AAU?$AAL?$AAL?$AA?$AA@ 100671d4     LIBCMTD:dbgheap.obj
 0002:000021f8       ??_C@_1BI@HAPNGHDP@?$AA_?$AAe?$AAx?$AAp?$AAa?$AAn?$AAd?$AA_?$AAd?$AAb?$AAg?$AA?$AA@ 100671f8     LIBCMTD:dbgheap.obj
 0002:00002210       ??_C@_0EJ@HEIBCIMJ@The?5Block?5at?50x?$CFp?5was?5allocated?5@ 10067210     LIBCMTD:dbgheap.obj
 0002:0000225c       ??_C@_0BL@KEIPLFAC@Client?5hook?5free?5failure?4?6?$AA@ 1006725c     LIBCMTD:dbgheap.obj
 0002:00002278       ??_C@_0KI@JGFOHMEB@HEAP?5CORRUPTION?5DETECTED?3?5before@ 10067278     LIBCMTD:dbgheap.obj
 0002:00002320       ??_C@_0IK@PJCGLBOB@HEAP?5CORRUPTION?5DETECTED?3?5before@ 10067320     LIBCMTD:dbgheap.obj
 0002:000023b0       ??_C@_0KE@MBMNHHHN@HEAP?5CORRUPTION?5DETECTED?3?5after?5@ 100673b0     LIBCMTD:dbgheap.obj
 0002:00002458       ??_C@_0IG@LEMBDCJK@HEAP?5CORRUPTION?5DETECTED?3?5after?5@ 10067458     LIBCMTD:dbgheap.obj
 0002:000024e0       ??_C@_1HK@HPCBMDFG@?$AAp?$AAH?$AAe?$AAa?$AAd?$AA?9?$AA?$DO?$AAn?$AAL?$AAi?$AAn?$AAe?$AA?5?$AA?$DN?$AA?$DN?$AA?5?$AAI?$AAG?$AAN?$AAO?$AAR?$AAE?$AA_?$AAL?$AAI?$AAN?$AAE?$AA?5?$AA?$CG?$AA?$CG?$AA?5?$AAp@ 100674e0     LIBCMTD:dbgheap.obj
 0002:0000255c       ??_C@_1DM@ODCJIDCP@?$AAp?$AAH?$AAe?$AAa?$AAd?$AA?9?$AA?$DO?$AAn?$AAB?$AAl?$AAo?$AAc?$AAk?$AAU?$AAs?$AAe?$AA?5?$AA?$DN?$AA?$DN?$AA?5?$AAn?$AAB?$AAl?$AAo?$AAc?$AAk?$AAU?$AAs?$AAe?$AA?$AA@ 1006755c     LIBCMTD:dbgheap.obj
 0002:00002598       ??_C@_1CK@DMAGEMBG@?$AA_?$AAp?$AAL?$AAa?$AAs?$AAt?$AAB?$AAl?$AAo?$AAc?$AAk?$AA?5?$AA?$DN?$AA?$DN?$AA?5?$AAp?$AAH?$AAe?$AAa?$AAd?$AA?$AA@ 10067598     LIBCMTD:dbgheap.obj
 0002:000025c4       ??_C@_1CM@MMAADDMD@?$AA_?$AAp?$AAF?$AAi?$AAr?$AAs?$AAt?$AAB?$AAl?$AAo?$AAc?$AAk?$AA?5?$AA?$DN?$AA?$DN?$AA?5?$AAp?$AAH?$AAe?$AAa?$AAd?$AA?$AA@ 100675c4     LIBCMTD:dbgheap.obj
 0002:000025f0       ??_C@_1BG@MBKOGDLD@?$AA_?$AAm?$AAs?$AAi?$AAz?$AAe?$AA_?$AAd?$AAb?$AAg?$AA?$AA@ 100675f0     LIBCMTD:dbgheap.obj
 0002:00002608       ??_C@_0CE@MKKHMBMK@_heapchk?5fails?5with?5_HEAPBADBEGI@ 10067608     LIBCMTD:dbgheap.obj
 0002:0000262c       ??_C@_0CD@CPKEAPBD@_heapchk?5fails?5with?5_HEAPBADNODE@ 1006762c     LIBCMTD:dbgheap.obj
 0002:00002650       ??_C@_0CC@MJGLGBDG@_heapchk?5fails?5with?5_HEAPBADEND?4@ 10067650     LIBCMTD:dbgheap.obj
 0002:00002674       ??_C@_0CC@MFFCHFHO@_heapchk?5fails?5with?5_HEAPBADPTR?4@ 10067674     LIBCMTD:dbgheap.obj
 0002:00002698       ??_C@_0CL@HNNNMKMJ@_heapchk?5fails?5with?5unknown?5retu@ 10067698     LIBCMTD:dbgheap.obj
 0002:000026c4       ??_C@_07OHKEFPKJ@DAMAGED?$AA@ 100676c4     LIBCMTD:dbgheap.obj
 0002:000026d0       ??_C@_0KA@IHNJJKPL@HEAP?5CORRUPTION?5DETECTED?3?5on?5top@ 100676d0     LIBCMTD:dbgheap.obj
 0002:00002770       ??_C@_0IC@BBJIOOJH@HEAP?5CORRUPTION?5DETECTED?3?5on?5top@ 10067770     LIBCMTD:dbgheap.obj
 0002:000027f8       ??_C@_0EG@DGJMPDBH@?$CFhs?5located?5at?50x?$CFp?5is?5?$CFIu?5bytes@ 100677f8     LIBCMTD:dbgheap.obj
 0002:00002840       ??_C@_0CI@JMLBEDHJ@?$CFhs?5located?5at?50x?$CFp?5is?5?$CFIu?5bytes@ 10067840     LIBCMTD:dbgheap.obj
 0002:00002868       ??_C@_1BHO@NNANJNF@?$AA?$CI?$AAf?$AAN?$AAe?$AAw?$AAB?$AAi?$AAt?$AAs?$AA?$DN?$AA?$DN?$AA_?$AAC?$AAR?$AAT?$AAD?$AAB?$AAG?$AA_?$AAR?$AAE?$AAP?$AAO?$AAR?$AAT?$AA_?$AAF?$AAL?$AAA?$AAG?$AA?$CJ?$AA?5@ 10067868     LIBCMTD:dbgheap.obj
 0002:000029e8       ??_C@_1BO@GJFDNMNF@?$AA_?$AAC?$AAr?$AAt?$AAS?$AAe?$AAt?$AAD?$AAb?$AAg?$AAF?$AAl?$AAa?$AAg?$AA?$AA@ 100679e8     LIBCMTD:dbgheap.obj
 0002:00002a08       ??_C@_1BI@CJGCEEDL@?$AAp?$AAf?$AAn?$AA?5?$AA?$CB?$AA?$DN?$AA?5?$AAN?$AAU?$AAL?$AAL?$AA?$AA@ 10067a08     LIBCMTD:dbgheap.obj
 0002:00002a20       ??_C@_1DE@GJCKCKEC@?$AA_?$AAC?$AAr?$AAt?$AAD?$AAo?$AAF?$AAo?$AAr?$AAA?$AAl?$AAl?$AAC?$AAl?$AAi?$AAe?$AAn?$AAt?$AAO?$AAb?$AAj?$AAe?$AAc?$AAt?$AAs?$AA?$AA@ 10067a20     LIBCMTD:dbgheap.obj
 0002:00002a54       ??_C@_1BM@MIMANDHC@?$AAs?$AAt?$AAa?$AAt?$AAe?$AA?5?$AA?$CB?$AA?$DN?$AA?5?$AAN?$AAU?$AAL?$AAL?$AA?$AA@ 10067a54     LIBCMTD:dbgheap.obj
 0002:00002a70       ??_C@_1CE@NJJKELF@?$AA_?$AAC?$AAr?$AAt?$AAM?$AAe?$AAm?$AAC?$AAh?$AAe?$AAc?$AAk?$AAp?$AAo?$AAi?$AAn?$AAt?$AA?$AA@ 10067a70     LIBCMTD:dbgheap.obj
 0002:00002a94       ??_C@_0DP@LEFMFBOD@Bad?5memory?5block?5found?5at?50x?$CFp?4?6@ 10067a94     LIBCMTD:dbgheap.obj
 0002:00002ad4       ??_C@_0CB@EAAIGELO@Bad?5memory?5block?5found?5at?50x?$CFp?4?6@ 10067ad4     LIBCMTD:dbgheap.obj
 0002:00002af8       ??_C@_1CE@PDIENACM@?$AA_?$AAC?$AAr?$AAt?$AAM?$AAe?$AAm?$AAD?$AAi?$AAf?$AAf?$AAe?$AAr?$AAe?$AAn?$AAc?$AAe?$AA?$AA@ 10067af8     LIBCMTD:dbgheap.obj
 0002:00002b1c       ??_C@_1CC@DHPFEMMN@?$AAo?$AAl?$AAd?$AAS?$AAt?$AAa?$AAt?$AAe?$AA?5?$AA?$CB?$AA?$DN?$AA?5?$AAN?$AAU?$AAL?$AAL?$AA?$AA@ 10067b1c     LIBCMTD:dbgheap.obj
 0002:00002b40       ??_C@_1CC@DFPEDFBP@?$AAn?$AAe?$AAw?$AAS?$AAt?$AAa?$AAt?$AAe?$AA?5?$AA?$CB?$AA?$DN?$AA?5?$AAN?$AAU?$AAL?$AAL?$AA?$AA@ 10067b40     LIBCMTD:dbgheap.obj
 0002:00002b64       ??_C@_05MKKEDADM@?$CF?42X?5?$AA@ 10067b64     LIBCMTD:dbgheap.obj
 0002:00002b6c       ??_C@_1CG@LPFIACGM@?$AA_?$AAp?$AAr?$AAi?$AAn?$AAt?$AAM?$AAe?$AAm?$AAB?$AAl?$AAo?$AAc?$AAk?$AAD?$AAa?$AAt?$AAa?$AA?$AA@ 10067b6c     LIBCMTD:dbgheap.obj
 0002:00002b94       ??_C@_0BA@HJBKCELP@?5Data?3?5?$DM?$CFs?$DO?5?$CFs?6?$AA@ 10067b94     LIBCMTD:dbgheap.obj
 0002:00002ba4       ??_C@_0BE@KCIPKCIA@Dumping?5objects?5?9?$DO?6?$AA@ 10067ba4     LIBCMTD:dbgheap.obj
 0002:00002bb8       ??_C@_0BE@OIEFNFL@?$CDFile?5Error?$CD?$CI?$CFd?$CJ?5?3?5?$AA@ 10067bb8     LIBCMTD:dbgheap.obj
 0002:00002bcc       ??_C@_0L@JMEFFCCJ@?$CFhs?$CI?$CFd?$CJ?5?3?5?$AA@ 10067bcc     LIBCMTD:dbgheap.obj
 0002:00002bd8       ??_C@_06PKLGBFGM@?$HL?$CFld?$HN?5?$AA@ 10067bd8     LIBCMTD:dbgheap.obj
 0002:00002be0       ??_C@_0DD@GHNAAKBB@client?5block?5at?50x?$CFp?0?5subtype?5?$CFx@ 10067be0     LIBCMTD:dbgheap.obj
 0002:00002c14       ??_C@_0CH@FAGDDGPN@normal?5block?5at?50x?$CFp?0?5?$CFIu?5bytes?5@ 10067c14     LIBCMTD:dbgheap.obj
 0002:00002c3c       ??_C@_0DA@MDLBNIBM@crt?5block?5at?50x?$CFp?0?5subtype?5?$CFx?0?5?$CF@ 10067c3c     LIBCMTD:dbgheap.obj
 0002:00002c6c       ??_C@_0BH@GFGKJDCO@Object?5dump?5complete?4?6?$AA@ 10067c6c     LIBCMTD:dbgheap.obj
 0002:00002c84       ??_C@_0BI@JBFPOEJA@Detected?5memory?5leaks?$CB?6?$AA@ 10067c84     LIBCMTD:dbgheap.obj
 0002:00002c9c       ??_C@_1CM@MPNIBKGK@?$AA_?$AAC?$AAr?$AAt?$AAM?$AAe?$AAm?$AAD?$AAu?$AAm?$AAp?$AAS?$AAt?$AAa?$AAt?$AAi?$AAs?$AAt?$AAi?$AAc?$AAs?$AA?$AA@ 10067c9c     LIBCMTD:dbgheap.obj
 0002:00002cc8       ??_C@_0BO@DACNIABB@?$CFId?5bytes?5in?5?$CFId?5?$CFhs?5Blocks?4?6?$AA@ 10067cc8     LIBCMTD:dbgheap.obj
 0002:00002ce8       ??_C@_0CB@BLHDAFNE@Largest?5number?5used?3?5?$CFId?5bytes?4?6@ 10067ce8     LIBCMTD:dbgheap.obj
 0002:00002d0c       ??_C@_0BP@DEDHGGGI@Total?5allocations?3?5?$CFId?5bytes?4?6?$AA@ 10067d0c     LIBCMTD:dbgheap.obj
 0002:00002d2c       ??_C@_1CE@NPMGPNNP@?$AAI?$AAS?$AA_?$AA2?$AA_?$AAP?$AAO?$AAW?$AA_?$AAN?$AA?$CI?$AAa?$AAl?$AAi?$AAg?$AAn?$AA?$CJ?$AA?$AA@ 10067d2c     LIBCMTD:dbgheap.obj
 0002:00002d50       ??_C@_1DG@DONCJBBJ@?$AA_?$AAa?$AAl?$AAi?$AAg?$AAn?$AAe?$AAd?$AA_?$AAo?$AAf?$AAf?$AAs?$AAe?$AAt?$AA_?$AAm?$AAa?$AAl?$AAl?$AAo?$AAc?$AA_?$AAd?$AAb?$AAg?$AA?$AA@ 10067d50     LIBCMTD:dbgheap.obj
 0002:00002d88       ??_C@_1DK@LFLKFPDA@?$AAo?$AAf?$AAf?$AAs?$AAe?$AAt?$AA?5?$AA?$DN?$AA?$DN?$AA?5?$AA0?$AA?5?$AA?$HM?$AA?$HM?$AA?5?$AAo?$AAf?$AAf?$AAs?$AAe?$AAt?$AA?5?$AA?$DM?$AA?5?$AAs?$AAi?$AAz?$AAe?$AA?$AA@ 10067d88     LIBCMTD:dbgheap.obj
 0002:00002dc8       ??_C@_0EI@NDNJMAJK@The?5block?5at?50x?$CFp?5was?5not?5alloca@ 10067dc8     LIBCMTD:dbgheap.obj
 0002:00002e10       ??_C@_0DL@PGHMMKNE@Damage?5before?50x?$CFp?5which?5was?5all@ 10067e10     LIBCMTD:dbgheap.obj
 0002:00002e4c       ??_C@_1DI@NINIKFFK@?$AA_?$AAa?$AAl?$AAi?$AAg?$AAn?$AAe?$AAd?$AA_?$AAo?$AAf?$AAf?$AAs?$AAe?$AAt?$AA_?$AAr?$AAe?$AAa?$AAl?$AAl?$AAo?$AAc?$AA_?$AAd?$AAb?$AAg?$AA?$AA@ 10067e4c     LIBCMTD:dbgheap.obj
 0002:00002e88       ??_C@_0EF@PGELACII@The?5block?5at?50x?$CFp?5was?5not?5alloca@ 10067e88     LIBCMTD:dbgheap.obj
 0002:00002ed0       ??_C@_1CC@MOBIKHH@?$AAm?$AAe?$AAm?$AAb?$AAl?$AAo?$AAc?$AAk?$AA?5?$AA?$CB?$AA?$DN?$AA?5?$AAN?$AAU?$AAL?$AAL?$AA?$AA@ 10067ed0     LIBCMTD:dbgheap.obj
 0002:00002ef4       ??_C@_1CG@CEGMHIMN@?$AA_?$AAa?$AAl?$AAi?$AAg?$AAn?$AAe?$AAd?$AA_?$AAm?$AAs?$AAi?$AAz?$AAe?$AA_?$AAd?$AAb?$AAg?$AA?$AA@ 10067ef4     LIBCMTD:dbgheap.obj
 0002:000037d0       __indefinite               100687d0     LIBCMTD:87disp.obj
 0002:000037da       __piby2                    100687da     LIBCMTD:87disp.obj
 0002:00003808       __DEFAULT_CW_in_mem        10068808     LIBCMTD:common.obj
 0002:0000380a       __pi_by_2_to_61            1006880a     LIBCMTD:common.obj
 0002:00004190       ??_C@_0NN@NGPKDKPD@The?5value?5of?5ESP?5was?5not?5properl@ 10069190     LIBCMTD:error.obj
 0002:00004270       ??_C@_0BBN@GPMLNJCF@A?5cast?5to?5a?5smaller?5data?5type?5ha@ 10069270     LIBCMTD:error.obj
 0002:00004390       ??_C@_0BN@FFOINMNJ@Stack?5memory?5was?5corrupted?6?$AN?$AA@ 10069390     LIBCMTD:error.obj
 0002:000043b0       ??_C@_0DG@HKJMLLLP@A?5local?5variable?5was?5used?5before@ 100693b0     LIBCMTD:error.obj
 0002:000043e8       ??_C@_0CM@NGINOKPC@Stack?5memory?5around?5_alloca?5was?5@ 100693e8     LIBCMTD:error.obj
 0002:00004414       ??_C@_0BO@GNIAFIKK@Unknown?5Runtime?5Check?5Error?6?$AN?$AA@ 10069414     LIBCMTD:error.obj
 0002:00004438       ??_C@_1GM@OLMCBDMB@?$AAR?$AAu?$AAn?$AAt?$AAi?$AAm?$AAe?$AA?5?$AAC?$AAh?$AAe?$AAc?$AAk?$AA?5?$AAE?$AAr?$AAr?$AAo?$AAr?$AA?4?$AA?6?$AA?$AN?$AA?5?$AAU?$AAn?$AAa?$AAb?$AAl?$AAe?$AA?5?$AAt?$AAo@ 10069438     LIBCMTD:error.obj
 0002:000044a8       ??_C@_1EA@NFKNIFJP@?$AAR?$AAu?$AAn?$AA?9?$AAT?$AAi?$AAm?$AAe?$AA?5?$AAC?$AAh?$AAe?$AAc?$AAk?$AA?5?$AAF?$AAa?$AAi?$AAl?$AAu?$AAr?$AAe?$AA?5?$AA?$CD?$AA?$CF?$AAd?$AA?5?$AA?9?$AA?5?$AA?$CF?$AAs?$AA?$AA@ 100694a8     LIBCMTD:error.obj
 0002:000044e8       ??_C@_0BB@PFFGGCJP@Unknown?5Filename?$AA@ 100694e8     LIBCMTD:error.obj
 0002:000044fc       ??_C@_0BE@GNBOBNCK@Unknown?5Module?5Name?$AA@ 100694fc     LIBCMTD:error.obj
 0002:00004510       ??_C@_0CA@IODNCDPG@Run?9Time?5Check?5Failure?5?$CD?$CFd?5?9?5?$CFs?$AA@ 10069510     LIBCMTD:error.obj
 0002:00004530       ??_C@_0CG@IAFNJNEE@Stack?5corrupted?5near?5unknown?5var@ 10069530     LIBCMTD:error.obj
 0002:00004558       ??_C@_1BG@OILDLIOJ@?$AAu?$AAs?$AAe?$AAr?$AA3?$AA2?$AA?4?$AAd?$AAl?$AAl?$AA?$AA@ 10069558     LIBCMTD:error.obj
 0002:00004570       ??_C@_09FOPFMPEJ@wsprintfA?$AA@ 10069570     LIBCMTD:error.obj
 0002:00004580       ??_C@_0EJ@LJKNEOLN@Stack?5area?5around?5_alloca?5memory@ 10069580     LIBCMTD:error.obj
 0002:000045cc       ??_C@_08OMAHNMHJ@?6Data?3?5?$DM?$AA@ 100695cc     LIBCMTD:error.obj
 0002:000045d8       ??_C@_0CK@DKGBICFE@?6Allocation?5number?5within?5this?5f@ 100695d8     LIBCMTD:error.obj
 0002:00004604       ??_C@_07DFDJCKFN@?6Size?3?5?$AA@ 10069604     LIBCMTD:error.obj
 0002:0000460c       ??_C@_0N@MHFFIMFG@?6Address?3?50x?$AA@ 1006960c     LIBCMTD:error.obj
 0002:00004620       ??_C@_0EI@CLEPFNGI@Stack?5area?5around?5_alloca?5memory@ 10069620     LIBCMTD:error.obj
 0002:00004668       ??_C@_0BC@KIBAILCI@?$CFs?$CFs?$CFp?$CFs?$CFld?$CFs?$CFd?$CFs?$AA@ 10069668     LIBCMTD:error.obj
 0002:0000467c       ??_C@_01EEMJAFIK@?6?$AA@   1006967c     LIBCMTD:error.obj
 0002:00004680       ??_C@_02LLMPMKNF@?$DO?5?$AA@ 10069680     LIBCMTD:error.obj
 0002:00004684       ??_C@_08KJEDNCKC@?$CFs?$CFs?$CFs?$CFs?$AA@ 10069684     LIBCMTD:error.obj
 0002:00004690       ??_C@_0DE@OHJBPMBP@A?5variable?5is?5being?5used?5without@ 10069690     LIBCMTD:error.obj
 0002:000046d8       ??_C@_0BJ@HEGAHDFO@Stack?5pointer?5corruption?$AA@ 100696d8     LIBCMTD:userapi.obj
 0002:000046f4       ??_C@_0CK@FEGOIOPB@Cast?5to?5smaller?5type?5causing?5los@ 100696f4     LIBCMTD:userapi.obj
 0002:00004720       ??_C@_0BI@CIGMDCBH@Stack?5memory?5corruption?$AA@ 10069720     LIBCMTD:userapi.obj
 0002:00004738       ??_C@_0CK@CNLNOEPB@Local?5variable?5used?5before?5initi@ 10069738     LIBCMTD:userapi.obj
 0002:00004764       ??_C@_0BP@OGBCLIBO@Stack?5around?5_alloca?5corrupted?$AA@ 10069764     LIBCMTD:userapi.obj
 0002:00004788       ??_C@_0NM@DNEDKLDF@The?5value?5of?5ESP?5was?5not?5properl@ 10069788     LIBCMTD:chkesp.obj
 0002:00004864       ??_C@_00CNPNBAHC@?$AA@     10069864     LIBCMTD:chkesp.obj
 0002:00004868       ??_C@_0CM@CNHKCLGP@f?3?2dd?2vctools?2crt?2crtw32?2misc?2i3@ 10069868     LIBCMTD:chkesp.obj
 0002:00004894       ??_C@_1BI@ICGGMGLK@?$AAb?$AAu?$AAf?$AA?5?$AA?$CB?$AA?$DN?$AA?5?$AAN?$AAU?$AAL?$AAL?$AA?$AA@ 10069894     LIBCMTD:cvt.obj
 0002:000048b0       ??_C@_1EG@OHONNKNN@?$AAf?$AA?3?$AA?2?$AAd?$AAd?$AA?2?$AAv?$AAc?$AAt?$AAo?$AAo?$AAl?$AAs?$AA?2?$AAc?$AAr?$AAt?$AA?2?$AAf?$AAp?$AAw?$AA3?$AA2?$AA?2?$AAc?$AAo?$AAn?$AAv?$AA?2?$AAc?$AAv?$AAt@ 100698b0     LIBCMTD:cvt.obj
 0002:000048f8       ??_C@_1BE@OLBNEILL@?$AA_?$AAc?$AAf?$AAt?$AAo?$AAe?$AA2?$AA_?$AAl?$AA?$AA@ 100698f8     LIBCMTD:cvt.obj
 0002:0000490c       ??_C@_1CA@CBMNPEO@?$AAs?$AAi?$AAz?$AAe?$AAI?$AAn?$AAB?$AAy?$AAt?$AAe?$AAs?$AA?5?$AA?$DO?$AA?5?$AA0?$AA?$AA@ 1006990c     LIBCMTD:cvt.obj
 0002:00004930       ??_C@_1HE@NACBNDPP@?$AAs?$AAi?$AAz?$AAe?$AAI?$AAn?$AAB?$AAy?$AAt?$AAe?$AAs?$AA?5?$AA?$DO?$AA?5?$AA?$CI?$AAs?$AAi?$AAz?$AAe?$AA_?$AAt?$AA?$CJ?$AA?$CI?$AA3?$AA?5?$AA?$CL?$AA?5?$AA?$CI?$AAn?$AAd?$AAe?$AAc@ 10069930     LIBCMTD:cvt.obj
 0002:000049a8       ??_C@_1LE@EOIFGNCJ@?$AAs?$AAt?$AAr?$AAc?$AAp?$AAy?$AA_?$AAs?$AA?$CI?$AAp?$AA?0?$AA?5?$AA?$CI?$AAs?$AAi?$AAz?$AAe?$AAI?$AAn?$AAB?$AAy?$AAt?$AAe?$AAs?$AA?5?$AA?$DN?$AA?$DN?$AA?5?$AA?$CI?$AAs?$AAi?$AAz@ 100699a8     LIBCMTD:cvt.obj
 0002:00004a5c       ??_C@_05KLBDPFGC@e?$CL000?$AA@ 10069a5c     LIBCMTD:cvt.obj
 0002:00004a64       ??_C@_1BC@INKAPMHI@?$AA_?$AAc?$AAf?$AAt?$AAo?$AAe?$AA_?$AAl?$AA?$AA@ 10069a64     LIBCMTD:cvt.obj
 0002:00004a78       ??_C@_1BC@JOKPCIC@?$AA_?$AAc?$AAf?$AAt?$AAo?$AAa?$AA_?$AAl?$AA?$AA@ 10069a78     LIBCMTD:cvt.obj
 0002:00004a90       ??_C@_1FC@IKIMAMJB@?$AAs?$AAi?$AAz?$AAe?$AAI?$AAn?$AAB?$AAy?$AAt?$AAe?$AAs?$AA?5?$AA?$DO?$AA?5?$AA?$CI?$AAs?$AAi?$AAz?$AAe?$AA_?$AAt?$AA?$CJ?$AA?$CI?$AA1?$AA?5?$AA?$CL?$AA?5?$AA4?$AA?5?$AA?$CL?$AA?5?$AAn@ 10069a90     LIBCMTD:cvt.obj
 0002:00004ae4       ??_C@_1BE@CKPDLI@?$AA_?$AAc?$AAf?$AAt?$AAo?$AAf?$AA2?$AA_?$AAl?$AA?$AA@ 10069ae4     LIBCMTD:cvt.obj
 0002:00004af8       ??_C@_1BC@DCPPLJL@?$AA_?$AAc?$AAf?$AAt?$AAo?$AAf?$AA_?$AAl?$AA?$AA@ 10069af8     LIBCMTD:cvt.obj
 0002:00004b0c       ??_C@_1BC@MPIFPLAF@?$AA_?$AAc?$AAf?$AAt?$AAo?$AAg?$AA_?$AAl?$AA?$AA@ 10069b0c     LIBCMTD:cvt.obj
 0002:00004b20       ??_C@_1FI@JJOJLGLE@?$AAf?$AA?3?$AA?2?$AAd?$AAd?$AA?2?$AAv?$AAc?$AAt?$AAo?$AAo?$AAl?$AAs?$AA?2?$AAc?$AAr?$AAt?$AA?2?$AAc?$AAr?$AAt?$AAw?$AA3?$AA2?$AA?2?$AAs?$AAt?$AAa?$AAr?$AAt?$AAu?$AAp@ 10069b20     LIBCMTD:fp8.obj
 0002:00004b78       ??_C@_1CK@JMKHCBEI@?$AA_?$AAs?$AAe?$AAt?$AAd?$AAe?$AAf?$AAa?$AAu?$AAl?$AAt?$AAp?$AAr?$AAe?$AAc?$AAi?$AAs?$AAi?$AAo?$AAn?$AA?$AA@ 10069b78     LIBCMTD:fp8.obj
 0002:00004ba8       ??_C@_1GE@KOCFNGPB@?$AA_?$AAc?$AAo?$AAn?$AAt?$AAr?$AAo?$AAl?$AAf?$AAp?$AA_?$AAs?$AA?$CI?$AA?$CI?$AA?$CI?$AAv?$AAo?$AAi?$AAd?$AA?5?$AA?$CK?$AA?$CJ?$AA0?$AA?$CJ?$AA?0?$AA?5?$AA0?$AAx?$AA0?$AA0?$AA0?$AA1@ 10069ba8     LIBCMTD:fp8.obj
 0002:00004c0c       ??_C@_0CM@KPPOKOAI@f?3?2dd?2vctools?2crt?2crtw32?2startup@ 10069c0c     LIBCMTD:tidtable.obj
 0002:00004c38       __pDestructExceptionObject 10069c38     LIBCMTD:frame.obj
 0002:00004c40       ??_7bad_exception@std@@6B@ 10069c40     LIBCMTD:frame.obj
 0002:00004c48       ??_C@_0O@DPKOEFFH@bad?5exception?$AA@ 10069c48     LIBCMTD:frame.obj
 0002:00004c58       ??_C@_1BI@MFCLPIBM@?$AAs?$AAt?$AAr?$AA?5?$AA?$CB?$AA?$DN?$AA?5?$AAN?$AAU?$AAL?$AAL?$AA?$AA@ 10069c58     LIBCMTD:_flsbuf.obj
 0002:00004c70       ??_C@_1FC@OBEHAONE@?$AAf?$AA?3?$AA?2?$AAd?$AAd?$AA?2?$AAv?$AAc?$AAt?$AAo?$AAo?$AAl?$AAs?$AA?2?$AAc?$AAr?$AAt?$AA?2?$AAc?$AAr?$AAt?$AAw?$AA3?$AA2?$AA?2?$AAs?$AAt?$AAd?$AAi?$AAo?$AA?2?$AA_@ 10069c70     LIBCMTD:_flsbuf.obj
 0002:00004cc8       ??_C@_1HO@MLMGPAFH@?$AA?$CI?$AA?$CC?$AAi?$AAn?$AAc?$AAo?$AAn?$AAs?$AAi?$AAs?$AAt?$AAe?$AAn?$AAt?$AA?5?$AAI?$AAO?$AAB?$AA?5?$AAf?$AAi?$AAe?$AAl?$AAd?$AAs?$AA?$CC?$AA?0?$AA?5?$AAs?$AAt?$AAr?$AAe@ 10069cc8     LIBCMTD:_flsbuf.obj
 0002:00004d48       ??_C@_1BK@FHMHFMNL@?$AA_?$AAv?$AAs?$AAn?$AAp?$AAr?$AAi?$AAn?$AAt?$AAf?$AA_?$AAl?$AA?$AA@ 10069d48     LIBCMTD:vsnprint.obj
 0002:00004d64       ??_C@_06OJHGLDPL@?$CInull?$CJ?$AA@ 10069d64     LIBCMTD:output.obj
 0002:00004d6c       ??_C@_1O@CEDCILHN@?$AA?$CI?$AAn?$AAu?$AAl?$AAl?$AA?$CJ?$AA?$AA@ 10069d6c     LIBCMTD:output.obj
 0002:00004d80       ___lookuptable             10069d80     LIBCMTD:output.obj
 0002:00004de0       ??_C@_1FA@KMIJDCIC@?$AAf?$AA?3?$AA?2?$AAd?$AAd?$AA?2?$AAv?$AAc?$AAt?$AAo?$AAo?$AAl?$AAs?$AA?2?$AAc?$AAr?$AAt?$AA?2?$AAc?$AAr?$AAt?$AAw?$AA3?$AA2?$AA?2?$AAs?$AAt?$AAd?$AAi?$AAo?$AA?2?$AAo@ 10069de0     LIBCMTD:output.obj
 0002:00004e30       ??_C@_1BE@IONLIDNC@?$AA_?$AAo?$AAu?$AAt?$AAp?$AAu?$AAt?$AA_?$AAl?$AA?$AA@ 10069e30     LIBCMTD:output.obj
 0002:00004e44       ??_C@_1CC@IFFHEMNF@?$AA?$CI?$AAc?$AAh?$AA?5?$AA?$CB?$AA?$DN?$AA?5?$AA_?$AAT?$AA?$CI?$AA?8?$AA?2?$AA0?$AA?8?$AA?$CJ?$AA?$CJ?$AA?$AA@ 10069e44     LIBCMTD:output.obj
 0002:00004e68       ??_C@_1EK@PNGFDECN@?$AA?$CI?$AA?$CC?$AA?8?$AAn?$AA?8?$AA?5?$AAf?$AAo?$AAr?$AAm?$AAa?$AAt?$AA?5?$AAs?$AAp?$AAe?$AAc?$AAi?$AAf?$AAi?$AAe?$AAr?$AA?5?$AAd?$AAi?$AAs?$AAa?$AAb?$AAl?$AAe?$AAd?$AA?$CC@ 10069e68     LIBCMTD:output.obj
 0002:00004eb4       ??_C@_0CI@CMOPBIOD@f?3?2dd?2vctools?2crt?2crtw32?2stdio?2o@ 10069eb4     LIBCMTD:output.obj
 0002:00004ee0       ??_C@_1EM@IOHICOCC@?$AAf?$AA?3?$AA?2?$AAd?$AAd?$AA?2?$AAv?$AAc?$AAt?$AAo?$AAo?$AAl?$AAs?$AA?2?$AAc?$AAr?$AAt?$AA?2?$AAc?$AAr?$AAt?$AAw?$AA3?$AA2?$AA?2?$AAd?$AAo?$AAs?$AA?2?$AAd?$AAo?$AAs@ 10069ee0     LIBCMTD:dosmap.obj
 0002:00004f2c       ??_C@_1BG@KCMPBBDK@?$AA_?$AAg?$AAe?$AAt?$AA_?$AAe?$AAr?$AAr?$AAn?$AAo?$AA?$AA@ 10069f2c     LIBCMTD:dosmap.obj
 0002:00004f44       ??_C@_1BM@INIPHHDD@?$AA_?$AAg?$AAe?$AAt?$AA_?$AAd?$AAo?$AAs?$AAe?$AAr?$AAr?$AAn?$AAo?$AA?$AA@ 10069f44     LIBCMTD:dosmap.obj
 0002:00004f60       __OP_ATAN2jmptab           10069f60     LIBCMTD:87triga.obj
 0002:000054e0       __infinity                 1006a4e0     LIBCMTD:87tran.obj
 0002:000054ea       __minfinity                1006a4ea     LIBCMTD:87tran.obj
 0002:000054f4       __logemax                  1006a4f4     LIBCMTD:87tran.obj
 0002:0000551a       __OP_EXPjmptab             1006a51a     LIBCMTD:87tran.obj
 0002:0000553c       ??_C@_03KHJOGHMM@exp?$AA@  1006a53c     LIBCMTD:fpexcept.obj
 0002:00005540       ??_C@_03JGHBODFD@pow?$AA@  1006a540     LIBCMTD:fpexcept.obj
 0002:00005544       ??_C@_03MGHMBJCF@log?$AA@  1006a544     LIBCMTD:fpexcept.obj
 0002:00005548       ??_C@_05HGHHAHAP@log10?$AA@ 1006a548     LIBCMTD:fpexcept.obj
 0002:00005550       ??_C@_04COOMCNPB@sinh?$AA@ 1006a550     LIBCMTD:fpexcept.obj
 0002:00005558       ??_C@_04HPJJNFIM@cosh?$AA@ 1006a558     LIBCMTD:fpexcept.obj
 0002:00005560       ??_C@_04FJHINJAO@tanh?$AA@ 1006a560     LIBCMTD:fpexcept.obj
 0002:00005568       ??_C@_04FIHNOPOL@asin?$AA@ 1006a568     LIBCMTD:fpexcept.obj
 0002:00005570       ??_C@_04PDIFKINK@acos?$AA@ 1006a570     LIBCMTD:fpexcept.obj
 0002:00005578       ??_C@_04MLLJIGOK@atan?$AA@ 1006a578     LIBCMTD:fpexcept.obj
 0002:00005580       ??_C@_05KNGEOGJB@atan2?$AA@ 1006a580     LIBCMTD:fpexcept.obj
 0002:00005588       ??_C@_04EIAKFFMI@sqrt?$AA@ 1006a588     LIBCMTD:fpexcept.obj
 0002:00005590       ??_C@_03BLEJJJBH@sin?$AA@  1006a590     LIBCMTD:fpexcept.obj
 0002:00005594       ??_C@_03LALBNOCG@cos?$AA@  1006a594     LIBCMTD:fpexcept.obj
 0002:00005598       ??_C@_03IIINPABG@tan?$AA@  1006a598     LIBCMTD:fpexcept.obj
 0002:0000559c       ??_C@_04GFPJNGEK@ceil?$AA@ 1006a59c     LIBCMTD:fpexcept.obj
 0002:000055a4       ??_C@_05PBJFFIGL@floor?$AA@ 1006a5a4     LIBCMTD:fpexcept.obj
 0002:000055ac       ??_C@_04ODHECPBC@fabs?$AA@ 1006a5ac     LIBCMTD:fpexcept.obj
 0002:000055b4       ??_C@_04EHEDPDJG@modf?$AA@ 1006a5b4     LIBCMTD:fpexcept.obj
 0002:000055bc       ??_C@_05CEJMAHNP@ldexp?$AA@ 1006a5bc     LIBCMTD:fpexcept.obj
 0002:000055c4       ??_C@_05KBKMEMPO@_cabs?$AA@ 1006a5c4     LIBCMTD:fpexcept.obj
 0002:000055cc       ??_C@_06MEIMCGCF@_hypot?$AA@ 1006a5cc     LIBCMTD:fpexcept.obj
 0002:000055d4       ??_C@_04KEPJIHGP@fmod?$AA@ 1006a5d4     LIBCMTD:fpexcept.obj
 0002:000055dc       ??_C@_05GKKHEGJL@frexp?$AA@ 1006a5dc     LIBCMTD:fpexcept.obj
 0002:000055e4       ??_C@_03MJLDFKDL@_y0?$AA@  1006a5e4     LIBCMTD:fpexcept.obj
 0002:000055e8       ??_C@_03NAKIGLHK@_y1?$AA@  1006a5e8     LIBCMTD:fpexcept.obj
 0002:000055ec       ??_C@_03ONILCKOB@_yn?$AA@  1006a5ec     LIBCMTD:fpexcept.obj
 0002:000055f0       ??_C@_05JGDBENOH@_logb?$AA@ 1006a5f0     LIBCMTD:fpexcept.obj
 0002:000055f8       ??_C@_0L@KDOEJCKC@_nextafter?$AA@ 1006a5f8     LIBCMTD:fpexcept.obj
 0002:00005f10       ??_C@_1CK@GELGGBDK@?$AAp?$AAN?$AAo?$AAd?$AAe?$AA?9?$AA?$DO?$AA_?$AAN?$AAe?$AAx?$AAt?$AA?5?$AA?$CB?$AA?$DN?$AA?5?$AAN?$AAU?$AAL?$AAL?$AA?$AA@ 1006af10     LIBCMTD:typname.obj
 0002:00005f40       ??_C@_1FA@KAJOMDBA@?$AAf?$AA?3?$AA?2?$AAd?$AAd?$AA?2?$AAv?$AAc?$AAt?$AAo?$AAo?$AAl?$AAs?$AA?2?$AAc?$AAr?$AAt?$AA?2?$AAc?$AAr?$AAt?$AAw?$AA3?$AA2?$AA?2?$AAe?$AAh?$AA?2?$AAt?$AAy?$AAp?$AAn@ 1006af40     LIBCMTD:typname.obj
 0002:00005f90       ??_C@_1CM@OOICDMK@?$AAt?$AAy?$AAp?$AAe?$AA_?$AAi?$AAn?$AAf?$AAo?$AA?3?$AA?3?$AA_?$AAN?$AAa?$AAm?$AAe?$AA_?$AAb?$AAa?$AAs?$AAe?$AA?$AA@ 1006af90     LIBCMTD:typname.obj
 0002:00005fc0       ??_C@_1JK@NAFNEPGC@?$AAs?$AAt?$AAr?$AAc?$AAp?$AAy?$AA_?$AAs?$AA?5?$AA?$CI?$AA?$CI?$AAc?$AAh?$AAa?$AAr?$AA?5?$AA?$CK?$AA?$CJ?$AA?$CI?$AA?$CI?$AAt?$AAy?$AAp?$AAe?$AA_?$AAi?$AAn?$AAf?$AAo?$AA?5?$AA?$CK?$AA?$CJ@ 1006afc0     LIBCMTD:typname.obj
 0002:0000605c       ??_C@_1DO@OJJLFJPE@?$AAt?$AAy?$AAp?$AAe?$AA_?$AAi?$AAn?$AAf?$AAo?$AA?3?$AA?3?$AA_?$AAN?$AAa?$AAm?$AAe?$AA_?$AAb?$AAa?$AAs?$AAe?$AA_?$AAi?$AAn?$AAt?$AAe?$AAr?$AAn?$AAa?$AAl?$AA?$AA@ 1006b05c     LIBCMTD:typname.obj
 0002:000060a0       ??_C@_1GI@EAJKJPED@?$AAs?$AAt?$AAr?$AAc?$AAp?$AAy?$AA_?$AAs?$AA?5?$AA?$CI?$AAp?$AAT?$AAm?$AAp?$AAT?$AAy?$AAp?$AAe?$AAN?$AAa?$AAm?$AAe?$AA?0?$AA?5?$AAl?$AAe?$AAn?$AA?$CL?$AA2?$AA?0?$AA?5?$AA?$CI@ 1006b0a0     LIBCMTD:typname.obj
 0002:00006108       ??_C@_1BK@MGMFAEKH@?$AAk?$AAe?$AAr?$AAn?$AAe?$AAl?$AA3?$AA2?$AA?4?$AAd?$AAl?$AAl?$AA?$AA@ 1006b108     LIBCMTD:winapisupp.obj
 0002:00006124       ??_C@_08KNHFBNJ@FlsAlloc?$AA@ 1006b124     LIBCMTD:winapisupp.obj
 0002:00006130       ??_C@_07PEJMOBNF@FlsFree?$AA@ 1006b130     LIBCMTD:winapisupp.obj
 0002:00006138       ??_C@_0M@GDNOONDI@FlsGetValue?$AA@ 1006b138     LIBCMTD:winapisupp.obj
 0002:00006144       ??_C@_0M@JCPCPOEF@FlsSetValue?$AA@ 1006b144     LIBCMTD:winapisupp.obj
 0002:00006150       ??_C@_0BM@HCFOFFN@InitializeCriticalSectionEx?$AA@ 1006b150     LIBCMTD:winapisupp.obj
 0002:0000616c       ??_C@_0P@DLHPPCNH@CreateEventExW?$AA@ 1006b16c     LIBCMTD:winapisupp.obj
 0002:0000617c       ??_C@_0BD@KIEEOEEH@CreateSemaphoreExW?$AA@ 1006b17c     LIBCMTD:winapisupp.obj
 0002:00006190       ??_C@_0BI@BKLFFAPO@SetThreadStackGuarantee?$AA@ 1006b190     LIBCMTD:winapisupp.obj
 0002:000061a8       ??_C@_0BG@OGFAJCKC@CreateThreadpoolTimer?$AA@ 1006b1a8     LIBCMTD:winapisupp.obj
 0002:000061c0       ??_C@_0BD@LPLEMMDI@SetThreadpoolTimer?$AA@ 1006b1c0     LIBCMTD:winapisupp.obj
 0002:000061d4       ??_C@_0CA@FMNJENH@WaitForThreadpoolTimerCallbacks?$AA@ 1006b1d4     LIBCMTD:winapisupp.obj
 0002:000061f4       ??_C@_0BF@DCFCCNOC@CloseThreadpoolTimer?$AA@ 1006b1f4     LIBCMTD:winapisupp.obj
 0002:0000620c       ??_C@_0BF@FLABGKKM@CreateThreadpoolWait?$AA@ 1006b20c     LIBCMTD:winapisupp.obj
 0002:00006224       ??_C@_0BC@MGCOHNA@SetThreadpoolWait?$AA@ 1006b224     LIBCMTD:winapisupp.obj
 0002:00006238       ??_C@_0BE@OCIOMIMP@CloseThreadpoolWait?$AA@ 1006b238     LIBCMTD:winapisupp.obj
 0002:0000624c       ??_C@_0BJ@LKGHFHBO@FlushProcessWriteBuffers?$AA@ 1006b24c     LIBCMTD:winapisupp.obj
 0002:00006268       ??_C@_0BP@KALKKPMO@FreeLibraryWhenCallbackReturns?$AA@ 1006b268     LIBCMTD:winapisupp.obj
 0002:00006288       ??_C@_0BK@DFNBACLA@GetCurrentProcessorNumber?$AA@ 1006b288     LIBCMTD:winapisupp.obj
 0002:000062a4       ??_C@_0BP@KHGALBC@GetLogicalProcessorInformation?$AA@ 1006b2a4     LIBCMTD:winapisupp.obj
 0002:000062c4       ??_C@_0BE@FKKLLFLM@CreateSymbolicLinkW?$AA@ 1006b2c4     LIBCMTD:winapisupp.obj
 0002:000062d8       ??_C@_0BJ@OHNKDLIJ@SetDefaultDllDirectories?$AA@ 1006b2d8     LIBCMTD:winapisupp.obj
 0002:000062f4       ??_C@_0BE@LJANKFHF@EnumSystemLocalesEx?$AA@ 1006b2f4     LIBCMTD:winapisupp.obj
 0002:00006308       ??_C@_0BA@IHGNDAEB@CompareStringEx?$AA@ 1006b308     LIBCMTD:winapisupp.obj
 0002:00006318       ??_C@_0BA@EPCJIIPD@GetDateFormatEx?$AA@ 1006b318     LIBCMTD:winapisupp.obj
 0002:00006328       ??_C@_0BA@ONOKGCMP@GetLocaleInfoEx?$AA@ 1006b328     LIBCMTD:winapisupp.obj
 0002:00006338       ??_C@_0BA@CIJJKCJJ@GetTimeFormatEx?$AA@ 1006b338     LIBCMTD:winapisupp.obj
 0002:00006348       ??_C@_0BJ@PBCCBIPI@GetUserDefaultLocaleName?$AA@ 1006b348     LIBCMTD:winapisupp.obj
 0002:00006364       ??_C@_0BC@CELBKLLA@IsValidLocaleName?$AA@ 1006b364     LIBCMTD:winapisupp.obj
 0002:00006378       ??_C@_0O@KKBNKAPF@LCMapStringEx?$AA@ 1006b378     LIBCMTD:winapisupp.obj
 0002:00006388       ??_C@_0BE@JOGNEJCI@GetCurrentPackageId?$AA@ 1006b388     LIBCMTD:winapisupp.obj
 0002:0000639c       ??_C@_0P@CDHHOHKP@GetTickCount64?$AA@ 1006b39c     LIBCMTD:winapisupp.obj
 0002:000063ac       ??_C@_0BO@KPCLFDJJ@GetFileInformationByHandleExW?$AA@ 1006b3ac     LIBCMTD:winapisupp.obj
 0002:000063cc       ??_C@_0BM@MHIDLABK@SetFileInformationByHandleW?$AA@ 1006b3cc     LIBCMTD:winapisupp.obj
 0002:000063e8       ??_C@_1FA@CKEACION@?$AAf?$AA?3?$AA?2?$AAd?$AAd?$AA?2?$AAv?$AAc?$AAt?$AAo?$AAo?$AAl?$AAs?$AA?2?$AAc?$AAr?$AAt?$AA?2?$AAc?$AAr?$AAt?$AAw?$AA3?$AA2?$AA?2?$AAs?$AAt?$AAd?$AAi?$AAo?$AA?2?$AAf@ 1006b3e8     LIBCMTD:fileno.obj
 0002:00006438       ??_C@_1BA@JGHIEKKM@?$AA_?$AAf?$AAi?$AAl?$AAe?$AAn?$AAo?$AA?$AA@ 1006b438     LIBCMTD:fileno.obj
 0002:00006448       ??_C@_1FO@LPCLHKGE@?$AA?$CI?$AAf?$AAh?$AA?5?$AA?$DO?$AA?$DN?$AA?5?$AA0?$AA?5?$AA?$CG?$AA?$CG?$AA?5?$AA?$CI?$AAu?$AAn?$AAs?$AAi?$AAg?$AAn?$AAe?$AAd?$AA?$CJ?$AAf?$AAh?$AA?5?$AA?$DM?$AA?5?$AA?$CI?$AAu?$AAn?$AAs?$AAi@ 1006b448     LIBCMTD:close.obj
 0002:000064a8       ??_C@_1EO@EJLBBGEB@?$AAf?$AA?3?$AA?2?$AAd?$AAd?$AA?2?$AAv?$AAc?$AAt?$AAo?$AAo?$AAl?$AAs?$AA?2?$AAc?$AAr?$AAt?$AA?2?$AAc?$AAr?$AAt?$AAw?$AA3?$AA2?$AA?2?$AAl?$AAo?$AAw?$AAi?$AAo?$AA?2?$AAc@ 1006b4a8     LIBCMTD:close.obj
 0002:000064f8       ??_C@_1O@EDEJGJBM@?$AA_?$AAc?$AAl?$AAo?$AAs?$AAe?$AA?$AA@ 1006b4f8     LIBCMTD:close.obj
 0002:00006508       ??_C@_1CM@OKGMMMDH@?$AA?$CI?$AA_?$AAo?$AAs?$AAf?$AAi?$AAl?$AAe?$AA?$CI?$AAf?$AAh?$AA?$CJ?$AA?5?$AA?$CG?$AA?5?$AAF?$AAO?$AAP?$AAE?$AAN?$AA?$CJ?$AA?$AA@ 1006b508     LIBCMTD:close.obj
 0002:00006538       ??_C@_1JE@ECKHFIFP@?$AA?$CI?$AA?$CC?$AAI?$AAn?$AAv?$AAa?$AAl?$AAi?$AAd?$AA?5?$AAf?$AAi?$AAl?$AAe?$AA?5?$AAd?$AAe?$AAs?$AAc?$AAr?$AAi?$AAp?$AAt?$AAo?$AAr?$AA?4?$AA?5?$AAF?$AAi?$AAl?$AAe?$AA?5@ 1006b538     LIBCMTD:close.obj
 0002:000065cc       ??_C@_1BO@KIJENGPH@?$AAs?$AAt?$AAr?$AAe?$AAa?$AAm?$AA?5?$AA?$CB?$AA?$DN?$AA?5?$AAN?$AAU?$AAL?$AAL?$AA?$AA@ 1006b5cc     LIBCMTD:_freebuf.obj
 0002:000065f0       ??_C@_1FE@DBCNNJOP@?$AAf?$AA?3?$AA?2?$AAd?$AAd?$AA?2?$AAv?$AAc?$AAt?$AAo?$AAo?$AAl?$AAs?$AA?2?$AAc?$AAr?$AAt?$AA?2?$AAc?$AAr?$AAt?$AAw?$AA3?$AA2?$AA?2?$AAs?$AAt?$AAd?$AAi?$AAo?$AA?2?$AA_@ 1006b5f0     LIBCMTD:_freebuf.obj
 0002:00006644       ??_C@_0CI@CCALCGFN@f?3?2dd?2vctools?2crt?2crtw32?2stdio?2s@ 1006b644     LIBCMTD:stream.obj
 0002:0000668c       ??_C@_1CC@JBMDNKJP@?$AAf?$AAi?$AAl?$AAe?$AAn?$AAa?$AAm?$AAe?$AA?5?$AA?$CB?$AA?$DN?$AA?5?$AAN?$AAU?$AAL?$AAL?$AA?$AA@ 1006b68c     LIBCMTD:_open.obj
 0002:000066b0       ??_C@_1EO@FCBMLNIH@?$AAf?$AA?3?$AA?2?$AAd?$AAd?$AA?2?$AAv?$AAc?$AAt?$AAo?$AAo?$AAl?$AAs?$AA?2?$AAc?$AAr?$AAt?$AA?2?$AAc?$AAr?$AAt?$AAw?$AA3?$AA2?$AA?2?$AAs?$AAt?$AAd?$AAi?$AAo?$AA?2?$AA_@ 1006b6b0     LIBCMTD:_open.obj
 0002:00006700       ??_C@_1BK@HGLMNMEC@?$AAm?$AAo?$AAd?$AAe?$AA?5?$AA?$CB?$AA?$DN?$AA?5?$AAN?$AAU?$AAL?$AAL?$AA?$AA@ 1006b700     LIBCMTD:_open.obj
 0002:0000671c       ??_C@_1DK@PKMJBLLN@?$AA?$CI?$AA?$CC?$AAI?$AAn?$AAv?$AAa?$AAl?$AAi?$AAd?$AA?5?$AAf?$AAi?$AAl?$AAe?$AA?5?$AAo?$AAp?$AAe?$AAn?$AA?5?$AAm?$AAo?$AAd?$AAe?$AA?$CC?$AA?0?$AA0?$AA?$CJ?$AA?$AA@ 1006b71c     LIBCMTD:_open.obj
 0002:00006758       ??_C@_1BE@DONHJJKE@?$AA_?$AAo?$AAp?$AAe?$AAn?$AAf?$AAi?$AAl?$AAe?$AA?$AA@ 1006b758     LIBCMTD:_open.obj
 0002:0000676c       ??_C@_1CI@KEDPFCAL@?$AA?$CI?$AA?$CK?$AAm?$AAo?$AAd?$AAe?$AA?5?$AA?$DN?$AA?$DN?$AA?5?$AA_?$AAT?$AA?$CI?$AA?8?$AA?2?$AA0?$AA?8?$AA?$CJ?$AA?$CJ?$AA?$AA@ 1006b76c     LIBCMTD:_open.obj
 0002:00006798       ??_C@_1FC@KLDIFLFI@?$AAf?$AA?3?$AA?2?$AAd?$AAd?$AA?2?$AAv?$AAc?$AAt?$AAo?$AAo?$AAl?$AAs?$AA?2?$AAc?$AAr?$AAt?$AA?2?$AAc?$AAr?$AAt?$AAw?$AA3?$AA2?$AA?2?$AAs?$AAt?$AAd?$AAi?$AAo?$AA?2?$AA_@ 1006b798     LIBCMTD:_filbuf.obj
 0002:000067ec       ??_C@_1BA@IIKEPOGH@?$AA_?$AAf?$AAi?$AAl?$AAb?$AAu?$AAf?$AA?$AA@ 1006b7ec     LIBCMTD:_filbuf.obj
 0002:000067fc       ??_C@_1BI@GKKCBDMD@?$AAd?$AAs?$AAt?$AA?5?$AA?$CB?$AA?$DN?$AA?5?$AAN?$AAU?$AAL?$AAL?$AA?$AA@ 1006b7fc     LIBCMTD:memcpy_s.obj
 0002:00006818       ??_C@_1FG@COJCEIPE@?$AAf?$AA?3?$AA?2?$AAd?$AAd?$AA?2?$AAv?$AAc?$AAt?$AAo?$AAo?$AAl?$AAs?$AA?2?$AAc?$AAr?$AAt?$AA?2?$AAc?$AAr?$AAt?$AAw?$AA3?$AA2?$AA?2?$AAs?$AAt?$AAr?$AAi?$AAn?$AAg?$AA?2@ 1006b818     LIBCMTD:memcpy_s.obj
 0002:00006870       ??_C@_1BC@GKHDJMGB@?$AAm?$AAe?$AAm?$AAc?$AAp?$AAy?$AA_?$AAs?$AA?$AA@ 1006b870     LIBCMTD:memcpy_s.obj
 0002:00006884       ??_C@_1BI@DCHLDCPP@?$AAs?$AAr?$AAc?$AA?5?$AA?$CB?$AA?$DN?$AA?5?$AAN?$AAU?$AAL?$AAL?$AA?$AA@ 1006b884     LIBCMTD:memcpy_s.obj
 0002:0000689c       ??_C@_1CK@DDKKOLAN@?$AAs?$AAi?$AAz?$AAe?$AAI?$AAn?$AAB?$AAy?$AAt?$AAe?$AAs?$AA?5?$AA?$DO?$AA?$DN?$AA?5?$AAc?$AAo?$AAu?$AAn?$AAt?$AA?$AA@ 1006b89c     LIBCMTD:memcpy_s.obj
 0002:000068c8       ??_C@_1EM@BALFJBIJ@?$AAf?$AA?3?$AA?2?$AAd?$AAd?$AA?2?$AAv?$AAc?$AAt?$AAo?$AAo?$AAl?$AAs?$AA?2?$AAc?$AAr?$AAt?$AA?2?$AAc?$AAr?$AAt?$AAw?$AA3?$AA2?$AA?2?$AAl?$AAo?$AAw?$AAi?$AAo?$AA?2?$AAr@ 1006b8c8     LIBCMTD:read.obj
 0002:00006914       ??_C@_1M@NHJOLLDM@?$AA_?$AAr?$AAe?$AAa?$AAd?$AA?$AA@ 1006b914     LIBCMTD:read.obj
 0002:00006920       ??_C@_1CC@HBLPFNKH@?$AA?$CI?$AAc?$AAn?$AAt?$AA?5?$AA?$DM?$AA?$DN?$AA?5?$AAI?$AAN?$AAT?$AA_?$AAM?$AAA?$AAX?$AA?$CJ?$AA?$AA@ 1006b920     LIBCMTD:read.obj
 0002:00006944       ??_C@_1BK@JJBHNDKJ@?$AA_?$AAr?$AAe?$AAa?$AAd?$AA_?$AAn?$AAo?$AAl?$AAo?$AAc?$AAk?$AA?$AA@ 1006b944     LIBCMTD:read.obj
 0002:00006960       ??_C@_1CG@OHLJHGGK@?$AA?$CI?$AAi?$AAn?$AAp?$AAu?$AAt?$AAb?$AAu?$AAf?$AA?5?$AA?$CB?$AA?$DN?$AA?5?$AAN?$AAU?$AAL?$AAL?$AA?$CJ?$AA?$AA@ 1006b960     LIBCMTD:read.obj
 0002:00006988       ??_C@_1CC@EEOLPHGO@?$AA?$CI?$AA?$CI?$AAc?$AAn?$AAt?$AA?5?$AA?$CG?$AA?5?$AA1?$AA?$CJ?$AA?5?$AA?$DN?$AA?$DN?$AA?5?$AA0?$AA?$CJ?$AA?$AA@ 1006b988     LIBCMTD:read.obj
 0002:000069ac       ??_C@_0CG@JHNDLPLJ@f?3?2dd?2vctools?2crt?2crtw32?2lowio?2r@ 1006b9ac     LIBCMTD:read.obj
 0002:000069d8       ??_C@_1EO@NLGPLDCN@?$AAf?$AA?3?$AA?2?$AAd?$AAd?$AA?2?$AAv?$AAc?$AAt?$AAo?$AAo?$AAl?$AAs?$AA?2?$AAc?$AAr?$AAt?$AA?2?$AAc?$AAr?$AAt?$AAw?$AA3?$AA2?$AA?2?$AAl?$AAo?$AAw?$AAi?$AAo?$AA?2?$AAw@ 1006b9d8     LIBCMTD:write.obj
 0002:00006a28       ??_C@_1O@KOFKDHPL@?$AA_?$AAw?$AAr?$AAi?$AAt?$AAe?$AA?$AA@ 1006ba28     LIBCMTD:write.obj
 0002:00006a38       ??_C@_1BM@KFJLMBPG@?$AA?$CI?$AAb?$AAu?$AAf?$AA?5?$AA?$CB?$AA?$DN?$AA?5?$AAN?$AAU?$AAL?$AAL?$AA?$CJ?$AA?$AA@ 1006ba38     LIBCMTD:write.obj
 0002:00006a54       ??_C@_1BM@NCANHCIP@?$AA_?$AAw?$AAr?$AAi?$AAt?$AAe?$AA_?$AAn?$AAo?$AAl?$AAo?$AAc?$AAk?$AA?$AA@ 1006ba54     LIBCMTD:write.obj
 0002:00006a70       ??_C@_1DI@CNMHHHLG@?$AAi?$AAs?$AAl?$AAe?$AAa?$AAd?$AAb?$AAy?$AAt?$AAe?$AA?$CI?$AA_?$AAd?$AAb?$AAc?$AAs?$AAB?$AAu?$AAf?$AAf?$AAe?$AAr?$AA?$CI?$AAf?$AAh?$AA?$CJ?$AA?$CJ?$AA?$AA@ 1006ba70     LIBCMTD:write.obj
 0002:00006b60       ??_C@_1FK@PGACCAFB@?$AAR?$AA6?$AA0?$AA0?$AA2?$AA?$AN?$AA?6?$AA?9?$AA?5?$AAf?$AAl?$AAo?$AAa?$AAt?$AAi?$AAn?$AAg?$AA?5?$AAp?$AAo?$AAi?$AAn?$AAt?$AA?5?$AAs?$AAu?$AAp?$AAp?$AAo?$AAr?$AAt?$AA?5@ 1006bb60     LIBCMTD:crt0msg.obj
 0002:00006bc0       ??_C@_1FE@LLNEDJMD@?$AAR?$AA6?$AA0?$AA0?$AA8?$AA?$AN?$AA?6?$AA?9?$AA?5?$AAn?$AAo?$AAt?$AA?5?$AAe?$AAn?$AAo?$AAu?$AAg?$AAh?$AA?5?$AAs?$AAp?$AAa?$AAc?$AAe?$AA?5?$AAf?$AAo?$AAr?$AA?5?$AAa?$AAr@ 1006bbc0     LIBCMTD:crt0msg.obj
 0002:00006c18       ??_C@_1FI@HONFMGBI@?$AAR?$AA6?$AA0?$AA0?$AA9?$AA?$AN?$AA?6?$AA?9?$AA?5?$AAn?$AAo?$AAt?$AA?5?$AAe?$AAn?$AAo?$AAu?$AAg?$AAh?$AA?5?$AAs?$AAp?$AAa?$AAc?$AAe?$AA?5?$AAf?$AAo?$AAr?$AA?5?$AAe?$AAn@ 1006bc18     LIBCMTD:crt0msg.obj
 0002:00006c70       ??_C@_1EG@BEHAGFJD@?$AAR?$AA6?$AA0?$AA1?$AA0?$AA?$AN?$AA?6?$AA?9?$AA?5?$AAa?$AAb?$AAo?$AAr?$AAt?$AA?$CI?$AA?$CJ?$AA?5?$AAh?$AAa?$AAs?$AA?5?$AAb?$AAe?$AAe?$AAn?$AA?5?$AAc?$AAa?$AAl?$AAl?$AAe?$AAd@ 1006bc70     LIBCMTD:crt0msg.obj
 0002:00006cb8       ??_C@_1FI@LOGNIKDM@?$AAR?$AA6?$AA0?$AA1?$AA6?$AA?$AN?$AA?6?$AA?9?$AA?5?$AAn?$AAo?$AAt?$AA?5?$AAe?$AAn?$AAo?$AAu?$AAg?$AAh?$AA?5?$AAs?$AAp?$AAa?$AAc?$AAe?$AA?5?$AAf?$AAo?$AAr?$AA?5?$AAt?$AAh@ 1006bcb8     LIBCMTD:crt0msg.obj
 0002:00006d10       ??_C@_1FK@BEOGODMC@?$AAR?$AA6?$AA0?$AA1?$AA7?$AA?$AN?$AA?6?$AA?9?$AA?5?$AAu?$AAn?$AAe?$AAx?$AAp?$AAe?$AAc?$AAt?$AAe?$AAd?$AA?5?$AAm?$AAu?$AAl?$AAt?$AAi?$AAt?$AAh?$AAr?$AAe?$AAa?$AAd?$AA?5@ 1006bd10     LIBCMTD:crt0msg.obj
 0002:00006d70       ??_C@_1EC@JIBHAOPH@?$AAR?$AA6?$AA0?$AA1?$AA8?$AA?$AN?$AA?6?$AA?9?$AA?5?$AAu?$AAn?$AAe?$AAx?$AAp?$AAe?$AAc?$AAt?$AAe?$AAd?$AA?5?$AAh?$AAe?$AAa?$AAp?$AA?5?$AAe?$AAr?$AAr?$AAo?$AAr?$AA?$AN?$AA?6@ 1006bd70     LIBCMTD:crt0msg.obj
 0002:00006db8       ??_C@_1FC@ECHBIFBC@?$AAR?$AA6?$AA0?$AA1?$AA9?$AA?$AN?$AA?6?$AA?9?$AA?5?$AAu?$AAn?$AAa?$AAb?$AAl?$AAe?$AA?5?$AAt?$AAo?$AA?5?$AAo?$AAp?$AAe?$AAn?$AA?5?$AAc?$AAo?$AAn?$AAs?$AAo?$AAl?$AAe?$AA?5@ 1006bdb8     LIBCMTD:crt0msg.obj
 0002:00006e10       ??_C@_1GK@FHCKBEFA@?$AAR?$AA6?$AA0?$AA2?$AA4?$AA?$AN?$AA?6?$AA?9?$AA?5?$AAn?$AAo?$AAt?$AA?5?$AAe?$AAn?$AAo?$AAu?$AAg?$AAh?$AA?5?$AAs?$AAp?$AAa?$AAc?$AAe?$AA?5?$AAf?$AAo?$AAr?$AA?5?$AA_?$AAo@ 1006be10     LIBCMTD:crt0msg.obj
 0002:00006e80       ??_C@_1EM@MAADIHMB@?$AAR?$AA6?$AA0?$AA2?$AA5?$AA?$AN?$AA?6?$AA?9?$AA?5?$AAp?$AAu?$AAr?$AAe?$AA?5?$AAv?$AAi?$AAr?$AAt?$AAu?$AAa?$AAl?$AA?5?$AAf?$AAu?$AAn?$AAc?$AAt?$AAi?$AAo?$AAn?$AA?5?$AAc@ 1006be80     LIBCMTD:crt0msg.obj
 0002:00006ed0       ??_C@_1GK@MCAAGJMO@?$AAR?$AA6?$AA0?$AA2?$AA6?$AA?$AN?$AA?6?$AA?9?$AA?5?$AAn?$AAo?$AAt?$AA?5?$AAe?$AAn?$AAo?$AAu?$AAg?$AAh?$AA?5?$AAs?$AAp?$AAa?$AAc?$AAe?$AA?5?$AAf?$AAo?$AAr?$AA?5?$AAs?$AAt@ 1006bed0     LIBCMTD:crt0msg.obj
 0002:00006f40       ??_C@_1GK@MFGOKLAG@?$AAR?$AA6?$AA0?$AA2?$AA7?$AA?$AN?$AA?6?$AA?9?$AA?5?$AAn?$AAo?$AAt?$AA?5?$AAe?$AAn?$AAo?$AAu?$AAg?$AAh?$AA?5?$AAs?$AAp?$AAa?$AAc?$AAe?$AA?5?$AAf?$AAo?$AAr?$AA?5?$AAl?$AAo@ 1006bf40     LIBCMTD:crt0msg.obj
 0002:00006fb0       ??_C@_1EK@HHFLMAOL@?$AAR?$AA6?$AA0?$AA2?$AA8?$AA?$AN?$AA?6?$AA?9?$AA?5?$AAu?$AAn?$AAa?$AAb?$AAl?$AAe?$AA?5?$AAt?$AAo?$AA?5?$AAi?$AAn?$AAi?$AAt?$AAi?$AAa?$AAl?$AAi?$AAz?$AAe?$AA?5?$AAh?$AAe@ 1006bfb0     LIBCMTD:crt0msg.obj
 0002:00006ffc       ??_C@_1DO@BMFCDCD@?$AAR?$AA6?$AA0?$AA3?$AA0?$AA?$AN?$AA?6?$AA?9?$AA?5?$AAC?$AAR?$AAT?$AA?5?$AAn?$AAo?$AAt?$AA?5?$AAi?$AAn?$AAi?$AAt?$AAi?$AAa?$AAl?$AAi?$AAz?$AAe?$AAd?$AA?$AN?$AA?6?$AA?$AA@ 1006bffc     LIBCMTD:crt0msg.obj
 0002:00007040       ??_C@_1MG@ENCOOIDF@?$AAR?$AA6?$AA0?$AA3?$AA1?$AA?$AN?$AA?6?$AA?9?$AA?5?$AAA?$AAt?$AAt?$AAe?$AAm?$AAp?$AAt?$AA?5?$AAt?$AAo?$AA?5?$AAi?$AAn?$AAi?$AAt?$AAi?$AAa?$AAl?$AAi?$AAz?$AAe?$AA?5?$AAt@ 1006c040     LIBCMTD:crt0msg.obj
 0002:00007108       ??_C@_1GG@GOPILAJP@?$AAR?$AA6?$AA0?$AA3?$AA2?$AA?$AN?$AA?6?$AA?9?$AA?5?$AAn?$AAo?$AAt?$AA?5?$AAe?$AAn?$AAo?$AAu?$AAg?$AAh?$AA?5?$AAs?$AAp?$AAa?$AAc?$AAe?$AA?5?$AAf?$AAo?$AAr?$AA?5?$AAl?$AAo@ 1006c108     LIBCMTD:crt0msg.obj
 0002:00007170       ??_C@_1BOO@KGEDBGAJ@?$AAR?$AA6?$AA0?$AA3?$AA3?$AA?$AN?$AA?6?$AA?9?$AA?5?$AAA?$AAt?$AAt?$AAe?$AAm?$AAp?$AAt?$AA?5?$AAt?$AAo?$AA?5?$AAu?$AAs?$AAe?$AA?5?$AAM?$AAS?$AAI?$AAL?$AA?5?$AAc?$AAo?$AAd@ 1006c170     LIBCMTD:crt0msg.obj
 0002:00007360       ??_C@_1GG@MKFPEKFO@?$AAR?$AA6?$AA0?$AA3?$AA4?$AA?$AN?$AA?6?$AA?9?$AA?5?$AAi?$AAn?$AAc?$AAo?$AAn?$AAs?$AAi?$AAs?$AAt?$AAe?$AAn?$AAt?$AA?5?$AAo?$AAn?$AAe?$AAx?$AAi?$AAt?$AA?5?$AAb?$AAe?$AAg@ 1006c360     LIBCMTD:crt0msg.obj
 0002:000073c8       ??_C@_1BO@BFCDCGC@?$AAD?$AAO?$AAM?$AAA?$AAI?$AAN?$AA?5?$AAe?$AAr?$AAr?$AAo?$AAr?$AA?$AN?$AA?6?$AA?$AA@ 1006c3c8     LIBCMTD:crt0msg.obj
 0002:000073e8       ??_C@_1BK@KMOMNAAI@?$AAS?$AAI?$AAN?$AAG?$AA?5?$AAe?$AAr?$AAr?$AAo?$AAr?$AA?$AN?$AA?6?$AA?$AA@ 1006c3e8     LIBCMTD:crt0msg.obj
 0002:00007404       ??_C@_1BM@JBBEPPHI@?$AAT?$AAL?$AAO?$AAS?$AAS?$AA?5?$AAe?$AAr?$AAr?$AAo?$AAr?$AA?$AN?$AA?6?$AA?$AA@ 1006c404     LIBCMTD:crt0msg.obj
 0002:00007420       ??_C@_15JNBOKNOG@?$AA?$AN?$AA?6?$AA?$AA@ 1006c420     LIBCMTD:crt0msg.obj
 0002:00007428       ??_C@_1BO@BKOMIGKJ@?$AAr?$AAu?$AAn?$AAt?$AAi?$AAm?$AAe?$AA?5?$AAe?$AAr?$AAr?$AAo?$AAr?$AA?5?$AA?$AA@ 1006c428     LIBCMTD:crt0msg.obj
 0002:00007448       ??_C@_1FG@ILOHEEMG@?$AAf?$AA?3?$AA?2?$AAd?$AAd?$AA?2?$AAv?$AAc?$AAt?$AAo?$AAo?$AAl?$AAs?$AA?2?$AAc?$AAr?$AAt?$AA?2?$AAc?$AAr?$AAt?$AAw?$AA3?$AA2?$AA?2?$AAs?$AAt?$AAa?$AAr?$AAt?$AAu?$AAp@ 1006c448     LIBCMTD:crt0msg.obj
 0002:000074a0       ??_C@_1BI@EAHMBMEC@?$AA_?$AAN?$AAM?$AAS?$AAG?$AA_?$AAW?$AAR?$AAI?$AAT?$AAE?$AA?$AA@ 1006c4a0     LIBCMTD:crt0msg.obj
 0002:000074b8       ??_C@_1KO@BKLCKNFL@?$AAw?$AAc?$AAs?$AAc?$AAp?$AAy?$AA_?$AAs?$AA?$CI?$AAo?$AAu?$AAt?$AAm?$AAs?$AAg?$AA?0?$AA?5?$AA?$CI?$AAs?$AAi?$AAz?$AAe?$AAo?$AAf?$AA?$CI?$AAo?$AAu?$AAt?$AAm?$AAs?$AAg?$AA?$CJ@ 1006c4b8     LIBCMTD:crt0msg.obj
 0002:00007568       ??_C@_1DE@JNGNBFGO@?$AAR?$AAu?$AAn?$AAt?$AAi?$AAm?$AAe?$AA?5?$AAE?$AAr?$AAr?$AAo?$AAr?$AA?$CB?$AA?6?$AA?6?$AAP?$AAr?$AAo?$AAg?$AAr?$AAa?$AAm?$AA?3?$AA?5?$AA?$AA@ 1006c568     LIBCMTD:crt0msg.obj
 0002:000075a0       ??_C@_1HK@FJJNAABO@?$AAw?$AAc?$AAs?$AAc?$AAp?$AAy?$AA_?$AAs?$AA?$CI?$AAp?$AAr?$AAo?$AAg?$AAn?$AAa?$AAm?$AAe?$AA?0?$AA?5?$AAp?$AAr?$AAo?$AAg?$AAn?$AAa?$AAm?$AAe?$AA_?$AAs?$AAi?$AAz?$AAe@ 1006c5a0     LIBCMTD:crt0msg.obj
 0002:00007620       ??_C@_1HI@FLHKGEBE@?$AAw?$AAc?$AAs?$AAn?$AAc?$AAp?$AAy?$AA_?$AAs?$AA?$CI?$AAp?$AAc?$AAh?$AA?0?$AA?5?$AAp?$AAr?$AAo?$AAg?$AAn?$AAa?$AAm?$AAe?$AA_?$AAs?$AAi?$AAz?$AAe?$AA?5?$AA?9?$AA?5?$AA?$CI@ 1006c620     LIBCMTD:crt0msg.obj
 0002:00007698       ??_C@_1IA@DCJGKHFO@?$AAw?$AAc?$AAs?$AAc?$AAa?$AAt?$AA_?$AAs?$AA?$CI?$AAo?$AAu?$AAt?$AAm?$AAs?$AAg?$AA?0?$AA?5?$AA?$CI?$AAs?$AAi?$AAz?$AAe?$AAo?$AAf?$AA?$CI?$AAo?$AAu?$AAt?$AAm?$AAs?$AAg?$AA?$CJ@ 1006c698     LIBCMTD:crt0msg.obj
 0002:00007718       ??_C@_1IG@NMONDPP@?$AAw?$AAc?$AAs?$AAc?$AAa?$AAt?$AA_?$AAs?$AA?$CI?$AAo?$AAu?$AAt?$AAm?$AAs?$AAg?$AA?0?$AA?5?$AA?$CI?$AAs?$AAi?$AAz?$AAe?$AAo?$AAf?$AA?$CI?$AAo?$AAu?$AAt?$AAm?$AAs?$AAg?$AA?$CJ@ 1006c718     LIBCMTD:crt0msg.obj
 0002:000077a0       ??_C@_0CJ@PLENACMA@f?3?2dd?2vctools?2crt?2crtw32?2misc?2in@ 1006c7a0     LIBCMTD:inithelp.obj
 0002:000077d0       ??_C@_1FC@PPCAPEFB@?$AAf?$AA?3?$AA?2?$AAd?$AAd?$AA?2?$AAv?$AAc?$AAt?$AAo?$AAo?$AAl?$AAs?$AA?2?$AAc?$AAr?$AAt?$AA?2?$AAc?$AAr?$AAt?$AAw?$AA3?$AA2?$AA?2?$AAm?$AAi?$AAs?$AAc?$AA?2?$AAi?$AAn@ 1006c7d0     LIBCMTD:inithelp.obj
 0002:00007824       ??_C@_1CA@KHHCPEI@?$AA_?$AA_?$AAg?$AAe?$AAt?$AAl?$AAo?$AAc?$AAa?$AAl?$AAe?$AAi?$AAn?$AAf?$AAo?$AA?$AA@ 1006c824     LIBCMTD:inithelp.obj
 0002:00007848       ??_C@_1GO@NGIGJNHH@?$AAs?$AAt?$AAr?$AAn?$AAc?$AAp?$AAy?$AA_?$AAs?$AA?$CI?$AA?$CK?$AAs?$AAt?$AAr?$AAa?$AAd?$AAd?$AAr?$AAe?$AAs?$AAs?$AA?0?$AA?5?$AAo?$AAu?$AAt?$AAs?$AAi?$AAz?$AAe?$AA?0?$AA?5@ 1006c848     LIBCMTD:inithelp.obj
 0002:00007920       ??_C@_05EOHGHCHD@exp10?$AA@ 1006c920     LIBCMTD:libm_error.obj
 0002:00007928       __XcptActTab               1006c928     LIBCMTD:winxfltr.obj
 0002:000079b8       __XcptActTabCount          1006c9b8     LIBCMTD:winxfltr.obj
 0002:000079bc       __XcptActTabSize           1006c9bc     LIBCMTD:winxfltr.obj
 0002:000079c0       __First_FPE_Indx           1006c9c0     LIBCMTD:winxfltr.obj
 0002:000079c4       __Num_FPE                  1006c9c4     LIBCMTD:winxfltr.obj
 0002:000079c8       ??_C@_1BC@DENNNKIM@?$AA_?$AAc?$AAr?$AAt?$AAh?$AAe?$AAa?$AAp?$AA?$AA@ 1006c9c8     LIBCMTD:heapinit.obj
 0002:000079e0       ??_C@_1FC@JOHAHJGP@?$AAf?$AA?3?$AA?2?$AAd?$AAd?$AA?2?$AAv?$AAc?$AAt?$AAo?$AAo?$AAl?$AAs?$AA?2?$AAc?$AAr?$AAt?$AA?2?$AAc?$AAr?$AAt?$AAw?$AA3?$AA2?$AA?2?$AAh?$AAe?$AAa?$AAp?$AA?2?$AAh?$AAe@ 1006c9e0     LIBCMTD:heapinit.obj
 0002:00007a34       ??_C@_0CI@BIOGDJKL@f?3?2dd?2vctools?2crt?2crtw32?2lowio?2i@ 1006ca34     LIBCMTD:ioinit.obj
 0002:00007a5c       ??_C@_0CL@OBKFGCKK@f?3?2dd?2vctools?2crt?2crtw32?2startup@ 1006ca5c     LIBCMTD:stdargv.obj
 0002:00007a88       ??_C@_0CL@BJBFGFLH@f?3?2dd?2vctools?2crt?2crtw32?2startup@ 1006ca88     LIBCMTD:stdenvp.obj
 0002:00007ab8       ??_C@_1FG@MHBLOJIO@?$AAf?$AA?3?$AA?2?$AAd?$AAd?$AA?2?$AAv?$AAc?$AAt?$AAo?$AAo?$AAl?$AAs?$AA?2?$AAc?$AAr?$AAt?$AA?2?$AAc?$AAr?$AAt?$AAw?$AA3?$AA2?$AA?2?$AAs?$AAt?$AAa?$AAr?$AAt?$AAu?$AAp@ 1006cab8     LIBCMTD:stdenvp.obj
 0002:00007b10       ??_C@_1BC@GHMCNHHL@?$AA_?$AAs?$AAe?$AAt?$AAe?$AAn?$AAv?$AAp?$AA?$AA@ 1006cb10     LIBCMTD:stdenvp.obj
 0002:00007b24       ??_C@_1DE@MMOGFGHF@?$AAs?$AAt?$AAr?$AAc?$AAp?$AAy?$AA_?$AAs?$AA?$CI?$AA?$CK?$AAe?$AAn?$AAv?$AA?0?$AA?5?$AAc?$AAc?$AAh?$AAa?$AAr?$AAs?$AA?0?$AA?5?$AAp?$AA?$CJ?$AA?$AA@ 1006cb24     LIBCMTD:stdenvp.obj
 0002:00007b58       ??_C@_0CG@NNNNMKLF@f?3?2dd?2vctools?2crt?2crtw32?2misc?2a_@ 1006cb58     LIBCMTD:a_env.obj
 0002:0000c220       ??_C@_0CH@JPGODKFM@f?3?2dd?2vctools?2crt?2crtw32?2misc?2on@ 10071220     LIBCMTD:onexit.obj
 0002:0000c248       ??_C@_0CH@KINPIPGE@f?3?2dd?2vctools?2crt?2crtw32?2misc?2wi@ 10071248     LIBCMTD:winsig.obj
 0002:0000c270       ??_C@_1DO@MLNEDKGB@?$AA?$CI?$AA?$CC?$AAI?$AAn?$AAv?$AAa?$AAl?$AAi?$AAd?$AA?5?$AAs?$AAi?$AAg?$AAn?$AAa?$AAl?$AA?5?$AAo?$AAr?$AA?5?$AAe?$AAr?$AAr?$AAo?$AAr?$AA?$CC?$AA?0?$AA?5?$AA0?$AA?$CJ?$AA?$AA@ 10071270     LIBCMTD:winsig.obj
 0002:0000c2b0       ??_C@_1EO@BCKLPCCI@?$AAf?$AA?3?$AA?2?$AAd?$AAd?$AA?2?$AAv?$AAc?$AAt?$AAo?$AAo?$AAl?$AAs?$AA?2?$AAc?$AAr?$AAt?$AA?2?$AAc?$AAr?$AAt?$AAw?$AA3?$AA2?$AA?2?$AAm?$AAi?$AAs?$AAc?$AA?2?$AAw?$AAi@ 100712b0     LIBCMTD:winsig.obj
 0002:0000c300       ??_C@_1O@EJLDHPPL@?$AAs?$AAi?$AAg?$AAn?$AAa?$AAl?$AA?$AA@ 10071300     LIBCMTD:winsig.obj
 0002:0000c310       ??_C@_1M@DMJEIKHL@?$AAr?$AAa?$AAi?$AAs?$AAe?$AA?$AA@ 10071310     LIBCMTD:winsig.obj
 0002:0000c31c       ??_C@_1CK@GFDNDKK@?$AA_?$AAR?$AAa?$AAn?$AAd?$AAo?$AAm?$AAV?$AAa?$AAl?$AAu?$AAe?$AA?5?$AA?$CB?$AA?$DN?$AA?5?$AAN?$AAU?$AAL?$AAL?$AA?$AA@ 1007131c     LIBCMTD:rand_s.obj
 0002:0000c348       ??_C@_1EO@GANOMFFN@?$AAf?$AA?3?$AA?2?$AAd?$AAd?$AA?2?$AAv?$AAc?$AAt?$AAo?$AAo?$AAl?$AAs?$AA?2?$AAc?$AAr?$AAt?$AA?2?$AAc?$AAr?$AAt?$AAw?$AA3?$AA2?$AA?2?$AAm?$AAi?$AAs?$AAc?$AA?2?$AAr?$AAa@ 10071348     LIBCMTD:rand_s.obj
 0002:0000c398       ??_C@_1O@IJGPPOGF@?$AAr?$AAa?$AAn?$AAd?$AA_?$AAs?$AA?$AA@ 10071398     LIBCMTD:rand_s.obj
 0002:0000c3a8       ??_C@_1BK@GAEMIDIL@?$AAA?$AAD?$AAV?$AAA?$AAP?$AAI?$AA3?$AA2?$AA?4?$AAD?$AAL?$AAL?$AA?$AA@ 100713a8     LIBCMTD:rand_s.obj
 0002:0000c3c8       ??_C@_1GA@EBEDGGGB@?$AA?$CI?$AA?$CC?$AAr?$AAa?$AAn?$AAd?$AA_?$AAs?$AA?5?$AAi?$AAs?$AA?5?$AAn?$AAo?$AAt?$AA?5?$AAa?$AAv?$AAa?$AAi?$AAl?$AAa?$AAb?$AAl?$AAe?$AA?5?$AAo?$AAn?$AA?5?$AAt?$AAh?$AAi@ 100713c8     LIBCMTD:rand_s.obj
 0002:0000c428       ??_C@_0BC@JEAENNKH@SystemFunction036?$AA@ 10071428     LIBCMTD:rand_s.obj
 0002:0000c44c       ??_C@_1M@HPNHIDJI@?$AAj?$AAa?$AA?9?$AAJ?$AAP?$AA?$AA@ 1007144c     LIBCMTD:mbctype.obj
 0002:0000c458       ??_C@_1M@BIBDDEMK@?$AAz?$AAh?$AA?9?$AAC?$AAN?$AA?$AA@ 10071458     LIBCMTD:mbctype.obj
 0002:0000c464       ??_C@_1M@JLOOOEGK@?$AAk?$AAo?$AA?9?$AAK?$AAR?$AA?$AA@ 10071464     LIBCMTD:mbctype.obj
 0002:0000c470       ??_C@_1M@CLNBBOPM@?$AAz?$AAh?$AA?9?$AAT?$AAW?$AA?$AA@ 10071470     LIBCMTD:mbctype.obj
 0002:0000c47c       ??_C@_0CM@BEDCPGGG@f?3?2dd?2vctools?2crt?2crtw32?2mbstrin@ 1007147c     LIBCMTD:mbctype.obj
 0002:0000c4a8       ??_C@_1FC@LKGACDMH@?$AAf?$AA?3?$AA?2?$AAd?$AAd?$AA?2?$AAv?$AAc?$AAt?$AAo?$AAo?$AAl?$AAs?$AA?2?$AAc?$AAr?$AAt?$AA?2?$AAc?$AAr?$AAt?$AAw?$AA3?$AA2?$AA?2?$AAs?$AAt?$AAd?$AAi?$AAo?$AA?2?$AA_@ 100714a8     LIBCMTD:_sftbuf.obj
 0002:0000c4fc       ??_C@_0CJ@KDJGPIJL@f?3?2dd?2vctools?2crt?2crtw32?2stdio?2_@ 100714fc     LIBCMTD:_sftbuf.obj
 0002:0000c528       ??_C@_1CO@KCKAACMI@?$AAf?$AAl?$AAa?$AAg?$AA?5?$AA?$DN?$AA?$DN?$AA?5?$AA0?$AA?5?$AA?$HM?$AA?$HM?$AA?5?$AAf?$AAl?$AAa?$AAg?$AA?5?$AA?$DN?$AA?$DN?$AA?5?$AA1?$AA?$AA@ 10071528     LIBCMTD:_sftbuf.obj
 0002:0000c558       ??_C@_1FE@MJOOBDBG@?$AAf?$AA?3?$AA?2?$AAd?$AAd?$AA?2?$AAv?$AAc?$AAt?$AAo?$AAo?$AAl?$AAs?$AA?2?$AAc?$AAr?$AAt?$AA?2?$AAc?$AAr?$AAt?$AAw?$AA3?$AA2?$AA?2?$AAs?$AAt?$AAd?$AAi?$AAo?$AA?2?$AAv@ 10071558     LIBCMTD:vfprintf.obj
 0002:0000c5ac       ??_C@_1CA@OEHMHBJF@?$AAv?$AAf?$AAp?$AAr?$AAi?$AAn?$AAt?$AAf?$AA_?$AAh?$AAe?$AAl?$AAp?$AAe?$AAr?$AA?$AA@ 100715ac     LIBCMTD:vfprintf.obj
 0002:0000c5cc       ??_C@_1BI@KANOLAMF@?$AA_?$AAo?$AAu?$AAt?$AAp?$AAu?$AAt?$AA_?$AAp?$AA_?$AAl?$AA?$AA@ 100715cc     LIBCMTD:outputp.obj
 0002:0000c5e8       ??_C@_1JC@PFJNKEIO@?$AA?$CI?$AA?$CI?$AAt?$AAy?$AAp?$AAe?$AA_?$AAp?$AAo?$AAs?$AA?5?$AA?$DO?$AA?$DN?$AA?5?$AA0?$AA?$CJ?$AA?5?$AA?$CG?$AA?$CG?$AA?5?$AA?$CI?$AA?$CK?$AAe?$AAn?$AAd?$AA_?$AAp?$AAo?$AAs?$AA?5?$AA?$DN?$AA?$DN@ 100715e8     LIBCMTD:outputp.obj
 0002:0000c680       ??_C@_1EE@DMAIGNBG@?$AA?$CI?$AA?$CC?$AAI?$AAn?$AAc?$AAo?$AAr?$AAr?$AAe?$AAc?$AAt?$AA?5?$AAf?$AAo?$AAr?$AAm?$AAa?$AAt?$AA?5?$AAs?$AAp?$AAe?$AAc?$AAi?$AAf?$AAi?$AAe?$AAr?$AA?$CC?$AA?0?$AA?5?$AA0@ 10071680     LIBCMTD:outputp.obj
 0002:0000c6c8       ??_C@_1JE@NMBHOLFI@?$AA?$CI?$AA?$CI?$AAw?$AAi?$AAd?$AAt?$AAh?$AA_?$AAp?$AAo?$AAs?$AA?5?$AA?$DO?$AA?$DN?$AA?5?$AA0?$AA?$CJ?$AA?5?$AA?$CG?$AA?$CG?$AA?5?$AA?$CI?$AA?$CK?$AAe?$AAn?$AAd?$AA_?$AAp?$AAo?$AAs?$AA?5?$AA?$DN@ 100716c8     LIBCMTD:outputp.obj
 0002:0000c760       ??_C@_1II@PIPIMLPF@?$AA_?$AAt?$AAv?$AAa?$AAl?$AAi?$AAd?$AAa?$AAt?$AAe?$AA_?$AAp?$AAa?$AAr?$AAa?$AAm?$AA_?$AAr?$AAe?$AAu?$AAs?$AAe?$AA?$CI?$AA?$CG?$AAp?$AAo?$AAs?$AA_?$AAv?$AAa?$AAl?$AAu@ 10071760     LIBCMTD:outputp.obj
 0002:0000c7e8       ??_C@_1JG@JBJBOCFB@?$AA?$CI?$AA?$CI?$AAp?$AAr?$AAe?$AAc?$AAi?$AAs?$AA_?$AAp?$AAo?$AAs?$AA?5?$AA?$DO?$AA?$DN?$AA?5?$AA0?$AA?$CJ?$AA?5?$AA?$CG?$AA?$CG?$AA?5?$AA?$CI?$AA?$CK?$AAe?$AAn?$AAd?$AA_?$AAp?$AAo?$AAs?$AA?5@ 100717e8     LIBCMTD:outputp.obj
 0002:0000c880       ??_C@_1IK@EIEPDKHJ@?$AA_?$AAt?$AAv?$AAa?$AAl?$AAi?$AAd?$AAa?$AAt?$AAe?$AA_?$AAp?$AAa?$AAr?$AAa?$AAm?$AA_?$AAr?$AAe?$AAu?$AAs?$AAe?$AA?$CI?$AA?$CG?$AAp?$AAo?$AAs?$AA_?$AAv?$AAa?$AAl?$AAu@ 10071880     LIBCMTD:outputp.obj
 0002:0000c910       ??_C@_1EM@BNPHBBIA@?$AA?$CI?$AA?$CI?$AAt?$AAy?$AAp?$AAe?$AA_?$AAp?$AAo?$AAs?$AA?$DO?$AA?$DN?$AA0?$AA?$CJ?$AA?5?$AA?$CG?$AA?$CG?$AA?5?$AA?$CI?$AAt?$AAy?$AAp?$AAe?$AA_?$AAp?$AAo?$AAs?$AA?$DM?$AA_?$AAA?$AAR?$AAG@ 10071910     LIBCMTD:outputp.obj
 0002:0000c960       ??_C@_1IK@MHEDJAMK@?$AA_?$AAt?$AAv?$AAa?$AAl?$AAi?$AAd?$AAa?$AAt?$AAe?$AA_?$AAp?$AAa?$AAr?$AAa?$AAm?$AA_?$AAr?$AAe?$AAu?$AAs?$AAe?$AA?$CI?$AA?$CG?$AAp?$AAo?$AAs?$AA_?$AAv?$AAa?$AAl?$AAu@ 10071960     LIBCMTD:outputp.obj
 0002:0000c9f0       ??_C@_1IG@FDCPLALG@?$AA_?$AAt?$AAv?$AAa?$AAl?$AAi?$AAd?$AAa?$AAt?$AAe?$AA_?$AAp?$AAa?$AAr?$AAa?$AAm?$AA_?$AAr?$AAe?$AAu?$AAs?$AAe?$AA?$CI?$AA?$CG?$AAp?$AAo?$AAs?$AA_?$AAv?$AAa?$AAl?$AAu@ 100719f0     LIBCMTD:outputp.obj
 0002:0000ca78       ??_C@_1IG@HJIMKDHC@?$AA_?$AAt?$AAv?$AAa?$AAl?$AAi?$AAd?$AAa?$AAt?$AAe?$AA_?$AAp?$AAa?$AAr?$AAa?$AAm?$AA_?$AAr?$AAe?$AAu?$AAs?$AAe?$AA?$CI?$AA?$CG?$AAp?$AAo?$AAs?$AA_?$AAv?$AAa?$AAl?$AAu@ 10071a78     LIBCMTD:outputp.obj
 0002:0000cb00       ??_C@_1IM@DNGHAPLB@?$AA_?$AAt?$AAv?$AAa?$AAl?$AAi?$AAd?$AAa?$AAt?$AAe?$AA_?$AAp?$AAa?$AAr?$AAa?$AAm?$AA_?$AAr?$AAe?$AAu?$AAs?$AAe?$AA?$CI?$AA?$CG?$AAp?$AAo?$AAs?$AA_?$AAv?$AAa?$AAl?$AAu@ 10071b00     LIBCMTD:outputp.obj
 0002:0000cb8c       ??_C@_1DG@GOHGNKHE@?$AAp?$AAa?$AAs?$AAs?$AA?5?$AA?$DN?$AA?$DN?$AA?5?$AAF?$AAO?$AAR?$AAM?$AAA?$AAT?$AA_?$AAO?$AAU?$AAT?$AAP?$AAU?$AAT?$AA_?$AAP?$AAA?$AAS?$AAS?$AA?$AA@ 10071b8c     LIBCMTD:outputp.obj
 0002:0000cbc8       ??_C@_1IK@NBGDDCBN@?$AA_?$AAt?$AAv?$AAa?$AAl?$AAi?$AAd?$AAa?$AAt?$AAe?$AA_?$AAp?$AAa?$AAr?$AAa?$AAm?$AA_?$AAr?$AAe?$AAu?$AAs?$AAe?$AA?$CI?$AA?$CG?$AAp?$AAo?$AAs?$AA_?$AAv?$AAa?$AAl?$AAu@ 10071bc8     LIBCMTD:outputp.obj
 0002:0000cc58       ??_C@_1JC@OACKELNN@?$AA_?$AAt?$AAv?$AAa?$AAl?$AAi?$AAd?$AAa?$AAt?$AAe?$AA_?$AAp?$AAa?$AAr?$AAa?$AAm?$AA_?$AAr?$AAe?$AAu?$AAs?$AAe?$AA?$CI?$AA?$CG?$AAp?$AAo?$AAs?$AA_?$AAv?$AAa?$AAl?$AAu@ 10071c58     LIBCMTD:outputp.obj
 0002:0000ccf0       ??_C@_1FK@LNCFKALM@?$AA?$CI?$AA?$CI?$AAs?$AAt?$AAa?$AAt?$AAe?$AA?5?$AA?$DN?$AA?$DN?$AA?5?$AAS?$AAT?$AA_?$AAN?$AAO?$AAR?$AAM?$AAA?$AAL?$AA?$CJ?$AA?5?$AA?$HM?$AA?$HM?$AA?5?$AA?$CI?$AAs?$AAt?$AAa?$AAt?$AAe?$AA?5@ 10071cf0     LIBCMTD:outputp.obj
 0002:0000cd50       ??_C@_1FK@BCPANIEK@?$AA?$CI?$AA?$CC?$AAM?$AAi?$AAs?$AAs?$AAi?$AAn?$AAg?$AA?5?$AAp?$AAo?$AAs?$AAi?$AAt?$AAi?$AAo?$AAn?$AA?5?$AAi?$AAn?$AA?5?$AAt?$AAh?$AAe?$AA?5?$AAf?$AAo?$AAr?$AAm?$AAa?$AAt@ 10071d50     LIBCMTD:outputp.obj
 0002:0000cdb0       ??_C@_1FC@NCPEPIBI@?$AA?$CI?$AA?$CI?$AA_?$AAD?$AAs?$AAt?$AA?$CJ?$AA?$CJ?$AA?5?$AA?$CB?$AA?$DN?$AA?5?$AAN?$AAU?$AAL?$AAL?$AA?5?$AA?$CG?$AA?$CG?$AA?5?$AA?$CI?$AA?$CI?$AA_?$AAS?$AAi?$AAz?$AAe?$AAI?$AAn?$AAB?$AAy?$AAt@ 10071db0     LIBCMTD:strcpy_s.obj
 0002:0000ce08       ??_C@_1FA@ILDLFIFE@?$AAf?$AA?3?$AA?2?$AAd?$AAd?$AA?2?$AAv?$AAc?$AAt?$AAo?$AAo?$AAl?$AAs?$AA?2?$AAc?$AAr?$AAt?$AA?2?$AAc?$AAr?$AAt?$AAw?$AA3?$AA2?$AA?2?$AAh?$AA?2?$AAt?$AAc?$AAs?$AAc?$AAp@ 10071e08     LIBCMTD:strcpy_s.obj
 0002:0000ce58       ??_C@_1BC@CFJEPFGF@?$AAs?$AAt?$AAr?$AAc?$AAp?$AAy?$AA_?$AAs?$AA?$AA@ 10071e58     LIBCMTD:strcpy_s.obj
 0002:0000ce6c       ??_C@_1CG@OFBJMIGJ@?$AA?$CI?$AA?$CI?$AA?$CI?$AA_?$AAS?$AAr?$AAc?$AA?$CJ?$AA?$CJ?$AA?$CJ?$AA?5?$AA?$CB?$AA?$DN?$AA?5?$AAN?$AAU?$AAL?$AAL?$AA?$AA@ 10071e6c     LIBCMTD:strcpy_s.obj
 0002:0000ce94       ??_C@_1CI@HCPHDDLE@?$AAB?$AAu?$AAf?$AAf?$AAe?$AAr?$AA?5?$AAi?$AAs?$AA?5?$AAt?$AAo?$AAo?$AA?5?$AAs?$AAm?$AAa?$AAl?$AAl?$AA?$AA@ 10071e94     LIBCMTD:strcpy_s.obj
 0002:0000cebc       ??_C@_1DM@MADKGDLO@?$AA?$CI?$AAL?$AA?$CC?$AAB?$AAu?$AAf?$AAf?$AAe?$AAr?$AA?5?$AAi?$AAs?$AA?5?$AAt?$AAo?$AAo?$AA?5?$AAs?$AAm?$AAa?$AAl?$AAl?$AA?$CC?$AA?5?$AA?$CG?$AA?$CG?$AA?5?$AA0?$AA?$CJ?$AA?$AA@ 10071ebc     LIBCMTD:strcpy_s.obj
 0002:0000cef8       ??_C@_1FC@PFMLEHKI@?$AA?$CI?$AA?$CI?$AA_?$AAD?$AAs?$AAt?$AA?$CJ?$AA?$CJ?$AA?5?$AA?$CB?$AA?$DN?$AA?5?$AAN?$AAU?$AAL?$AAL?$AA?5?$AA?$CG?$AA?$CG?$AA?5?$AA?$CI?$AA?$CI?$AA_?$AAS?$AAi?$AAz?$AAe?$AAI?$AAn?$AAW?$AAo?$AAr@ 10071ef8     LIBCMTD:wcscpy_s.obj
 0002:0000cf4c       ??_C@_1BC@KIONAFPO@?$AAw?$AAc?$AAs?$AAc?$AAp?$AAy?$AA_?$AAs?$AA?$AA@ 10071f4c     LIBCMTD:wcscpy_s.obj
 0002:0000cf60       ??_C@_1FE@HMGHELF@?$AAf?$AA?3?$AA?2?$AAd?$AAd?$AA?2?$AAv?$AAc?$AAt?$AAo?$AAo?$AAl?$AAs?$AA?2?$AAc?$AAr?$AAt?$AA?2?$AAc?$AAr?$AAt?$AAw?$AA3?$AA2?$AA?2?$AAs?$AAt?$AAd?$AAi?$AAo?$AA?2?$AAs@ 10071f60     LIBCMTD:swprintf.obj
 0002:0000cfb4       ??_C@_1BE@BMIJMLDD@?$AA_?$AAs?$AAw?$AAp?$AAr?$AAi?$AAn?$AAt?$AAf?$AA?$AA@ 10071fb4     LIBCMTD:swprintf.obj
 0002:0000cfc8       ??_C@_1BG@GOEBHBDC@?$AAU?$AAS?$AAE?$AAR?$AA3?$AA2?$AA?4?$AAD?$AAL?$AAL?$AA?$AA@ 10071fc8     LIBCMTD:crtmboxw.obj
 0002:0000cfe0       ??_C@_0M@DLDCCGNP@MessageBoxW?$AA@ 10071fe0     LIBCMTD:crtmboxw.obj
 0002:0000cfec       ??_C@_0BA@HNOPNCHB@GetActiveWindow?$AA@ 10071fec     LIBCMTD:crtmboxw.obj
 0002:0000cffc       ??_C@_0BD@HHGDFDBJ@GetLastActivePopup?$AA@ 10071ffc     LIBCMTD:crtmboxw.obj
 0002:0000d010       ??_C@_0BK@DEKFELLI@GetUserObjectInformationW?$AA@ 10072010     LIBCMTD:crtmboxw.obj
 0002:0000d02c       ??_C@_0BI@DFKBFLJE@GetProcessWindowStation?$AA@ 1007202c     LIBCMTD:crtmboxw.obj
 0002:0000d048       ??_C@_1FA@IFFFOLDJ@?$AAn?$AAR?$AAp?$AAt?$AAT?$AAy?$AAp?$AAe?$AA?5?$AA?$DO?$AA?$DN?$AA?5?$AA0?$AA?5?$AA?$CG?$AA?$CG?$AA?5?$AAn?$AAR?$AAp?$AAt?$AAT?$AAy?$AAp?$AAe?$AA?5?$AA?$DM?$AA?5?$AA_?$AAC?$AAR?$AAT@ 10072048     LIBCMTD:dbgrptt.obj
 0002:0000d098       ??_C@_1FA@PPLJBGMP@?$AAf?$AA?3?$AA?2?$AAd?$AAd?$AA?2?$AAv?$AAc?$AAt?$AAo?$AAo?$AAl?$AAs?$AA?2?$AAc?$AAr?$AAt?$AA?2?$AAc?$AAr?$AAt?$AAw?$AA3?$AA2?$AA?2?$AAm?$AAi?$AAs?$AAc?$AA?2?$AAd?$AAb@ 10072098     LIBCMTD:dbgrptt.obj
 0002:0000d0e8       ??_C@_1CE@FIHIECNJ@?$AA_?$AAC?$AAr?$AAt?$AAS?$AAe?$AAt?$AAR?$AAe?$AAp?$AAo?$AAr?$AAt?$AAM?$AAo?$AAd?$AAe?$AA?$AA@ 100720e8     LIBCMTD:dbgrptt.obj
 0002:0000d110       ??_C@_1NK@LOFHIHFC@?$AAf?$AAM?$AAo?$AAd?$AAe?$AA?5?$AA?$DN?$AA?$DN?$AA?5?$AA_?$AAC?$AAR?$AAT?$AAD?$AAB?$AAG?$AA_?$AAR?$AAE?$AAP?$AAO?$AAR?$AAT?$AA_?$AAM?$AAO?$AAD?$AAE?$AA?5?$AA?$HM?$AA?$HM?$AA?5@ 10072110     LIBCMTD:dbgrptt.obj
 0002:0000d1ec       ??_C@_1CE@IKKEDCME@?$AA_?$AAC?$AAr?$AAt?$AAS?$AAe?$AAt?$AAR?$AAe?$AAp?$AAo?$AAr?$AAt?$AAF?$AAi?$AAl?$AAe?$AA?$AA@ 100721ec     LIBCMTD:dbgrptt.obj
 0002:0000d210       ??_C@_1CA@KHJHLKA@?$AA_?$AAV?$AAC?$AAr?$AAt?$AAD?$AAb?$AAg?$AAR?$AAe?$AAp?$AAo?$AAr?$AAt?$AAA?$AA?$AA@ 10072210     LIBCMTD:dbgrptt.obj
 0002:0000d230       ??_C@_1FA@JPHJBHEM@?$AA_?$AAi?$AAt?$AAo?$AAa?$AA_?$AAs?$AA?$CI?$AAn?$AAL?$AAi?$AAn?$AAe?$AA?0?$AA?5?$AAs?$AAz?$AAL?$AAi?$AAn?$AAe?$AAM?$AAe?$AAs?$AAs?$AAa?$AAg?$AAe?$AA?0?$AA?5?$AA4?$AA0@ 10072230     LIBCMTD:dbgrptt.obj
 0002:0000d280       ??_C@_0CG@BNGLOCEO@Second?5Chance?5Assertion?5Failed?3?5@ 10072280     LIBCMTD:dbgrptt.obj
 0002:0000d2a8       ??_C@_0P@DFJNDPOP@?$DMfile?5unknown?$DO?$AA@ 100722a8     LIBCMTD:dbgrptt.obj
 0002:0000d2b8       ??_C@_07BHGABMGB@?0?5Line?5?$AA@ 100722b8     LIBCMTD:dbgrptt.obj
 0002:0000d2c0       ??_C@_1JI@GAALPGBM@?$AAs?$AAt?$AAr?$AAc?$AAp?$AAy?$AA_?$AAs?$AA?$CI?$AAs?$AAz?$AAU?$AAs?$AAe?$AAr?$AAM?$AAe?$AAs?$AAs?$AAa?$AAg?$AAe?$AA?0?$AA?5?$AA4?$AA0?$AA9?$AA6?$AA?0?$AA?5?$AA?$CC?$AA_@ 100722c0     LIBCMTD:dbgrptt.obj
 0002:0000d358       ??_C@_0CL@EACFGMNB@_CrtDbgReport?3?5String?5too?5long?5o@ 10072358     LIBCMTD:dbgrptt.obj
 0002:0000d388       ??_C@_1KK@GIGAEDMO@?$AAs?$AAt?$AAr?$AAc?$AAp?$AAy?$AA_?$AAs?$AA?$CI?$AAs?$AAz?$AAL?$AAi?$AAn?$AAe?$AAM?$AAe?$AAs?$AAs?$AAa?$AAg?$AAe?$AA?0?$AA?5?$AA4?$AA0?$AA9?$AA6?$AA?0?$AA?5?$AAs?$AAz@ 10072388     LIBCMTD:dbgrptt.obj
 0002:0000d434       ??_C@_0BD@CAENFOHP@Assertion?5failed?3?5?$AA@ 10072434     LIBCMTD:dbgrptt.obj
 0002:0000d448       ??_C@_0BC@LAIDCHCH@Assertion?5failed?$CB?$AA@ 10072448     LIBCMTD:dbgrptt.obj
 0002:0000d460       ??_C@_1FK@NPGBPOFO@?$AAs?$AAt?$AAr?$AAc?$AAa?$AAt?$AA_?$AAs?$AA?$CI?$AAs?$AAz?$AAL?$AAi?$AAn?$AAe?$AAM?$AAe?$AAs?$AAs?$AAa?$AAg?$AAe?$AA?0?$AA?5?$AA4?$AA0?$AA9?$AA6?$AA?0?$AA?5?$AAs?$AAz@ 10072460     LIBCMTD:dbgrptt.obj
 0002:0000d4c0       ??_C@_1EI@CACDLAFK@?$AAs?$AAt?$AAr?$AAc?$AAa?$AAt?$AA_?$AAs?$AA?$CI?$AAs?$AAz?$AAL?$AAi?$AAn?$AAe?$AAM?$AAe?$AAs?$AAs?$AAa?$AAg?$AAe?$AA?0?$AA?5?$AA4?$AA0?$AA9?$AA6?$AA?0?$AA?5?$AA?$CC?$AA?2@ 100724c0     LIBCMTD:dbgrptt.obj
 0002:0000d508       ??_C@_01LIIJDEN@?$AN?$AA@  10072508     LIBCMTD:dbgrptt.obj
 0002:0000d510       ??_C@_1EI@LDHJEDO@?$AAs?$AAt?$AAr?$AAc?$AAa?$AAt?$AA_?$AAs?$AA?$CI?$AAs?$AAz?$AAL?$AAi?$AAn?$AAe?$AAM?$AAe?$AAs?$AAs?$AAa?$AAg?$AAe?$AA?0?$AA?5?$AA4?$AA0?$AA9?$AA6?$AA?0?$AA?5?$AA?$CC?$AA?2@ 10072510     LIBCMTD:dbgrptt.obj
 0002:0000d558       ??_C@_0M@IPILFDFN@?$CFs?$CI?$CFd?$CJ?5?3?5?$CFs?$AA@ 10072558     LIBCMTD:dbgrptt.obj
 0002:0000d568       ??_C@_1JG@CPKCIOEE@?$AAs?$AAt?$AAr?$AAc?$AAp?$AAy?$AA_?$AAs?$AA?$CI?$AAs?$AAz?$AAO?$AAu?$AAt?$AAM?$AAe?$AAs?$AAs?$AAa?$AAg?$AAe?$AA?0?$AA?5?$AA4?$AA0?$AA9?$AA6?$AA?0?$AA?5?$AA?$CC?$AA_?$AAC@ 10072568     LIBCMTD:dbgrptt.obj
 0002:0000d600       ??_C@_1FI@IBIOIHEG@?$AAs?$AAt?$AAr?$AAc?$AAp?$AAy?$AA_?$AAs?$AA?$CI?$AAs?$AAz?$AAO?$AAu?$AAt?$AAM?$AAe?$AAs?$AAs?$AAa?$AAg?$AAe?$AA?0?$AA?5?$AA4?$AA0?$AA9?$AA6?$AA?0?$AA?5?$AAs?$AAz?$AAL@ 10072600     LIBCMTD:dbgrptt.obj
 0002:0000d658       ??_C@_1IM@OOKIFKOH@?$AAe?$AA?5?$AA?$DN?$AA?5?$AAm?$AAb?$AAs?$AAt?$AAo?$AAw?$AAc?$AAs?$AA_?$AAs?$AA?$CI?$AA?$CG?$AAr?$AAe?$AAt?$AA?0?$AA?5?$AAs?$AAz?$AAO?$AAu?$AAt?$AAM?$AAe?$AAs?$AAs?$AAa?$AAg@ 10072658     LIBCMTD:dbgrptt.obj
 0002:0000d6e8       ??_C@_1MC@IGEECMDB@?$AAw?$AAc?$AAs?$AAc?$AAp?$AAy?$AA_?$AAs?$AA?$CI?$AAs?$AAz?$AAO?$AAu?$AAt?$AAM?$AAe?$AAs?$AAs?$AAa?$AAg?$AAe?$AA2?$AA?0?$AA?5?$AA4?$AA0?$AA9?$AA6?$AA?0?$AA?5?$AAL?$AA?$CC@ 100726e8     LIBCMTD:dbgrptt.obj
 0002:0000d7b0       ??_C@_1HO@PJOFIKFE@?$AA_?$AAC?$AAr?$AAt?$AAD?$AAb?$AAg?$AAR?$AAe?$AAp?$AAo?$AAr?$AAt?$AA?3?$AA?5?$AAS?$AAt?$AAr?$AAi?$AAn?$AAg?$AA?5?$AAt?$AAo?$AAo?$AA?5?$AAl?$AAo?$AAn?$AAg?$AA?5?$AAo@ 100727b0     LIBCMTD:dbgrptt.obj
 0002:0000d830       ??_C@_1CA@HPALHDOD@?$AA_?$AAV?$AAC?$AAr?$AAt?$AAD?$AAb?$AAg?$AAR?$AAe?$AAp?$AAo?$AAr?$AAt?$AAW?$AA?$AA@ 10072830     LIBCMTD:dbgrptt.obj
 0002:0000d850       ??_C@_1FA@CNLLOMHI@?$AA_?$AAi?$AAt?$AAo?$AAw?$AA_?$AAs?$AA?$CI?$AAn?$AAL?$AAi?$AAn?$AAe?$AA?0?$AA?5?$AAs?$AAz?$AAL?$AAi?$AAn?$AAe?$AAM?$AAe?$AAs?$AAs?$AAa?$AAg?$AAe?$AA?0?$AA?5?$AA4?$AA0@ 10072850     LIBCMTD:dbgrptt.obj
 0002:0000d8a0       ??_C@_1EM@MJFLEDMB@?$AAS?$AAe?$AAc?$AAo?$AAn?$AAd?$AA?5?$AAC?$AAh?$AAa?$AAn?$AAc?$AAe?$AA?5?$AAA?$AAs?$AAs?$AAe?$AAr?$AAt?$AAi?$AAo?$AAn?$AA?5?$AAF?$AAa?$AAi?$AAl?$AAe?$AAd?$AA?3?$AA?5@ 100728a0     LIBCMTD:dbgrptt.obj
 0002:0000d8ec       ??_C@_1BO@OCHMLCAG@?$AA?$DM?$AAf?$AAi?$AAl?$AAe?$AA?5?$AAu?$AAn?$AAk?$AAn?$AAo?$AAw?$AAn?$AA?$DO?$AA?$AA@ 100728ec     LIBCMTD:dbgrptt.obj
 0002:0000d90c       ??_C@_1BA@ELMMDCFC@?$AA?0?$AA?5?$AAL?$AAi?$AAn?$AAe?$AA?5?$AA?$AA@ 1007290c     LIBCMTD:dbgrptt.obj
 0002:0000d91c       ??_C@_13LBAGMAIH@?$AA?6?$AA?$AA@ 1007291c     LIBCMTD:dbgrptt.obj
 0002:0000d920       ??_C@_1JK@KHFABAEO@?$AAw?$AAc?$AAs?$AAc?$AAp?$AAy?$AA_?$AAs?$AA?$CI?$AAs?$AAz?$AAU?$AAs?$AAe?$AAr?$AAM?$AAe?$AAs?$AAs?$AAa?$AAg?$AAe?$AA?0?$AA?5?$AA4?$AA0?$AA9?$AA6?$AA?0?$AA?5?$AAL?$AA?$CC@ 10072920     LIBCMTD:dbgrptt.obj
 0002:0000d9c0       ??_C@_1KO@DGAHENCH@?$AAw?$AAc?$AAs?$AAc?$AAp?$AAy?$AA_?$AAs?$AA?$CI?$AAs?$AAz?$AAL?$AAi?$AAn?$AAe?$AAM?$AAe?$AAs?$AAs?$AAa?$AAg?$AAe?$AA?0?$AA?5?$AA4?$AA0?$AA9?$AA6?$AA?0?$AA?5?$AAs?$AAz@ 100729c0     LIBCMTD:dbgrptt.obj
 0002:0000da70       ??_C@_1CG@FFFGGODN@?$AAA?$AAs?$AAs?$AAe?$AAr?$AAt?$AAi?$AAo?$AAn?$AA?5?$AAf?$AAa?$AAi?$AAl?$AAe?$AAd?$AA?3?$AA?5?$AA?$AA@ 10072a70     LIBCMTD:dbgrptt.obj
 0002:0000da98       ??_C@_1CE@OJBNHDMO@?$AAA?$AAs?$AAs?$AAe?$AAr?$AAt?$AAi?$AAo?$AAn?$AA?5?$AAf?$AAa?$AAi?$AAl?$AAe?$AAd?$AA?$CB?$AA?$AA@ 10072a98     LIBCMTD:dbgrptt.obj
 0002:0000dac0       ??_C@_1FK@HPADHBBD@?$AAw?$AAc?$AAs?$AAc?$AAa?$AAt?$AA_?$AAs?$AA?$CI?$AAs?$AAz?$AAL?$AAi?$AAn?$AAe?$AAM?$AAe?$AAs?$AAs?$AAa?$AAg?$AAe?$AA?0?$AA?5?$AA4?$AA0?$AA9?$AA6?$AA?0?$AA?5?$AAs?$AAz@ 10072ac0     LIBCMTD:dbgrptt.obj
 0002:0000db20       ??_C@_1EK@NMDFGHMF@?$AAw?$AAc?$AAs?$AAc?$AAa?$AAt?$AA_?$AAs?$AA?$CI?$AAs?$AAz?$AAL?$AAi?$AAn?$AAe?$AAM?$AAe?$AAs?$AAs?$AAa?$AAg?$AAe?$AA?0?$AA?5?$AA4?$AA0?$AA9?$AA6?$AA?0?$AA?5?$AAL?$AA?$CC@ 10072b20     LIBCMTD:dbgrptt.obj
 0002:0000db6c       ??_C@_13CMNBPIDO@?$AA?$AN?$AA?$AA@ 10072b6c     LIBCMTD:dbgrptt.obj
 0002:0000db70       ??_C@_1EK@PHCBEDKB@?$AAw?$AAc?$AAs?$AAc?$AAa?$AAt?$AA_?$AAs?$AA?$CI?$AAs?$AAz?$AAL?$AAi?$AAn?$AAe?$AAM?$AAe?$AAs?$AAs?$AAa?$AAg?$AAe?$AA?0?$AA?5?$AA4?$AA0?$AA9?$AA6?$AA?0?$AA?5?$AAL?$AA?$CC@ 10072b70     LIBCMTD:dbgrptt.obj
 0002:0000dbbc       ??_C@_1BI@JIDBEPIG@?$AA?$CF?$AAs?$AA?$CI?$AA?$CF?$AAd?$AA?$CJ?$AA?5?$AA?3?$AA?5?$AA?$CF?$AAs?$AA?$AA@ 10072bbc     LIBCMTD:dbgrptt.obj
 0002:0000dbd8       ??_C@_1FI@DBAIJPJE@?$AAw?$AAc?$AAs?$AAc?$AAp?$AAy?$AA_?$AAs?$AA?$CI?$AAs?$AAz?$AAO?$AAu?$AAt?$AAM?$AAe?$AAs?$AAs?$AAa?$AAg?$AAe?$AA?0?$AA?5?$AA4?$AA0?$AA9?$AA6?$AA?0?$AA?5?$AAs?$AAz?$AAL@ 10072bd8     LIBCMTD:dbgrptt.obj
 0002:0000dc30       ??_C@_1JC@EOAPFDLN@?$AAw?$AAc?$AAs?$AAt?$AAo?$AAm?$AAb?$AAs?$AA_?$AAs?$AA?$CI?$AA?$CI?$AA?$CI?$AAv?$AAo?$AAi?$AAd?$AA?5?$AA?$CK?$AA?$CJ?$AA0?$AA?$CJ?$AA?0?$AA?5?$AAs?$AAz?$AAO?$AAu?$AAt?$AAM?$AAe?$AAs@ 10072c30     LIBCMTD:dbgrptt.obj
 0002:0000dcc8       ??_C@_1MA@LBAMNNOB@?$AAs?$AAt?$AAr?$AAc?$AAp?$AAy?$AA_?$AAs?$AA?$CI?$AAs?$AAz?$AAO?$AAu?$AAt?$AAM?$AAe?$AAs?$AAs?$AAa?$AAg?$AAe?$AA2?$AA?0?$AA?5?$AA4?$AA0?$AA9?$AA6?$AA?0?$AA?5?$AA?$CC?$AA_@ 10072cc8     LIBCMTD:dbgrptt.obj
 0002:0000dd88       ??_C@_0DP@GNPEPHJD@_CrtDbgReport?3?5String?5too?5long?5o@ 10072d88     LIBCMTD:dbgrptt.obj
 0002:0000ddc8       ??_C@_1IE@CPGKIAGP@?$AAw?$AAc?$AAs?$AAt?$AAo?$AAm?$AAb?$AAs?$AA_?$AAs?$AA?$CI?$AA?$CG?$AAr?$AAe?$AAt?$AA?0?$AA?5?$AAs?$AAz?$AAa?$AAO?$AAu?$AAt?$AAM?$AAe?$AAs?$AAs?$AAa?$AAg?$AAe?$AA?0?$AA?5@ 10072dc8     LIBCMTD:dbgrptt.obj
 0002:0000de50       ??_C@_1BJK@FEBNHLFF@?$AA?$CI?$AA?$CI?$AAp?$AAt?$AAl?$AAo?$AAc?$AAi?$AA?9?$AA?$DO?$AAl?$AAc?$AA_?$AAc?$AAa?$AAt?$AAe?$AAg?$AAo?$AAr?$AAy?$AA?$FL?$AAc?$AAa?$AAt?$AAe?$AAg?$AAo?$AAr?$AAy?$AA?$FN?$AA?4@ 10072e50     LIBCMTD:localref.obj
 0002:0000dff0       ??_C@_1FC@HINIIGNO@?$AAf?$AA?3?$AA?2?$AAd?$AAd?$AA?2?$AAv?$AAc?$AAt?$AAo?$AAo?$AAl?$AAs?$AA?2?$AAc?$AAr?$AAt?$AA?2?$AAc?$AAr?$AAt?$AAw?$AA3?$AA2?$AA?2?$AAm?$AAi?$AAs?$AAc?$AA?2?$AAl?$AAo@ 10072ff0     LIBCMTD:localref.obj
 0002:0000e044       ??_C@_1CI@JELMFMDH@?$AAc?$AA?5?$AA?$DO?$AA?$DN?$AA?5?$AA?9?$AA1?$AA?5?$AA?$CG?$AA?$CG?$AA?5?$AAc?$AA?5?$AA?$DM?$AA?$DN?$AA?5?$AA2?$AA5?$AA5?$AA?$AA@ 10073044     LIBCMTD:isctype.obj
 0002:0000e070       ??_C@_1FG@IBFIOCOE@?$AAf?$AA?3?$AA?2?$AAd?$AAd?$AA?2?$AAv?$AAc?$AAt?$AAo?$AAo?$AAl?$AAs?$AA?2?$AAc?$AAr?$AAt?$AA?2?$AAc?$AAr?$AAt?$AAw?$AA3?$AA2?$AA?2?$AAc?$AAo?$AAn?$AAv?$AAe?$AAr?$AAt@ 10073070     LIBCMTD:isctype.obj
 0002:0000e0c8       ??_C@_1BO@KFIJIAEA@?$AAp?$AAB?$AAl?$AAo?$AAc?$AAk?$AA?5?$AA?$CB?$AA?$DN?$AA?5?$AAN?$AAU?$AAL?$AAL?$AA?$AA@ 100730c8     LIBCMTD:expand.obj
 0002:0000e0e8       ??_C@_1EO@BOMKIKJB@?$AAf?$AA?3?$AA?2?$AAd?$AAd?$AA?2?$AAv?$AAc?$AAt?$AAo?$AAo?$AAl?$AAs?$AA?2?$AAc?$AAr?$AAt?$AA?2?$AAc?$AAr?$AAt?$AAw?$AA3?$AA2?$AA?2?$AAh?$AAe?$AAa?$AAp?$AA?2?$AAe?$AAx@ 100730e8     LIBCMTD:expand.obj
 0002:0000e138       ??_C@_1BK@JMCGJOCC@?$AA_?$AAe?$AAx?$AAp?$AAa?$AAn?$AAd?$AA_?$AAb?$AAa?$AAs?$AAe?$AA?$AA@ 10073138     LIBCMTD:expand.obj
 0002:0000e160       ??_C@_03KHICJKCI@?4?4?4?$AA@ 10073160     LIBCMTD:dbgrpt.obj
 0002:0000e164       ??_C@_1CG@GNMJDMIO@?$AA_?$AAC?$AAr?$AAt?$AAS?$AAe?$AAt?$AAR?$AAe?$AAp?$AAo?$AAr?$AAt?$AAH?$AAo?$AAo?$AAk?$AA2?$AA?$AA@ 10073164     LIBCMTD:dbgrpt.obj
 0002:0000e18c       ??_C@_1CI@IDOKFLAJ@?$AA_?$AA_?$AAc?$AAr?$AAt?$AAM?$AAe?$AAs?$AAs?$AAa?$AAg?$AAe?$AAW?$AAi?$AAn?$AAd?$AAo?$AAw?$AAA?$AA?$AA@ 1007318c     LIBCMTD:dbgrpt.obj
 0002:0000e1b8       ??_C@_1GG@DLDHOIGE@?$AAs?$AAt?$AAr?$AAc?$AAp?$AAy?$AA_?$AAs?$AA?$CI?$AAs?$AAz?$AAE?$AAx?$AAe?$AAN?$AAa?$AAm?$AAe?$AA?0?$AA?5?$AA2?$AA6?$AA0?$AA?0?$AA?5?$AA?$CC?$AA?$DM?$AAp?$AAr?$AAo?$AAg?$AAr@ 100731b8     LIBCMTD:dbgrpt.obj
 0002:0000e220       ??_C@_0BH@DNAGHKFM@?$DMprogram?5name?5unknown?$DO?$AA@ 10073220     LIBCMTD:dbgrpt.obj
 0002:0000e238       ??_C@_1LG@BEHAHJLI@?$AAD?$AAe?$AAb?$AAu?$AAg?$AA?5?$AA?$CF?$AAs?$AA?$CB?$AA?6?$AA?6?$AAP?$AAr?$AAo?$AAg?$AAr?$AAa?$AAm?$AA?3?$AA?5?$AA?$CF?$AAh?$AAs?$AA?$CF?$AAs?$AA?$CF?$AAs?$AA?$CF?$AAh?$AAs?$AA?$CF?$AAs@ 10073238     LIBCMTD:dbgrpt.obj
 0002:0000e2f0       ??_C@_1BA@KBJJGFFE@?$AAs?$AAp?$AAr?$AAi?$AAn?$AAt?$AAf?$AA?$AA@ 100732f0     LIBCMTD:sprintf.obj
 0002:0000e300       ??_C@_03KOEHGMDN@Sun?$AA@  10073300     LIBCMTD:nlsdata.obj
 0002:0000e304       ??_C@_03PDAGKDH@Mon?$AA@   10073304     LIBCMTD:nlsdata.obj
 0002:0000e308       ??_C@_03NAGEINEP@Tue?$AA@  10073308     LIBCMTD:nlsdata.obj
 0002:0000e30c       ??_C@_03MHOMLAJA@Wed?$AA@  1007330c     LIBCMTD:nlsdata.obj
 0002:0000e310       ??_C@_03IOFIKPDN@Thu?$AA@  10073310     LIBCMTD:nlsdata.obj
 0002:0000e314       ??_C@_03IDIOELNC@Fri?$AA@  10073314     LIBCMTD:nlsdata.obj
 0002:0000e318       ??_C@_03FEFJNEK@Sat?$AA@   10073318     LIBCMTD:nlsdata.obj
 0002:0000e31c       ??_C@_06OOPIFAJ@Sunday?$AA@ 1007331c     LIBCMTD:nlsdata.obj
 0002:0000e324       ??_C@_06JLEDEDGH@Monday?$AA@ 10073324     LIBCMTD:nlsdata.obj
 0002:0000e32c       ??_C@_07BAAGCFCM@Tuesday?$AA@ 1007332c     LIBCMTD:nlsdata.obj
 0002:0000e334       ??_C@_09DLIGFAKA@Wednesday?$AA@ 10073334     LIBCMTD:nlsdata.obj
 0002:0000e340       ??_C@_08HACCIKIA@Thursday?$AA@ 10073340     LIBCMTD:nlsdata.obj
 0002:0000e34c       ??_C@_06JECMNKMI@Friday?$AA@ 1007334c     LIBCMTD:nlsdata.obj
 0002:0000e354       ??_C@_08INBOOONO@Saturday?$AA@ 10073354     LIBCMTD:nlsdata.obj
 0002:0000e360       ??_C@_03JIHJHPIE@Jan?$AA@  10073360     LIBCMTD:nlsdata.obj
 0002:0000e364       ??_C@_03HJBDCHOM@Feb?$AA@  10073364     LIBCMTD:nlsdata.obj
 0002:0000e368       ??_C@_03ODNJBKGA@Mar?$AA@  10073368     LIBCMTD:nlsdata.obj
 0002:0000e36c       ??_C@_03LEOLGMJP@Apr?$AA@  1007336c     LIBCMTD:nlsdata.obj
 0002:0000e370       ??_C@_03CNMDKL@May?$AA@    10073370     LIBCMTD:nlsdata.obj
 0002:0000e374       ??_C@_03IDFGHECI@Jun?$AA@  10073374     LIBCMTD:nlsdata.obj
 0002:0000e378       ??_C@_03LBGABGKK@Jul?$AA@  10073378     LIBCMTD:nlsdata.obj
 0002:0000e37c       ??_C@_03IFJFEIGA@Aug?$AA@  1007337c     LIBCMTD:nlsdata.obj
 0002:0000e380       ??_C@_03GGCAPAJC@Sep?$AA@  10073380     LIBCMTD:nlsdata.obj
 0002:0000e384       ??_C@_03BMAOKBAD@Oct?$AA@  10073384     LIBCMTD:nlsdata.obj
 0002:0000e388       ??_C@_03JPJOFNIA@Nov?$AA@  10073388     LIBCMTD:nlsdata.obj
 0002:0000e38c       ??_C@_03MKABNOCG@Dec?$AA@  1007338c     LIBCMTD:nlsdata.obj
 0002:0000e390       ??_C@_07CGJPFGJA@January?$AA@ 10073390     LIBCMTD:nlsdata.obj
 0002:0000e398       ??_C@_08GNJGEPFN@February?$AA@ 10073398     LIBCMTD:nlsdata.obj
 0002:0000e3a4       ??_C@_05HPCKOFNC@March?$AA@ 100733a4     LIBCMTD:nlsdata.obj
 0002:0000e3ac       ??_C@_05DMJDNLEJ@April?$AA@ 100733ac     LIBCMTD:nlsdata.obj
 0002:0000e3b4       ??_C@_04CNLMGBGM@June?$AA@ 100733b4     LIBCMTD:nlsdata.obj
 0002:0000e3bc       ??_C@_04MIEPOIFP@July?$AA@ 100733bc     LIBCMTD:nlsdata.obj
 0002:0000e3c4       ??_C@_06LBBHFDDG@August?$AA@ 100733c4     LIBCMTD:nlsdata.obj
 0002:0000e3cc       ??_C@_09BHHEALKD@September?$AA@ 100733cc     LIBCMTD:nlsdata.obj
 0002:0000e3d8       ??_C@_07JJNFCEND@October?$AA@ 100733d8     LIBCMTD:nlsdata.obj
 0002:0000e3e0       ??_C@_08HCHEGEOA@November?$AA@ 100733e0     LIBCMTD:nlsdata.obj
 0002:0000e3ec       ??_C@_08EDHMEBNP@December?$AA@ 100733ec     LIBCMTD:nlsdata.obj
 0002:0000e3f8       ??_C@_02DEDBPAFC@AM?$AA@   100733f8     LIBCMTD:nlsdata.obj
 0002:0000e3fc       ??_C@_02CJNFDJBF@PM?$AA@   100733fc     LIBCMTD:nlsdata.obj
 0002:0000e400       ??_C@_08BPBNCDIB@MM?1dd?1yy?$AA@ 10073400     LIBCMTD:nlsdata.obj
 0002:0000e40c       ??_C@_0BE@CKGJFCPC@dddd?0?5MMMM?5dd?0?5yyyy?$AA@ 1007340c     LIBCMTD:nlsdata.obj
 0002:0000e420       ??_C@_08JCCMCCIL@HH?3mm?3ss?$AA@ 10073420     LIBCMTD:nlsdata.obj
 0002:0000e42c       ??_C@_17MBGCMIPB@?$AAS?$AAu?$AAn?$AA?$AA@ 1007342c     LIBCMTD:nlsdata.obj
 0002:0000e434       ??_C@_17KBOMKBF@?$AAM?$AAo?$AAn?$AA?$AA@ 10073434     LIBCMTD:nlsdata.obj
 0002:0000e43c       ??_C@_17BMKGEGOJ@?$AAT?$AAu?$AAe?$AA?$AA@ 1007343c     LIBCMTD:nlsdata.obj
 0002:0000e444       ??_C@_17CJEDCEPE@?$AAW?$AAe?$AAd?$AA?$AA@ 10073444     LIBCMTD:nlsdata.obj
 0002:0000e44c       ??_C@_17PDPHAADD@?$AAT?$AAh?$AAu?$AA?$AA@ 1007344c     LIBCMTD:nlsdata.obj
 0002:0000e454       ??_C@_17HFOLPPLP@?$AAF?$AAr?$AAi?$AA?$AA@ 10073454     LIBCMTD:nlsdata.obj
 0002:0000e45c       ??_C@_17GGIBDPIH@?$AAS?$AAa?$AAt?$AA?$AA@ 1007345c     LIBCMTD:nlsdata.obj
 0002:0000e464       ??_C@_1O@IHNHDHPB@?$AAS?$AAu?$AAn?$AAd?$AAa?$AAy?$AA?$AA@ 10073464     LIBCMTD:nlsdata.obj
 0002:0000e474       ??_C@_1O@MMNBFLIA@?$AAM?$AAo?$AAn?$AAd?$AAa?$AAy?$AA?$AA@ 10073474     LIBCMTD:nlsdata.obj
 0002:0000e484       ??_C@_1BA@ENFBFFEK@?$AAT?$AAu?$AAe?$AAs?$AAd?$AAa?$AAy?$AA?$AA@ 10073484     LIBCMTD:nlsdata.obj
 0002:0000e494       ??_C@_1BE@EBOGMDOH@?$AAW?$AAe?$AAd?$AAn?$AAe?$AAs?$AAd?$AAa?$AAy?$AA?$AA@ 10073494     LIBCMTD:nlsdata.obj
 0002:0000e4a8       ??_C@_1BC@HHMNLIHE@?$AAT?$AAh?$AAu?$AAr?$AAs?$AAd?$AAa?$AAy?$AA?$AA@ 100734a8     LIBCMTD:nlsdata.obj
 0002:0000e4bc       ??_C@_1O@PDICJHAG@?$AAF?$AAr?$AAi?$AAd?$AAa?$AAy?$AA?$AA@ 100734bc     LIBCMTD:nlsdata.obj
 0002:0000e4cc       ??_C@_1BC@ENMNNPAJ@?$AAS?$AAa?$AAt?$AAu?$AAr?$AAd?$AAa?$AAy?$AA?$AA@ 100734cc     LIBCMTD:nlsdata.obj
 0002:0000e4e0       ??_C@_17DKNBKCHM@?$AAJ?$AAa?$AAn?$AA?$AA@ 100734e0     LIBCMTD:nlsdata.obj
 0002:0000e4e8       ??_C@_17LMDJEKJN@?$AAF?$AAe?$AAb?$AA?$AA@ 100734e8     LIBCMTD:nlsdata.obj
 0002:0000e4f0       ??_C@_17CKNLEDEC@?$AAM?$AAa?$AAr?$AA?$AA@ 100734f0     LIBCMTD:nlsdata.obj
 0002:0000e4f8       ??_C@_17LFPOIHDD@?$AAA?$AAp?$AAr?$AA?$AA@ 100734f8     LIBCMTD:nlsdata.obj
 0002:0000e500       ??_C@_17PNNKMEED@?$AAM?$AAa?$AAy?$AA?$AA@ 10073500     LIBCMTD:nlsdata.obj
 0002:0000e508       ??_C@_17KCJGOCPB@?$AAJ?$AAu?$AAn?$AA?$AA@ 10073508     LIBCMTD:nlsdata.obj
 0002:0000e510       ??_C@_17IJPCKHK@?$AAJ?$AAu?$AAl?$AA?$AA@ 10073510     LIBCMTD:nlsdata.obj
 0002:0000e518       ??_C@_17ICPELBCN@?$AAA?$AAu?$AAg?$AA?$AA@ 10073518     LIBCMTD:nlsdata.obj
 0002:0000e520       ??_C@_17HCHCOKMG@?$AAS?$AAe?$AAp?$AA?$AA@ 10073520     LIBCMTD:nlsdata.obj
 0002:0000e528       ??_C@_17FNLKOI@?$AAO?$AAc?$AAt?$AA?$AA@ 10073528     LIBCMTD:nlsdata.obj
 0002:0000e530       ??_C@_17BBDMLCIG@?$AAN?$AAo?$AAv?$AA?$AA@ 10073530     LIBCMTD:nlsdata.obj
 0002:0000e538       ??_C@_17EGKACKIF@?$AAD?$AAe?$AAc?$AA?$AA@ 10073538     LIBCMTD:nlsdata.obj
 0002:0000e540       ??_C@_1BA@EFMEIEBA@?$AAJ?$AAa?$AAn?$AAu?$AAa?$AAr?$AAy?$AA?$AA@ 10073540     LIBCMTD:nlsdata.obj
 0002:0000e550       ??_C@_1BC@JGDDFFAM@?$AAF?$AAe?$AAb?$AAr?$AAu?$AAa?$AAr?$AAy?$AA?$AA@ 10073550     LIBCMTD:nlsdata.obj
 0002:0000e564       ??_C@_1M@IKEENEDF@?$AAM?$AAa?$AAr?$AAc?$AAh?$AA?$AA@ 10073564     LIBCMTD:nlsdata.obj
 0002:0000e570       ??_C@_1M@GJNLMHFD@?$AAA?$AAp?$AAr?$AAi?$AAl?$AA?$AA@ 10073570     LIBCMTD:nlsdata.obj
 0002:0000e57c       ??_C@_19EPFLPGAP@?$AAJ?$AAu?$AAn?$AAe?$AA?$AA@ 1007357c     LIBCMTD:nlsdata.obj
 0002:0000e588       ??_C@_19BIFMLPCD@?$AAJ?$AAu?$AAl?$AAy?$AA?$AA@ 10073588     LIBCMTD:nlsdata.obj
 0002:0000e594       ??_C@_1O@PAHLKOAC@?$AAA?$AAu?$AAg?$AAu?$AAs?$AAt?$AA?$AA@ 10073594     LIBCMTD:nlsdata.obj
 0002:0000e5a4       ??_C@_1BE@DKAAMBJL@?$AAS?$AAe?$AAp?$AAt?$AAe?$AAm?$AAb?$AAe?$AAr?$AA?$AA@ 100735a4     LIBCMTD:nlsdata.obj
 0002:0000e5b8       ??_C@_1BA@EPANDLNG@?$AAO?$AAc?$AAt?$AAo?$AAb?$AAe?$AAr?$AA?$AA@ 100735b8     LIBCMTD:nlsdata.obj
 0002:0000e5c8       ??_C@_1BC@BGLIFPF@?$AAN?$AAo?$AAv?$AAe?$AAm?$AAb?$AAe?$AAr?$AA?$AA@ 100735c8     LIBCMTD:nlsdata.obj
 0002:0000e5dc       ??_C@_1BC@FEMKIFH@?$AAD?$AAe?$AAc?$AAe?$AAm?$AAb?$AAe?$AAr?$AA?$AA@ 100735dc     LIBCMTD:nlsdata.obj
 0002:0000e5f0       ??_C@_15ODEHAHHF@?$AAA?$AAM?$AA?$AA@ 100735f0     LIBCMTD:nlsdata.obj
 0002:0000e5f8       ??_C@_15CLMNNGEL@?$AAP?$AAM?$AA?$AA@ 100735f8     LIBCMTD:nlsdata.obj
 0002:0000e600       ??_C@_1BC@IEBCMHCM@?$AAM?$AAM?$AA?1?$AAd?$AAd?$AA?1?$AAy?$AAy?$AA?$AA@ 10073600     LIBCMTD:nlsdata.obj
 0002:0000e614       ??_C@_1CI@KNAKOEBC@?$AAd?$AAd?$AAd?$AAd?$AA?0?$AA?5?$AAM?$AAM?$AAM?$AAM?$AA?5?$AAd?$AAd?$AA?0?$AA?5?$AAy?$AAy?$AAy?$AAy?$AA?$AA@ 10073614     LIBCMTD:nlsdata.obj
 0002:0000e63c       ??_C@_1BC@GDGBMEMK@?$AAH?$AAH?$AA?3?$AAm?$AAm?$AA?3?$AAs?$AAs?$AA?$AA@ 1007363c     LIBCMTD:nlsdata.obj
 0002:0000e650       ??_C@_1M@BMHNFIME@?$AAe?$AAn?$AA?9?$AAU?$AAS?$AA?$AA@ 10073650     LIBCMTD:nlsdata.obj
 0002:0000e69c       ?LocalIdBitWidth@CrossScopeId@CodeViewInfo@@2IB 1007369c     LIBCMTD:pdblkup.obj
 0002:0000e6a0       ?IdScopeBitWidth@CrossScopeId@CodeViewInfo@@2IB 100736a0     LIBCMTD:pdblkup.obj
 0002:0000e6a4       ?StartCrossScopeId@CrossScopeId@CodeViewInfo@@2IB 100736a4     LIBCMTD:pdblkup.obj
 0002:0000e6a8       ?LocalIdMask@CrossScopeId@CodeViewInfo@@2IB 100736a8     LIBCMTD:pdblkup.obj
 0002:0000e6ac       ?ScopeIdMask@CrossScopeId@CodeViewInfo@@2IB 100736ac     LIBCMTD:pdblkup.obj
 0002:0000e6b0       ?MaxLocalId@CrossScopeId@CodeViewInfo@@2IB 100736b0     LIBCMTD:pdblkup.obj
 0002:0000e6b4       ?MaxScopeId@CrossScopeId@CodeViewInfo@@2IB 100736b4     LIBCMTD:pdblkup.obj
 0002:0000e6b8       ??_C@_0O@COHOBMLB@RegOpenKeyExW?$AA@ 100736b8     LIBCMTD:pdblkup.obj
 0002:0000e6c8       ??_C@_0BB@GLNAEDBD@RegQueryValueExW?$AA@ 100736c8     LIBCMTD:pdblkup.obj
 0002:0000e6dc       ??_C@_0M@HLOHPNFA@RegCloseKey?$AA@ 100736dc     LIBCMTD:pdblkup.obj
 0002:0000e6e8       ??_C@_1FM@EGIBBNPP@?$AAS?$AAO?$AAF?$AAT?$AAW?$AAA?$AAR?$AAE?$AA?2?$AAM?$AAi?$AAc?$AAr?$AAo?$AAs?$AAo?$AAf?$AAt?$AA?2?$AAV?$AAi?$AAs?$AAu?$AAa?$AAl?$AAS?$AAt?$AAu?$AAd?$AAi?$AAo?$AA?2@ 100736e8     LIBCMTD:pdblkup.obj
 0002:0000e744       ??_C@_1BG@EABPBLLF@?$AAP?$AAr?$AAo?$AAd?$AAu?$AAc?$AAt?$AAD?$AAi?$AAr?$AA?$AA@ 10073744     LIBCMTD:pdblkup.obj
 0002:0000e778       ??_C@_1BC@EOIMGOME@?$AAM?$AAS?$AAP?$AAD?$AAB?$AA1?$AA2?$AA0?$AA?$AA@ 10073778     LIBCMTD:pdblkup.obj
 0002:0000e78c       ??_C@_0BB@KCIACLNC@PDBOpenValidate5?$AA@ 1007378c     LIBCMTD:pdblkup.obj
 0002:0000e7a0       ??_C@_01KDCPPGHE@r?$AA@    100737a0     LIBCMTD:pdblkup.obj
 0002:0000e7a8       ??_C@_1FI@JBLIKEIM@?$AAf?$AA?3?$AA?2?$AAd?$AAd?$AA?2?$AAv?$AAc?$AAt?$AAo?$AAo?$AAl?$AAs?$AA?2?$AAc?$AAr?$AAt?$AA?2?$AAc?$AAr?$AAt?$AAw?$AA3?$AA2?$AA?2?$AAc?$AAo?$AAn?$AAv?$AAe?$AAr?$AAt@ 100737a8     LIBCMTD:_fptostr.obj
 0002:0000e800       ??_C@_1BC@OPALLEB@?$AA_?$AAf?$AAp?$AAt?$AAo?$AAs?$AAt?$AAr?$AA?$AA@ 10073800     LIBCMTD:_fptostr.obj
 0002:0000e818       ??_C@_1GM@CEDLGDDI@?$AAs?$AAi?$AAz?$AAe?$AAI?$AAn?$AAB?$AAy?$AAt?$AAe?$AAs?$AA?5?$AA?$DO?$AA?5?$AA?$CI?$AAs?$AAi?$AAz?$AAe?$AA_?$AAt?$AA?$CJ?$AA?$CI?$AA?$CI?$AAd?$AAi?$AAg?$AAi?$AAt?$AAs?$AA?5?$AA?$DO@ 10073818     LIBCMTD:_fptostr.obj
 0002:0000e884       ??_C@_1BK@CLIEHFDF@?$AAp?$AAf?$AAl?$AAt?$AA?5?$AA?$CB?$AA?$DN?$AA?5?$AAN?$AAU?$AAL?$AAL?$AA?$AA@ 10073884     LIBCMTD:_fptostr.obj
 0002:0000e8a0       ??_C@_1EK@LJBJCHGA@?$AAf?$AA?3?$AA?2?$AAd?$AAd?$AA?2?$AAv?$AAc?$AAt?$AAo?$AAo?$AAl?$AAs?$AA?2?$AAc?$AAr?$AAt?$AA?2?$AAf?$AAp?$AAw?$AA3?$AA2?$AA?2?$AAc?$AAo?$AAn?$AAv?$AA?2?$AAc?$AAf?$AAo@ 100738a0     LIBCMTD:cfout.obj
 0002:0000e8ec       ??_C@_1BC@BPMMEHLK@?$AA_?$AAf?$AAl?$AAt?$AAo?$AAu?$AAt?$AA2?$AA?$AA@ 100738ec     LIBCMTD:cfout.obj
 0002:0000e900       ??_C@_1FK@KODCOBKF@?$AAs?$AAt?$AAr?$AAc?$AAp?$AAy?$AA_?$AAs?$AA?$CI?$AAr?$AAe?$AAs?$AAu?$AAl?$AAt?$AAs?$AAt?$AAr?$AA?0?$AA?5?$AAr?$AAe?$AAs?$AAu?$AAl?$AAt?$AAs?$AAi?$AAz?$AAe?$AA?0?$AA?5@ 10073900     LIBCMTD:cfout.obj
 0002:0000e960       ??_C@_1EM@EGEEBJLG@?$AA?$CI?$AAo?$AAp?$AAt?$AAi?$AAo?$AAn?$AAs?$AA?5?$AA?$CG?$AA?5?$AA?$HO?$AA_?$AAT?$AAW?$AAO?$AA_?$AAD?$AAI?$AAG?$AAI?$AAT?$AA_?$AAE?$AAX?$AAP?$AAO?$AAN?$AAE?$AAN?$AAT?$AA?$CJ@ 10073960     LIBCMTD:outputformat.obj
 0002:0000e9b0       ??_C@_1FM@FBHCILLE@?$AAf?$AA?3?$AA?2?$AAd?$AAd?$AA?2?$AAv?$AAc?$AAt?$AAo?$AAo?$AAl?$AAs?$AA?2?$AAc?$AAr?$AAt?$AA?2?$AAc?$AAr?$AAt?$AAw?$AA3?$AA2?$AA?2?$AAs?$AAt?$AAd?$AAi?$AAo?$AA?2?$AAo@ 100739b0     LIBCMTD:outputformat.obj
 0002:0000ea0c       ??_C@_1CG@EBJECAJM@?$AA_?$AAs?$AAe?$AAt?$AA_?$AAo?$AAu?$AAt?$AAp?$AAu?$AAt?$AA_?$AAf?$AAo?$AAr?$AAm?$AAa?$AAt?$AA?$AA@ 10073a0c     LIBCMTD:outputformat.obj
 0002:0000ea34       ??_C@_1DG@JNDMIEJL@?$AA?$CI?$AA?$CC?$AAI?$AAn?$AAv?$AAa?$AAl?$AAi?$AAd?$AA?5?$AAi?$AAn?$AAp?$AAu?$AAt?$AA?5?$AAv?$AAa?$AAl?$AAu?$AAe?$AA?$CC?$AA?0?$AA?5?$AA0?$AA?$CJ?$AA?$AA@ 10073a34     LIBCMTD:contrlfp.obj
 0002:0000ea70       ??_C@_1FA@IJLDLDMO@?$AAf?$AA?3?$AA?2?$AAd?$AAd?$AA?2?$AAv?$AAc?$AAt?$AAo?$AAo?$AAl?$AAs?$AA?2?$AAc?$AAr?$AAt?$AA?2?$AAf?$AAp?$AAw?$AA3?$AA2?$AA?2?$AAt?$AAr?$AAa?$AAn?$AA?2?$AAc?$AAo?$AAn@ 10073a70     LIBCMTD:contrlfp.obj
 0002:0000eac0       ??_C@_1BK@CDOALEA@?$AA_?$AAc?$AAo?$AAn?$AAt?$AAr?$AAo?$AAl?$AAf?$AAp?$AA_?$AAs?$AA?$AA@ 10073ac0     LIBCMTD:contrlfp.obj
 0002:0000eae0       ??_C@_1FA@NFCHPDNG@?$AAf?$AA?3?$AA?2?$AAd?$AAd?$AA?2?$AAv?$AAc?$AAt?$AAo?$AAo?$AAl?$AAs?$AA?2?$AAc?$AAr?$AAt?$AA?2?$AAc?$AAr?$AAt?$AAw?$AA3?$AA2?$AA?2?$AAl?$AAo?$AAw?$AAi?$AAo?$AA?2?$AAi@ 10073ae0     LIBCMTD:isatty.obj
 0002:0000eb30       ??_C@_1BA@LEBDGIHM@?$AA_?$AAi?$AAs?$AAa?$AAt?$AAt?$AAy?$AA?$AA@ 10073b30     LIBCMTD:isatty.obj
 0002:0000eb40       ??_C@_1FE@NDDOFCDF@?$AAf?$AA?3?$AA?2?$AAd?$AAd?$AA?2?$AAv?$AAc?$AAt?$AAo?$AAo?$AAl?$AAs?$AA?2?$AAc?$AAr?$AAt?$AA?2?$AAc?$AAr?$AAt?$AAw?$AA3?$AA2?$AA?2?$AAl?$AAo?$AAw?$AAi?$AAo?$AA?2?$AAl@ 10073b40     LIBCMTD:lseeki64.obj
 0002:0000eb94       ??_C@_1BE@KHFBJMNM@?$AA_?$AAl?$AAs?$AAe?$AAe?$AAk?$AAi?$AA6?$AA4?$AA?$AA@ 10073b94     LIBCMTD:lseeki64.obj
 0002:0000eba8       ??_C@_1FC@LGKDBMCL@?$AAf?$AA?3?$AA?2?$AAd?$AAd?$AA?2?$AAv?$AAc?$AAt?$AAo?$AAo?$AAl?$AAs?$AA?2?$AAc?$AAr?$AAt?$AA?2?$AAc?$AAr?$AAt?$AAw?$AA3?$AA2?$AA?2?$AAs?$AAt?$AAd?$AAi?$AAo?$AA?2?$AA_@ 10073ba8     LIBCMTD:_getbuf.obj
 0002:0000ebfc       ??_C@_0CJ@NMDFOMAF@f?3?2dd?2vctools?2crt?2crtw32?2stdio?2_@ 10073bfc     LIBCMTD:_getbuf.obj
 0002:0000ec28       ??_C@_1FA@GMJBBNDK@?$AAf?$AA?3?$AA?2?$AAd?$AAd?$AA?2?$AAv?$AAc?$AAt?$AAo?$AAo?$AAl?$AAs?$AA?2?$AAc?$AAr?$AAt?$AA?2?$AAc?$AAr?$AAt?$AAw?$AA3?$AA2?$AA?2?$AAs?$AAt?$AAd?$AAi?$AAo?$AA?2?$AAp@ 10073c28     LIBCMTD:printf.obj
 0002:0000ec78       ??_C@_1O@GKDHFACN@?$AAp?$AAr?$AAi?$AAn?$AAt?$AAf?$AA?$AA@ 10073c78     LIBCMTD:printf.obj
 0002:0000ec88       ??_C@_1CO@HFMIILNF@?$AAs?$AAi?$AAz?$AAe?$AAI?$AAn?$AAB?$AAy?$AAt?$AAe?$AAs?$AA?5?$AA?$DM?$AA?$DN?$AA?5?$AAI?$AAN?$AAT?$AA_?$AAM?$AAA?$AAX?$AA?$AA@ 10073c88     LIBCMTD:wctomb.obj
 0002:0000ecb8       ??_C@_1FE@GKMDCPPB@?$AAf?$AA?3?$AA?2?$AAd?$AAd?$AA?2?$AAv?$AAc?$AAt?$AAo?$AAo?$AAl?$AAs?$AA?2?$AAc?$AAr?$AAt?$AA?2?$AAc?$AAr?$AAt?$AAw?$AA3?$AA2?$AA?2?$AAc?$AAo?$AAn?$AAv?$AAe?$AAr?$AAt@ 10073cb8     LIBCMTD:wctomb.obj
 0002:0000ed0c       ??_C@_1BI@IEADNOHF@?$AA_?$AAw?$AAc?$AAt?$AAo?$AAm?$AAb?$AA_?$AAs?$AA_?$AAl?$AA?$AA@ 10073d0c     LIBCMTD:wctomb.obj
 0002:0000ed24       ??_C@_1DA@HPBFKMEB@?$AA?$CI?$AA?$CC?$AAB?$AAu?$AAf?$AAf?$AAe?$AAr?$AA?5?$AAt?$AAo?$AAo?$AA?5?$AAs?$AAm?$AAa?$AAl?$AAl?$AA?$CC?$AA?0?$AA?5?$AA0?$AA?$CJ?$AA?$AA@ 10073d24     LIBCMTD:wctomb.obj
 0002:0000eee4       ??_C@_08EHJDFFNH@__based?$CI?$AA@ 10073ee4     LIBCMTD:undname.obj
 0002:0000eef0       ??_C@_07KOLFKCDI@__cdecl?$AA@ 10073ef0     LIBCMTD:undname.obj
 0002:0000eef8       ??_C@_08GHMPAG@__pascal?$AA@ 10073ef8     LIBCMTD:undname.obj
 0002:0000ef04       ??_C@_09IFJBGAPI@__stdcall?$AA@ 10073f04     LIBCMTD:undname.obj
 0002:0000ef10       ??_C@_0L@NPHFGOKO@__thiscall?$AA@ 10073f10     LIBCMTD:undname.obj
 0002:0000ef1c       ??_C@_0L@JMKHOMEK@__fastcall?$AA@ 10073f1c     LIBCMTD:undname.obj
 0002:0000ef28       ??_C@_0N@BCKKPABJ@__vectorcall?$AA@ 10073f28     LIBCMTD:undname.obj
 0002:0000ef38       ??_C@_09HIJEGCPM@__clrcall?$AA@ 10073f38     LIBCMTD:undname.obj
 0002:0000ef44       ??_C@_06GHPCKEAG@__eabi?$AA@ 10073f44     LIBCMTD:undname.obj
 0002:0000ef4c       ??_C@_07JOMMBBKO@__ptr64?$AA@ 10073f4c     LIBCMTD:undname.obj
 0002:0000ef54       ??_C@_0L@PILCLIHE@__restrict?$AA@ 10073f54     LIBCMTD:undname.obj
 0002:0000ef60       ??_C@_0M@GFIIJFMG@__unaligned?$AA@ 10073f60     LIBCMTD:undname.obj
 0002:0000ef6c       ??_C@_09DHDLOLLB@restrict?$CI?$AA@ 10073f6c     LIBCMTD:undname.obj
 0002:0000ef78       ??_C@_04NIHEBCM@?5new?$AA@ 10073f78     LIBCMTD:undname.obj
 0002:0000ef80       ??_C@_07FPCDHGMM@?5delete?$AA@ 10073f80     LIBCMTD:undname.obj
 0002:0000ef88       ??_C@_01NEMOKFLO@?$DN?$AA@ 10073f88     LIBCMTD:undname.obj
 0002:0000ef8c       ??_C@_02GPIOPFAK@?$DO?$DO?$AA@ 10073f8c     LIBCMTD:undname.obj
 0002:0000ef90       ??_C@_02FODMEDOG@?$DM?$DM?$AA@ 10073f90     LIBCMTD:undname.obj
 0002:0000ef94       ??_C@_01DCLJPIOD@?$CB?$AA@ 10073f94     LIBCMTD:undname.obj
 0002:0000ef98       ??_C@_02EGOFBIJA@?$DN?$DN?$AA@ 10073f98     LIBCMTD:undname.obj
 0002:0000ef9c       ??_C@_02FDNJECIE@?$CB?$DN?$AA@ 10073f9c     LIBCMTD:undname.obj
 0002:0000efa0       ??_C@_02GPECMEKF@?$FL?$FN?$AA@ 10073fa0     LIBCMTD:undname.obj
 0002:0000efa4       ??_C@_08LHJFAFGD@operator?$AA@ 10073fa4     LIBCMTD:undname.obj
 0002:0000efb0       ??_C@_02HBOOOICD@?9?$DO?$AA@ 10073fb0     LIBCMTD:undname.obj
 0002:0000efb4       ??_C@_01NBENCBCI@?$CK?$AA@ 10073fb4     LIBCMTD:undname.obj
 0002:0000efb8       ??_C@_02ECNGHCIF@?$CL?$CL?$AA@ 10073fb8     LIBCMTD:undname.obj
 0002:0000efbc       ??_C@_02BAABKJLB@?9?9?$AA@ 10073fbc     LIBCMTD:undname.obj
 0002:0000efc0       ??_C@_01JOAMLHOP@?9?$AA@   10073fc0     LIBCMTD:undname.obj
 0002:0000efc4       ??_C@_01MIFGBAGJ@?$CL?$AA@ 10073fc4     LIBCMTD:undname.obj
 0002:0000efc8       ??_C@_01HNPIGOCE@?$CG?$AA@ 10073fc8     LIBCMTD:undname.obj
 0002:0000efcc       ??_C@_03MNHNFDLC@?9?$DO?$CK?$AA@ 10073fcc     LIBCMTD:undname.obj
 0002:0000efd0       ??_C@_01KMDKNFGN@?1?$AA@   10073fd0     LIBCMTD:undname.obj
 0002:0000efd4       ??_C@_01FGNFDNOH@?$CF?$AA@ 10073fd4     LIBCMTD:undname.obj
 0002:0000efd8       ??_C@_01MNNFJEPP@?$DM?$AA@ 10073fd8     LIBCMTD:undname.obj
 0002:0000efdc       ??_C@_02EHCHHCKH@?$DM?$DN?$AA@ 10073fdc     LIBCMTD:undname.obj
 0002:0000efe0       ??_C@_01PPODPGHN@?$DO?$AA@ 10073fe0     LIBCMTD:undname.obj
 0002:0000efe4       ??_C@_02EEKDKGMJ@?$DO?$DN?$AA@ 10073fe4     LIBCMTD:undname.obj
 0002:0000efe8       ??_C@_01IHBHIGKO@?0?$AA@   10073fe8     LIBCMTD:undname.obj
 0002:0000efec       ??_C@_02HCKGKOFO@?$CI?$CJ?$AA@ 10073fec     LIBCMTD:undname.obj
 0002:0000eff0       ??_C@_01PJKLJHI@?$HO?$AA@  10073ff0     LIBCMTD:undname.obj
 0002:0000eff4       ??_C@_01JKBOJNNK@?$FO?$AA@ 10073ff4     LIBCMTD:undname.obj
 0002:0000eff8       ??_C@_01DNKMNLPK@?$HM?$AA@ 10073ff8     LIBCMTD:undname.obj
 0002:0000effc       ??_C@_02PPKAJPJL@?$CG?$CG?$AA@ 10073ffc     LIBCMTD:undname.obj
 0002:0000f000       ??_C@_02NONPIBCD@?$HM?$HM?$AA@ 10074000     LIBCMTD:undname.obj
 0002:0000f004       ??_C@_02FPIMKNGF@?$CK?$DN?$AA@ 10074004     LIBCMTD:undname.obj
 0002:0000f008       ??_C@_02FOEOMHFC@?$CL?$DN?$AA@ 10074008     LIBCMTD:undname.obj
 0002:0000f00c       ??_C@_02FKMDLLOA@?9?$DN?$AA@ 1007400c     LIBCMTD:undname.obj
 0002:0000f010       ??_C@_02FJEHGPIO@?1?$DN?$AA@ 10074010     LIBCMTD:undname.obj
 0002:0000f014       ??_C@_02FENAOKFI@?$CF?$DN?$AA@ 10074014     LIBCMTD:undname.obj
 0002:0000f018       ??_C@_03IKFCCPFF@?$DO?$DO?$DN?$AA@ 10074018     LIBCMTD:undname.obj
 0002:0000f01c       ??_C@_03CDNPDDLA@?$DM?$DM?$DN?$AA@ 1007401c     LIBCMTD:undname.obj
 0002:0000f020       ??_C@_02FGJGFEAB@?$CG?$DN?$AA@ 10074020     LIBCMTD:undname.obj
 0002:0000f024       ??_C@_02DHLNPPGH@?$HM?$DN?$AA@ 10074024     LIBCMTD:undname.obj
 0002:0000f028       ??_C@_02MHEGNOJ@?$FO?$DN?$AA@ 10074028     LIBCMTD:undname.obj
 0002:0000f02c       ??_C@_09IFPLHPGF@?$GAvftable?8?$AA@ 1007402c     LIBCMTD:undname.obj
 0002:0000f038       ??_C@_09BLBHBJP@?$GAvbtable?8?$AA@ 10074038     LIBCMTD:undname.obj
 0002:0000f044       ??_C@_07FEEIOKP@?$GAvcall?8?$AA@ 10074044     LIBCMTD:undname.obj
 0002:0000f04c       ??_C@_08LLFFHHDJ@?$GAtypeof?8?$AA@ 1007404c     LIBCMTD:undname.obj
 0002:0000f058       ??_C@_0BF@KDPPACIK@?$GAlocal?5static?5guard?8?$AA@ 10074058     LIBCMTD:undname.obj
 0002:0000f070       ??_C@_08OBABFOLI@?$GAstring?8?$AA@ 10074070     LIBCMTD:undname.obj
 0002:0000f07c       ??_C@_0BD@JDLKDPAB@?$GAvbase?5destructor?8?$AA@ 1007407c     LIBCMTD:undname.obj
 0002:0000f090       ??_C@_0BN@DEGPLNFK@?$GAvector?5deleting?5destructor?8?$AA@ 10074090     LIBCMTD:undname.obj
 0002:0000f0b0       ??_C@_0BO@OBMKPJIG@?$GAdefault?5constructor?5closure?8?$AA@ 100740b0     LIBCMTD:undname.obj
 0002:0000f0d0       ??_C@_0BN@IMDCHIKM@?$GAscalar?5deleting?5destructor?8?$AA@ 100740d0     LIBCMTD:undname.obj
 0002:0000f0f0       ??_C@_0BO@PFGOCPJJ@?$GAvector?5constructor?5iterator?8?$AA@ 100740f0     LIBCMTD:undname.obj
 0002:0000f110       ??_C@_0BN@LFPFMEDL@?$GAvector?5destructor?5iterator?8?$AA@ 10074110     LIBCMTD:undname.obj
 0002:0000f130       ??_C@_0CE@IKBNEHA@?$GAvector?5vbase?5constructor?5iterat@ 10074130     LIBCMTD:undname.obj
 0002:0000f154       ??_C@_0BL@NILFHHPC@?$GAvirtual?5displacement?5map?8?$AA@ 10074154     LIBCMTD:undname.obj
 0002:0000f170       ??_C@_0CB@JONCMFFK@?$GAeh?5vector?5constructor?5iterator?8@ 10074170     LIBCMTD:undname.obj
 0002:0000f194       ??_C@_0CA@GCEOPDGL@?$GAeh?5vector?5destructor?5iterator?8?$AA@ 10074194     LIBCMTD:undname.obj
 0002:0000f1b4       ??_C@_0CH@OOJPLCPH@?$GAeh?5vector?5vbase?5constructor?5ite@ 100741b4     LIBCMTD:undname.obj
 0002:0000f1dc       ??_C@_0BL@LLKPOHJI@?$GAcopy?5constructor?5closure?8?$AA@ 100741dc     LIBCMTD:undname.obj
 0002:0000f1f8       ??_C@_0BA@KBCDOMBN@?$GAudt?5returning?8?$AA@ 100741f8     LIBCMTD:undname.obj
 0002:0000f208       ??_C@_03KLGMFNMG@?$GAEH?$AA@ 10074208     LIBCMTD:undname.obj
 0002:0000f20c       ??_C@_05KHLCHHI@?$GARTTI?$AA@ 1007420c     LIBCMTD:undname.obj
 0002:0000f214       ??_C@_0BA@KKLDJDLB@?$GAlocal?5vftable?8?$AA@ 10074214     LIBCMTD:undname.obj
 0002:0000f224       ??_C@_0CE@IIHCMGGL@?$GAlocal?5vftable?5constructor?5closu@ 10074224     LIBCMTD:undname.obj
 0002:0000f248       ??_C@_06FHBGPFGH@?5new?$FL?$FN?$AA@ 10074248     LIBCMTD:undname.obj
 0002:0000f250       ??_C@_09LBNFPBCA@?5delete?$FL?$FN?$AA@ 10074250     LIBCMTD:undname.obj
 0002:0000f25c       ??_C@_0P@HJKNJFNN@?$GAomni?5callsig?8?$AA@ 1007425c     LIBCMTD:undname.obj
 0002:0000f26c       ??_C@_0BL@CNOONJFP@?$GAplacement?5delete?5closure?8?$AA@ 1007426c     LIBCMTD:undname.obj
 0002:0000f288       ??_C@_0BN@CKNJLHMB@?$GAplacement?5delete?$FL?$FN?5closure?8?$AA@ 10074288     LIBCMTD:undname.obj
 0002:0000f2a8       ??_C@_0CG@CFDHKGGD@?$GAmanaged?5vector?5constructor?5iter@ 100742a8     LIBCMTD:undname.obj
 0002:0000f2d0       ??_C@_0CF@IMGKMJNO@?$GAmanaged?5vector?5destructor?5itera@ 100742d0     LIBCMTD:undname.obj
 0002:0000f2f8       ??_C@_0CG@HLDDJMAG@?$GAeh?5vector?5copy?5constructor?5iter@ 100742f8     LIBCMTD:undname.obj
 0002:0000f320       ??_C@_0CM@FCBBDIGB@?$GAeh?5vector?5vbase?5copy?5constructo@ 10074320     LIBCMTD:undname.obj
 0002:0000f34c       ??_C@_0BL@CLIPGLGB@?$GAdynamic?5initializer?5for?5?8?$AA@ 1007434c     LIBCMTD:undname.obj
 0002:0000f368       ??_C@_0CB@PDBIFEP@?$GAdynamic?5atexit?5destructor?5for?5?8@ 10074368     LIBCMTD:undname.obj
 0002:0000f38c       ??_C@_0CD@CGAJBKEJ@?$GAvector?5copy?5constructor?5iterato@ 1007438c     LIBCMTD:undname.obj
 0002:0000f3b0       ??_C@_0CJ@GJELGAMM@?$GAvector?5vbase?5copy?5constructor?5i@ 100743b0     LIBCMTD:undname.obj
 0002:0000f3dc       ??_C@_0CL@FGIJHLCE@?$GAmanaged?5vector?5copy?5constructor@ 100743dc     LIBCMTD:undname.obj
 0002:0000f408       ??_C@_0BM@PMGGMLDN@?$GAlocal?5static?5thread?5guard?8?$AA@ 10074408     LIBCMTD:undname.obj
 0002:0000f424       ??_C@_0BC@DAFEJGAK@?5Type?5Descriptor?8?$AA@ 10074424     LIBCMTD:undname.obj
 0002:0000f438       ??_C@_0BM@LDKODKLH@?5Base?5Class?5Descriptor?5at?5?$CI?$AA@ 10074438     LIBCMTD:undname.obj
 0002:0000f454       ??_C@_0BD@LGICGFMM@?5Base?5Class?5Array?8?$AA@ 10074454     LIBCMTD:undname.obj
 0002:0000f468       ??_C@_0BN@MECKDCOJ@?5Class?5Hierarchy?5Descriptor?8?$AA@ 10074468     LIBCMTD:undname.obj
 0002:0000f488       ??_C@_0BK@CFCOFLF@?5Complete?5Object?5Locator?8?$AA@ 10074488     LIBCMTD:undname.obj
 0002:0000f4a4       ??_C@_04HEJADOOB@CV?3?5?$AA@ 100744a4     LIBCMTD:undname.obj
 0002:0000f4ac       ??_C@_02MOLJINC@?3?3?$AA@  100744ac     LIBCMTD:undname.obj
 0002:0000f4b0       ??_C@_0BE@JAEOCHPE@template?9parameter?9?$AA@ 100744b0     LIBCMTD:undname.obj
 0002:0000f4c4       ??_C@_0O@KHGCOMHP@generic?9type?9?$AA@ 100744c4     LIBCMTD:undname.obj
 0002:0000f4d4       ??_C@_01NLNLIGKH@?$GA?$AA@ 100744d4     LIBCMTD:undname.obj
 0002:0000f4d8       ??_C@_01GEODFPGF@?8?$AA@   100744d8     LIBCMTD:undname.obj
 0002:0000f4dc       ??_C@_0BG@JNJLAMPM@?$GAanonymous?5namespace?8?$AA@ 100744dc     LIBCMTD:undname.obj
 0002:0000f4f4       ??_C@_02OHHJMEON@?8?8?$AA@ 100744f4     LIBCMTD:undname.obj
 0002:0000f4f8       ??_C@_0BN@IBLMMFAP@?$GAnon?9type?9template?9parameter?$AA@ 100744f8     LIBCMTD:undname.obj
 0002:0000f518       ??_C@_04GKJNKENE@void?$AA@ 10074518     LIBCMTD:undname.obj
 0002:0000f520       ??_C@_0BE@EODMJLIF@?$GAtemplate?9parameter?$AA@ 10074520     LIBCMTD:undname.obj
 0002:0000f534       ??_C@_04HIBGFPH@NULL?$AA@  10074534     LIBCMTD:undname.obj
 0002:0000f53c       ??_C@_03OPGICMGF@?$HN?8?5?$AA@ 1007453c     LIBCMTD:undname.obj
 0002:0000f540       ??_C@_02IGFCGPIL@?$HN?8?$AA@ 10074540     LIBCMTD:undname.obj
 0002:0000f544       ??_C@_01CLKCMJKC@?5?$AA@   10074544     LIBCMTD:undname.obj
 0002:0000f548       ??_C@_0N@CBHHHENL@?$GAvtordispex?$HL?$AA@ 10074548     LIBCMTD:undname.obj
 0002:0000f558       ??_C@_0L@GHPFDFH@?$GAvtordisp?$HL?$AA@ 10074558     LIBCMTD:undname.obj
 0002:0000f564       ??_C@_0L@HNGCOGAE@?$GAadjustor?$HL?$AA@ 10074564     LIBCMTD:undname.obj
 0002:0000f570       ??_C@_0CB@KJDOOODE@?$GAlocal?5static?5destructor?5helper?8@ 10074570     LIBCMTD:undname.obj
 0002:0000f594       ??_C@_0DB@ILEFOCIJ@?$GAtemplate?5static?5data?5member?5con@ 10074594     LIBCMTD:undname.obj
 0002:0000f5c8       ??_C@_0DA@HGFJFBBE@?$GAtemplate?5static?5data?5member?5des@ 100745c8     LIBCMTD:undname.obj
 0002:0000f5f8       ??_C@_07PGOEDBHP@static?5?$AA@ 100745f8     LIBCMTD:undname.obj
 0002:0000f600       ??_C@_08NIEOINHE@virtual?5?$AA@ 10074600     LIBCMTD:undname.obj
 0002:0000f60c       ??_C@_09LAPHOOG@private?3?5?$AA@ 1007460c     LIBCMTD:undname.obj
 0002:0000f618       ??_C@_0M@GAIFPFIP@protected?3?5?$AA@ 10074618     LIBCMTD:undname.obj
 0002:0000f624       ??_C@_08GPDDCMKI@public?3?5?$AA@ 10074624     LIBCMTD:undname.obj
 0002:0000f630       ??_C@_08KJLFOPNE@?$FLthunk?$FN?3?$AA@ 10074630     LIBCMTD:undname.obj
 0002:0000f63c       ??_C@_0M@DHNBOJMP@extern?5?$CCC?$CC?5?$AA@ 1007463c     LIBCMTD:undname.obj
 0002:0000f648       ??_C@_02KCKGHPCA@?$CJ?5?$AA@ 10074648     LIBCMTD:undname.obj
 0002:0000f64c       ??_C@_05CIHEBHNO@char?5?$AA@ 1007464c     LIBCMTD:undname.obj
 0002:0000f654       ??_C@_06EHJMALKF@short?5?$AA@ 10074654     LIBCMTD:undname.obj
 0002:0000f65c       ??_C@_04LAHKHJMA@int?5?$AA@ 1007465c     LIBCMTD:undname.obj
 0002:0000f664       ??_C@_05CJIMAING@long?5?$AA@ 10074664     LIBCMTD:undname.obj
 0002:0000f66c       ??_C@_09EBBEKKIH@unsigned?5?$AA@ 1007466c     LIBCMTD:undname.obj
 0002:0000f678       ??_C@_05BEFAKPML@void?5?$AA@ 10074678     LIBCMTD:undname.obj
 0002:0000f680       ??_C@_08PABEKFH@volatile?$AA@ 10074680     LIBCMTD:undname.obj
 0002:0000f68c       ??_C@_0P@GCOCNKDM@std?3?3nullptr_t?$AA@ 1007468c     LIBCMTD:undname.obj
 0002:0000f69c       ??_C@_0L@EGPHHEKN@?$DMellipsis?$DO?$AA@ 1007469c     LIBCMTD:undname.obj
 0002:0000f6a8       ??_C@_04EENFHACM@?0?4?4?4?$AA@ 100746a8     LIBCMTD:undname.obj
 0002:0000f6b0       ??_C@_0M@ELJOJFFH@?0?$DMellipsis?$DO?$AA@ 100746b0     LIBCMTD:undname.obj
 0002:0000f6bc       ??_C@_07HDJPLPEK@?5throw?$CI?$AA@ 100746bc     LIBCMTD:undname.obj
 0002:0000f6c4       ??_C@_03PBJBJNON@cpu?$AA@  100746c4     LIBCMTD:undname.obj
 0002:0000f6c8       ??_C@_03DCBBJBAA@amp?$AA@  100746c8     LIBCMTD:undname.obj
 0002:0000f6cc       ??_C@_02KEGNLNML@?0?5?$AA@ 100746cc     LIBCMTD:undname.obj
 0002:0000f6d0       ??_C@_04ENMBGAPA@char?$AA@ 100746d0     LIBCMTD:undname.obj
 0002:0000f6d8       ??_C@_05BFKKPKCG@short?$AA@ 100746d8     LIBCMTD:undname.obj
 0002:0000f6e0       ??_C@_03JBIPMCLC@int?$AA@  100746e0     LIBCMTD:undname.obj
 0002:0000f6e4       ??_C@_04GOKPGOLB@long?$AA@ 100746e4     LIBCMTD:undname.obj
 0002:0000f6ec       ??_C@_05KNFBNCOH@float?$AA@ 100746ec     LIBCMTD:undname.obj
 0002:0000f6f4       ??_C@_06BNJCAIGJ@double?$AA@ 100746f4     LIBCMTD:undname.obj
 0002:0000f6fc       ??_C@_04DDKJGDCM@bool?$AA@ 100746fc     LIBCMTD:undname.obj
 0002:0000f704       ??_C@_06EBGKOKIG@__int8?$AA@ 10074704     LIBCMTD:undname.obj
 0002:0000f70c       ??_C@_07ICFHOGAF@__int16?$AA@ 1007470c     LIBCMTD:undname.obj
 0002:0000f714       ??_C@_07OFLPPHGP@__int32?$AA@ 10074714     LIBCMTD:undname.obj
 0002:0000f71c       ??_C@_07LFCOJCAC@__int64?$AA@ 1007471c     LIBCMTD:undname.obj
 0002:0000f724       ??_C@_08GAHOLHEO@__int128?$AA@ 10074724     LIBCMTD:undname.obj
 0002:0000f730       ??_C@_09EEKGDCPH@?$DMunknown?$DO?$AA@ 10074730     LIBCMTD:undname.obj
 0002:0000f73c       ??_C@_07CLGGIAMF@wchar_t?$AA@ 1007473c     LIBCMTD:undname.obj
 0002:0000f744       ??_C@_06GCICPBLB@__w64?5?$AA@ 10074744     LIBCMTD:undname.obj
 0002:0000f74c       ??_C@_07NFANNNEC@UNKNOWN?$AA@ 1007474c     LIBCMTD:undname.obj
 0002:0000f754       ??_C@_07EDHNAJHC@signed?5?$AA@ 10074754     LIBCMTD:undname.obj
 0002:0000f75c       ??_C@_05BNCCCJPP@const?$AA@ 1007475c     LIBCMTD:undname.obj
 0002:0000f764       ??_C@_09EFNPDFFP@?5volatile?$AA@ 10074764     LIBCMTD:undname.obj
 0002:0000f770       ??_C@_0P@GCIFDJCJ@?$GAunknown?5ecsu?8?$AA@ 10074770     LIBCMTD:undname.obj
 0002:0000f780       ??_C@_06MOJHIBMG@union?5?$AA@ 10074780     LIBCMTD:undname.obj
 0002:0000f788       ??_C@_07DIBCDNGL@struct?5?$AA@ 10074788     LIBCMTD:undname.obj
 0002:0000f790       ??_C@_06LJBABKPM@class?5?$AA@ 10074790     LIBCMTD:undname.obj
 0002:0000f798       ??_C@_08KOFANOFK@coclass?5?$AA@ 10074798     LIBCMTD:undname.obj
 0002:0000f7a4       ??_C@_0N@DLIEFKNA@cointerface?5?$AA@ 100747a4     LIBCMTD:undname.obj
 0002:0000f7b4       ??_C@_05LJGMCFOG@enum?5?$AA@ 100747b4     LIBCMTD:undname.obj
 0002:0000f7bc       ??_C@_09GAIEOBLP@volatile?5?$AA@ 100747bc     LIBCMTD:undname.obj
 0002:0000f7c8       ??_C@_06LIJLOJAG@const?5?$AA@ 100747c8     LIBCMTD:undname.obj
 0002:0000f7d0       ??_C@_0M@EALIELKG@cli?3?3array?$DM?$AA@ 100747d0     LIBCMTD:undname.obj
 0002:0000f7dc       ??_C@_0O@GKABPPIF@cli?3?3pin_ptr?$DM?$AA@ 100747dc     LIBCMTD:undname.obj
 0002:0000f7ec       ??_C@_02GOGNNPBN@?$CJ?$FL?$AA@ 100747ec     LIBCMTD:undname.obj
 0002:0000f7f0       ??_C@_06EEGAIFAK@?$HLflat?$HN?$AA@ 100747f0     LIBCMTD:undname.obj
 0002:0000f7f8       ??_C@_05JIBOFOHK@?$HLfor?5?$AA@ 100747f8     LIBCMTD:undname.obj
 0002:0000f800       ??_C@_02MDINNEEG@s?5?$AA@  10074800     LIBCMTD:undname.obj
 0002:0000f808       ??_7DNameNode@@6B@         10074808     LIBCMTD:undname.obj
 0002:0000f818       ??_7charNode@@6B@          10074818     LIBCMTD:undname.obj
 0002:0000f828       ??_7pcharNode@@6B@         10074828     LIBCMTD:undname.obj
 0002:0000f838       ??_7pDNameNode@@6B@        10074838     LIBCMTD:undname.obj
 0002:0000f848       ??_7DNameStatusNode@@6B@   10074848     LIBCMTD:undname.obj
 0002:0000f858       ??_7pairNode@@6B@          10074858     LIBCMTD:undname.obj
 0002:0000f864       ??_C@_04OKOHEJBO@?5?$DP?$DP?5?$AA@ 10074864     LIBCMTD:undname.obj
 0002:0000f86c       ??_C@_0CJ@IGOJMKM@f?3?2dd?2vctools?2crt?2crtw32?2lowio?2o@ 1007486c     LIBCMTD:osfinfo.obj
 0002:0000f898       ??_C@_1FC@BEKMGBFL@?$AAf?$AA?3?$AA?2?$AAd?$AAd?$AA?2?$AAv?$AAc?$AAt?$AAo?$AAo?$AAl?$AAs?$AA?2?$AAc?$AAr?$AAt?$AA?2?$AAc?$AAr?$AAt?$AAw?$AA3?$AA2?$AA?2?$AAl?$AAo?$AAw?$AAi?$AAo?$AA?2?$AAo@ 10074898     LIBCMTD:osfinfo.obj
 0002:0000f8ec       ??_C@_1BO@EMBOBGKE@?$AA_?$AAg?$AAe?$AAt?$AA_?$AAo?$AAs?$AAf?$AAh?$AAa?$AAn?$AAd?$AAl?$AAe?$AA?$AA@ 100748ec     LIBCMTD:osfinfo.obj
 0002:0000f910       ??_C@_1HC@KFLBHHBC@?$AA?$CI?$AAf?$AAi?$AAl?$AAe?$AAd?$AAe?$AAs?$AA?5?$AA?$DO?$AA?$DN?$AA?5?$AA0?$AA?5?$AA?$CG?$AA?$CG?$AA?5?$AA?$CI?$AAu?$AAn?$AAs?$AAi?$AAg?$AAn?$AAe?$AAd?$AA?$CJ?$AAf?$AAi?$AAl?$AAe?$AAd@ 10074910     LIBCMTD:commit.obj
 0002:0000f988       ??_C@_1FA@HELGICMG@?$AAf?$AA?3?$AA?2?$AAd?$AAd?$AA?2?$AAv?$AAc?$AAt?$AAo?$AAo?$AAl?$AAs?$AA?2?$AAc?$AAr?$AAt?$AA?2?$AAc?$AAr?$AAt?$AAw?$AA3?$AA2?$AA?2?$AAl?$AAo?$AAw?$AAi?$AAo?$AA?2?$AAc@ 10074988     LIBCMTD:commit.obj
 0002:0000f9d8       ??_C@_1BA@FLNMBBIM@?$AA_?$AAc?$AAo?$AAm?$AAm?$AAi?$AAt?$AA?$AA@ 100749d8     LIBCMTD:commit.obj
 0002:0000f9e8       ??_C@_1DG@LNNHNFHJ@?$AA?$CI?$AA_?$AAo?$AAs?$AAf?$AAi?$AAl?$AAe?$AA?$CI?$AAf?$AAi?$AAl?$AAe?$AAd?$AAe?$AAs?$AA?$CJ?$AA?5?$AA?$CG?$AA?5?$AAF?$AAO?$AAP?$AAE?$AAN?$AA?$CJ?$AA?$AA@ 100749e8     LIBCMTD:commit.obj
 0002:0000fa20       ??_C@_1BO@DPAOGEII@?$AA?$CI?$AAp?$AAa?$AAt?$AAh?$AA?5?$AA?$CB?$AA?$DN?$AA?5?$AAN?$AAU?$AAL?$AAL?$AA?$CJ?$AA?$AA@ 10074a20     LIBCMTD:open.obj
 0002:0000fa40       ??_C@_1EM@MNGNPLOA@?$AAf?$AA?3?$AA?2?$AAd?$AAd?$AA?2?$AAv?$AAc?$AAt?$AAo?$AAo?$AAl?$AAs?$AA?2?$AAc?$AAr?$AAt?$AA?2?$AAc?$AAr?$AAt?$AAw?$AA3?$AA2?$AA?2?$AAl?$AAo?$AAw?$AAi?$AAo?$AA?2?$AAo@ 10074a40     LIBCMTD:open.obj
 0002:0000fa8c       ??_C@_1M@MFLJCMFJ@?$AA_?$AAo?$AAp?$AAe?$AAn?$AA?$AA@ 10074a8c     LIBCMTD:open.obj
 0002:0000fa98       ??_C@_1BM@PGEEHLHE@?$AA?$CI?$AAp?$AAf?$AAh?$AA?5?$AA?$CB?$AA?$DN?$AA?5?$AAN?$AAU?$AAL?$AAL?$AA?$CJ?$AA?$AA@ 10074a98     LIBCMTD:open.obj
 0002:0000fab4       ??_C@_1BM@IOBAMMHO@?$AA_?$AAs?$AAo?$AAp?$AAe?$AAn?$AA_?$AAh?$AAe?$AAl?$AAp?$AAe?$AAr?$AA?$AA@ 10074ab4     LIBCMTD:open.obj
 0002:0000fad0       ??_C@_1FG@NFINBJCM@?$AA?$CI?$AA?$CI?$AAp?$AAm?$AAo?$AAd?$AAe?$AA?5?$AA?$CG?$AA?5?$AA?$CI?$AA?$HO?$AA?$CI?$AA_?$AAS?$AA_?$AAI?$AAR?$AAE?$AAA?$AAD?$AA?5?$AA?$HM?$AA?5?$AA_?$AAS?$AA_?$AAI?$AAW?$AAR?$AAI?$AAT@ 10074ad0     LIBCMTD:open.obj
 0002:0000fb28       ??_C@_1BG@MODEICJK@?$AAs?$AA1?$AA?5?$AA?$CB?$AA?$DN?$AA?5?$AAN?$AAU?$AAL?$AAL?$AA?$AA@ 10074b28     LIBCMTD:mbsnbcmp.obj
 0002:0000fb40       ??_C@_1FK@HBIEJCLJ@?$AAf?$AA?3?$AA?2?$AAd?$AAd?$AA?2?$AAv?$AAc?$AAt?$AAo?$AAo?$AAl?$AAs?$AA?2?$AAc?$AAr?$AAt?$AA?2?$AAc?$AAr?$AAt?$AAw?$AA3?$AA2?$AA?2?$AAm?$AAb?$AAs?$AAt?$AAr?$AAi?$AAn@ 10074b40     LIBCMTD:mbsnbcmp.obj
 0002:0000fb9c       ??_C@_1BI@LPHOHGHI@?$AA_?$AAm?$AAb?$AAs?$AAn?$AAb?$AAc?$AAm?$AAp?$AA_?$AAl?$AA?$AA@ 10074b9c     LIBCMTD:mbsnbcmp.obj
 0002:0000fbb4       ??_C@_1BG@GBJNMPFA@?$AAs?$AA2?$AA?5?$AA?$CB?$AA?$DN?$AA?5?$AAN?$AAU?$AAL?$AAL?$AA?$AA@ 10074bb4     LIBCMTD:mbsnbcmp.obj
 0002:0000fbd0       ??_C@_1FK@GCMEGOJB@?$AAf?$AA?3?$AA?2?$AAd?$AAd?$AA?2?$AAv?$AAc?$AAt?$AAo?$AAo?$AAl?$AAs?$AA?2?$AAc?$AAr?$AAt?$AA?2?$AAc?$AAr?$AAt?$AAw?$AA3?$AA2?$AA?2?$AAm?$AAb?$AAs?$AAt?$AAr?$AAi?$AAn@ 10074bd0     LIBCMTD:mbsnbicm.obj
 0002:0000fc2c       ??_C@_1BK@GEJONGBG@?$AA_?$AAm?$AAb?$AAs?$AAn?$AAb?$AAi?$AAc?$AAm?$AAp?$AA_?$AAl?$AA?$AA@ 10074c2c     LIBCMTD:mbsnbicm.obj
 0002:0000fc48       ??_C@_1NC@EINCOKCO@?$AA_?$AAl?$AAo?$AAc?$AA_?$AAu?$AAp?$AAd?$AAa?$AAt?$AAe?$AA?4?$AAG?$AAe?$AAt?$AAL?$AAo?$AAc?$AAa?$AAl?$AAe?$AAT?$AA?$CI?$AA?$CJ?$AA?9?$AA?$DO?$AAl?$AAo?$AAc?$AAi?$AAn?$AAf@ 10074c48     LIBCMTD:mbtowc.obj
 0002:0000fd20       ??_C@_1FE@EKLDGEI@?$AAf?$AA?3?$AA?2?$AAd?$AAd?$AA?2?$AAv?$AAc?$AAt?$AAo?$AAo?$AAl?$AAs?$AA?2?$AAc?$AAr?$AAt?$AA?2?$AAc?$AAr?$AAt?$AAw?$AA3?$AA2?$AA?2?$AAc?$AAo?$AAn?$AAv?$AAe?$AAr?$AAt@ 10074d20     LIBCMTD:mbtowc.obj
 0002:0000fd78       ??_C@_1FA@EDIAPAPE@?$AAf?$AA?3?$AA?2?$AAd?$AAd?$AA?2?$AAv?$AAc?$AAt?$AAo?$AAo?$AAl?$AAs?$AA?2?$AAc?$AAr?$AAt?$AA?2?$AAc?$AAr?$AAt?$AAw?$AA3?$AA2?$AA?2?$AAh?$AA?2?$AAt?$AAc?$AAs?$AAc?$AAa@ 10074d78     LIBCMTD:wcscat_s.obj
 0002:0000fdc8       ??_C@_1BC@PLIEPKPJ@?$AAw?$AAc?$AAs?$AAc?$AAa?$AAt?$AA_?$AAs?$AA?$AA@ 10074dc8     LIBCMTD:wcscat_s.obj
 0002:0000fddc       ??_C@_1DM@FHLMIEG@?$AAS?$AAt?$AAr?$AAi?$AAn?$AAg?$AA?5?$AAi?$AAs?$AA?5?$AAn?$AAo?$AAt?$AA?5?$AAn?$AAu?$AAl?$AAl?$AA?5?$AAt?$AAe?$AAr?$AAm?$AAi?$AAn?$AAa?$AAt?$AAe?$AAd?$AA?$AA@ 10074ddc     LIBCMTD:wcscat_s.obj
 0002:0000fe18       ??_C@_1FA@MJKDNFFB@?$AA?$CI?$AAL?$AA?$CC?$AAS?$AAt?$AAr?$AAi?$AAn?$AAg?$AA?5?$AAi?$AAs?$AA?5?$AAn?$AAo?$AAt?$AA?5?$AAn?$AAu?$AAl?$AAl?$AA?5?$AAt?$AAe?$AAr?$AAm?$AAi?$AAn?$AAa?$AAt?$AAe?$AAd@ 10074e18     LIBCMTD:wcscat_s.obj
 0002:0000fe68       ??_C@_1FC@LFLBLJJB@?$AAf?$AA?3?$AA?2?$AAd?$AAd?$AA?2?$AAv?$AAc?$AAt?$AAo?$AAo?$AAl?$AAs?$AA?2?$AAc?$AAr?$AAt?$AA?2?$AAc?$AAr?$AAt?$AAw?$AA3?$AA2?$AA?2?$AAh?$AA?2?$AAt?$AAc?$AAs?$AAn?$AAc@ 10074e68     LIBCMTD:wcsncpy_s.obj
 0002:0000febc       ??_C@_1BE@PMMBFFCC@?$AAw?$AAc?$AAs?$AAn?$AAc?$AAp?$AAy?$AA_?$AAs?$AA?$AA@ 10074ebc     LIBCMTD:wcsncpy_s.obj
 0002:0000fed0       ??_C@_1DE@BCNCAIK@?$AA?$CI?$AA?$CC?$AAI?$AAn?$AAv?$AAa?$AAl?$AAi?$AAd?$AA?5?$AAe?$AAr?$AAr?$AAo?$AAr?$AA_?$AAm?$AAo?$AAd?$AAe?$AA?$CC?$AA?0?$AA?5?$AA0?$AA?$CJ?$AA?$AA@ 10074ed0     LIBCMTD:errmode.obj
 0002:0000ff08       ??_C@_1FA@PBBGNIFD@?$AAf?$AA?3?$AA?2?$AAd?$AAd?$AA?2?$AAv?$AAc?$AAt?$AAo?$AAo?$AAl?$AAs?$AA?2?$AAc?$AAr?$AAt?$AA?2?$AAc?$AAr?$AAt?$AAw?$AA3?$AA2?$AA?2?$AAm?$AAi?$AAs?$AAc?$AA?2?$AAe?$AAr@ 10074f08     LIBCMTD:errmode.obj
 0002:0000ff58       ??_C@_1CA@LFDHAMEM@?$AA_?$AAs?$AAe?$AAt?$AA_?$AAe?$AAr?$AAr?$AAo?$AAr?$AA_?$AAm?$AAo?$AAd?$AAe?$AA?$AA@ 10074f58     LIBCMTD:errmode.obj
 0002:0000ff78       ??_C@_1BE@NDMJHJJG@?$AAs?$AAt?$AAr?$AAn?$AAc?$AAp?$AAy?$AA_?$AAs?$AA?$AA@ 10074f78     LIBCMTD:strncpy_s.obj
 0002:0000ff90       ??_C@_1FE@KNPCCODH@?$AA?$CI?$AA?$CC?$AAC?$AAo?$AAr?$AAr?$AAu?$AAp?$AAt?$AAe?$AAd?$AA?5?$AAp?$AAo?$AAi?$AAn?$AAt?$AAe?$AAr?$AA?5?$AAp?$AAa?$AAs?$AAs?$AAe?$AAd?$AA?5?$AAt?$AAo?$AA?5?$AA_?$AAf@ 10074f90     LIBCMTD:a_loc.obj
 0002:0000ffe8       ??_C@_1EI@DKDOCKPJ@?$AAf?$AA?3?$AA?2?$AAd?$AAd?$AA?2?$AAv?$AAc?$AAt?$AAo?$AAo?$AAl?$AAs?$AA?2?$AAc?$AAr?$AAt?$AA?2?$AAc?$AAr?$AAt?$AAw?$AA3?$AA2?$AA?2?$AAh?$AA?2?$AAm?$AAa?$AAl?$AAl?$AAo@ 10074fe8     LIBCMTD:a_loc.obj
 0002:00010030       ??_C@_15EDMHLDMO@?$AAc?$AAa?$AA?$AA@ 10075030     LIBCMTD:winapinls.obj
 0002:00010038       ??_C@_1O@BPEAJADD@?$AAz?$AAh?$AA?9?$AAC?$AAH?$AAS?$AA?$AA@ 10075038     LIBCMTD:winapinls.obj
 0002:00010048       ??_C@_15LJNHCMNK@?$AAc?$AAs?$AA?$AA@ 10075048     LIBCMTD:winapinls.obj
 0002:00010050       ??_C@_15FOMCIDHG@?$AAd?$AAa?$AA?$AA@ 10075050     LIBCMTD:winapinls.obj
 0002:00010058       ??_C@_15NBKABECB@?$AAd?$AAe?$AA?$AA@ 10075058     LIBCMTD:winapinls.obj
 0002:00010060       ??_C@_15GHPEIIAO@?$AAe?$AAl?$AA?$AA@ 10075060     LIBCMTD:winapinls.obj
 0002:00010068       ??_C@_15MNPNEAIF@?$AAe?$AAn?$AA?$AA@ 10075068     LIBCMTD:winapinls.obj
 0002:00010070       ??_C@_15GPIOMPMH@?$AAe?$AAs?$AA?$AA@ 10075070     LIBCMTD:winapinls.obj
 0002:00010078       ??_C@_15NGLOAKJC@?$AAf?$AAi?$AA?$AA@ 10075078     LIBCMTD:winapinls.obj
 0002:00010080       ??_C@_15FBKGNKAM@?$AAf?$AAr?$AA?$AA@ 10075080     LIBCMTD:winapinls.obj
 0002:00010088       ??_C@_15KGGCNEFK@?$AAh?$AAe?$AA?$AA@ 10075088     LIBCMTD:winapinls.obj
 0002:00010090       ??_C@_15PGHLIDMF@?$AAh?$AAu?$AA?$AA@ 10075090     LIBCMTD:winapinls.obj
 0002:00010098       ??_C@_15BIEMAPLM@?$AAi?$AAs?$AA?$AA@ 10075098     LIBCMTD:winapinls.obj
 0002:000100a0       ??_C@_15IFJLDHAF@?$AAi?$AAt?$AA?$AA@ 100750a0     LIBCMTD:winapinls.obj
 0002:000100a8       ??_C@_15GEMIOCAG@?$AAj?$AAa?$AA?$AA@ 100750a8     LIBCMTD:winapinls.obj
 0002:000100b0       ??_C@_15EPELEGJA@?$AAk?$AAo?$AA?$AA@ 100750b0     LIBCMTD:winapinls.obj
 0002:000100b8       ??_C@_15NDDHIMN@?$AAn?$AAl?$AA?$AA@ 100750b8     LIBCMTD:winapinls.obj
 0002:000100c0       ??_C@_15BPIGNHCD@?$AAn?$AAo?$AA?$AA@ 100750c0     LIBCMTD:winapinls.obj
 0002:000100c8       ??_C@_15DEOPBLCG@?$AAp?$AAl?$AA?$AA@ 100750c8     LIBCMTD:winapinls.obj
 0002:000100d0       ??_C@_15KBECGEFG@?$AAp?$AAt?$AA?$AA@ 100750d0     LIBCMTD:winapinls.obj
 0002:000100d8       ??_C@_15GLJCBFMD@?$AAr?$AAo?$AA?$AA@ 100750d8     LIBCMTD:winapinls.obj
 0002:000100e0       ??_C@_15FEDGKCDI@?$AAr?$AAu?$AA?$AA@ 100750e0     LIBCMTD:winapinls.obj
 0002:000100e8       ??_C@_15GLKMLLHM@?$AAh?$AAr?$AA?$AA@ 100750e8     LIBCMTD:winapinls.obj
 0002:000100f0       ??_C@_15CPKMFBDB@?$AAs?$AAk?$AA?$AA@ 100750f0     LIBCMTD:winapinls.obj
 0002:000100f8       ??_C@_15BAAIOGMK@?$AAs?$AAq?$AA?$AA@ 100750f8     LIBCMTD:winapinls.obj
 0002:00010100       ??_C@_15INNPNOHD@?$AAs?$AAv?$AA?$AA@ 10075100     LIBCMTD:winapinls.obj
 0002:00010108       ??_C@_15CABMMOGH@?$AAt?$AAh?$AA?$AA@ 10075108     LIBCMTD:winapinls.obj
 0002:00010110       ??_C@_15BPLIHJJM@?$AAt?$AAr?$AA?$AA@ 10075110     LIBCMTD:winapinls.obj
 0002:00010118       ??_C@_15NEOEKKDJ@?$AAu?$AAr?$AA?$AA@ 10075118     LIBCMTD:winapinls.obj
 0002:00010120       ??_C@_15NFICGAJK@?$AAi?$AAd?$AA?$AA@ 10075120     LIBCMTD:winapinls.obj
 0002:00010128       ??_C@_15PJPFLCCM@?$AAu?$AAk?$AA?$AA@ 10075128     LIBCMTD:winapinls.obj
 0002:00010130       ??_C@_15HPJPHDM@?$AAb?$AAe?$AA?$AA@ 10075130     LIBCMTD:winapinls.obj
 0002:00010138       ??_C@_15LCHLGJII@?$AAs?$AAl?$AA?$AA@ 10075138     LIBCMTD:winapinls.obj
 0002:00010140       ??_C@_15PCFJPHHO@?$AAe?$AAt?$AA?$AA@ 10075140     LIBCMTD:winapinls.obj
 0002:00010148       ??_C@_15HPFPGODN@?$AAl?$AAv?$AA?$AA@ 10075148     LIBCMTD:winapinls.obj
 0002:00010150       ??_C@_15NFFGKGLG@?$AAl?$AAt?$AA?$AA@ 10075150     LIBCMTD:winapinls.obj
 0002:00010158       ??_C@_15BDAKCCHN@?$AAf?$AAa?$AA?$AA@ 10075158     LIBCMTD:winapinls.obj
 0002:00010160       ??_C@_15NFGIAIAJ@?$AAv?$AAi?$AA?$AA@ 10075160     LIBCMTD:winapinls.obj
 0002:00010168       ??_C@_15LMKNDMHN@?$AAh?$AAy?$AA?$AA@ 10075168     LIBCMTD:winapinls.obj
 0002:00010170       ??_C@_15IJBHMCFL@?$AAa?$AAz?$AA?$AA@ 10075170     LIBCMTD:winapinls.obj
 0002:00010178       ??_C@_15EKOFJABL@?$AAe?$AAu?$AA?$AA@ 10075178     LIBCMTD:winapinls.obj
 0002:00010180       ??_C@_15BGHADCNK@?$AAm?$AAk?$AA?$AA@ 10075180     LIBCMTD:winapinls.obj
 0002:00010188       ??_C@_15JDNICKHM@?$AAa?$AAf?$AA?$AA@ 10075188     LIBCMTD:winapinls.obj
 0002:00010190       ??_C@_15KPJEDBKD@?$AAk?$AAa?$AA?$AA@ 10075190     LIBCMTD:winapinls.obj
 0002:00010198       ??_C@_15PDNFFFEO@?$AAf?$AAo?$AA?$AA@ 10075198     LIBCMTD:winapinls.obj
 0002:000101a0       ??_C@_15OMLEGLOC@?$AAh?$AAi?$AA?$AA@ 100751a0     LIBCMTD:winapinls.obj
 0002:000101a8       ??_C@_15IDNNENKK@?$AAm?$AAs?$AA?$AA@ 100751a8     LIBCMTD:winapinls.obj
 0002:000101b0       ??_C@_15MACJNBMH@?$AAk?$AAk?$AA?$AA@ 100751b0     LIBCMTD:winapinls.obj
 0002:000101b8       ??_C@_15DKDJEOND@?$AAk?$AAy?$AA?$AA@ 100751b8     LIBCMTD:winapinls.obj
 0002:000101c0       ??_C@_15DFGDLJBG@?$AAs?$AAw?$AA?$AA@ 100751c0     LIBCMTD:winapinls.obj
 0002:000101c8       ??_C@_15BBFAICNG@?$AAu?$AAz?$AA?$AA@ 100751c8     LIBCMTD:winapinls.obj
 0002:000101d0       ??_C@_15DKNDCGEA@?$AAt?$AAt?$AA?$AA@ 100751d0     LIBCMTD:winapinls.obj
 0002:000101d8       ??_C@_15MGIFMDPL@?$AAp?$AAa?$AA?$AA@ 100751d8     LIBCMTD:winapinls.obj
 0002:000101e0       ??_C@_15HCNDBBA@?$AAg?$AAu?$AA?$AA@ 100751e0     LIBCMTD:winapinls.obj
 0002:000101e8       ??_C@_15FNBEIBON@?$AAt?$AAa?$AA?$AA@ 100751e8     LIBCMTD:winapinls.obj
 0002:000101f0       ??_C@_15NCHGBGLK@?$AAt?$AAe?$AA?$AA@ 100751f0     LIBCMTD:winapinls.obj
 0002:000101f8       ??_C@_15PHPHCBPF@?$AAk?$AAn?$AA?$AA@ 100751f8     LIBCMTD:winapinls.obj
 0002:00010200       ??_C@_15DLGBCKMP@?$AAm?$AAr?$AA?$AA@ 10075200     LIBCMTD:winapinls.obj
 0002:00010208       ??_C@_15EABBLBFF@?$AAs?$AAa?$AA?$AA@ 10075208     LIBCMTD:winapinls.obj
 0002:00010210       ??_C@_15CBKOMCOI@?$AAm?$AAn?$AA?$AA@ 10075210     LIBCMTD:winapinls.obj
 0002:00010218       ??_C@_15CKDMCJAF@?$AAg?$AAl?$AA?$AA@ 10075218     LIBCMTD:winapinls.obj
 0002:00010220       ??_C@_17CNJFBPG@?$AAk?$AAo?$AAk?$AA?$AA@ 10075220     LIBCMTD:winapinls.obj
 0002:00010228       ??_C@_17FFBJICPL@?$AAs?$AAy?$AAr?$AA?$AA@ 10075228     LIBCMTD:winapinls.obj
 0002:00010230       ??_C@_17KPNDCPAF@?$AAd?$AAi?$AAv?$AA?$AA@ 10075230     LIBCMTD:winapinls.obj
 0002:00010238       ??_C@_1M@OKAHONE@?$AAa?$AAr?$AA?9?$AAS?$AAA?$AA?$AA@ 10075238     LIBCMTD:winapinls.obj
 0002:00010244       ??_C@_1M@FFFIGIGK@?$AAb?$AAg?$AA?9?$AAB?$AAG?$AA?$AA@ 10075244     LIBCMTD:winapinls.obj
 0002:00010250       ??_C@_1M@BJNKEDC@?$AAc?$AAa?$AA?9?$AAE?$AAS?$AA?$AA@ 10075250     LIBCMTD:winapinls.obj
 0002:0001025c       ??_C@_1M@IJJHFJHA@?$AAc?$AAs?$AA?9?$AAC?$AAZ?$AA?$AA@ 1007525c     LIBCMTD:winapinls.obj
 0002:00010268       ??_C@_1M@CLPEOBGI@?$AAd?$AAa?$AA?9?$AAD?$AAK?$AA?$AA@ 10075268     LIBCMTD:winapinls.obj
 0002:00010274       ??_C@_1M@MCMADGCB@?$AAd?$AAe?$AA?9?$AAD?$AAE?$AA?$AA@ 10075274     LIBCMTD:winapinls.obj
 0002:00010280       ??_C@_1M@OOCKEMAM@?$AAe?$AAl?$AA?9?$AAG?$AAR?$AA?$AA@ 10075280     LIBCMTD:winapinls.obj
 0002:0001028c       ??_C@_1M@DDNJFGID@?$AAf?$AAi?$AA?9?$AAF?$AAI?$AA?$AA@ 1007528c     LIBCMTD:winapinls.obj
 0002:00010298       ??_C@_1M@GLIPPMAC@?$AAf?$AAr?$AA?9?$AAF?$AAR?$AA?$AA@ 10075298     LIBCMTD:winapinls.obj
 0002:000102a4       ??_C@_1M@GFMCHPE@?$AAh?$AAe?$AA?9?$AAI?$AAL?$AA?$AA@ 100752a4     LIBCMTD:winapinls.obj
 0002:000102b0       ??_C@_1M@MHLPGNKM@?$AAh?$AAu?$AA?9?$AAH?$AAU?$AA?$AA@ 100752b0     LIBCMTD:winapinls.obj
 0002:000102bc       ??_C@_1M@LPDDNNPN@?$AAi?$AAs?$AA?9?$AAI?$AAS?$AA?$AA@ 100752bc     LIBCMTD:winapinls.obj
 0002:000102c8       ??_C@_1M@MADIPODN@?$AAi?$AAt?$AA?9?$AAI?$AAT?$AA?$AA@ 100752c8     LIBCMTD:winapinls.obj
 0002:000102d4       ??_C@_1M@IHBJJGG@?$AAn?$AAl?$AA?9?$AAN?$AAL?$AA?$AA@ 100752d4     LIBCMTD:winapinls.obj
 0002:000102e0       ??_C@_1M@EANAGDL@?$AAn?$AAb?$AA?9?$AAN?$AAO?$AA?$AA@ 100752e0     LIBCMTD:winapinls.obj
 0002:000102ec       ??_C@_1M@NEIEMEGP@?$AAp?$AAl?$AA?9?$AAP?$AAL?$AA?$AA@ 100752ec     LIBCMTD:winapinls.obj
 0002:000102f8       ??_C@_1M@BOCFIGEP@?$AAp?$AAt?$AA?9?$AAB?$AAR?$AA?$AA@ 100752f8     LIBCMTD:winapinls.obj
 0002:00010304       ??_C@_1M@IMPFOPBG@?$AAr?$AAo?$AA?9?$AAR?$AAO?$AA?$AA@ 10075304     LIBCMTD:winapinls.obj
 0002:00010310       ??_C@_1M@IDNNEJMM@?$AAr?$AAu?$AA?9?$AAR?$AAU?$AA?$AA@ 10075310     LIBCMTD:winapinls.obj
 0002:0001031c       ??_C@_1M@LILEEOGM@?$AAh?$AAr?$AA?9?$AAH?$AAR?$AA?$AA@ 1007531c     LIBCMTD:winapinls.obj
 0002:00010328       ??_C@_1M@FKIFEHPB@?$AAs?$AAk?$AA?9?$AAS?$AAK?$AA?$AA@ 10075328     LIBCMTD:winapinls.obj
 0002:00010334       ??_C@_1M@LJMAMNPJ@?$AAs?$AAq?$AA?9?$AAA?$AAL?$AA?$AA@ 10075334     LIBCMTD:winapinls.obj
 0002:00010340       ??_C@_1M@GIAKDKJK@?$AAs?$AAv?$AA?9?$AAS?$AAE?$AA?$AA@ 10075340     LIBCMTD:winapinls.obj
 0002:0001034c       ??_C@_1M@MKJKIKCL@?$AAt?$AAh?$AA?9?$AAT?$AAH?$AA?$AA@ 1007534c     LIBCMTD:winapinls.obj
 0002:00010358       ??_C@_1M@MFLCCMPB@?$AAt?$AAr?$AA?9?$AAT?$AAR?$AA?$AA@ 10075358     LIBCMTD:winapinls.obj
 0002:00010364       ??_C@_1M@OIJHDKJN@?$AAu?$AAr?$AA?9?$AAP?$AAK?$AA?$AA@ 10075364     LIBCMTD:winapinls.obj
 0002:00010370       ??_C@_1M@LHIPCIEK@?$AAi?$AAd?$AA?9?$AAI?$AAD?$AA?$AA@ 10075370     LIBCMTD:winapinls.obj
 0002:0001037c       ??_C@_1M@MFMOBGI@?$AAu?$AAk?$AA?9?$AAU?$AAA?$AA?$AA@ 1007537c     LIBCMTD:winapinls.obj
 0002:00010388       ??_C@_1M@OBGLJIPL@?$AAb?$AAe?$AA?9?$AAB?$AAY?$AA?$AA@ 10075388     LIBCMTD:winapinls.obj
 0002:00010394       ??_C@_1M@BCFAJEAD@?$AAs?$AAl?$AA?9?$AAS?$AAI?$AA?$AA@ 10075394     LIBCMTD:winapinls.obj
 0002:000103a0       ??_C@_1M@FKFFEDDN@?$AAe?$AAt?$AA?9?$AAE?$AAE?$AA?$AA@ 100753a0     LIBCMTD:winapinls.obj
 0002:000103ac       ??_C@_1M@KGKKAACI@?$AAl?$AAv?$AA?9?$AAL?$AAV?$AA?$AA@ 100753ac     LIBCMTD:winapinls.obj
 0002:000103b8       ??_C@_1M@IFGBIJO@?$AAl?$AAt?$AA?9?$AAL?$AAT?$AA?$AA@ 100753b8     LIBCMTD:winapinls.obj
 0002:000103c4       ??_C@_1M@FGEAHEDM@?$AAf?$AAa?$AA?9?$AAI?$AAR?$AA?$AA@ 100753c4     LIBCMTD:winapinls.obj
 0002:000103d0       ??_C@_1M@KBMAIBFN@?$AAv?$AAi?$AA?9?$AAV?$AAN?$AA?$AA@ 100753d0     LIBCMTD:winapinls.obj
 0002:000103dc       ??_C@_1M@GPCBKDJK@?$AAh?$AAy?$AA?9?$AAA?$AAM?$AA?$AA@ 100753dc     LIBCMTD:winapinls.obj
 0002:000103e8       ??_C@_1BG@BECMDDJB@?$AAa?$AAz?$AA?9?$AAA?$AAZ?$AA?9?$AAL?$AAa?$AAt?$AAn?$AA?$AA@ 100753e8     LIBCMTD:winapinls.obj
 0002:00010400       ??_C@_1M@MAOFCAEA@?$AAe?$AAu?$AA?9?$AAE?$AAS?$AA?$AA@ 10075400     LIBCMTD:winapinls.obj
 0002:0001040c       ??_C@_1M@IGHABKPI@?$AAm?$AAk?$AA?9?$AAM?$AAK?$AA?$AA@ 1007540c     LIBCMTD:winapinls.obj
 0002:00010418       ??_C@_1M@IAIGNEJG@?$AAt?$AAn?$AA?9?$AAZ?$AAA?$AA?$AA@ 10075418     LIBCMTD:winapinls.obj
 0002:00010424       ??_C@_1M@IIJCOJFA@?$AAx?$AAh?$AA?9?$AAZ?$AAA?$AA?$AA@ 10075424     LIBCMTD:winapinls.obj
 0002:00010430       ??_C@_1M@LGPJHNJH@?$AAz?$AAu?$AA?9?$AAZ?$AAA?$AA?$AA@ 10075430     LIBCMTD:winapinls.obj
 0002:0001043c       ??_C@_1M@HOKAOIO@?$AAa?$AAf?$AA?9?$AAZ?$AAA?$AA?$AA@ 1007543c     LIBCMTD:winapinls.obj
 0002:00010448       ??_C@_1M@DPCLHLIE@?$AAk?$AAa?$AA?9?$AAG?$AAE?$AA?$AA@ 10075448     LIBCMTD:winapinls.obj
 0002:00010454       ??_C@_1M@BLKMHJBI@?$AAf?$AAo?$AA?9?$AAF?$AAO?$AA?$AA@ 10075454     LIBCMTD:winapinls.obj
 0002:00010460       ??_C@_1M@LGGJAPPB@?$AAh?$AAi?$AA?9?$AAI?$AAN?$AA?$AA@ 10075460     LIBCMTD:winapinls.obj
 0002:0001046c       ??_C@_1M@FIKPIHFE@?$AAm?$AAt?$AA?9?$AAM?$AAT?$AA?$AA@ 1007546c     LIBCMTD:winapinls.obj
 0002:00010478       ??_C@_1M@HEGGPBFA@?$AAs?$AAe?$AA?9?$AAN?$AAO?$AA?$AA@ 10075478     LIBCMTD:winapinls.obj
 0002:00010484       ??_C@_1M@EIBJEEPA@?$AAm?$AAs?$AA?9?$AAM?$AAY?$AA?$AA@ 10075484     LIBCMTD:winapinls.obj
 0002:00010490       ??_C@_1M@FHLBGMPP@?$AAk?$AAk?$AA?9?$AAK?$AAZ?$AA?$AA@ 10075490     LIBCMTD:winapinls.obj
 0002:0001049c       ??_C@_1M@NGJJLCGI@?$AAk?$AAy?$AA?9?$AAK?$AAG?$AA?$AA@ 1007549c     LIBCMTD:winapinls.obj
 0002:000104a8       ??_C@_1M@GIENNBFC@?$AAs?$AAw?$AA?9?$AAK?$AAE?$AA?$AA@ 100754a8     LIBCMTD:winapinls.obj
 0002:000104b4       ??_C@_1BG@NDGMJIMJ@?$AAu?$AAz?$AA?9?$AAU?$AAZ?$AA?9?$AAL?$AAa?$AAt?$AAn?$AA?$AA@ 100754b4     LIBCMTD:winapinls.obj
 0002:000104cc       ??_C@_1M@IDCCIHBC@?$AAt?$AAt?$AA?9?$AAR?$AAU?$AA?$AA@ 100754cc     LIBCMTD:winapinls.obj
 0002:000104d8       ??_C@_1M@LOICPMOJ@?$AAb?$AAn?$AA?9?$AAI?$AAN?$AA?$AA@ 100754d8     LIBCMTD:winapinls.obj
 0002:000104e4       ??_C@_1M@KPKKNEAH@?$AAp?$AAa?$AA?9?$AAI?$AAN?$AA?$AA@ 100754e4     LIBCMTD:winapinls.obj
 0002:000104f0       ??_C@_1M@PJGPPBOG@?$AAg?$AAu?$AA?9?$AAI?$AAN?$AA?$AA@ 100754f0     LIBCMTD:winapinls.obj
 0002:000104fc       ??_C@_1M@KMKMOPHI@?$AAt?$AAa?$AA?9?$AAI?$AAN?$AA?$AA@ 100754fc     LIBCMTD:winapinls.obj
 0002:00010508       ??_C@_1M@KFEHEPAC@?$AAt?$AAe?$AA?9?$AAI?$AAN?$AA?$AA@ 10075508     LIBCMTD:winapinls.obj
 0002:00010514       ??_C@_1M@CDCLMGHI@?$AAk?$AAn?$AA?9?$AAI?$AAN?$AA?$AA@ 10075514     LIBCMTD:winapinls.obj
 0002:00010520       ??_C@_1M@MIODLDKF@?$AAm?$AAl?$AA?9?$AAI?$AAN?$AA?$AA@ 10075520     LIBCMTD:winapinls.obj
 0002:0001052c       ??_C@_1M@PBIEACPO@?$AAm?$AAr?$AA?9?$AAI?$AAN?$AA?$AA@ 1007552c     LIBCMTD:winapinls.obj
 0002:00010538       ??_C@_1M@NIDEAGPH@?$AAs?$AAa?$AA?9?$AAI?$AAN?$AA?$AA@ 10075538     LIBCMTD:winapinls.obj
 0002:00010544       ??_C@_1M@FHIHCBIO@?$AAm?$AAn?$AA?9?$AAM?$AAN?$AA?$AA@ 10075544     LIBCMTD:winapinls.obj
 0002:00010550       ??_C@_1M@JAIJPENP@?$AAc?$AAy?$AA?9?$AAG?$AAB?$AA?$AA@ 10075550     LIBCMTD:winapinls.obj
 0002:0001055c       ??_C@_1M@PHGFBEPN@?$AAg?$AAl?$AA?9?$AAE?$AAS?$AA?$AA@ 1007555c     LIBCMTD:winapinls.obj
 0002:00010568       ??_C@_1O@KPIPDNCP@?$AAk?$AAo?$AAk?$AA?9?$AAI?$AAN?$AA?$AA@ 10075568     LIBCMTD:winapinls.obj
 0002:00010578       ??_C@_1O@KNHJLDJA@?$AAs?$AAy?$AAr?$AA?9?$AAS?$AAY?$AA?$AA@ 10075578     LIBCMTD:winapinls.obj
 0002:00010588       ??_C@_1O@MKEKBLAH@?$AAd?$AAi?$AAv?$AA?9?$AAM?$AAV?$AA?$AA@ 10075588     LIBCMTD:winapinls.obj
 0002:00010598       ??_C@_1O@OHDCKDDF@?$AAq?$AAu?$AAz?$AA?9?$AAB?$AAO?$AA?$AA@ 10075598     LIBCMTD:winapinls.obj
 0002:000105a8       ??_C@_1M@LEPJNLFD@?$AAn?$AAs?$AA?9?$AAZ?$AAA?$AA?$AA@ 100755a8     LIBCMTD:winapinls.obj
 0002:000105b4       ??_C@_1M@OMLEIIJB@?$AAm?$AAi?$AA?9?$AAN?$AAZ?$AA?$AA@ 100755b4     LIBCMTD:winapinls.obj
 0002:000105c0       ??_C@_1M@PMPEAILG@?$AAa?$AAr?$AA?9?$AAI?$AAQ?$AA?$AA@ 100755c0     LIBCMTD:winapinls.obj
 0002:000105cc       ??_C@_1M@CNKPNOEE@?$AAd?$AAe?$AA?9?$AAC?$AAH?$AA?$AA@ 100755cc     LIBCMTD:winapinls.obj
 0002:000105d8       ??_C@_1M@LKMGMLKO@?$AAe?$AAn?$AA?9?$AAG?$AAB?$AA?$AA@ 100755d8     LIBCMTD:winapinls.obj
 0002:000105e4       ??_C@_1M@PGKJFFGL@?$AAe?$AAs?$AA?9?$AAM?$AAX?$AA?$AA@ 100755e4     LIBCMTD:winapinls.obj
 0002:000105f0       ??_C@_1M@DNNANBDC@?$AAf?$AAr?$AA?9?$AAB?$AAE?$AA?$AA@ 100755f0     LIBCMTD:winapinls.obj
 0002:000105fc       ??_C@_1M@HLGMDFHM@?$AAi?$AAt?$AA?9?$AAC?$AAH?$AA?$AA@ 100755fc     LIBCMTD:winapinls.obj
 0002:00010608       ??_C@_1M@CLLBGJH@?$AAn?$AAl?$AA?9?$AAB?$AAE?$AA?$AA@ 10075608     LIBCMTD:winapinls.obj
 0002:00010614       ??_C@_1M@BODBOGLF@?$AAn?$AAn?$AA?9?$AAN?$AAO?$AA?$AA@ 10075614     LIBCMTD:winapinls.obj
 0002:00010620       ??_C@_1M@HFFAHKAD@?$AAp?$AAt?$AA?9?$AAP?$AAT?$AA?$AA@ 10075620     LIBCMTD:winapinls.obj
 0002:0001062c       ??_C@_1BG@LNOAKHIE@?$AAs?$AAr?$AA?9?$AAS?$AAP?$AA?9?$AAL?$AAa?$AAt?$AAn?$AA?$AA@ 1007562c     LIBCMTD:winapinls.obj
 0002:00010644       ??_C@_1M@HBMHBGAK@?$AAs?$AAv?$AA?9?$AAF?$AAI?$AA?$AA@ 10075644     LIBCMTD:winapinls.obj
 0002:00010650       ??_C@_1BG@DGCJGJBE@?$AAa?$AAz?$AA?9?$AAA?$AAZ?$AA?9?$AAC?$AAy?$AAr?$AAl?$AA?$AA@ 10075650     LIBCMTD:winapinls.obj
 0002:00010668       ??_C@_1M@KEJDAAHB@?$AAs?$AAe?$AA?9?$AAS?$AAE?$AA?$AA@ 10075668     LIBCMTD:winapinls.obj
 0002:00010674       ??_C@_1M@HEIBJJAD@?$AAm?$AAs?$AA?9?$AAB?$AAN?$AA?$AA@ 10075674     LIBCMTD:winapinls.obj
 0002:00010680       ??_C@_1BG@PBGJMCEM@?$AAu?$AAz?$AA?9?$AAU?$AAZ?$AA?9?$AAC?$AAy?$AAr?$AAl?$AA?$AA@ 10075680     LIBCMTD:winapinls.obj
 0002:00010698       ??_C@_1O@LAOBCMDF@?$AAq?$AAu?$AAz?$AA?9?$AAE?$AAC?$AA?$AA@ 10075698     LIBCMTD:winapinls.obj
 0002:000106a8       ??_C@_1M@POEEMAIO@?$AAa?$AAr?$AA?9?$AAE?$AAG?$AA?$AA@ 100756a8     LIBCMTD:winapinls.obj
 0002:000106b4       ??_C@_1M@EFAKDEDL@?$AAz?$AAh?$AA?9?$AAH?$AAK?$AA?$AA@ 100756b4     LIBCMTD:winapinls.obj
 0002:000106c0       ??_C@_1M@HKKIJHGI@?$AAd?$AAe?$AA?9?$AAA?$AAT?$AA?$AA@ 100756c0     LIBCMTD:winapinls.obj
 0002:000106cc       ??_C@_1M@KBFBEHJF@?$AAe?$AAn?$AA?9?$AAA?$AAU?$AA?$AA@ 100756cc     LIBCMTD:winapinls.obj
 0002:000106d8       ??_C@_1M@MNPLFAAH@?$AAe?$AAs?$AA?9?$AAE?$AAS?$AA?$AA@ 100756d8     LIBCMTD:winapinls.obj
 0002:000106e4       ??_C@_1M@HJOOJFMA@?$AAf?$AAr?$AA?9?$AAC?$AAA?$AA?$AA@ 100756e4     LIBCMTD:winapinls.obj
 0002:000106f0       ??_C@_1BG@JPOFPNAB@?$AAs?$AAr?$AA?9?$AAS?$AAP?$AA?9?$AAC?$AAy?$AAr?$AAl?$AA?$AA@ 100756f0     LIBCMTD:winapinls.obj
 0002:00010708       ??_C@_1M@LNFOCMOB@?$AAs?$AAe?$AA?9?$AAF?$AAI?$AA?$AA@ 10075708     LIBCMTD:winapinls.obj
 0002:00010714       ??_C@_1O@MGJBOAMB@?$AAq?$AAu?$AAz?$AA?9?$AAP?$AAE?$AA?$AA@ 10075714     LIBCMTD:winapinls.obj
 0002:00010724       ??_C@_1M@GJINLBOK@?$AAa?$AAr?$AA?9?$AAL?$AAY?$AA?$AA@ 10075724     LIBCMTD:winapinls.obj
 0002:00010730       ??_C@_1M@GGMNHJNL@?$AAz?$AAh?$AA?9?$AAS?$AAG?$AA?$AA@ 10075730     LIBCMTD:winapinls.obj
 0002:0001073c       ??_C@_1M@HOIKODND@?$AAd?$AAe?$AA?9?$AAL?$AAU?$AA?$AA@ 1007573c     LIBCMTD:winapinls.obj
 0002:00010748       ??_C@_1M@DDOCCGFG@?$AAe?$AAn?$AA?9?$AAC?$AAA?$AA?$AA@ 10075748     LIBCMTD:winapinls.obj
 0002:00010754       ??_C@_1M@BNOEMJLF@?$AAe?$AAs?$AA?9?$AAG?$AAT?$AA?$AA@ 10075754     LIBCMTD:winapinls.obj
 0002:00010760       ??_C@_1M@EOGNKEK@?$AAf?$AAr?$AA?9?$AAC?$AAH?$AA?$AA@ 10075760     LIBCMTD:winapinls.obj
 0002:0001076c       ??_C@_1M@FLIDJFHL@?$AAh?$AAr?$AA?9?$AAB?$AAA?$AA?$AA@ 1007576c     LIBCMTD:winapinls.obj
 0002:00010778       ??_C@_1O@FMCELNAJ@?$AAs?$AAm?$AAj?$AA?9?$AAN?$AAO?$AA?$AA@ 10075778     LIBCMTD:winapinls.obj
 0002:00010788       ??_C@_1M@JHGLJMGJ@?$AAa?$AAr?$AA?9?$AAD?$AAZ?$AA?$AA@ 10075788     LIBCMTD:winapinls.obj
 0002:00010794       ??_C@_1M@JKKFDCNP@?$AAz?$AAh?$AA?9?$AAM?$AAO?$AA?$AA@ 10075794     LIBCMTD:winapinls.obj
 0002:000107a0       ??_C@_1M@GEEFALPE@?$AAd?$AAe?$AA?9?$AAL?$AAI?$AA?$AA@ 100757a0     LIBCMTD:winapinls.obj
 0002:000107ac       ??_C@_1M@IGEOFBG@?$AAe?$AAn?$AA?9?$AAN?$AAZ?$AA?$AA@ 100757ac     LIBCMTD:winapinls.obj
 0002:000107b8       ??_C@_1M@KDBONEHP@?$AAe?$AAs?$AA?9?$AAC?$AAR?$AA?$AA@ 100757b8     LIBCMTD:winapinls.obj
 0002:000107c4       ??_C@_1M@FHMDOHNN@?$AAf?$AAr?$AA?9?$AAL?$AAU?$AA?$AA@ 100757c4     LIBCMTD:winapinls.obj
 0002:000107d0       ??_C@_1BG@NFKKMAFG@?$AAb?$AAs?$AA?9?$AAB?$AAA?$AA?9?$AAL?$AAa?$AAt?$AAn?$AA?$AA@ 100757d0     LIBCMTD:winapinls.obj
 0002:000107e8       ??_C@_1O@IMNBEMCI@?$AAs?$AAm?$AAj?$AA?9?$AAS?$AAE?$AA?$AA@ 100757e8     LIBCMTD:winapinls.obj
 0002:000107f8       ??_C@_1M@DHHMBNDP@?$AAa?$AAr?$AA?9?$AAM?$AAA?$AA?$AA@ 100757f8     LIBCMTD:winapinls.obj
 0002:00010804       ??_C@_1M@BNBLJCGH@?$AAe?$AAn?$AA?9?$AAI?$AAE?$AA?$AA@ 10075804     LIBCMTD:winapinls.obj
 0002:00010810       ??_C@_1M@GEPAFMDL@?$AAe?$AAs?$AA?9?$AAP?$AAA?$AA?$AA@ 10075810     LIBCMTD:winapinls.obj
 0002:0001081c       ??_C@_1M@OJONDMDL@?$AAf?$AAr?$AA?9?$AAM?$AAC?$AA?$AA@ 1007581c     LIBCMTD:winapinls.obj
 0002:00010828       ??_C@_1BG@OBCNFJB@?$AAs?$AAr?$AA?9?$AAB?$AAA?$AA?9?$AAL?$AAa?$AAt?$AAn?$AA?$AA@ 10075828     LIBCMTD:winapinls.obj
 0002:00010840       ??_C@_1O@KEMEEGPO@?$AAs?$AAm?$AAa?$AA?9?$AAN?$AAO?$AA?$AA@ 10075840     LIBCMTD:winapinls.obj
 0002:00010850       ??_C@_1M@ELMGFODK@?$AAa?$AAr?$AA?9?$AAT?$AAN?$AA?$AA@ 10075850     LIBCMTD:winapinls.obj
 0002:0001085c       ??_C@_1M@BHDLHFAF@?$AAe?$AAn?$AA?9?$AAZ?$AAA?$AA?$AA@ 1007585c     LIBCMTD:winapinls.obj
 0002:00010868       ??_C@_1M@BMGIGLIF@?$AAe?$AAs?$AA?9?$AAD?$AAO?$AA?$AA@ 10075868     LIBCMTD:winapinls.obj
 0002:00010874       ??_C@_1BG@CMBHIPBE@?$AAs?$AAr?$AA?9?$AAB?$AAA?$AA?9?$AAC?$AAy?$AAr?$AAl?$AA?$AA@ 10075874     LIBCMTD:winapinls.obj
 0002:0001088c       ??_C@_1O@HEDBLHNP@?$AAs?$AAm?$AAa?$AA?9?$AAS?$AAE?$AA?$AA@ 1007588c     LIBCMTD:winapinls.obj
 0002:0001089c       ??_C@_1M@DAGCADIM@?$AAa?$AAr?$AA?9?$AAO?$AAM?$AA?$AA@ 1007589c     LIBCMTD:winapinls.obj
 0002:000108a8       ??_C@_1M@FODLMICG@?$AAe?$AAn?$AA?9?$AAJ?$AAM?$AA?$AA@ 100758a8     LIBCMTD:winapinls.obj
 0002:000108b4       ??_C@_1M@DNMLCIHB@?$AAe?$AAs?$AA?9?$AAV?$AAE?$AA?$AA@ 100758b4     LIBCMTD:winapinls.obj
 0002:000108c0       ??_C@_1O@EOKHMKJK@?$AAs?$AAm?$AAs?$AA?9?$AAF?$AAI?$AA?$AA@ 100758c0     LIBCMTD:winapinls.obj
 0002:000108d0       ??_C@_1M@CAFJMKOF@?$AAa?$AAr?$AA?9?$AAY?$AAE?$AA?$AA@ 100758d0     LIBCMTD:winapinls.obj
 0002:000108dc       ??_C@_1M@CBFHIJLI@?$AAe?$AAn?$AA?9?$AAC?$AAB?$AA?$AA@ 100758dc     LIBCMTD:winapinls.obj
 0002:000108e8       ??_C@_1M@BGNFLDN@?$AAe?$AAs?$AA?9?$AAC?$AAO?$AA?$AA@ 100758e8     LIBCMTD:winapinls.obj
 0002:000108f4       ??_C@_1O@JMPHMAMC@?$AAs?$AAm?$AAn?$AA?9?$AAF?$AAI?$AA?$AA@ 100758f4     LIBCMTD:winapinls.obj
 0002:00010904       ??_C@_1M@JLANABKE@?$AAa?$AAr?$AA?9?$AAS?$AAY?$AA?$AA@ 10075904     LIBCMTD:winapinls.obj
 0002:00010910       ??_C@_1M@HPKGCFGN@?$AAe?$AAn?$AA?9?$AAB?$AAZ?$AA?$AA@ 10075910     LIBCMTD:winapinls.obj
 0002:0001091c       ??_C@_1M@OLJCMLGM@?$AAe?$AAs?$AA?9?$AAP?$AAE?$AA?$AA@ 1007591c     LIBCMTD:winapinls.obj
 0002:00010928       ??_C@_1M@MKKGFKLE@?$AAa?$AAr?$AA?9?$AAJ?$AAO?$AA?$AA@ 10075928     LIBCMTD:winapinls.obj
 0002:00010934       ??_C@_1M@EKPGLDNI@?$AAe?$AAn?$AA?9?$AAT?$AAT?$AA?$AA@ 10075934     LIBCMTD:winapinls.obj
 0002:00010940       ??_C@_1M@OONGHFHE@?$AAe?$AAs?$AA?9?$AAA?$AAR?$AA?$AA@ 10075940     LIBCMTD:winapinls.obj
 0002:0001094c       ??_C@_1M@OOJFGBHE@?$AAa?$AAr?$AA?9?$AAL?$AAB?$AA?$AA@ 1007594c     LIBCMTD:winapinls.obj
 0002:00010958       ??_C@_1M@GCEJHNEG@?$AAe?$AAn?$AA?9?$AAZ?$AAW?$AA?$AA@ 10075958     LIBCMTD:winapinls.obj
 0002:00010964       ??_C@_1M@JNOCAHJI@?$AAe?$AAs?$AA?9?$AAE?$AAC?$AA?$AA@ 10075964     LIBCMTD:winapinls.obj
 0002:00010970       ??_C@_1M@JEFHPGGB@?$AAa?$AAr?$AA?9?$AAK?$AAW?$AA?$AA@ 10075970     LIBCMTD:winapinls.obj
 0002:0001097c       ??_C@_1M@MLKIBJOJ@?$AAe?$AAn?$AA?9?$AAP?$AAH?$AA?$AA@ 1007597c     LIBCMTD:winapinls.obj
 0002:00010988       ??_C@_1M@BDNIPEND@?$AAe?$AAs?$AA?9?$AAC?$AAL?$AA?$AA@ 10075988     LIBCMTD:winapinls.obj
 0002:00010994       ??_C@_1M@MPNMEKBD@?$AAa?$AAr?$AA?9?$AAA?$AAE?$AA?$AA@ 10075994     LIBCMTD:winapinls.obj
 0002:000109a0       ??_C@_1M@KBJALCPI@?$AAe?$AAs?$AA?9?$AAU?$AAY?$AA?$AA@ 100759a0     LIBCMTD:winapinls.obj
 0002:000109ac       ??_C@_1M@LLCCOAGA@?$AAa?$AAr?$AA?9?$AAB?$AAH?$AA?$AA@ 100759ac     LIBCMTD:winapinls.obj
 0002:000109b8       ??_C@_1M@PBFNCDEL@?$AAe?$AAs?$AA?9?$AAP?$AAY?$AA?$AA@ 100759b8     LIBCMTD:winapinls.obj
 0002:000109c4       ??_C@_1M@EDGINPNP@?$AAa?$AAr?$AA?9?$AAQ?$AAA?$AA?$AA@ 100759c4     LIBCMTD:winapinls.obj
 0002:000109d0       ??_C@_1M@MKDBIIJI@?$AAe?$AAs?$AA?9?$AAB?$AAO?$AA?$AA@ 100759d0     LIBCMTD:winapinls.obj
 0002:000109dc       ??_C@_1M@CPKKEBLD@?$AAe?$AAs?$AA?9?$AAS?$AAV?$AA?$AA@ 100759dc     LIBCMTD:winapinls.obj
 0002:000109e8       ??_C@_1M@NDBGMMJL@?$AAe?$AAs?$AA?9?$AAH?$AAN?$AA?$AA@ 100759e8     LIBCMTD:winapinls.obj
 0002:000109f4       ??_C@_1M@JIJIBHDP@?$AAe?$AAs?$AA?9?$AAN?$AAI?$AA?$AA@ 100759f4     LIBCMTD:winapinls.obj
 0002:00010a00       ??_C@_1M@CGFMKEEK@?$AAe?$AAs?$AA?9?$AAP?$AAR?$AA?$AA@ 10075a00     LIBCMTD:winapinls.obj
 0002:00010a0c       ??_C@_1O@ICJHKIIK@?$AAz?$AAh?$AA?9?$AAC?$AAH?$AAT?$AA?$AA@ 10075a0c     LIBCMTD:winapinls.obj
 0002:00010a1c       ??_C@_15CLNEJCE@?$AAs?$AAr?$AA?$AA@ 10075a1c     LIBCMTD:winapinls.obj
 0002:00010a28       _LocaleNameToIndexTable    10075a28     LIBCMTD:winapinls.obj
 0002:00011148       _LcidToLocaleNameTable     10076148     LIBCMTD:winapinls.obj
 0002:00011868       ??_C@_1M@KAHEKEIG@?$AAa?$AAf?$AA?9?$AAz?$AAa?$AA?$AA@ 10076868     LIBCMTD:winapinls.obj
 0002:00011874       ??_C@_1M@GIECOABL@?$AAa?$AAr?$AA?9?$AAa?$AAe?$AA?$AA@ 10076874     LIBCMTD:winapinls.obj
 0002:00011880       ??_C@_1M@BMLMEKGI@?$AAa?$AAr?$AA?9?$AAb?$AAh?$AA?$AA@ 10076880     LIBCMTD:winapinls.obj
 0002:0001188c       ??_C@_1M@DAPFDGGB@?$AAa?$AAr?$AA?9?$AAd?$AAz?$AA?$AA@ 1007688c     LIBCMTD:winapinls.obj
 0002:00011898       ??_C@_1M@FJNKGKIG@?$AAa?$AAr?$AA?9?$AAe?$AAg?$AA?$AA@ 10076898     LIBCMTD:winapinls.obj
 0002:000118a4       ??_C@_1M@FLGKKCLO@?$AAa?$AAr?$AA?9?$AAi?$AAq?$AA?$AA@ 100768a4     LIBCMTD:winapinls.obj
 0002:000118b0       ??_C@_1M@GNDIPALM@?$AAa?$AAr?$AA?9?$AAj?$AAo?$AA?$AA@ 100768b0     LIBCMTD:winapinls.obj
 0002:000118bc       ??_C@_1M@DDMJFMGJ@?$AAa?$AAr?$AA?9?$AAk?$AAw?$AA?$AA@ 100768bc     LIBCMTD:winapinls.obj
 0002:000118c8       ??_C@_1M@EJALMLHM@?$AAa?$AAr?$AA?9?$AAl?$AAb?$AA?$AA@ 100768c8     LIBCMTD:winapinls.obj
 0002:000118d4       ??_C@_1M@MOBDBLOC@?$AAa?$AAr?$AA?9?$AAl?$AAy?$AA?$AA@ 100768d4     LIBCMTD:winapinls.obj
 0002:000118e0       ??_C@_1M@JAOCLHDH@?$AAa?$AAr?$AA?9?$AAm?$AAa?$AA?$AA@ 100768e0     LIBCMTD:winapinls.obj
 0002:000118ec       ??_C@_1M@JHPMKJIE@?$AAa?$AAr?$AA?9?$AAo?$AAm?$AA?$AA@ 100768ec     LIBCMTD:winapinls.obj
 0002:000118f8       ??_C@_1M@OEPGHFNH@?$AAa?$AAr?$AA?9?$AAq?$AAa?$AA?$AA@ 100768f8     LIBCMTD:winapinls.obj
 0002:00011904       ??_C@_1M@KJDONENM@?$AAa?$AAr?$AA?9?$AAs?$AAa?$AA?$AA@ 10076904     LIBCMTD:winapinls.obj
 0002:00011910       ??_C@_1M@DMJDKLKM@?$AAa?$AAr?$AA?9?$AAs?$AAy?$AA?$AA@ 10076910     LIBCMTD:winapinls.obj
 0002:0001191c       ??_C@_1M@OMFIPEDC@?$AAa?$AAr?$AA?9?$AAt?$AAn?$AA?$AA@ 1007691c     LIBCMTD:winapinls.obj
 0002:00011928       ??_C@_1M@IHMHGAON@?$AAa?$AAr?$AA?9?$AAy?$AAe?$AA?$AA@ 10076928     LIBCMTD:winapinls.obj
 0002:00011934       ??_C@_1BG@KDCPGJGB@?$AAa?$AAz?$AA?9?$AAa?$AAz?$AA?9?$AAc?$AAy?$AAr?$AAl?$AA?$AA@ 10076934     LIBCMTD:winapinls.obj
 0002:0001194c       ??_C@_1BG@IBCKDDOE@?$AAa?$AAz?$AA?9?$AAa?$AAz?$AA?9?$AAl?$AAa?$AAt?$AAn?$AA?$AA@ 1007694c     LIBCMTD:winapinls.obj
 0002:00011964       ??_C@_1M@EGPFDCPD@?$AAb?$AAe?$AA?9?$AAb?$AAy?$AA?$AA@ 10076964     LIBCMTD:winapinls.obj
 0002:00011970       ??_C@_1M@PCMGMCGC@?$AAb?$AAg?$AA?9?$AAb?$AAg?$AA?$AA@ 10076970     LIBCMTD:winapinls.obj
 0002:0001197c       ??_C@_1M@BJBMFGOB@?$AAb?$AAn?$AA?9?$AAi?$AAn?$AA?$AA@ 1007697c     LIBCMTD:winapinls.obj
 0002:00011988       ??_C@_1BG@EAKMMACD@?$AAb?$AAs?$AA?9?$AAb?$AAa?$AA?9?$AAl?$AAa?$AAt?$AAn?$AA?$AA@ 10076988     LIBCMTD:winapinls.obj
 0002:000119a0       ??_C@_1M@KGADAODK@?$AAc?$AAa?$AA?9?$AAe?$AAs?$AA?$AA@ 100769a0     LIBCMTD:winapinls.obj
 0002:000119ac       ??_C@_1M@COAJPDHI@?$AAc?$AAs?$AA?9?$AAc?$AAz?$AA?$AA@ 100769ac     LIBCMTD:winapinls.obj
 0002:000119b8       ??_C@_1M@DHBHFONH@?$AAc?$AAy?$AA?9?$AAg?$AAb?$AA?$AA@ 100769b8     LIBCMTD:winapinls.obj
 0002:000119c4       ??_C@_1M@IMGKELGA@?$AAd?$AAa?$AA?9?$AAd?$AAk?$AA?$AA@ 100769c4     LIBCMTD:winapinls.obj
 0002:000119d0       ??_C@_1M@NNDGDNGA@?$AAd?$AAe?$AA?9?$AAa?$AAt?$AA?$AA@ 100769d0     LIBCMTD:winapinls.obj
 0002:000119dc       ??_C@_1M@IKDBHEEM@?$AAd?$AAe?$AA?9?$AAc?$AAh?$AA?$AA@ 100769dc     LIBCMTD:winapinls.obj
 0002:000119e8       ??_C@_1M@GFFOJMCJ@?$AAd?$AAe?$AA?9?$AAd?$AAe?$AA?$AA@ 100769e8     LIBCMTD:winapinls.obj
 0002:000119f4       ??_C@_1M@MDNLKBPM@?$AAd?$AAe?$AA?9?$AAl?$AAi?$AA?$AA@ 100769f4     LIBCMTD:winapinls.obj
 0002:00011a00       ??_C@_1M@NJBEEJNL@?$AAd?$AAe?$AA?9?$AAl?$AAu?$AA?$AA@ 10076a00     LIBCMTD:winapinls.obj
 0002:00011a0c       ??_C@_1O@GNNELBAP@?$AAd?$AAi?$AAv?$AA?9?$AAm?$AAv?$AA?$AA@ 10076a0c     LIBCMTD:winapinls.obj
 0002:00011a1c       ??_C@_1M@EJLEOGAE@?$AAe?$AAl?$AA?9?$AAg?$AAr?$AA?$AA@ 10076a1c     LIBCMTD:winapinls.obj
 0002:00011a28       ??_C@_1M@GMPONJN@?$AAe?$AAn?$AA?9?$AAa?$AAu?$AA?$AA@ 10076a28     LIBCMTD:winapinls.obj
 0002:00011a34       ??_C@_1M@NIDIIPGF@?$AAe?$AAn?$AA?9?$AAb?$AAz?$AA?$AA@ 10076a34     LIBCMTD:winapinls.obj
 0002:00011a40       ??_C@_1M@JEHMIMFO@?$AAe?$AAn?$AA?9?$AAc?$AAa?$AA?$AA@ 10076a40     LIBCMTD:winapinls.obj
 0002:00011a4c       ??_C@_1M@IGMJCDLA@?$AAe?$AAn?$AA?9?$AAc?$AAb?$AA?$AA@ 10076a4c     LIBCMTD:winapinls.obj
 0002:00011a58       ??_C@_1M@BNFIGBKG@?$AAe?$AAn?$AA?9?$AAg?$AAb?$AA?$AA@ 10076a58     LIBCMTD:winapinls.obj
 0002:00011a64       ??_C@_1M@LKIFDIGP@?$AAe?$AAn?$AA?9?$AAi?$AAe?$AA?$AA@ 10076a64     LIBCMTD:winapinls.obj
 0002:00011a70       ??_C@_1M@PJKFGCCO@?$AAe?$AAn?$AA?9?$AAj?$AAm?$AA?$AA@ 10076a70     LIBCMTD:winapinls.obj
 0002:00011a7c       ??_C@_1M@KPPKEPBO@?$AAe?$AAn?$AA?9?$AAn?$AAz?$AA?$AA@ 10076a7c     LIBCMTD:winapinls.obj
 0002:00011a88       ??_C@_1M@GMDGLDOB@?$AAe?$AAn?$AA?9?$AAp?$AAh?$AA?$AA@ 10076a88     LIBCMTD:winapinls.obj
 0002:00011a94       ??_C@_1M@ONGIBJNA@?$AAe?$AAn?$AA?9?$AAt?$AAt?$AA?$AA@ 10076a94     LIBCMTD:winapinls.obj
 0002:00011aa0       ??_C@_1M@LLODPCMM@?$AAe?$AAn?$AA?9?$AAu?$AAs?$AA?$AA@ 10076aa0     LIBCMTD:winapinls.obj
 0002:00011aac       ??_C@_1M@LAKFNPAN@?$AAe?$AAn?$AA?9?$AAz?$AAa?$AA?$AA@ 10076aac     LIBCMTD:winapinls.obj
 0002:00011ab8       ??_C@_1M@MFNHNHEO@?$AAe?$AAn?$AA?9?$AAz?$AAw?$AA?$AA@ 10076ab8     LIBCMTD:winapinls.obj
 0002:00011ac4       ??_C@_1M@EJEINPHM@?$AAe?$AAs?$AA?9?$AAa?$AAr?$AA?$AA@ 10076ac4     LIBCMTD:winapinls.obj
 0002:00011ad0       ??_C@_1M@GNKPCCJA@?$AAe?$AAs?$AA?9?$AAb?$AAo?$AA?$AA@ 10076ad0     LIBCMTD:winapinls.obj
 0002:00011adc       ??_C@_1M@LEEGFONL@?$AAe?$AAs?$AA?9?$AAc?$AAl?$AA?$AA@ 10076adc     LIBCMTD:winapinls.obj
 0002:00011ae8       ??_C@_1M@KGPDPBDF@?$AAe?$AAs?$AA?9?$AAc?$AAo?$AA?$AA@ 10076ae8     LIBCMTD:winapinls.obj
 0002:00011af4       ??_C@_1M@EIAHOHH@?$AAe?$AAs?$AA?9?$AAc?$AAr?$AA?$AA@ 10076af4     LIBCMTD:winapinls.obj
 0002:00011b00       ??_C@_1M@LLPGMBIN@?$AAe?$AAs?$AA?9?$AAd?$AAo?$AA?$AA@ 10076b00     LIBCMTD:winapinls.obj
 0002:00011b0c       ??_C@_1M@DKHMKNJA@?$AAe?$AAs?$AA?9?$AAe?$AAc?$AA?$AA@ 10076b0c     LIBCMTD:winapinls.obj
 0002:00011b18       ??_C@_1M@GKGFPKAP@?$AAe?$AAs?$AA?9?$AAe?$AAs?$AA?$AA@ 10076b18     LIBCMTD:winapinls.obj
 0002:00011b24       ??_C@_1M@LKHKGDLN@?$AAe?$AAs?$AA?9?$AAg?$AAt?$AA?$AA@ 10076b24     LIBCMTD:winapinls.obj
 0002:00011b30       ??_C@_1M@HEIIGGJD@?$AAe?$AAs?$AA?9?$AAh?$AAn?$AA?$AA@ 10076b30     LIBCMTD:winapinls.obj
 0002:00011b3c       ??_C@_1M@FBDHPPGD@?$AAe?$AAs?$AA?9?$AAm?$AAx?$AA?$AA@ 10076b3c     LIBCMTD:winapinls.obj
 0002:00011b48       ??_C@_1M@DPAGLNDH@?$AAe?$AAs?$AA?9?$AAn?$AAi?$AA?$AA@ 10076b48     LIBCMTD:winapinls.obj
 0002:00011b54       ??_C@_1M@MDGOPGDD@?$AAe?$AAs?$AA?9?$AAp?$AAa?$AA?$AA@ 10076b54     LIBCMTD:winapinls.obj
 0002:00011b60       ??_C@_1M@EMAMGBGE@?$AAe?$AAs?$AA?9?$AAp?$AAe?$AA?$AA@ 10076b60     LIBCMTD:winapinls.obj
 0002:00011b6c       ??_C@_1M@IBMCAOEC@?$AAe?$AAs?$AA?9?$AAp?$AAr?$AA?$AA@ 10076b6c     LIBCMTD:winapinls.obj
 0002:00011b78       ??_C@_1M@FGMDIJED@?$AAe?$AAs?$AA?9?$AAp?$AAy?$AA?$AA@ 10076b78     LIBCMTD:winapinls.obj
 0002:00011b84       ??_C@_1M@IIDEOLLL@?$AAe?$AAs?$AA?9?$AAs?$AAv?$AA?$AA@ 10076b84     LIBCMTD:winapinls.obj
 0002:00011b90       ??_C@_1M@GAOBIPA@?$AAe?$AAs?$AA?9?$AAu?$AAy?$AA?$AA@ 10076b90     LIBCMTD:winapinls.obj
 0002:00011b9c       ??_C@_1M@JKFFICHJ@?$AAe?$AAs?$AA?9?$AAv?$AAe?$AA?$AA@ 10076b9c     LIBCMTD:winapinls.obj
 0002:00011ba8       ??_C@_1M@PNMLOJDF@?$AAe?$AAt?$AA?9?$AAe?$AAe?$AA?$AA@ 10076ba8     LIBCMTD:winapinls.obj
 0002:00011bb4       ??_C@_1M@GHHLIKEI@?$AAe?$AAu?$AA?9?$AAe?$AAs?$AA?$AA@ 10076bb4     LIBCMTD:winapinls.obj
 0002:00011bc0       ??_C@_1M@PBNONODE@?$AAf?$AAa?$AA?9?$AAi?$AAr?$AA?$AA@ 10076bc0     LIBCMTD:winapinls.obj
 0002:00011bcc       ??_C@_1M@JEEHPMIL@?$AAf?$AAi?$AA?9?$AAf?$AAi?$AA?$AA@ 10076bcc     LIBCMTD:winapinls.obj
 0002:00011bd8       ??_C@_1M@LMDCNDBA@?$AAf?$AAo?$AA?9?$AAf?$AAo?$AA?$AA@ 10076bd8     LIBCMTD:winapinls.obj
 0002:00011be4       ??_C@_1M@JKEOHLDK@?$AAf?$AAr?$AA?9?$AAb?$AAe?$AA?$AA@ 10076be4     LIBCMTD:winapinls.obj
 0002:00011bf0       ??_C@_1M@NOHADPMI@?$AAf?$AAr?$AA?9?$AAc?$AAa?$AA?$AA@ 10076bf0     LIBCMTD:winapinls.obj
 0002:00011bfc       ??_C@_1M@KDHIHAEC@?$AAf?$AAr?$AA?9?$AAc?$AAh?$AA?$AA@ 10076bfc     LIBCMTD:winapinls.obj
 0002:00011c08       ??_C@_1M@MMBBFGAK@?$AAf?$AAr?$AA?9?$AAf?$AAr?$AA?$AA@ 10076c08     LIBCMTD:winapinls.obj
 0002:00011c14       ??_C@_1M@PAFNENNF@?$AAf?$AAr?$AA?9?$AAl?$AAu?$AA?$AA@ 10076c14     LIBCMTD:winapinls.obj
 0002:00011c20       ??_C@_1M@EOHDJGDD@?$AAf?$AAr?$AA?9?$AAm?$AAc?$AA?$AA@ 10076c20     LIBCMTD:winapinls.obj
 0002:00011c2c       ??_C@_1M@FAPLLOPF@?$AAg?$AAl?$AA?9?$AAe?$AAs?$AA?$AA@ 10076c2c     LIBCMTD:winapinls.obj
 0002:00011c38       ??_C@_1M@FOPBFLOO@?$AAg?$AAu?$AA?9?$AAi?$AAn?$AA?$AA@ 10076c38     LIBCMTD:winapinls.obj
 0002:00011c44       ??_C@_1M@KBMCINPM@?$AAh?$AAe?$AA?9?$AAi?$AAl?$AA?$AA@ 10076c44     LIBCMTD:winapinls.obj
 0002:00011c50       ??_C@_1M@BBPHKFPJ@?$AAh?$AAi?$AA?9?$AAi?$AAn?$AA?$AA@ 10076c50     LIBCMTD:winapinls.obj
 0002:00011c5c       ??_C@_1M@PMBNDPHD@?$AAh?$AAr?$AA?9?$AAb?$AAa?$AA?$AA@ 10076c5c     LIBCMTD:winapinls.obj
 0002:00011c68       ??_C@_1M@BPCKOEGE@?$AAh?$AAr?$AA?9?$AAh?$AAr?$AA?$AA@ 10076c68     LIBCMTD:winapinls.obj
 0002:00011c74       ??_C@_1M@GACBMHKE@?$AAh?$AAu?$AA?9?$AAh?$AAu?$AA?$AA@ 10076c74     LIBCMTD:winapinls.obj
 0002:00011c80       ??_C@_1M@MILPAJJC@?$AAh?$AAy?$AA?9?$AAa?$AAm?$AA?$AA@ 10076c80     LIBCMTD:winapinls.obj
 0002:00011c8c       ??_C@_1M@BABBICEC@?$AAi?$AAd?$AA?9?$AAi?$AAd?$AA?$AA@ 10076c8c     LIBCMTD:winapinls.obj
 0002:00011c98       ??_C@_1M@BIKNHHPF@?$AAi?$AAs?$AA?9?$AAi?$AAs?$AA?$AA@ 10076c98     LIBCMTD:winapinls.obj
 0002:00011ca4       ??_C@_1M@NMPCJPHE@?$AAi?$AAt?$AA?9?$AAc?$AAh?$AA?$AA@ 10076ca4     LIBCMTD:winapinls.obj
 0002:00011cb0       ??_C@_1M@GHKGFEDF@?$AAi?$AAt?$AA?9?$AAi?$AAt?$AA?$AA@ 10076cb0     LIBCMTD:winapinls.obj
 0002:00011cbc       ??_C@_1M@NIEJCJJA@?$AAj?$AAa?$AA?9?$AAj?$AAp?$AA?$AA@ 10076cbc     LIBCMTD:winapinls.obj
 0002:00011cc8       ??_C@_1M@JILFNBIM@?$AAk?$AAa?$AA?9?$AAg?$AAe?$AA?$AA@ 10076cc8     LIBCMTD:winapinls.obj
 0002:00011cd4       ??_C@_1M@PACPMGPH@?$AAk?$AAk?$AA?9?$AAk?$AAz?$AA?$AA@ 10076cd4     LIBCMTD:winapinls.obj
 0002:00011ce0       ??_C@_1M@IELFGMHA@?$AAk?$AAn?$AA?9?$AAi?$AAn?$AA?$AA@ 10076ce0     LIBCMTD:winapinls.obj
 0002:00011cec       ??_C@_1O@IBBJHCH@?$AAk?$AAo?$AAk?$AA?9?$AAi?$AAn?$AA?$AA@ 10076cec     LIBCMTD:winapinls.obj
 0002:00011cfc       ??_C@_1M@DMHAEOGC@?$AAk?$AAo?$AA?9?$AAk?$AAr?$AA?$AA@ 10076cfc     LIBCMTD:winapinls.obj
 0002:00011d08       ??_C@_1M@HBAHBIGA@?$AAk?$AAy?$AA?9?$AAk?$AAg?$AA?$AA@ 10076d08     LIBCMTD:winapinls.obj
 0002:00011d14       ??_C@_1M@KPMILCJG@?$AAl?$AAt?$AA?9?$AAl?$AAt?$AA?$AA@ 10076d14     LIBCMTD:winapinls.obj
 0002:00011d20       ??_C@_1M@BDEKKCA@?$AAl?$AAv?$AA?9?$AAl?$AAv?$AA?$AA@ 10076d20     LIBCMTD:winapinls.obj
 0002:00011d2c       ??_C@_1M@ELCKCCJJ@?$AAm?$AAi?$AA?9?$AAn?$AAz?$AA?$AA@ 10076d2c     LIBCMTD:winapinls.obj
 0002:00011d38       ??_C@_1M@CBOOLAPA@?$AAm?$AAk?$AA?9?$AAm?$AAk?$AA?$AA@ 10076d38     LIBCMTD:winapinls.obj
 0002:00011d44       ??_C@_1M@GPHNBJKN@?$AAm?$AAl?$AA?9?$AAi?$AAn?$AA?$AA@ 10076d44     LIBCMTD:winapinls.obj
 0002:00011d50       ??_C@_1M@PABJILIG@?$AAm?$AAn?$AA?9?$AAm?$AAn?$AA?$AA@ 10076d50     LIBCMTD:winapinls.obj
 0002:00011d5c       ??_C@_1M@FGBKKIPG@?$AAm?$AAr?$AA?9?$AAi?$AAn?$AA?$AA@ 10076d5c     LIBCMTD:winapinls.obj
 0002:00011d68       ??_C@_1M@NDBPDDAL@?$AAm?$AAs?$AA?9?$AAb?$AAn?$AA?$AA@ 10076d68     LIBCMTD:winapinls.obj
 0002:00011d74       ??_C@_1M@OPIHOOPI@?$AAm?$AAs?$AA?9?$AAm?$AAy?$AA?$AA@ 10076d74     LIBCMTD:winapinls.obj
 0002:00011d80       ??_C@_1M@PPDBCNFM@?$AAm?$AAt?$AA?9?$AAm?$AAt?$AA?$AA@ 10076d80     LIBCMTD:winapinls.obj
 0002:00011d8c       ??_C@_1M@KDJDKMDD@?$AAn?$AAb?$AA?9?$AAn?$AAo?$AA?$AA@ 10076d8c     LIBCMTD:winapinls.obj
 0002:00011d98       ??_C@_1M@KFCFLMJP@?$AAn?$AAl?$AA?9?$AAb?$AAe?$AA?$AA@ 10076d98     LIBCMTD:winapinls.obj
 0002:00011da4       ??_C@_1M@KPOPDDGO@?$AAn?$AAl?$AA?9?$AAn?$AAl?$AA?$AA@ 10076da4     LIBCMTD:winapinls.obj
 0002:00011db0       ??_C@_1M@LJKPEMLN@?$AAn?$AAn?$AA?9?$AAn?$AAo?$AA?$AA@ 10076db0     LIBCMTD:winapinls.obj
 0002:00011dbc       ??_C@_1M@BDGHHBFL@?$AAn?$AAs?$AA?9?$AAz?$AAa?$AA?$AA@ 10076dbc     LIBCMTD:winapinls.obj
 0002:00011dc8       ??_C@_1M@IDEHOAP@?$AAp?$AAa?$AA?9?$AAi?$AAn?$AA?$AA@ 10076dc8     LIBCMTD:winapinls.obj
 0002:00011dd4       ??_C@_1M@HDBKGOGH@?$AAp?$AAl?$AA?9?$AAp?$AAl?$AA?$AA@ 10076dd4     LIBCMTD:winapinls.obj
 0002:00011de0       ??_C@_1M@LJLLCMEH@?$AAp?$AAt?$AA?9?$AAb?$AAr?$AA?$AA@ 10076de0     LIBCMTD:winapinls.obj
 0002:00011dec       ??_C@_1M@NCMONAAL@?$AAp?$AAt?$AA?9?$AAp?$AAt?$AA?$AA@ 10076dec     LIBCMTD:winapinls.obj
 0002:00011df8       ??_C@_1O@EAKMAJDN@?$AAq?$AAu?$AAz?$AA?9?$AAb?$AAo?$AA?$AA@ 10076df8     LIBCMTD:winapinls.obj
 0002:00011e08       ??_C@_1O@BHHPIGDN@?$AAq?$AAu?$AAz?$AA?9?$AAe?$AAc?$AA?$AA@ 10076e08     LIBCMTD:winapinls.obj
 0002:00011e18       ??_C@_1O@GBAPEKMJ@?$AAq?$AAu?$AAz?$AA?9?$AAp?$AAe?$AA?$AA@ 10076e18     LIBCMTD:winapinls.obj
 0002:00011e28       ??_C@_1M@CLGLEFBO@?$AAr?$AAo?$AA?9?$AAr?$AAo?$AA?$AA@ 10076e28     LIBCMTD:winapinls.obj
 0002:00011e34       ??_C@_1M@CEEDODME@?$AAr?$AAu?$AA?9?$AAr?$AAu?$AA?$AA@ 10076e34     LIBCMTD:winapinls.obj
 0002:00011e40       ??_C@_1M@HPKKKMPP@?$AAs?$AAa?$AA?9?$AAi?$AAn?$AA?$AA@ 10076e40     LIBCMTD:winapinls.obj
 0002:00011e4c       ??_C@_1M@BKMAIGOJ@?$AAs?$AAe?$AA?9?$AAf?$AAi?$AA?$AA@ 10076e4c     LIBCMTD:winapinls.obj
 0002:00011e58       ??_C@_1M@NDPIFLFI@?$AAs?$AAe?$AA?9?$AAn?$AAo?$AA?$AA@ 10076e58     LIBCMTD:winapinls.obj
 0002:00011e64       ??_C@_1M@DANKKHJ@?$AAs?$AAe?$AA?9?$AAs?$AAe?$AA?$AA@ 10076e64     LIBCMTD:winapinls.obj
 0002:00011e70       ??_C@_1M@PNBLONPJ@?$AAs?$AAk?$AA?9?$AAs?$AAk?$AA?$AA@ 10076e70     LIBCMTD:winapinls.obj
 0002:00011e7c       ??_C@_1M@LFMODOAL@?$AAs?$AAl?$AA?9?$AAs?$AAi?$AA?$AA@ 10076e7c     LIBCMTD:winapinls.obj
 0002:00011e88       ??_C@_1O@DFKOMPG@?$AAs?$AAm?$AAa?$AA?9?$AAn?$AAo?$AA?$AA@ 10076e88     LIBCMTD:winapinls.obj
 0002:00011e98       ??_C@_1O@NDKPBNNH@?$AAs?$AAm?$AAa?$AA?9?$AAs?$AAe?$AA?$AA@ 10076e98     LIBCMTD:winapinls.obj
 0002:00011ea8       ??_C@_1O@PLLKBHAB@?$AAs?$AAm?$AAj?$AA?9?$AAn?$AAo?$AA?$AA@ 10076ea8     LIBCMTD:winapinls.obj
 0002:00011eb8       ??_C@_1O@CLEPOGCA@?$AAs?$AAm?$AAj?$AA?9?$AAs?$AAe?$AA?$AA@ 10076eb8     LIBCMTD:winapinls.obj
 0002:00011ec8       ??_C@_1O@DLGJGKMK@?$AAs?$AAm?$AAn?$AA?9?$AAf?$AAi?$AA?$AA@ 10076ec8     LIBCMTD:winapinls.obj
 0002:00011ed8       ??_C@_1O@OJDJGAJC@?$AAs?$AAm?$AAs?$AA?9?$AAf?$AAi?$AA?$AA@ 10076ed8     LIBCMTD:winapinls.obj
 0002:00011ee8       ??_C@_1M@BOFOGHPB@?$AAs?$AAq?$AA?9?$AAa?$AAl?$AA?$AA@ 10076ee8     LIBCMTD:winapinls.obj
 0002:00011ef4       ??_C@_1BG@LJBBIPGB@?$AAs?$AAr?$AA?9?$AAb?$AAa?$AA?9?$AAc?$AAy?$AAr?$AAl?$AA?$AA@ 10076ef4     LIBCMTD:winapinls.obj
 0002:00011f0c       ??_C@_1BG@JLBENFOE@?$AAs?$AAr?$AA?9?$AAb?$AAa?$AA?9?$AAl?$AAa?$AAt?$AAn?$AA?$AA@ 10076f0c     LIBCMTD:winapinls.obj
 0002:00011f24       ??_C@_1BG@KODPNHE@?$AAs?$AAr?$AA?9?$AAs?$AAp?$AA?9?$AAc?$AAy?$AAr?$AAl?$AA?$AA@ 10076f24     LIBCMTD:winapinls.obj
 0002:00011f3c       ??_C@_1BG@CIOGKHPB@?$AAs?$AAr?$AA?9?$AAs?$AAp?$AA?9?$AAl?$AAa?$AAt?$AAn?$AA?$AA@ 10076f3c     LIBCMTD:winapinls.obj
 0002:00011f54       ??_C@_1M@NGFJLMAC@?$AAs?$AAv?$AA?9?$AAf?$AAi?$AA?$AA@ 10076f54     LIBCMTD:winapinls.obj
 0002:00011f60       ??_C@_1M@MPJEJAJC@?$AAs?$AAv?$AA?9?$AAs?$AAe?$AA?$AA@ 10076f60     LIBCMTD:winapinls.obj
 0002:00011f6c       ??_C@_1M@MPNDHLFK@?$AAs?$AAw?$AA?9?$AAk?$AAe?$AA?$AA@ 10076f6c     LIBCMTD:winapinls.obj
 0002:00011f78       ??_C@_1O@KOHBJJI@?$AAs?$AAy?$AAr?$AA?9?$AAs?$AAy?$AA?$AA@ 10076f78     LIBCMTD:winapinls.obj
 0002:00011f88       ??_C@_1M@LDCEFHA@?$AAt?$AAa?$AA?9?$AAi?$AAn?$AA?$AA@ 10076f88     LIBCMTD:winapinls.obj
 0002:00011f94       ??_C@_1M@CNJOFAK@?$AAt?$AAe?$AA?9?$AAi?$AAn?$AA?$AA@ 10076f94     LIBCMTD:winapinls.obj
 0002:00011fa0       ??_C@_1M@GNAECACD@?$AAt?$AAh?$AA?9?$AAt?$AAh?$AA?$AA@ 10076fa0     LIBCMTD:winapinls.obj
 0002:00011fac       ??_C@_1M@CHBIHOJO@?$AAt?$AAn?$AA?9?$AAz?$AAa?$AA?$AA@ 10076fac     LIBCMTD:winapinls.obj
 0002:00011fb8       ??_C@_1M@GCCMIGPJ@?$AAt?$AAr?$AA?9?$AAt?$AAr?$AA?$AA@ 10076fb8     LIBCMTD:winapinls.obj
 0002:00011fc4       ??_C@_1M@CELMCNBK@?$AAt?$AAt?$AA?9?$AAr?$AAu?$AA?$AA@ 10076fc4     LIBCMTD:winapinls.obj
 0002:00011fd0       ??_C@_1M@KLMCELGA@?$AAu?$AAk?$AA?9?$AAu?$AAa?$AA?$AA@ 10076fd0     LIBCMTD:winapinls.obj
 0002:00011fdc       ??_C@_1M@EPAJJAJF@?$AAu?$AAr?$AA?9?$AAp?$AAk?$AA?$AA@ 10076fdc     LIBCMTD:winapinls.obj
 0002:00011fe8       ??_C@_1BG@GEGPMCDJ@?$AAu?$AAz?$AA?9?$AAu?$AAz?$AA?9?$AAc?$AAy?$AAr?$AAl?$AA?$AA@ 10076fe8     LIBCMTD:winapinls.obj
 0002:00012000       ??_C@_1BG@EGGKJILM@?$AAu?$AAz?$AA?9?$AAu?$AAz?$AA?9?$AAl?$AAa?$AAt?$AAn?$AA?$AA@ 10077000     LIBCMTD:winapinls.obj
 0002:00012018       ??_C@_1M@GFOCLFF@?$AAv?$AAi?$AA?9?$AAv?$AAn?$AA?$AA@ 10077018     LIBCMTD:winapinls.obj
 0002:00012024       ??_C@_1M@CPAMEDFI@?$AAx?$AAh?$AA?9?$AAz?$AAa?$AA?$AA@ 10077024     LIBCMTD:winapinls.obj
 0002:00012030       ??_C@_1O@EBKIFIGN@?$AAz?$AAh?$AA?9?$AAc?$AAh?$AAs?$AA?$AA@ 10077030     LIBCMTD:winapinls.obj
 0002:00012040       ??_C@_1O@NMHPGANE@?$AAz?$AAh?$AA?9?$AAc?$AAh?$AAt?$AA?$AA@ 10077040     LIBCMTD:winapinls.obj
 0002:00012050       ??_C@_1M@LPINJOMC@?$AAz?$AAh?$AA?9?$AAc?$AAn?$AA?$AA@ 10077050     LIBCMTD:winapinls.obj
 0002:0001205c       ??_C@_1M@OCJEJODD@?$AAz?$AAh?$AA?9?$AAh?$AAk?$AA?$AA@ 1007705c     LIBCMTD:winapinls.obj
 0002:00012068       ??_C@_1M@DNDLJINH@?$AAz?$AAh?$AA?9?$AAm?$AAo?$AA?$AA@ 10077068     LIBCMTD:winapinls.obj
 0002:00012074       ??_C@_1M@MBFDNDND@?$AAz?$AAh?$AA?9?$AAs?$AAg?$AA?$AA@ 10077074     LIBCMTD:winapinls.obj
 0002:00012080       ??_C@_1M@IMEPLEPE@?$AAz?$AAh?$AA?9?$AAt?$AAw?$AA?$AA@ 10077080     LIBCMTD:winapinls.obj
 0002:0001208c       ??_C@_1M@BBGHNHJP@?$AAz?$AAu?$AA?9?$AAz?$AAa?$AA?$AA@ 1007708c     LIBCMTD:winapinls.obj
 0002:00012098       ??_C@_15EMKDOKLE@?$AAa?$AAr?$AA?$AA@ 10077098     LIBCMTD:winapinls.obj
 0002:000120a0       ??_C@_15KNPADPLH@?$AAb?$AAg?$AA?$AA@ 100770a0     LIBCMTD:winapinls.obj
 0002:000120a8       ??_C@_1FE@HAPBHJIC@?$AAf?$AA?3?$AA?2?$AAd?$AAd?$AA?2?$AAv?$AAc?$AAt?$AAo?$AAo?$AAl?$AAs?$AA?2?$AAc?$AAr?$AAt?$AA?2?$AAc?$AAr?$AAt?$AAw?$AA3?$AA2?$AA?2?$AAm?$AAi?$AAs?$AAc?$AA?2?$AAw?$AAi@ 100770a8     LIBCMTD:winapinls.obj
 0002:000120fc       ??_C@_1DO@MBHJDOGM@?$AA_?$AA_?$AAc?$AAr?$AAt?$AAD?$AAo?$AAw?$AAn?$AAl?$AAe?$AAv?$AAe?$AAl?$AAL?$AAC?$AAI?$AAD?$AAT?$AAo?$AAL?$AAo?$AAc?$AAa?$AAl?$AAe?$AAN?$AAa?$AAm?$AAe?$AA?$AA@ 100770fc     LIBCMTD:winapinls.obj
 0002:00012140       ??_C@_1FO@LFACCMJH@?$AAw?$AAc?$AAs?$AAc?$AAp?$AAy?$AA_?$AAs?$AA?$CI?$AAo?$AAu?$AAt?$AAL?$AAo?$AAc?$AAa?$AAl?$AAe?$AAN?$AAa?$AAm?$AAe?$AA?0?$AA?5?$AAc?$AAc?$AAh?$AAL?$AAo?$AAc?$AAa?$AAl@ 10077140     LIBCMTD:winapinls.obj
 0002:000121a0       ___lookuptable_s           100771a0     LIBCMTD:outputs.obj
 0002:000121fc       ??_C@_1BI@COFBLHCG@?$AA_?$AAo?$AAu?$AAt?$AAp?$AAu?$AAt?$AA_?$AAs?$AA_?$AAl?$AA?$AA@ 100771fc     LIBCMTD:outputs.obj
 0002:00012214       ??_C@_1BK@LAOAACLJ@?$AAn?$AAp?$AAt?$AAr?$AA?5?$AA?$CB?$AA?$DN?$AA?5?$AAN?$AAU?$AAL?$AAL?$AA?$AA@ 10077214     LIBCMTD:strtol.obj
 0002:00012230       ??_C@_1FE@OOICPOFH@?$AAf?$AA?3?$AA?2?$AAd?$AAd?$AA?2?$AAv?$AAc?$AAt?$AAo?$AAo?$AAl?$AAs?$AA?2?$AAc?$AAr?$AAt?$AA?2?$AAc?$AAr?$AAt?$AAw?$AA3?$AA2?$AA?2?$AAc?$AAo?$AAn?$AAv?$AAe?$AAr?$AAt@ 10077230     LIBCMTD:strtol.obj
 0002:00012284       ??_C@_1BA@LOLAMAJG@?$AAs?$AAt?$AAr?$AAt?$AAo?$AAx?$AAl?$AA?$AA@ 10077284     LIBCMTD:strtol.obj
 0002:00012298       ??_C@_1FE@CEHLKAHD@?$AAi?$AAb?$AAa?$AAs?$AAe?$AA?5?$AA?$DN?$AA?$DN?$AA?5?$AA0?$AA?5?$AA?$HM?$AA?$HM?$AA?5?$AA?$CI?$AA2?$AA?5?$AA?$DM?$AA?$DN?$AA?5?$AAi?$AAb?$AAa?$AAs?$AAe?$AA?5?$AA?$CG?$AA?$CG?$AA?5?$AAi?$AAb?$AAa@ 10077298     LIBCMTD:strtol.obj
 0002:000122f0       ??_C@_1FE@DHCMIOFC@?$AAf?$AA?3?$AA?2?$AAd?$AAd?$AA?2?$AAv?$AAc?$AAt?$AAo?$AAo?$AAl?$AAs?$AA?2?$AAc?$AAr?$AAt?$AA?2?$AAc?$AAr?$AAt?$AAw?$AA3?$AA2?$AA?2?$AAs?$AAt?$AAd?$AAi?$AAo?$AA?2?$AAv@ 100772f0     LIBCMTD:vswprint.obj
 0002:00012344       ??_C@_1BK@EPLNBKAK@?$AA_?$AAv?$AAs?$AAw?$AAp?$AAr?$AAi?$AAn?$AAt?$AAf?$AA_?$AAl?$AA?$AA@ 10077344     LIBCMTD:vswprint.obj
 0002:00012360       ??_C@_1CG@IMMIEPNA@?$AA_?$AAv?$AAs?$AAc?$AAw?$AAp?$AAr?$AAi?$AAn?$AAt?$AAf?$AA_?$AAh?$AAe?$AAl?$AAp?$AAe?$AAr?$AA?$AA@ 10077360     LIBCMTD:vswprint.obj
 0002:00012388       ??_C@_1CE@IGKFIJFD@?$AA_?$AAv?$AAs?$AAw?$AAp?$AAr?$AAi?$AAn?$AAt?$AAf?$AA_?$AAh?$AAe?$AAl?$AAp?$AAe?$AAr?$AA?$AA@ 10077388     LIBCMTD:vswprnc.obj
 0002:000123ac       ??_C@_1BO@MLMCMBKN@?$AAf?$AAo?$AAr?$AAm?$AAa?$AAt?$AA?5?$AA?$CB?$AA?$DN?$AA?5?$AAN?$AAU?$AAL?$AAL?$AA?$AA@ 100773ac     LIBCMTD:vswprnc.obj
 0002:000123cc       ??_C@_1BO@OALHJLCI@?$AA_?$AAv?$AAs?$AAw?$AAp?$AAr?$AAi?$AAn?$AAt?$AAf?$AA_?$AAs?$AA_?$AAl?$AA?$AA@ 100773cc     LIBCMTD:vswprnc.obj
 0002:000123f0       ??_C@_1EE@MPCHJFGP@?$AAs?$AAt?$AAr?$AAi?$AAn?$AAg?$AA?5?$AA?$CB?$AA?$DN?$AA?5?$AAN?$AAU?$AAL?$AAL?$AA?5?$AA?$CG?$AA?$CG?$AA?5?$AAs?$AAi?$AAz?$AAe?$AAI?$AAn?$AAW?$AAo?$AAr?$AAd?$AAs?$AA?5?$AA?$DO?$AA?5@ 100773f0     LIBCMTD:vswprnc.obj
 0002:00012434       ??_C@_1CA@BKFKMJFF@?$AA_?$AAv?$AAs?$AAn?$AAw?$AAp?$AAr?$AAi?$AAn?$AAt?$AAf?$AA_?$AAs?$AA_?$AAl?$AA?$AA@ 10077434     LIBCMTD:vswprnc.obj
 0002:00012454       ??_C@_1BG@BBCDFOMA@?$AA_?$AAw?$AAo?$AAu?$AAt?$AAp?$AAu?$AAt?$AA_?$AAl?$AA?$AA@ 10077454     LIBCMTD:woutput.obj
 0002:0001246c       ??_C@_1BC@HGPNAKGC@?$AAs?$AAt?$AAr?$AAc?$AAa?$AAt?$AA_?$AAs?$AA?$AA@ 1007746c     LIBCMTD:strcat_s.obj
 0002:00012480       ??_C@_1FA@LEFFAILN@?$AAf?$AA?3?$AA?2?$AAd?$AAd?$AA?2?$AAv?$AAc?$AAt?$AAo?$AAo?$AAl?$AAs?$AA?2?$AAc?$AAr?$AAt?$AA?2?$AAc?$AAr?$AAt?$AAw?$AA3?$AA2?$AA?2?$AAc?$AAo?$AAn?$AAv?$AAe?$AAr?$AAt@ 10077480     LIBCMTD:xtoas.obj
 0002:000124d0       ??_C@_1O@GIMBNLEI@?$AAx?$AAt?$AAo?$AAa?$AA_?$AAs?$AA?$AA@ 100774d0     LIBCMTD:xtoas.obj
 0002:000124e0       ??_C@_1CC@JNJFIMGE@?$AAs?$AAi?$AAz?$AAe?$AAI?$AAn?$AAT?$AAC?$AAh?$AAa?$AAr?$AAs?$AA?5?$AA?$DO?$AA?5?$AA0?$AA?$AA@ 100774e0     LIBCMTD:xtoas.obj
 0002:00012508       ??_C@_1FA@MKGGAGEI@?$AAs?$AAi?$AAz?$AAe?$AAI?$AAn?$AAT?$AAC?$AAh?$AAa?$AAr?$AAs?$AA?5?$AA?$DO?$AA?5?$AA?$CI?$AAs?$AAi?$AAz?$AAe?$AA_?$AAt?$AA?$CJ?$AA?$CI?$AAi?$AAs?$AA_?$AAn?$AAe?$AAg?$AA?5?$AA?$DP@ 10077508     LIBCMTD:xtoas.obj
 0002:00012558       ??_C@_1DE@PCJGDBBD@?$AA2?$AA?5?$AA?$DM?$AA?$DN?$AA?5?$AAr?$AAa?$AAd?$AAi?$AAx?$AA?5?$AA?$CG?$AA?$CG?$AA?5?$AAr?$AAa?$AAd?$AAi?$AAx?$AA?5?$AA?$DM?$AA?$DN?$AA?5?$AA3?$AA6?$AA?$AA@ 10077558     LIBCMTD:xtoas.obj
 0002:0001258c       ??_C@_1CM@HABGDNLJ@?$AAl?$AAe?$AAn?$AAg?$AAt?$AAh?$AA?5?$AA?$DM?$AA?5?$AAs?$AAi?$AAz?$AAe?$AAI?$AAn?$AAT?$AAC?$AAh?$AAa?$AAr?$AAs?$AA?$AA@ 1007758c     LIBCMTD:xtoas.obj
 0002:000125b8       ??_C@_1BC@MJJNBNFN@?$AAx?$AA6?$AA4?$AAt?$AAo?$AAa?$AA_?$AAs?$AA?$AA@ 100775b8     LIBCMTD:xtoas.obj
 0002:000125cc       ??_C@_1BE@EEKACIGI@?$AAs?$AA?5?$AA?$CB?$AA?$DN?$AA?5?$AAN?$AAU?$AAL?$AAL?$AA?$AA@ 100775cc     LIBCMTD:mbstowcs.obj
 0002:000125e0       ??_C@_1FI@DADFCCMF@?$AAf?$AA?3?$AA?2?$AAd?$AAd?$AA?2?$AAv?$AAc?$AAt?$AAo?$AAo?$AAl?$AAs?$AA?2?$AAc?$AAr?$AAt?$AA?2?$AAc?$AAr?$AAt?$AAw?$AA3?$AA2?$AA?2?$AAc?$AAo?$AAn?$AAv?$AAe?$AAr?$AAt@ 100775e0     LIBCMTD:mbstowcs.obj
 0002:00012638       ??_C@_1CG@JEHFHLNG@?$AA_?$AAm?$AAb?$AAs?$AAt?$AAo?$AAw?$AAc?$AAs?$AA_?$AAl?$AA_?$AAh?$AAe?$AAl?$AAp?$AAe?$AAr?$AA?$AA@ 10077638     LIBCMTD:mbstowcs.obj
 0002:00012660       ??_C@_1JA@JKDFMOPO@?$AA?$CI?$AAp?$AAw?$AAc?$AAs?$AA?5?$AA?$DN?$AA?$DN?$AA?5?$AAN?$AAU?$AAL?$AAL?$AA?5?$AA?$CG?$AA?$CG?$AA?5?$AAs?$AAi?$AAz?$AAe?$AAI?$AAn?$AAW?$AAo?$AAr?$AAd?$AAs?$AA?5?$AA?$DN?$AA?$DN?$AA?5@ 10077660     LIBCMTD:mbstowcs.obj
 0002:000126f0       ??_C@_1BM@PHENIGHD@?$AA_?$AAm?$AAb?$AAs?$AAt?$AAo?$AAw?$AAc?$AAs?$AA_?$AAs?$AA_?$AAl?$AA?$AA@ 100776f0     LIBCMTD:mbstowcs.obj
 0002:0001270c       ??_C@_1CM@LLECFMFH@?$AAb?$AAu?$AAf?$AAf?$AAe?$AAr?$AAS?$AAi?$AAz?$AAe?$AA?5?$AA?$DM?$AA?$DN?$AA?5?$AAI?$AAN?$AAT?$AA_?$AAM?$AAA?$AAX?$AA?$AA@ 1007770c     LIBCMTD:mbstowcs.obj
 0002:00012738       ??_C@_1CO@JNPEPJAL@?$AAr?$AAe?$AAt?$AAs?$AAi?$AAz?$AAe?$AA?5?$AA?$DM?$AA?$DN?$AA?5?$AAs?$AAi?$AAz?$AAe?$AAI?$AAn?$AAW?$AAo?$AAr?$AAd?$AAs?$AA?$AA@ 10077738     LIBCMTD:mbstowcs.obj
 0002:00012768       ??_C@_1BK@OIBENBPM@?$AAp?$AAw?$AAc?$AAs?$AA?5?$AA?$CB?$AA?$DN?$AA?5?$AAN?$AAU?$AAL?$AAL?$AA?$AA@ 10077768     LIBCMTD:wcstombs.obj
 0002:00012788       ??_C@_1FI@GCFLNCOB@?$AAf?$AA?3?$AA?2?$AAd?$AAd?$AA?2?$AAv?$AAc?$AAt?$AAo?$AAo?$AAl?$AAs?$AA?2?$AAc?$AAr?$AAt?$AA?2?$AAc?$AAr?$AAt?$AAw?$AA3?$AA2?$AA?2?$AAc?$AAo?$AAn?$AAv?$AAe?$AAr?$AAt@ 10077788     LIBCMTD:wcstombs.obj
 0002:000127e0       ??_C@_1CG@LLJCAOHF@?$AA_?$AAw?$AAc?$AAs?$AAt?$AAo?$AAm?$AAb?$AAs?$AA_?$AAl?$AA_?$AAh?$AAe?$AAl?$AAp?$AAe?$AAr?$AA?$AA@ 100777e0     LIBCMTD:wcstombs.obj
 0002:00012808       ??_C@_1IM@MFGKHGBP@?$AA?$CI?$AAd?$AAs?$AAt?$AA?5?$AA?$CB?$AA?$DN?$AA?5?$AAN?$AAU?$AAL?$AAL?$AA?5?$AA?$CG?$AA?$CG?$AA?5?$AAs?$AAi?$AAz?$AAe?$AAI?$AAn?$AAB?$AAy?$AAt?$AAe?$AAs?$AA?5?$AA?$DO?$AA?5?$AA0?$AA?$CJ@ 10077808     LIBCMTD:wcstombs.obj
 0002:00012894       ??_C@_1BM@BDMCLLDL@?$AA_?$AAw?$AAc?$AAs?$AAt?$AAo?$AAm?$AAb?$AAs?$AA_?$AAs?$AA_?$AAl?$AA?$AA@ 10077894     LIBCMTD:wcstombs.obj
 0002:000128b0       ??_C@_1CM@KEOGBFLI@?$AAs?$AAi?$AAz?$AAe?$AAI?$AAn?$AAB?$AAy?$AAt?$AAe?$AAs?$AA?5?$AA?$DO?$AA?5?$AAr?$AAe?$AAt?$AAs?$AAi?$AAz?$AAe?$AA?$AA@ 100778b0     LIBCMTD:wcstombs.obj
 0002:000128dc       ??_C@_1O@NCBFODOE@?$AAx?$AAt?$AAo?$AAw?$AA_?$AAs?$AA?$AA@ 100778dc     LIBCMTD:xtows.obj
 0002:000128ec       ??_C@_1BC@HDEJCFPB@?$AAx?$AA6?$AA4?$AAt?$AAo?$AAw?$AA_?$AAs?$AA?$AA@ 100778ec     LIBCMTD:xtows.obj
 0002:00012900       ??_C@_1CE@PCFPEIFI@?$AA_?$AAv?$AAs?$AAn?$AAp?$AAr?$AAi?$AAn?$AAt?$AAf?$AA_?$AAh?$AAe?$AAl?$AAp?$AAe?$AAr?$AA?$AA@ 10077900     LIBCMTD:vsnprnc.obj
 0002:00012924       ??_C@_1BM@BLJALHEF@?$AA_?$AAv?$AAs?$AAp?$AAr?$AAi?$AAn?$AAt?$AAf?$AA_?$AAs?$AA_?$AAl?$AA?$AA@ 10077924     LIBCMTD:vsnprnc.obj
 0002:00012940       ??_C@_1EE@OKCKIGFK@?$AAs?$AAt?$AAr?$AAi?$AAn?$AAg?$AA?5?$AA?$CB?$AA?$DN?$AA?5?$AAN?$AAU?$AAL?$AAL?$AA?5?$AA?$CG?$AA?$CG?$AA?5?$AAs?$AAi?$AAz?$AAe?$AAI?$AAn?$AAB?$AAy?$AAt?$AAe?$AAs?$AA?5?$AA?$DO?$AA?5@ 10077940     LIBCMTD:vsnprnc.obj
 0002:00012984       ??_C@_1BO@MMPELNIM@?$AA_?$AAv?$AAs?$AAn?$AAp?$AAr?$AAi?$AAn?$AAt?$AAf?$AA_?$AAs?$AA_?$AAl?$AA?$AA@ 10077984     LIBCMTD:vsnprnc.obj
 0002:000129a4       ??_C@_0CI@NOHEOGNG@f?3?2dd?2vctools?2crt?2crtw32?2misc?2in@ 100779a4     LIBCMTD:initmon.obj
 0002:000129cc       ??_C@_1DM@GKAPAMDO@?$AAp?$AAl?$AAo?$AAc?$AAi?$AA?9?$AA?$DO?$AAl?$AAc?$AAo?$AAn?$AAv?$AA_?$AAm?$AAo?$AAn?$AA_?$AAr?$AAe?$AAf?$AAc?$AAo?$AAu?$AAn?$AAt?$AA?5?$AA?$DO?$AA?5?$AA0?$AA?$AA@ 100779cc     LIBCMTD:initmon.obj
 0002:00012a08       ??_C@_1FA@CNNDGPJL@?$AAf?$AA?3?$AA?2?$AAd?$AAd?$AA?2?$AAv?$AAc?$AAt?$AAo?$AAo?$AAl?$AAs?$AA?2?$AAc?$AAr?$AAt?$AA?2?$AAc?$AAr?$AAt?$AAw?$AA3?$AA2?$AA?2?$AAm?$AAi?$AAs?$AAc?$AA?2?$AAi?$AAn@ 10077a08     LIBCMTD:initmon.obj
 0002:00012a58       ??_C@_0CI@GAAFLELF@f?3?2dd?2vctools?2crt?2crtw32?2misc?2in@ 10077a58     LIBCMTD:initnum.obj
 0002:00012a80       ??_C@_1DM@IFKAINNE@?$AAp?$AAl?$AAo?$AAc?$AAi?$AA?9?$AA?$DO?$AAl?$AAc?$AAo?$AAn?$AAv?$AA_?$AAn?$AAu?$AAm?$AA_?$AAr?$AAe?$AAf?$AAc?$AAo?$AAu?$AAn?$AAt?$AA?5?$AA?$DO?$AA?5?$AA0?$AA?$AA@ 10077a80     LIBCMTD:initnum.obj
 0002:00012ac0       ??_C@_1FA@OEEOKLKJ@?$AAf?$AA?3?$AA?2?$AAd?$AAd?$AA?2?$AAv?$AAc?$AAt?$AAo?$AAo?$AAl?$AAs?$AA?2?$AAc?$AAr?$AAt?$AA?2?$AAc?$AAr?$AAt?$AAw?$AA3?$AA2?$AA?2?$AAm?$AAi?$AAs?$AAc?$AA?2?$AAi?$AAn@ 10077ac0     LIBCMTD:initnum.obj
 0002:00012b10       ??_C@_0CJ@HGFGLKBM@f?3?2dd?2vctools?2crt?2crtw32?2misc?2in@ 10077b10     LIBCMTD:inittime.obj
 0002:00012b40       ??_C@_1EE@FDHCFDHN@?$AAp?$AAl?$AAo?$AAc?$AAi?$AA?9?$AA?$DO?$AAl?$AAc?$AA_?$AAt?$AAi?$AAm?$AAe?$AA_?$AAc?$AAu?$AAr?$AAr?$AA?9?$AA?$DO?$AAr?$AAe?$AAf?$AAc?$AAo?$AAu?$AAn?$AAt?$AA?5?$AA?$DO?$AA?5@ 10077b40     LIBCMTD:inittime.obj
 0002:00012b88       ??_C@_1FC@GNPEEAOA@?$AAf?$AA?3?$AA?2?$AAd?$AAd?$AA?2?$AAv?$AAc?$AAt?$AAo?$AAo?$AAl?$AAs?$AA?2?$AAc?$AAr?$AAt?$AA?2?$AAc?$AAr?$AAt?$AAw?$AA3?$AA2?$AA?2?$AAm?$AAi?$AAs?$AAc?$AA?2?$AAi?$AAn@ 10077b88     LIBCMTD:inittime.obj
 0002:00012be0       ___lc_category             10077be0     LIBCMTD:wsetloca.obj
 0002:00012c28       ??_C@_1O@GIFLHMA@?$AAL?$AAC?$AA_?$AAA?$AAL?$AAL?$AA?$AA@ 10077c28     LIBCMTD:wsetloca.obj
 0002:00012c38       ??_C@_1BG@PPOMIBNJ@?$AAL?$AAC?$AA_?$AAC?$AAO?$AAL?$AAL?$AAA?$AAT?$AAE?$AA?$AA@ 10077c38     LIBCMTD:wsetloca.obj
 0002:00012c50       ??_C@_1BC@FFJGAPJM@?$AAL?$AAC?$AA_?$AAC?$AAT?$AAY?$AAP?$AAE?$AA?$AA@ 10077c50     LIBCMTD:wsetloca.obj
 0002:00012c64       ??_C@_1BI@PCKFNJFB@?$AAL?$AAC?$AA_?$AAM?$AAO?$AAN?$AAE?$AAT?$AAA?$AAR?$AAY?$AA?$AA@ 10077c64     LIBCMTD:wsetloca.obj
 0002:00012c7c       ??_C@_1BG@ENIEDKID@?$AAL?$AAC?$AA_?$AAN?$AAU?$AAM?$AAE?$AAR?$AAI?$AAC?$AA?$AA@ 10077c7c     LIBCMTD:wsetloca.obj
 0002:00012c94       ??_C@_1BA@HAAOMIIG@?$AAL?$AAC?$AA_?$AAT?$AAI?$AAM?$AAE?$AA?$AA@ 10077c94     LIBCMTD:wsetloca.obj
 0002:00012d28       ??_C@_1GA@LDEGDKD@?$AA?$CI?$AA?$CC?$AAI?$AAn?$AAv?$AAa?$AAl?$AAi?$AAd?$AA?5?$AAp?$AAa?$AAr?$AAa?$AAm?$AAe?$AAt?$AAe?$AAr?$AA?5?$AAf?$AAo?$AAr?$AA?5?$AA_?$AAc?$AAo?$AAn?$AAf?$AAi?$AAg?$AAt@ 10077d28     LIBCMTD:wsetloca.obj
 0002:00012d88       ??_C@_1FC@GFIKBLFA@?$AAf?$AA?3?$AA?2?$AAd?$AAd?$AA?2?$AAv?$AAc?$AAt?$AAo?$AAo?$AAl?$AAs?$AA?2?$AAc?$AAr?$AAt?$AA?2?$AAc?$AAr?$AAt?$AAw?$AA3?$AA2?$AA?2?$AAm?$AAi?$AAs?$AAc?$AA?2?$AAw?$AAs@ 10077d88     LIBCMTD:wsetloca.obj
 0002:00012ddc       ??_C@_1CI@FGIONOJM@?$AA_?$AAc?$AAo?$AAn?$AAf?$AAi?$AAg?$AAt?$AAh?$AAr?$AAe?$AAa?$AAd?$AAl?$AAo?$AAc?$AAa?$AAl?$AAe?$AA?$AA@ 10077ddc     LIBCMTD:wsetloca.obj
 0002:00012e04       ??_C@_0CJ@MIILEBP@f?3?2dd?2vctools?2crt?2crtw32?2misc?2ws@ 10077e04     LIBCMTD:wsetloca.obj
 0002:00012e30       ??_C@_1FG@OHLFEKMC@?$AAL?$AAC?$AA_?$AAM?$AAI?$AAN?$AA?5?$AA?$DM?$AA?$DN?$AA?5?$AA_?$AAc?$AAa?$AAt?$AAe?$AAg?$AAo?$AAr?$AAy?$AA?5?$AA?$CG?$AA?$CG?$AA?5?$AA_?$AAc?$AAa?$AAt?$AAe?$AAg?$AAo?$AAr?$AAy@ 10077e30     LIBCMTD:wsetloca.obj
 0002:00012e88       ??_C@_1BI@KJNPAEHL@?$AA_?$AAw?$AAs?$AAe?$AAt?$AAl?$AAo?$AAc?$AAa?$AAl?$AAe?$AA?$AA@ 10077e88     LIBCMTD:wsetloca.obj
 0002:00012ea0       ??_C@_15NBPDDFIP@?$AA?$DN?$AA?$DL?$AA?$AA@ 10077ea0     LIBCMTD:wsetloca.obj
 0002:00012ea8       ??_C@_13PJJBFPED@?$AA?$DL?$AA?$AA@ 10077ea8     LIBCMTD:wsetloca.obj
 0002:00012eac       ??_C@_1CG@DKJCBBPP@?$AA_?$AAw?$AAs?$AAe?$AAt?$AAl?$AAo?$AAc?$AAa?$AAl?$AAe?$AA_?$AAn?$AAo?$AAl?$AAo?$AAc?$AAk?$AA?$AA@ 10077eac     LIBCMTD:wsetloca.obj
 0002:00012ed8       ??_C@_1IA@DGCOPCLP@?$AAw?$AAc?$AAs?$AAn?$AAc?$AAp?$AAy?$AA_?$AAs?$AA?$CI?$AAl?$AAc?$AAt?$AAe?$AAm?$AAp?$AA?0?$AA?5?$AA?$CI?$AAs?$AAi?$AAz?$AAe?$AAo?$AAf?$AA?$CI?$AAl?$AAc?$AAt?$AAe?$AAm?$AAp@ 10077ed8     LIBCMTD:wsetloca.obj
 0002:00012f58       ??_C@_1CI@ODOPEMNJ@?$AA_?$AAw?$AAs?$AAe?$AAt?$AAl?$AAo?$AAc?$AAa?$AAl?$AAe?$AA_?$AAs?$AAe?$AAt?$AA_?$AAc?$AAa?$AAt?$AA?$AA@ 10077f58     LIBCMTD:wsetloca.obj
 0002:00012f80       ??_C@_1EM@MHOCNIAA@?$AAw?$AAc?$AAs?$AAc?$AAp?$AAy?$AA_?$AAs?$AA?$CI?$AAp?$AAc?$AAh?$AA_?$AAc?$AAa?$AAt?$AA_?$AAl?$AAo?$AAc?$AAa?$AAl?$AAe?$AA?0?$AA?5?$AAc?$AAc?$AAh?$AA?0?$AA?5?$AAl?$AAc@ 10077f80     LIBCMTD:wsetloca.obj
 0002:00012fcc       ??_C@_13NMPKAAJP@?$AA?$DN?$AA?$AA@ 10077fcc     LIBCMTD:wsetloca.obj
 0002:00012fd0       ??_C@_1CI@LKOPFFBD@?$AA_?$AAw?$AAs?$AAe?$AAt?$AAl?$AAo?$AAc?$AAa?$AAl?$AAe?$AA_?$AAg?$AAe?$AAt?$AA_?$AAa?$AAl?$AAl?$AA?$AA@ 10077fd0     LIBCMTD:wsetloca.obj
 0002:00012ff8       ??_C@_1DC@HMLJMODP@?$AAw?$AAc?$AAs?$AAc?$AAa?$AAt?$AA_?$AAs?$AA?$CI?$AAp?$AAc?$AAh?$AA?0?$AA?5?$AAc?$AAc?$AAh?$AA?0?$AA?5?$AAL?$AA?$CC?$AA?$DL?$AA?$CC?$AA?$CJ?$AA?$AA@ 10077ff8     LIBCMTD:wsetloca.obj
 0002:0001302c       ??_C@_1BM@OIIBLEFG@?$AA_?$AAe?$AAx?$AAp?$AAa?$AAn?$AAd?$AAl?$AAo?$AAc?$AAa?$AAl?$AAe?$AA?$AA@ 1007802c     LIBCMTD:wsetloca.obj
 0002:00013048       ??_C@_1BFG@FHLOBJGM@?$AAw?$AAc?$AAs?$AAn?$AAc?$AAp?$AAy?$AA_?$AAs?$AA?$CI?$AAl?$AAo?$AAc?$AAa?$AAl?$AAe?$AAN?$AAa?$AAm?$AAe?$AAO?$AAu?$AAt?$AAp?$AAu?$AAt?$AA?0?$AA?5?$AAl?$AAo?$AAc?$AAa@ 10078048     LIBCMTD:wsetloca.obj
 0002:000131a0       ??_C@_1EI@OCINLCHN@?$AAw?$AAc?$AAs?$AAc?$AAp?$AAy?$AA_?$AAs?$AA?$CI?$AAo?$AAu?$AAt?$AAp?$AAu?$AAt?$AA?0?$AA?5?$AAs?$AAi?$AAz?$AAe?$AAI?$AAn?$AAC?$AAh?$AAa?$AAr?$AAs?$AA?0?$AA?5?$AAL?$AA?$CC@ 100781a0     LIBCMTD:wsetloca.obj
 0002:000131e8       ??_C@_13FHBKNHDA@?$AAC?$AA?$AA@ 100781e8     LIBCMTD:wsetloca.obj
 0002:000131f0       ??_C@_1MO@NNCNEOAP@?$AAw?$AAc?$AAs?$AAn?$AAc?$AAp?$AAy?$AA_?$AAs?$AA?$CI?$AAl?$AAo?$AAc?$AAa?$AAl?$AAe?$AAN?$AAa?$AAm?$AAe?$AAO?$AAu?$AAt?$AAp?$AAu?$AAt?$AA?0?$AA?5?$AAl?$AAo?$AAc?$AAa@ 100781f0     LIBCMTD:wsetloca.obj
 0002:000132c0       ??_C@_1IG@MKDIEKFD@?$AAw?$AAc?$AAs?$AAn?$AAc?$AAp?$AAy?$AA_?$AAs?$AA?$CI?$AAc?$AAa?$AAc?$AAh?$AAe?$AAo?$AAu?$AAt?$AA?0?$AA?5?$AAc?$AAa?$AAc?$AAh?$AAe?$AAo?$AAu?$AAt?$AAL?$AAe?$AAn?$AA?0@ 100782c0     LIBCMTD:wsetloca.obj
 0002:00013348       ??_C@_1KK@KMIFPBBC@?$AAw?$AAc?$AAs?$AAn?$AAc?$AAp?$AAy?$AA_?$AAs?$AA?$CI?$AAl?$AAo?$AAc?$AAa?$AAl?$AAe?$AAN?$AAa?$AAm?$AAe?$AAO?$AAu?$AAt?$AAp?$AAu?$AAt?$AA?0?$AA?5?$AAl?$AAo?$AAc?$AAa@ 10078348     LIBCMTD:wsetloca.obj
 0002:000133f8       ??_C@_1BEK@OJDMMIMP@?$AAw?$AAc?$AAs?$AAn?$AAc?$AAp?$AAy?$AA_?$AAs?$AA?$CI?$AA_?$AAp?$AAs?$AAe?$AAt?$AAl?$AAo?$AAc?$AA_?$AAd?$AAa?$AAt?$AAa?$AA?9?$AA?$DO?$AA_?$AAc?$AAa?$AAc?$AAh?$AAe?$AAL@ 100783f8     LIBCMTD:wsetloca.obj
 0002:00013548       ??_C@_1BGG@FCLLNAOE@?$AAw?$AAc?$AAs?$AAn?$AAc?$AAp?$AAy?$AA_?$AAs?$AA?$CI?$AA_?$AAp?$AAs?$AAe?$AAt?$AAl?$AAo?$AAc?$AA_?$AAd?$AAa?$AAt?$AAa?$AA?9?$AA?$DO?$AA_?$AAc?$AAa?$AAc?$AAh?$AAe?$AAL@ 10078548     LIBCMTD:wsetloca.obj
 0002:000136b0       ??_C@_1IC@FCCDBGLL@?$AAw?$AAc?$AAs?$AAn?$AAc?$AAp?$AAy?$AA_?$AAs?$AA?$CI?$AAc?$AAa?$AAc?$AAh?$AAe?$AAi?$AAn?$AA?0?$AA?5?$AAc?$AAa?$AAc?$AAh?$AAe?$AAi?$AAn?$AAL?$AAe?$AAn?$AA?0?$AA?5?$AAe@ 100786b0     LIBCMTD:wsetloca.obj
 0002:00013738       ??_C@_1FA@HOOAAHFF@?$AAw?$AAc?$AAs?$AAc?$AAp?$AAy?$AA_?$AAs?$AA?$CI?$AAo?$AAu?$AAt?$AAp?$AAu?$AAt?$AA?0?$AA?5?$AAs?$AAi?$AAz?$AAe?$AAI?$AAn?$AAC?$AAh?$AAa?$AAr?$AAs?$AA?0?$AA?5?$AAc?$AAa@ 10078738     LIBCMTD:wsetloca.obj
 0002:00013788       ??_C@_1BC@LEOKFFML@?$AA_?$AAw?$AAc?$AAs?$AAc?$AAa?$AAt?$AAs?$AA?$AA@ 10078788     LIBCMTD:wsetloca.obj
 0002:000137a0       ??_C@_1BII@IONPPCCF@?$AAw?$AAc?$AAs?$AAc?$AAa?$AAt?$AA_?$AAs?$AA?$CI?$AAo?$AAu?$AAt?$AAs?$AAt?$AAr?$AA?0?$AA?5?$AAn?$AAu?$AAm?$AAb?$AAe?$AAr?$AAO?$AAf?$AAE?$AAl?$AAe?$AAm?$AAe?$AAn?$AAt@ 100787a0     LIBCMTD:wsetloca.obj
 0002:00013928       ??_C@_1BK@GNCHCGCN@?$AA_?$AA_?$AAl?$AAc?$AA_?$AAw?$AAc?$AAs?$AAt?$AAo?$AAl?$AAc?$AA?$AA@ 10078928     LIBCMTD:wsetloca.obj
 0002:00013948       ??_C@_1NI@NELJHJBO@?$AAw?$AAc?$AAs?$AAn?$AAc?$AAp?$AAy?$AA_?$AAs?$AA?$CI?$AAn?$AAa?$AAm?$AAe?$AAs?$AA?9?$AA?$DO?$AAs?$AAz?$AAC?$AAo?$AAd?$AAe?$AAP?$AAa?$AAg?$AAe?$AA?0?$AA?5?$AA?$CI?$AAs?$AAi@ 10078948     LIBCMTD:wsetloca.obj
 0002:00013a20       ??_C@_17MBJJLFDM@?$AA_?$AA?4?$AA?0?$AA?$AA@ 10078a20     LIBCMTD:wsetloca.obj
 0002:00013a28       ??_C@_1MO@PBGOIBFL@?$AAw?$AAc?$AAs?$AAn?$AAc?$AAp?$AAy?$AA_?$AAs?$AA?$CI?$AAn?$AAa?$AAm?$AAe?$AAs?$AA?9?$AA?$DO?$AAs?$AAz?$AAL?$AAa?$AAn?$AAg?$AAu?$AAa?$AAg?$AAe?$AA?0?$AA?5?$AA?$CI?$AAs?$AAi@ 10078a28     LIBCMTD:wsetloca.obj
 0002:00013af8       ??_C@_1MI@CLMFNAAJ@?$AAw?$AAc?$AAs?$AAn?$AAc?$AAp?$AAy?$AA_?$AAs?$AA?$CI?$AAn?$AAa?$AAm?$AAe?$AAs?$AA?9?$AA?$DO?$AAs?$AAz?$AAC?$AAo?$AAu?$AAn?$AAt?$AAr?$AAy?$AA?0?$AA?5?$AA?$CI?$AAs?$AAi?$AAz@ 10078af8     LIBCMTD:wsetloca.obj
 0002:00013bc0       ??_C@_1MO@NBFBMKCB@?$AAw?$AAc?$AAs?$AAn?$AAc?$AAp?$AAy?$AA_?$AAs?$AA?$CI?$AAn?$AAa?$AAm?$AAe?$AAs?$AA?9?$AA?$DO?$AAs?$AAz?$AAC?$AAo?$AAd?$AAe?$AAP?$AAa?$AAg?$AAe?$AA?0?$AA?5?$AA?$CI?$AAs?$AAi@ 10078bc0     LIBCMTD:wsetloca.obj
 0002:00013c90       ??_C@_1BK@HEBMGPEK@?$AA_?$AA_?$AAl?$AAc?$AA_?$AAl?$AAc?$AAt?$AAo?$AAw?$AAc?$AAs?$AA?$AA@ 10078c90     LIBCMTD:wsetloca.obj
 0002:00013cb0       ??_C@_1GM@FOFMGOEK@?$AAw?$AAc?$AAs?$AAc?$AAp?$AAy?$AA_?$AAs?$AA?$CI?$AAl?$AAo?$AAc?$AAa?$AAl?$AAe?$AA?0?$AA?5?$AAn?$AAu?$AAm?$AAb?$AAe?$AAr?$AAO?$AAf?$AAE?$AAl?$AAe?$AAm?$AAe?$AAn?$AAt@ 10078cb0     LIBCMTD:wsetloca.obj
 0002:00013d1c       ??_C@_13ENNFDPBH@?$AA_?$AA?$AA@ 10078d1c     LIBCMTD:wsetloca.obj
 0002:00013d20       ??_C@_13JOFGPIOO@?$AA?4?$AA?$AA@ 10078d20     LIBCMTD:wsetloca.obj
 0002:00013d24       ??_C@_1CG@HCGEAFEA@?$AA_?$AA_?$AAc?$AAo?$AAp?$AAy?$AA_?$AAl?$AAo?$AAc?$AAa?$AAl?$AAe?$AA_?$AAn?$AAa?$AAm?$AAe?$AA?$AA@ 10078d24     LIBCMTD:wsetloca.obj
 0002:00013d50       ??_C@_1GI@HBNMCKGD@?$AAw?$AAc?$AAs?$AAn?$AAc?$AAp?$AAy?$AA_?$AAs?$AA?$CI?$AAl?$AAo?$AAc?$AAa?$AAl?$AAe?$AAN?$AAa?$AAm?$AAe?$AAC?$AAo?$AAp?$AAy?$AA?0?$AA?5?$AAc?$AAc?$AAh?$AA?$CL?$AA1?$AA?0@ 10078d50     LIBCMTD:wsetloca.obj
 0002:00013db8       ___newctype                10078db8     LIBCMTD:ctype.obj
 0002:000140b8       __wctype                   100790b8     LIBCMTD:ctype.obj
 0002:000142c0       ___newclmap                100792c0     LIBCMTD:ctype.obj
 0002:00014440       ___newcumap                10079440     LIBCMTD:ctype.obj
 0002:000145c0       ??_C@_1FG@DIHJFNHH@?$AAf?$AA?3?$AA?2?$AAd?$AAd?$AA?2?$AAv?$AAc?$AAt?$AAo?$AAo?$AAl?$AAs?$AA?2?$AAc?$AAr?$AAt?$AA?2?$AAc?$AAr?$AAt?$AAw?$AA3?$AA2?$AA?2?$AAh?$AA?2?$AAt?$AAm?$AAa?$AAk?$AAe@ 100795c0     LIBCMTD:wmakepath_s.obj
 0002:00014618       ??_C@_1BK@KHBCJPCH@?$AA_?$AAw?$AAm?$AAa?$AAk?$AAe?$AAp?$AAa?$AAt?$AAh?$AA_?$AAs?$AA?$AA@ 10079618     LIBCMTD:wmakepath_s.obj
 0002:00014634       ??_C@_1CI@MLPLHPBP@?$AA?$CI?$AA?$CI?$AA?$CI?$AA_?$AAP?$AAa?$AAt?$AAh?$AA?$CJ?$AA?$CJ?$AA?$CJ?$AA?5?$AA?$CB?$AA?$DN?$AA?5?$AAN?$AAU?$AAL?$AAL?$AA?$AA@ 10079634     LIBCMTD:wsplitpath_s.obj
 0002:00014660       ??_C@_1FI@NIGODNLP@?$AAf?$AA?3?$AA?2?$AAd?$AAd?$AA?2?$AAv?$AAc?$AAt?$AAo?$AAo?$AAl?$AAs?$AA?2?$AAc?$AAr?$AAt?$AA?2?$AAc?$AAr?$AAt?$AAw?$AA3?$AA2?$AA?2?$AAh?$AA?2?$AAt?$AAs?$AAp?$AAl?$AAi@ 10079660     LIBCMTD:wsplitpath_s.obj
 0002:000146b8       ??_C@_1BM@OEAFIBCF@?$AA_?$AAw?$AAs?$AAp?$AAl?$AAi?$AAt?$AAp?$AAa?$AAt?$AAh?$AA_?$AAs?$AA?$AA@ 100796b8     LIBCMTD:wsplitpath_s.obj
 0002:000146d4       ??_C@_1DE@MLEJGPLF@?$AA?$CI?$AAL?$AA?$CC?$AAI?$AAn?$AAv?$AAa?$AAl?$AAi?$AAd?$AA?5?$AAp?$AAa?$AAr?$AAa?$AAm?$AAe?$AAt?$AAe?$AAr?$AA?$CC?$AA?0?$AA?5?$AA0?$AA?$CJ?$AA?$AA@ 100796d4     LIBCMTD:wsplitpath_s.obj
 0002:00014708       ??_C@_1CA@MBDBOHIB@?$AA_?$AAL?$AAo?$AAc?$AAa?$AAl?$AAe?$AA?5?$AA?$CB?$AA?$DN?$AA?5?$AAN?$AAU?$AAL?$AAL?$AA?$AA@ 10079708     LIBCMTD:strgtold.obj
 0002:00014728       ??_C@_1FO@OFJNJPKB@?$AAf?$AA?3?$AA?2?$AAd?$AAd?$AA?2?$AAv?$AAc?$AAt?$AAo?$AAo?$AAl?$AAs?$AA?2?$AAc?$AAr?$AAt?$AA?2?$AAf?$AAp?$AAw?$AA3?$AA2?$AA?2?$AAi?$AAn?$AAc?$AAl?$AAu?$AAd?$AAe?$AA?2@ 10079728     LIBCMTD:strgtold.obj
 0002:00014788       ??_C@_1BO@IHLJHOPI@?$AA_?$AA_?$AAs?$AAt?$AAr?$AAg?$AAt?$AAo?$AAl?$AAd?$AA1?$AA2?$AA_?$AAl?$AA?$AA@ 10079788     LIBCMTD:strgtold.obj
 0002:000147a8       ??_C@_1EO@IKHIJFCK@?$AAf?$AA?3?$AA?2?$AAd?$AAd?$AA?2?$AAv?$AAc?$AAt?$AAo?$AAo?$AAl?$AAs?$AA?2?$AAc?$AAr?$AAt?$AA?2?$AAf?$AAp?$AAw?$AA3?$AA2?$AA?2?$AAc?$AAo?$AAn?$AAv?$AA?2?$AAx?$AA1?$AA0@ 100797a8     LIBCMTD:x10fout.obj
 0002:000147f8       ??_C@_1BI@ELMAAFLN@?$AA$?$AAI?$AA1?$AA0?$AA_?$AAO?$AAU?$AAT?$AAP?$AAU?$AAT?$AA?$AA@ 100797f8     LIBCMTD:x10fout.obj
 0002:00014810       ??_C@_1EG@CDDBFNOB@?$AAs?$AAt?$AAr?$AAc?$AAp?$AAy?$AA_?$AAs?$AA?$CI?$AAf?$AAo?$AAs?$AA?9?$AA?$DO?$AAm?$AAa?$AAn?$AA?0?$AA?5?$AA2?$AA1?$AA?$CL?$AA1?$AA?0?$AA?5?$AA?$CC?$AA1?$AA?$CD?$AAS?$AAN?$AAA?$AAN@ 10079810     LIBCMTD:x10fout.obj
 0002:00014858       ??_C@_06PGGFOGJG@1?$CDSNAN?$AA@ 10079858     LIBCMTD:x10fout.obj
 0002:00014860       ??_C@_1EE@MADEBIHF@?$AAs?$AAt?$AAr?$AAc?$AAp?$AAy?$AA_?$AAs?$AA?$CI?$AAf?$AAo?$AAs?$AA?9?$AA?$DO?$AAm?$AAa?$AAn?$AA?0?$AA?5?$AA2?$AA1?$AA?$CL?$AA1?$AA?0?$AA?5?$AA?$CC?$AA1?$AA?$CD?$AAI?$AAN?$AAD?$AA?$CC@ 10079860     LIBCMTD:x10fout.obj
 0002:000148a4       ??_C@_05PHHOCPM@1?$CDIND?$AA@ 100798a4     LIBCMTD:x10fout.obj
 0002:000148b0       ??_C@_1EE@ICBBBPAI@?$AAs?$AAt?$AAr?$AAc?$AAp?$AAy?$AA_?$AAs?$AA?$CI?$AAf?$AAo?$AAs?$AA?9?$AA?$DO?$AAm?$AAa?$AAn?$AA?0?$AA?5?$AA2?$AA1?$AA?$CL?$AA1?$AA?0?$AA?5?$AA?$CC?$AA1?$AA?$CD?$AAI?$AAN?$AAF?$AA?$CC@ 100798b0     LIBCMTD:x10fout.obj
 0002:000148f4       ??_C@_05DNEBIAHO@1?$CDINF?$AA@ 100798f4     LIBCMTD:x10fout.obj
 0002:00014900       ??_C@_1EG@MCFPJJEM@?$AAs?$AAt?$AAr?$AAc?$AAp?$AAy?$AA_?$AAs?$AA?$CI?$AAf?$AAo?$AAs?$AA?9?$AA?$DO?$AAm?$AAa?$AAn?$AA?0?$AA?5?$AA2?$AA1?$AA?$CL?$AA1?$AA?0?$AA?5?$AA?$CC?$AA1?$AA?$CD?$AAQ?$AAN?$AAA?$AAN@ 10079900     LIBCMTD:x10fout.obj
 0002:00014948       ??_C@_06IMKFLFPG@1?$CDQNAN?$AA@ 10079948     LIBCMTD:x10fout.obj
 0002:00014950       ?commonFlags@?1??_control87@@9@9 10079950     LIBCMTD:ieee87.obj
 0002:00014958       ??_C@_1FG@DINMPAPJ@?$AAf?$AA?3?$AA?2?$AAd?$AAd?$AA?2?$AAv?$AAc?$AAt?$AAo?$AAo?$AAl?$AAs?$AA?2?$AAc?$AAr?$AAt?$AA?2?$AAf?$AAp?$AAw?$AA3?$AA2?$AA?2?$AAt?$AAr?$AAa?$AAn?$AA?2?$AAi?$AA3?$AA8@ 10079958     LIBCMTD:ieee87.obj
 0002:000149b0       ??_C@_1BO@OFDNCLL@?$AA_?$AAs?$AAe?$AAt?$AA_?$AAc?$AAo?$AAn?$AAt?$AAr?$AAo?$AAl?$AAf?$AAp?$AA?$AA@ 100799b0     LIBCMTD:ieee87.obj
 0002:000149d0       ??_C@_1GO@OKJGOMCB@?$AA_?$AAc?$AAo?$AAn?$AAt?$AAr?$AAo?$AAl?$AAf?$AAp?$AA_?$AAs?$AA?$CI?$AA?$CI?$AA?$CI?$AAv?$AAo?$AAi?$AAd?$AA?5?$AA?$CK?$AA?$CJ?$AA0?$AA?$CJ?$AA?0?$AA?5?$AAn?$AAe?$AAw?$AAc?$AAt?$AAr@ 100799d0     LIBCMTD:ieee87.obj
 0002:00014a40       ??_C@_1FC@LLDAFLML@?$AAf?$AA?3?$AA?2?$AAd?$AAd?$AA?2?$AAv?$AAc?$AAt?$AAo?$AAo?$AAl?$AAs?$AA?2?$AAc?$AAr?$AAt?$AA?2?$AAc?$AAr?$AAt?$AAw?$AA3?$AA2?$AA?2?$AAs?$AAt?$AAd?$AAi?$AAo?$AA?2?$AAv@ 10079a40     LIBCMTD:vprintf.obj
 0002:00014a94       ??_C@_1BO@JGFPDJCP@?$AAv?$AAp?$AAr?$AAi?$AAn?$AAt?$AAf?$AA_?$AAh?$AAe?$AAl?$AAp?$AAe?$AAr?$AA?$AA@ 10079a94     LIBCMTD:vprintf.obj
 0002:00014ab4       ??_C@_0CJ@JJMAJPPG@f?3?2dd?2vctools?2crt?2crtw32?2misc?2in@ 10079ab4     LIBCMTD:initctyp.obj
 0002:00014ae0       ??_C@_1FC@OGCCCEID@?$AAf?$AA?3?$AA?2?$AAd?$AAd?$AA?2?$AAv?$AAc?$AAt?$AAo?$AAo?$AAl?$AAs?$AA?2?$AAc?$AAr?$AAt?$AA?2?$AAc?$AAr?$AAt?$AAw?$AA3?$AA2?$AA?2?$AAm?$AAi?$AAs?$AAc?$AA?2?$AAi?$AAn@ 10079ae0     LIBCMTD:initctyp.obj
 0002:00014b34       ??_C@_1DG@NMBGBDM@?$AAp?$AAl?$AAo?$AAc?$AAi?$AA?9?$AA?$DO?$AAc?$AAt?$AAy?$AAp?$AAe?$AA1?$AA_?$AAr?$AAe?$AAf?$AAc?$AAo?$AAu?$AAn?$AAt?$AA?5?$AA?$DO?$AA?5?$AA0?$AA?$AA@ 10079b34     LIBCMTD:initctyp.obj
 0002:00014b6c       ??_C@_1O@HFEBJM@?$AA_?$AAw?$AAo?$AAp?$AAe?$AAn?$AA?$AA@ 10079b6c     LIBCMTD:wopen.obj
 0002:00014b7c       ??_C@_1BO@NAANLDBI@?$AA_?$AAw?$AAs?$AAo?$AAp?$AAe?$AAn?$AA_?$AAh?$AAe?$AAl?$AAp?$AAe?$AAr?$AA?$AA@ 10079b7c     LIBCMTD:wopen.obj
 0002:00014b9c       ??_C@_0M@HHGEPIBF@CreateFile2?$AA@ 10079b9c     LIBCMTD:wopen.obj
 0002:00014ba8       ??_C@_1BO@JMCLMIEA@?$AA_?$AAw?$AAs?$AAo?$AAp?$AAe?$AAn?$AA_?$AAn?$AAo?$AAl?$AAo?$AAc?$AAk?$AA?$AA@ 10079ba8     LIBCMTD:wopen.obj
 0002:00014bc8       ??_C@_1CG@ICBEBDJJ@?$AA_?$AAg?$AAe?$AAt?$AA_?$AAf?$AAm?$AAo?$AAd?$AAe?$AA?$CI?$AA?$CG?$AAf?$AAm?$AAo?$AAd?$AAe?$AA?$CJ?$AA?$AA@ 10079bc8     LIBCMTD:wopen.obj
 0002:00014bf0       ??_C@_1DI@DGKIFCCE@?$AA?$CI?$AA?5?$AA?$CC?$AAI?$AAn?$AAv?$AAa?$AAl?$AAi?$AAd?$AA?5?$AAo?$AAp?$AAe?$AAn?$AA?5?$AAf?$AAl?$AAa?$AAg?$AA?$CC?$AA?5?$AA?0?$AA?5?$AA0?$AA?5?$AA?$CJ?$AA?$AA@ 10079bf0     LIBCMTD:wopen.obj
 0002:00014c28       ??_C@_1DO@PJLMOANO@?$AA?$CI?$AA?5?$AA?$CC?$AAI?$AAn?$AAv?$AAa?$AAl?$AAi?$AAd?$AA?5?$AAs?$AAh?$AAa?$AAr?$AAi?$AAn?$AAg?$AA?5?$AAf?$AAl?$AAa?$AAg?$AA?$CC?$AA?5?$AA?0?$AA?5?$AA0?$AA?5?$AA?$CJ?$AA?$AA@ 10079c28     LIBCMTD:wopen.obj
 0002:00014c68       ??_C@_1HM@GJANBLHJ@?$AA?$CI?$AAo?$AAf?$AAl?$AAa?$AAg?$AA?5?$AA?$CG?$AA?5?$AA?$CI?$AA_?$AAO?$AA_?$AAT?$AAE?$AAX?$AAT?$AA?5?$AA?$HM?$AA?5?$AA_?$AAO?$AA_?$AAW?$AAT?$AAE?$AAX?$AAT?$AA?5?$AA?$HM?$AA?5?$AA_@ 10079c68     LIBCMTD:wopen.obj
 0002:00014ce4       ??_C@_1CM@IDLMKMPG@?$AA0?$AA?5?$AA?$CG?$AA?$CG?$AA?5?$AA?$CC?$AAI?$AAn?$AAt?$AAe?$AAr?$AAn?$AAa?$AAl?$AA?5?$AAE?$AAr?$AAr?$AAo?$AAr?$AA?$CC?$AA?$AA@ 10079ce4     LIBCMTD:wopen.obj
 0002:00014d10       ??_C@_1IA@IENOJNJF@?$AA0?$AA?5?$AA?$CG?$AA?$CG?$AA?5?$AA?$CC?$AAO?$AAn?$AAl?$AAy?$AA?5?$AAU?$AAT?$AAF?$AA?9?$AA1?$AA6?$AA?5?$AAl?$AAi?$AAt?$AAt?$AAl?$AAe?$AA?5?$AAe?$AAn?$AAd?$AAi?$AAa?$AAn?$AA?5@ 10079d10     LIBCMTD:wopen.obj
 0002:00014d90       ??_C@_1FG@NEKCMHCI@?$AAf?$AA?3?$AA?2?$AAd?$AAd?$AA?2?$AAv?$AAc?$AAt?$AAo?$AAo?$AAl?$AAs?$AA?2?$AAc?$AAr?$AAt?$AA?2?$AAc?$AAr?$AAt?$AAw?$AA3?$AA2?$AA?2?$AAs?$AAt?$AAr?$AAi?$AAn?$AAg?$AA?2@ 10079d90     LIBCMTD:strnicmp.obj
 0002:00014de8       ??_C@_1BI@BJLEPLEF@?$AA_?$AAs?$AAt?$AAr?$AAn?$AAi?$AAc?$AAm?$AAp?$AA_?$AAl?$AA?$AA@ 10079de8     LIBCMTD:strnicmp.obj
 0002:00014e00       ??_C@_1CC@JLPHKJPH@?$AAc?$AAo?$AAu?$AAn?$AAt?$AA?5?$AA?$DM?$AA?$DN?$AA?5?$AAI?$AAN?$AAT?$AA_?$AAM?$AAA?$AAX?$AA?$AA@ 10079e00     LIBCMTD:strnicmp.obj
 0002:00014e24       ??_C@_1BE@BHJDFFNA@?$AA_?$AAs?$AAt?$AAr?$AAn?$AAi?$AAc?$AAm?$AAp?$AA?$AA@ 10079e24     LIBCMTD:strnicmp.obj
 0002:00014e38       ??_C@_1BA@BALFACEM@?$AAC?$AAO?$AAN?$AAO?$AAU?$AAT?$AA$?$AA?$AA@ 10079e38     LIBCMTD:initcon.obj
 0002:00014e48       ??_C@_1BK@GDEKGMNC@?$AA_?$AAw?$AAo?$AAu?$AAt?$AAp?$AAu?$AAt?$AA_?$AAp?$AA_?$AAl?$AA?$AA@ 10079e48     LIBCMTD:woutputp.obj
 0002:00014e64       ??_C@_1BK@ONMFGLDB@?$AA_?$AAw?$AAo?$AAu?$AAt?$AAp?$AAu?$AAt?$AA_?$AAs?$AA_?$AAl?$AA?$AA@ 10079e64     LIBCMTD:woutputs.obj
 0002:00014e80       ??_C@_1FA@MCFBMFHP@?$AAf?$AA?3?$AA?2?$AAd?$AAd?$AA?2?$AAv?$AAc?$AAt?$AAo?$AAo?$AAl?$AAs?$AA?2?$AAc?$AAr?$AAt?$AA?2?$AAc?$AAr?$AAt?$AAw?$AA3?$AA2?$AA?2?$AAs?$AAt?$AAd?$AAi?$AAo?$AA?2?$AAf@ 10079e80     LIBCMTD:fputwc.obj
 0002:00014ed0       ??_C@_1O@HJNPHHHB@?$AAf?$AAp?$AAu?$AAt?$AAw?$AAc?$AA?$AA@ 10079ed0     LIBCMTD:fputwc.obj
 0002:00014ee0       ___rg_language             10079ee0     LIBCMTD:getqloc.obj
 0002:000151ec       ??_C@_1BC@LLOKLNP@?$AAa?$AAm?$AAe?$AAr?$AAi?$AAc?$AAa?$AAn?$AA?$AA@ 1007a1ec     LIBCMTD:getqloc.obj
 0002:00015200       ??_C@_1CC@HEIGCDGG@?$AAa?$AAm?$AAe?$AAr?$AAi?$AAc?$AAa?$AAn?$AA?5?$AAe?$AAn?$AAg?$AAl?$AAi?$AAs?$AAh?$AA?$AA@ 1007a200     LIBCMTD:getqloc.obj
 0002:00015224       ??_C@_1CC@IHCNOMIN@?$AAa?$AAm?$AAe?$AAr?$AAi?$AAc?$AAa?$AAn?$AA?9?$AAe?$AAn?$AAg?$AAl?$AAi?$AAs?$AAh?$AA?$AA@ 1007a224     LIBCMTD:getqloc.obj
 0002:00015248       ??_C@_1BG@GKAGPCGG@?$AAa?$AAu?$AAs?$AAt?$AAr?$AAa?$AAl?$AAi?$AAa?$AAn?$AA?$AA@ 1007a248     LIBCMTD:getqloc.obj
 0002:00015260       ??_C@_1BA@GMENCENF@?$AAb?$AAe?$AAl?$AAg?$AAi?$AAa?$AAn?$AA?$AA@ 1007a260     LIBCMTD:getqloc.obj
 0002:00015270       ??_C@_1BC@PJMIIAAN@?$AAc?$AAa?$AAn?$AAa?$AAd?$AAi?$AAa?$AAn?$AA?$AA@ 1007a270     LIBCMTD:getqloc.obj
 0002:00015284       ??_C@_17NOIMNFBF@?$AAc?$AAh?$AAh?$AA?$AA@ 1007a284     LIBCMTD:getqloc.obj
 0002:0001528c       ??_C@_17GGDALCHA@?$AAc?$AAh?$AAi?$AA?$AA@ 1007a28c     LIBCMTD:getqloc.obj
 0002:00015294       ??_C@_1BA@NPNJKIBL@?$AAc?$AAh?$AAi?$AAn?$AAe?$AAs?$AAe?$AA?$AA@ 1007a294     LIBCMTD:getqloc.obj
 0002:000152a4       ??_C@_1CC@DINBAMMJ@?$AAc?$AAh?$AAi?$AAn?$AAe?$AAs?$AAe?$AA?9?$AAh?$AAo?$AAn?$AAg?$AAk?$AAo?$AAn?$AAg?$AA?$AA@ 1007a2a4     LIBCMTD:getqloc.obj
 0002:000152c8       ??_C@_1CG@IOBJPACO@?$AAc?$AAh?$AAi?$AAn?$AAe?$AAs?$AAe?$AA?9?$AAs?$AAi?$AAm?$AAp?$AAl?$AAi?$AAf?$AAi?$AAe?$AAd?$AA?$AA@ 1007a2c8     LIBCMTD:getqloc.obj
 0002:000152f0       ??_C@_1CE@GAJNDCKG@?$AAc?$AAh?$AAi?$AAn?$AAe?$AAs?$AAe?$AA?9?$AAs?$AAi?$AAn?$AAg?$AAa?$AAp?$AAo?$AAr?$AAe?$AA?$AA@ 1007a2f0     LIBCMTD:getqloc.obj
 0002:00015314       ??_C@_1CI@PAJPIOOD@?$AAc?$AAh?$AAi?$AAn?$AAe?$AAs?$AAe?$AA?9?$AAt?$AAr?$AAa?$AAd?$AAi?$AAt?$AAi?$AAo?$AAn?$AAa?$AAl?$AA?$AA@ 1007a314     LIBCMTD:getqloc.obj
 0002:0001533c       ??_C@_1BM@NILJBMMD@?$AAd?$AAu?$AAt?$AAc?$AAh?$AA?9?$AAb?$AAe?$AAl?$AAg?$AAi?$AAa?$AAn?$AA?$AA@ 1007a33c     LIBCMTD:getqloc.obj
 0002:00015358       ??_C@_1CC@OOJPJNEJ@?$AAe?$AAn?$AAg?$AAl?$AAi?$AAs?$AAh?$AA?9?$AAa?$AAm?$AAe?$AAr?$AAi?$AAc?$AAa?$AAn?$AA?$AA@ 1007a358     LIBCMTD:getqloc.obj
 0002:0001537c       ??_C@_1BI@IOLFEEM@?$AAe?$AAn?$AAg?$AAl?$AAi?$AAs?$AAh?$AA?9?$AAa?$AAu?$AAs?$AA?$AA@ 1007a37c     LIBCMTD:getqloc.obj
 0002:00015394       ??_C@_1BO@HFFNLENJ@?$AAe?$AAn?$AAg?$AAl?$AAi?$AAs?$AAh?$AA?9?$AAb?$AAe?$AAl?$AAi?$AAz?$AAe?$AA?$AA@ 1007a394     LIBCMTD:getqloc.obj
 0002:000153b4       ??_C@_1BI@HAPKJMPO@?$AAe?$AAn?$AAg?$AAl?$AAi?$AAs?$AAh?$AA?9?$AAc?$AAa?$AAn?$AA?$AA@ 1007a3b4     LIBCMTD:getqloc.obj
 0002:000153cc       ??_C@_1CE@HLNDMIOJ@?$AAe?$AAn?$AAg?$AAl?$AAi?$AAs?$AAh?$AA?9?$AAc?$AAa?$AAr?$AAi?$AAb?$AAb?$AAe?$AAa?$AAn?$AA?$AA@ 1007a3cc     LIBCMTD:getqloc.obj
 0002:000153f0       ??_C@_1BI@LDHJHHAC@?$AAe?$AAn?$AAg?$AAl?$AAi?$AAs?$AAh?$AA?9?$AAi?$AAr?$AAe?$AA?$AA@ 1007a3f0     LIBCMTD:getqloc.obj
 0002:00015408       ??_C@_1CA@NJMMCFOC@?$AAe?$AAn?$AAg?$AAl?$AAi?$AAs?$AAh?$AA?9?$AAj?$AAa?$AAm?$AAa?$AAi?$AAc?$AAa?$AA?$AA@ 1007a408     LIBCMTD:getqloc.obj
 0002:00015428       ??_C@_1BG@BHJEBBGG@?$AAe?$AAn?$AAg?$AAl?$AAi?$AAs?$AAh?$AA?9?$AAn?$AAz?$AA?$AA@ 1007a428     LIBCMTD:getqloc.obj
 0002:00015440       ??_C@_1CK@FGOEJJCO@?$AAe?$AAn?$AAg?$AAl?$AAi?$AAs?$AAh?$AA?9?$AAs?$AAo?$AAu?$AAt?$AAh?$AA?5?$AAa?$AAf?$AAr?$AAi?$AAc?$AAa?$AA?$AA@ 1007a440     LIBCMTD:getqloc.obj
 0002:0001546c       ??_C@_1DE@PDBJPCJ@?$AAe?$AAn?$AAg?$AAl?$AAi?$AAs?$AAh?$AA?9?$AAt?$AAr?$AAi?$AAn?$AAi?$AAd?$AAa?$AAd?$AA?5?$AAy?$AA?5?$AAt?$AAo?$AAb?$AAa?$AAg?$AAo?$AA?$AA@ 1007a46c     LIBCMTD:getqloc.obj
 0002:000154a0       ??_C@_1BG@JGCANDME@?$AAe?$AAn?$AAg?$AAl?$AAi?$AAs?$AAh?$AA?9?$AAu?$AAk?$AA?$AA@ 1007a4a0     LIBCMTD:getqloc.obj
 0002:000154b8       ??_C@_1BG@DINKMLE@?$AAe?$AAn?$AAg?$AAl?$AAi?$AAs?$AAh?$AA?9?$AAu?$AAs?$AA?$AA@ 1007a4b8     LIBCMTD:getqloc.obj
 0002:000154d0       ??_C@_1BI@NMFDBHJE@?$AAe?$AAn?$AAg?$AAl?$AAi?$AAs?$AAh?$AA?9?$AAu?$AAs?$AAa?$AA?$AA@ 1007a4d0     LIBCMTD:getqloc.obj
 0002:000154e8       ??_C@_1BO@OIHKJKII@?$AAf?$AAr?$AAe?$AAn?$AAc?$AAh?$AA?9?$AAb?$AAe?$AAl?$AAg?$AAi?$AAa?$AAn?$AA?$AA@ 1007a4e8     LIBCMTD:getqloc.obj
 0002:00015508       ??_C@_1CA@NKAELJKI@?$AAf?$AAr?$AAe?$AAn?$AAc?$AAh?$AA?9?$AAc?$AAa?$AAn?$AAa?$AAd?$AAi?$AAa?$AAn?$AA?$AA@ 1007a508     LIBCMTD:getqloc.obj
 0002:00015528       ??_C@_1CE@MGKCNLGN@?$AAf?$AAr?$AAe?$AAn?$AAc?$AAh?$AA?9?$AAl?$AAu?$AAx?$AAe?$AAm?$AAb?$AAo?$AAu?$AAr?$AAg?$AA?$AA@ 1007a528     LIBCMTD:getqloc.obj
 0002:0001554c       ??_C@_1BK@CEGEAILM@?$AAf?$AAr?$AAe?$AAn?$AAc?$AAh?$AA?9?$AAs?$AAw?$AAi?$AAs?$AAs?$AA?$AA@ 1007a54c     LIBCMTD:getqloc.obj
 0002:00015568       ??_C@_1CA@PAFKEOCC@?$AAg?$AAe?$AAr?$AAm?$AAa?$AAn?$AA?9?$AAa?$AAu?$AAs?$AAt?$AAr?$AAi?$AAa?$AAn?$AA?$AA@ 1007a568     LIBCMTD:getqloc.obj
 0002:00015588       ??_C@_1CI@HCFHGOFD@?$AAg?$AAe?$AAr?$AAm?$AAa?$AAn?$AA?9?$AAl?$AAi?$AAc?$AAh?$AAt?$AAe?$AAn?$AAs?$AAt?$AAe?$AAi?$AAn?$AA?$AA@ 1007a588     LIBCMTD:getqloc.obj
 0002:000155b0       ??_C@_1CE@FEDDNPDG@?$AAg?$AAe?$AAr?$AAm?$AAa?$AAn?$AA?9?$AAl?$AAu?$AAx?$AAe?$AAm?$AAb?$AAo?$AAu?$AAr?$AAg?$AA?$AA@ 1007a5b0     LIBCMTD:getqloc.obj
 0002:000155d4       ??_C@_1BK@LIMINNMN@?$AAg?$AAe?$AAr?$AAm?$AAa?$AAn?$AA?9?$AAs?$AAw?$AAi?$AAs?$AAs?$AA?$AA@ 1007a5d4     LIBCMTD:getqloc.obj
 0002:000155f0       ??_C@_1BM@LGMDBEPD@?$AAi?$AAr?$AAi?$AAs?$AAh?$AA?9?$AAe?$AAn?$AAg?$AAl?$AAi?$AAs?$AAh?$AA?$AA@ 1007a5f0     LIBCMTD:getqloc.obj
 0002:0001560c       ??_C@_1BM@NNCFBAEE@?$AAi?$AAt?$AAa?$AAl?$AAi?$AAa?$AAn?$AA?9?$AAs?$AAw?$AAi?$AAs?$AAs?$AA?$AA@ 1007a60c     LIBCMTD:getqloc.obj
 0002:00015628       ??_C@_1BE@FEDJNPIB@?$AAn?$AAo?$AAr?$AAw?$AAe?$AAg?$AAi?$AAa?$AAn?$AA?$AA@ 1007a628     LIBCMTD:getqloc.obj
 0002:0001563c       ??_C@_1CC@CILKDEIE@?$AAn?$AAo?$AAr?$AAw?$AAe?$AAg?$AAi?$AAa?$AAn?$AA?9?$AAb?$AAo?$AAk?$AAm?$AAa?$AAl?$AA?$AA@ 1007a63c     LIBCMTD:getqloc.obj
 0002:00015660       ??_C@_1CE@DHMMHEPL@?$AAn?$AAo?$AAr?$AAw?$AAe?$AAg?$AAi?$AAa?$AAn?$AA?9?$AAn?$AAy?$AAn?$AAo?$AAr?$AAs?$AAk?$AA?$AA@ 1007a660     LIBCMTD:getqloc.obj
 0002:00015684       ??_C@_1CK@OPNMHECD@?$AAp?$AAo?$AAr?$AAt?$AAu?$AAg?$AAu?$AAe?$AAs?$AAe?$AA?9?$AAb?$AAr?$AAa?$AAz?$AAi?$AAl?$AAi?$AAa?$AAn?$AA?$AA@ 1007a684     LIBCMTD:getqloc.obj
 0002:000156b0       ??_C@_1CE@KEEHCDB@?$AAs?$AAp?$AAa?$AAn?$AAi?$AAs?$AAh?$AA?9?$AAa?$AAr?$AAg?$AAe?$AAn?$AAt?$AAi?$AAn?$AAa?$AA?$AA@ 1007a6b0     LIBCMTD:getqloc.obj
 0002:000156d4       ??_C@_1CA@GIAOLHJD@?$AAs?$AAp?$AAa?$AAn?$AAi?$AAs?$AAh?$AA?9?$AAb?$AAo?$AAl?$AAi?$AAv?$AAi?$AAa?$AA?$AA@ 1007a6d4     LIBCMTD:getqloc.obj
 0002:000156f4       ??_C@_1BM@OJNDFNPD@?$AAs?$AAp?$AAa?$AAn?$AAi?$AAs?$AAh?$AA?9?$AAc?$AAh?$AAi?$AAl?$AAe?$AA?$AA@ 1007a6f4     LIBCMTD:getqloc.obj
 0002:00015710       ??_C@_1CC@OCOLPALL@?$AAs?$AAp?$AAa?$AAn?$AAi?$AAs?$AAh?$AA?9?$AAc?$AAo?$AAl?$AAo?$AAm?$AAb?$AAi?$AAa?$AA?$AA@ 1007a710     LIBCMTD:getqloc.obj
 0002:00015734       ??_C@_1CG@BPOFMKBB@?$AAs?$AAp?$AAa?$AAn?$AAi?$AAs?$AAh?$AA?9?$AAc?$AAo?$AAs?$AAt?$AAa?$AA?5?$AAr?$AAi?$AAc?$AAa?$AA?$AA@ 1007a734     LIBCMTD:getqloc.obj
 0002:0001575c       ??_C@_1DG@IGOBAPBB@?$AAs?$AAp?$AAa?$AAn?$AAi?$AAs?$AAh?$AA?9?$AAd?$AAo?$AAm?$AAi?$AAn?$AAi?$AAc?$AAa?$AAn?$AA?5?$AAr?$AAe?$AAp?$AAu?$AAb?$AAl?$AAi?$AAc?$AA?$AA@ 1007a75c     LIBCMTD:getqloc.obj
 0002:00015794       ??_C@_1CA@JHAPGEGI@?$AAs?$AAp?$AAa?$AAn?$AAi?$AAs?$AAh?$AA?9?$AAe?$AAc?$AAu?$AAa?$AAd?$AAo?$AAr?$AA?$AA@ 1007a794     LIBCMTD:getqloc.obj
 0002:000157b4       ??_C@_1CI@LAPALJPP@?$AAs?$AAp?$AAa?$AAn?$AAi?$AAs?$AAh?$AA?9?$AAe?$AAl?$AA?5?$AAs?$AAa?$AAl?$AAv?$AAa?$AAd?$AAo?$AAr?$AA?$AA@ 1007a7b4     LIBCMTD:getqloc.obj
 0002:000157dc       ??_C@_1CE@PDGBOFOM@?$AAs?$AAp?$AAa?$AAn?$AAi?$AAs?$AAh?$AA?9?$AAg?$AAu?$AAa?$AAt?$AAe?$AAm?$AAa?$AAl?$AAa?$AA?$AA@ 1007a7dc     LIBCMTD:getqloc.obj
 0002:00015800       ??_C@_1CC@NBEBAODI@?$AAs?$AAp?$AAa?$AAn?$AAi?$AAs?$AAh?$AA?9?$AAh?$AAo?$AAn?$AAd?$AAu?$AAr?$AAa?$AAs?$AA?$AA@ 1007a800     LIBCMTD:getqloc.obj
 0002:00015824       ??_C@_1CA@LLKGHBMF@?$AAs?$AAp?$AAa?$AAn?$AAi?$AAs?$AAh?$AA?9?$AAm?$AAe?$AAx?$AAi?$AAc?$AAa?$AAn?$AA?$AA@ 1007a824     LIBCMTD:getqloc.obj
 0002:00015844       ??_C@_1BO@LKNDOIGD@?$AAs?$AAp?$AAa?$AAn?$AAi?$AAs?$AAh?$AA?9?$AAm?$AAo?$AAd?$AAe?$AAr?$AAn?$AA?$AA@ 1007a844     LIBCMTD:getqloc.obj
 0002:00015864       ??_C@_1CE@NMDMOEEB@?$AAs?$AAp?$AAa?$AAn?$AAi?$AAs?$AAh?$AA?9?$AAn?$AAi?$AAc?$AAa?$AAr?$AAa?$AAg?$AAu?$AAa?$AA?$AA@ 1007a864     LIBCMTD:getqloc.obj
 0002:00015888       ??_C@_1BO@LLCBEJGB@?$AAs?$AAp?$AAa?$AAn?$AAi?$AAs?$AAh?$AA?9?$AAp?$AAa?$AAn?$AAa?$AAm?$AAa?$AA?$AA@ 1007a888     LIBCMTD:getqloc.obj
 0002:000158a8       ??_C@_1CC@FKPGGIHO@?$AAs?$AAp?$AAa?$AAn?$AAi?$AAs?$AAh?$AA?9?$AAp?$AAa?$AAr?$AAa?$AAg?$AAu?$AAa?$AAy?$AA?$AA@ 1007a8a8     LIBCMTD:getqloc.obj
 0002:000158cc       ??_C@_1BK@CDEIHOOP@?$AAs?$AAp?$AAa?$AAn?$AAi?$AAs?$AAh?$AA?9?$AAp?$AAe?$AAr?$AAu?$AA?$AA@ 1007a8cc     LIBCMTD:getqloc.obj
 0002:000158e8       ??_C@_1CI@GAHAKKGP@?$AAs?$AAp?$AAa?$AAn?$AAi?$AAs?$AAh?$AA?9?$AAp?$AAu?$AAe?$AAr?$AAt?$AAo?$AA?5?$AAr?$AAi?$AAc?$AAo?$AA?$AA@ 1007a8e8     LIBCMTD:getqloc.obj
 0002:00015910       ??_C@_1CA@NKJBCAGP@?$AAs?$AAp?$AAa?$AAn?$AAi?$AAs?$AAh?$AA?9?$AAu?$AAr?$AAu?$AAg?$AAu?$AAa?$AAy?$AA?$AA@ 1007a910     LIBCMTD:getqloc.obj
 0002:00015930       ??_C@_1CE@ODILCONM@?$AAs?$AAp?$AAa?$AAn?$AAi?$AAs?$AAh?$AA?9?$AAv?$AAe?$AAn?$AAe?$AAz?$AAu?$AAe?$AAl?$AAa?$AA?$AA@ 1007a930     LIBCMTD:getqloc.obj
 0002:00015954       ??_C@_1CA@OBNMCGFO@?$AAs?$AAw?$AAe?$AAd?$AAi?$AAs?$AAh?$AA?9?$AAf?$AAi?$AAn?$AAl?$AAa?$AAn?$AAd?$AA?$AA@ 1007a954     LIBCMTD:getqloc.obj
 0002:00015974       ??_C@_1M@PIPDDPPI@?$AAs?$AAw?$AAi?$AAs?$AAs?$AA?$AA@ 1007a974     LIBCMTD:getqloc.obj
 0002:00015980       ??_C@_15GMFIMNFM@?$AAu?$AAs?$AA?$AA@ 1007a980     LIBCMTD:getqloc.obj
 0002:00015988       ??_C@_17HAEBFAGL@?$AAu?$AAs?$AAa?$AA?$AA@ 1007a988     LIBCMTD:getqloc.obj
 0002:00015990       ___rg_country              1007a990     LIBCMTD:getqloc.obj
 0002:00015aa4       ??_C@_1BA@DPFJEPHB@?$AAa?$AAm?$AAe?$AAr?$AAi?$AAc?$AAa?$AA?$AA@ 1007aaa4     LIBCMTD:getqloc.obj
 0002:00015ab4       ??_C@_1BA@ELOGGFK@?$AAb?$AAr?$AAi?$AAt?$AAa?$AAi?$AAn?$AA?$AA@ 1007aab4     LIBCMTD:getqloc.obj
 0002:00015ac4       ??_C@_1M@GHBGIGDA@?$AAc?$AAh?$AAi?$AAn?$AAa?$AA?$AA@ 1007aac4     LIBCMTD:getqloc.obj
 0002:00015ad0       ??_C@_1M@NCHEJOPO@?$AAc?$AAz?$AAe?$AAc?$AAh?$AA?$AA@ 1007aad0     LIBCMTD:getqloc.obj
 0002:00015adc       ??_C@_1BA@BKPAPBLA@?$AAe?$AAn?$AAg?$AAl?$AAa?$AAn?$AAd?$AA?$AA@ 1007aadc     LIBCMTD:getqloc.obj
 0002:00015aec       ??_C@_1BM@HKBCKIPC@?$AAg?$AAr?$AAe?$AAa?$AAt?$AA?5?$AAb?$AAr?$AAi?$AAt?$AAa?$AAi?$AAn?$AA?$AA@ 1007aaec     LIBCMTD:getqloc.obj
 0002:00015b08       ??_C@_1BA@PPCHPGJB@?$AAh?$AAo?$AAl?$AAl?$AAa?$AAn?$AAd?$AA?$AA@ 1007ab08     LIBCMTD:getqloc.obj
 0002:00015b18       ??_C@_1BE@JBMPEGDG@?$AAh?$AAo?$AAn?$AAg?$AA?9?$AAk?$AAo?$AAn?$AAg?$AA?$AA@ 1007ab18     LIBCMTD:getqloc.obj
 0002:00015b2c       ??_C@_1BI@KOELBBPJ@?$AAn?$AAe?$AAw?$AA?9?$AAz?$AAe?$AAa?$AAl?$AAa?$AAn?$AAd?$AA?$AA@ 1007ab2c     LIBCMTD:getqloc.obj
 0002:00015b44       ??_C@_15HIEBHAIO@?$AAn?$AAz?$AA?$AA@ 1007ab44     LIBCMTD:getqloc.obj
 0002:00015b4c       ??_C@_1BC@CHBCPFPI@?$AAp?$AAr?$AA?5?$AAc?$AAh?$AAi?$AAn?$AAa?$AA?$AA@ 1007ab4c     LIBCMTD:getqloc.obj
 0002:00015b60       ??_C@_1BC@JAOIIFKD@?$AAp?$AAr?$AA?9?$AAc?$AAh?$AAi?$AAn?$AAa?$AA?$AA@ 1007ab60     LIBCMTD:getqloc.obj
 0002:00015b74       ??_C@_1BI@BEHPPHKC@?$AAp?$AAu?$AAe?$AAr?$AAt?$AAo?$AA?9?$AAr?$AAi?$AAc?$AAo?$AA?$AA@ 1007ab74     LIBCMTD:getqloc.obj
 0002:00015b8c       ??_C@_1O@PAEOFKDI@?$AAs?$AAl?$AAo?$AAv?$AAa?$AAk?$AA?$AA@ 1007ab8c     LIBCMTD:getqloc.obj
 0002:00015b9c       ??_C@_1BK@FIHMCKAM@?$AAs?$AAo?$AAu?$AAt?$AAh?$AA?5?$AAa?$AAf?$AAr?$AAi?$AAc?$AAa?$AA?$AA@ 1007ab9c     LIBCMTD:getqloc.obj
 0002:00015bb8       ??_C@_1BI@NAEOODKB@?$AAs?$AAo?$AAu?$AAt?$AAh?$AA?5?$AAk?$AAo?$AAr?$AAe?$AAa?$AA?$AA@ 1007abb8     LIBCMTD:getqloc.obj
 0002:00015bd0       ??_C@_1BK@FBDGGIFF@?$AAs?$AAo?$AAu?$AAt?$AAh?$AA?9?$AAa?$AAf?$AAr?$AAi?$AAc?$AAa?$AA?$AA@ 1007abd0     LIBCMTD:getqloc.obj
 0002:00015bec       ??_C@_1BI@GHLEJDPK@?$AAs?$AAo?$AAu?$AAt?$AAh?$AA?9?$AAk?$AAo?$AAr?$AAe?$AAa?$AA?$AA@ 1007abec     LIBCMTD:getqloc.obj
 0002:00015c04       ??_C@_1CE@PLHLOMJF@?$AAt?$AAr?$AAi?$AAn?$AAi?$AAd?$AAa?$AAd?$AA?5?$AA?$CG?$AA?5?$AAt?$AAo?$AAb?$AAa?$AAg?$AAo?$AA?$AA@ 1007ac04     LIBCMTD:getqloc.obj
 0002:00015c28       ??_C@_1BO@MODIMHHI@?$AAu?$AAn?$AAi?$AAt?$AAe?$AAd?$AA?9?$AAk?$AAi?$AAn?$AAg?$AAd?$AAo?$AAm?$AA?$AA@ 1007ac28     LIBCMTD:getqloc.obj
 0002:00015c48       ??_C@_1BM@FFHJONBJ@?$AAu?$AAn?$AAi?$AAt?$AAe?$AAd?$AA?9?$AAs?$AAt?$AAa?$AAt?$AAe?$AAs?$AA?$AA@ 1007ac48     LIBCMTD:getqloc.obj
 0002:00015c64       ___rg_language_count       1007ac64     LIBCMTD:getqloc.obj
 0002:00015c68       ___rg_country_count        1007ac68     LIBCMTD:getqloc.obj
 0002:00015c70       ??_C@_1FA@KCJCBMIG@?$AAf?$AA?3?$AA?2?$AAd?$AAd?$AA?2?$AAv?$AAc?$AAt?$AAo?$AAo?$AAl?$AAs?$AA?2?$AAc?$AAr?$AAt?$AA?2?$AAc?$AAr?$AAt?$AAw?$AA3?$AA2?$AA?2?$AAm?$AAi?$AAs?$AAc?$AA?2?$AAg?$AAe@ 1007ac70     LIBCMTD:getqloc.obj
 0002:00015cc0       ??_C@_1CO@NJACLALJ@?$AA_?$AA_?$AAg?$AAe?$AAt?$AA_?$AAq?$AAu?$AAa?$AAl?$AAi?$AAf?$AAi?$AAe?$AAd?$AA_?$AAl?$AAo?$AAc?$AAa?$AAl?$AAe?$AA?$AA@ 1007acc0     LIBCMTD:getqloc.obj
 0002:00015cf0       ??_C@_1BGM@FCCPEFDE@?$AAw?$AAc?$AAs?$AAn?$AAc?$AAp?$AAy?$AA_?$AAs?$AA?$CI?$AAl?$AAp?$AAO?$AAu?$AAt?$AAS?$AAt?$AAr?$AA?9?$AA?$DO?$AAs?$AAz?$AAL?$AAo?$AAc?$AAa?$AAl?$AAe?$AAN?$AAa?$AAm?$AAe@ 1007acf0     LIBCMTD:getqloc.obj
 0002:00015e5c       ??_C@_1CM@OGEMFJNJ@?$AAL?$AAa?$AAn?$AAg?$AAC?$AAo?$AAu?$AAn?$AAt?$AAr?$AAy?$AAE?$AAn?$AAu?$AAm?$AAP?$AAr?$AAo?$AAc?$AAE?$AAx?$AA?$AA@ 1007ae5c     LIBCMTD:getqloc.obj
 0002:00015e88       ??_C@_1BFO@LLJKJAIC@?$AAw?$AAc?$AAs?$AAn?$AAc?$AAp?$AAy?$AA_?$AAs?$AA?$CI?$AA_?$AAp?$AAs?$AAe?$AAt?$AAl?$AAo?$AAc?$AA_?$AAd?$AAa?$AAt?$AAa?$AA?9?$AA?$DO?$AA_?$AAc?$AAa?$AAc?$AAh?$AAe?$AAL@ 1007ae88     LIBCMTD:getqloc.obj
 0002:00015fe8       ??_C@_1CG@PGLLICHO@?$AAL?$AAa?$AAn?$AAg?$AAu?$AAa?$AAg?$AAe?$AAE?$AAn?$AAu?$AAm?$AAP?$AAr?$AAo?$AAc?$AAE?$AAx?$AA?$AA@ 1007afe8     LIBCMTD:getqloc.obj
 0002:00016010       ??_C@_1DC@CPKFANGP@?$AAG?$AAe?$AAt?$AAL?$AAo?$AAc?$AAa?$AAl?$AAe?$AAN?$AAa?$AAm?$AAe?$AAF?$AAr?$AAo?$AAm?$AAD?$AAe?$AAf?$AAa?$AAu?$AAl?$AAt?$AA?$AA@ 1007b010     LIBCMTD:getqloc.obj
 0002:00016048       ??_C@_1BEO@EJBNGKHB@?$AAw?$AAc?$AAs?$AAn?$AAc?$AAp?$AAy?$AA_?$AAs?$AA?$CI?$AA_?$AAp?$AAs?$AAe?$AAt?$AAl?$AAo?$AAc?$AA_?$AAd?$AAa?$AAt?$AAa?$AA?9?$AA?$DO?$AA_?$AAc?$AAa?$AAc?$AAh?$AAe?$AAL@ 1007b048     LIBCMTD:getqloc.obj
 0002:00016198       ??_C@_17DNCLJFIF@?$AAA?$AAC?$AAP?$AA?$AA@ 1007b198     LIBCMTD:getqloc.obj
 0002:000161a0       ??_C@_17CIKBIHLH@?$AAO?$AAC?$AAP?$AA?$AA@ 1007b1a0     LIBCMTD:getqloc.obj
 0002:000161a8       ___rglangidNotDefault      1007b1a8     LIBCMTD:getqloc_downlevel.obj
 0002:000161c0       ??_C@_1FE@JDMNKKN@?$AAf?$AA?3?$AA?2?$AAd?$AAd?$AA?2?$AAv?$AAc?$AAt?$AAo?$AAo?$AAl?$AAs?$AA?2?$AAc?$AAr?$AAt?$AA?2?$AAc?$AAr?$AAt?$AAw?$AA3?$AA2?$AA?2?$AAc?$AAo?$AAn?$AAv?$AAe?$AAr?$AAt@ 1007b1c0     LIBCMTD:strtoq.obj
 0002:00016214       ??_C@_1BA@BMMDEPNE@?$AAs?$AAt?$AAr?$AAt?$AAo?$AAx?$AAq?$AA?$AA@ 1007b214     LIBCMTD:strtoq.obj
 0002:00016228       ??_C@_1FA@FLOICDHO@?$AAf?$AA?3?$AA?2?$AAd?$AAd?$AA?2?$AAv?$AAc?$AAt?$AAo?$AAo?$AAl?$AAs?$AA?2?$AAc?$AAr?$AAt?$AA?2?$AAc?$AAr?$AAt?$AAw?$AA3?$AA2?$AA?2?$AAl?$AAo?$AAw?$AAi?$AAo?$AA?2?$AAc@ 1007b228     LIBCMTD:chsize.obj
 0002:00016278       ??_C@_1BE@MAFDNGED@?$AA_?$AAc?$AAh?$AAs?$AAi?$AAz?$AAe?$AA_?$AAs?$AA?$AA@ 1007b278     LIBCMTD:chsize.obj
 0002:0001628c       ??_C@_1BI@GALBKMKE@?$AA?$CI?$AAs?$AAi?$AAz?$AAe?$AA?5?$AA?$DO?$AA?$DN?$AA?5?$AA0?$AA?$CJ?$AA?$AA@ 1007b28c     LIBCMTD:chsize.obj
 0002:000162a8       ??_C@_1OA@HGPJIFPM@?$AA?$CI?$AA?$CI?$AAm?$AAo?$AAd?$AAe?$AA?5?$AA?$DN?$AA?$DN?$AA?5?$AA_?$AAO?$AA_?$AAT?$AAE?$AAX?$AAT?$AA?$CJ?$AA?5?$AA?$HM?$AA?$HM?$AA?5?$AA?$CI?$AAm?$AAo?$AAd?$AAe?$AA?5?$AA?$DN?$AA?$DN?$AA?5?$AA_@ 1007b2a8     LIBCMTD:setmode.obj
 0002:00016388       ??_C@_1FC@HBDIADHE@?$AAf?$AA?3?$AA?2?$AAd?$AAd?$AA?2?$AAv?$AAc?$AAt?$AAo?$AAo?$AAl?$AAs?$AA?2?$AAc?$AAr?$AAt?$AA?2?$AAc?$AAr?$AAt?$AAw?$AA3?$AA2?$AA?2?$AAl?$AAo?$AAw?$AAi?$AAo?$AA?2?$AAs@ 1007b388     LIBCMTD:setmode.obj
 0002:000163dc       ??_C@_1BC@JBGGJDCM@?$AA_?$AAs?$AAe?$AAt?$AAm?$AAo?$AAd?$AAe?$AA?$AA@ 1007b3dc     LIBCMTD:setmode.obj
 0002:000163f0       ??_C@_1IC@NDCJMLB@?$AA?$CI?$AA?$CI?$AAm?$AAo?$AAd?$AAe?$AA?5?$AA?$DN?$AA?$DN?$AA?5?$AA_?$AAO?$AA_?$AAT?$AAE?$AAX?$AAT?$AA?$CJ?$AA?5?$AA?$HM?$AA?$HM?$AA?5?$AA?$CI?$AAm?$AAo?$AAd?$AAe?$AA?5?$AA?$DN?$AA?$DN?$AA?5?$AA_@ 1007b3f0     LIBCMTD:setmode.obj
 0002:00016474       ??_C@_1BG@IEEHLOCL@?$AA_?$AAs?$AAe?$AAt?$AA_?$AAf?$AAm?$AAo?$AAd?$AAe?$AA?$AA@ 1007b474     LIBCMTD:setmode.obj
 0002:0001648c       ??_C@_1CA@GPIGPPFN@?$AA?$CI?$AAp?$AAM?$AAo?$AAd?$AAe?$AA?5?$AA?$CB?$AA?$DN?$AA?5?$AAN?$AAU?$AAL?$AAL?$AA?$CJ?$AA?$AA@ 1007b48c     LIBCMTD:setmode.obj
 0002:000164ac       ??_C@_1BG@CKGMPOFH@?$AA_?$AAg?$AAe?$AAt?$AA_?$AAf?$AAm?$AAo?$AAd?$AAe?$AA?$AA@ 1007b4ac     LIBCMTD:setmode.obj
 0002:000164c8       ??_C@_1FE@GDPLAOMM@?$AAf?$AA?3?$AA?2?$AAd?$AAd?$AA?2?$AAv?$AAc?$AAt?$AAo?$AAo?$AAl?$AAs?$AA?2?$AAc?$AAr?$AAt?$AA?2?$AAc?$AAr?$AAt?$AAw?$AA3?$AA2?$AA?2?$AAc?$AAo?$AAn?$AAv?$AAe?$AAr?$AAt@ 1007b4c8     LIBCMTD:wcstol.obj
 0002:0001651c       ??_C@_1BA@PCFLFGNC@?$AAw?$AAc?$AAs?$AAt?$AAo?$AAx?$AAl?$AA?$AA@ 1007b51c     LIBCMTD:wcstol.obj
 0002:00016530       ??_C@_1FE@NDFDLJMJ@?$AAf?$AA?3?$AA?2?$AAd?$AAd?$AA?2?$AAv?$AAc?$AAt?$AAo?$AAo?$AAl?$AAs?$AA?2?$AAc?$AAr?$AAt?$AA?2?$AAc?$AAr?$AAt?$AAw?$AA3?$AA2?$AA?2?$AAs?$AAt?$AAr?$AAi?$AAn?$AAg?$AA?2@ 1007b530     LIBCMTD:wcsicmp.obj
 0002:00016584       ??_C@_1BG@EELGPCPD@?$AA_?$AAw?$AAc?$AAs?$AAi?$AAc?$AAm?$AAp?$AA_?$AAl?$AA?$AA@ 1007b584     LIBCMTD:wcsicmp.obj
 0002:0001659c       ??_C@_1BC@NHIBDOMC@?$AA_?$AAw?$AAc?$AAs?$AAi?$AAc?$AAm?$AAp?$AA?$AA@ 1007b59c     LIBCMTD:wcsicmp.obj
 0002:000165b0       ??_C@_1BM@CBACDFHA@?$AAf?$AAi?$AAr?$AAs?$AAt?$AA?5?$AA?$CB?$AA?$DN?$AA?5?$AAN?$AAU?$AAL?$AAL?$AA?$AA@ 1007b5b0     LIBCMTD:wcsnicmp.obj
 0002:000165d0       ??_C@_1FG@GGNDOPHP@?$AAf?$AA?3?$AA?2?$AAd?$AAd?$AA?2?$AAv?$AAc?$AAt?$AAo?$AAo?$AAl?$AAs?$AA?2?$AAc?$AAr?$AAt?$AA?2?$AAc?$AAr?$AAt?$AAw?$AA3?$AA2?$AA?2?$AAs?$AAt?$AAr?$AAi?$AAn?$AAg?$AA?2@ 1007b5d0     LIBCMTD:wcsnicmp.obj
 0002:00016628       ??_C@_1BI@KLMFNDBC@?$AA_?$AAw?$AAc?$AAs?$AAn?$AAi?$AAc?$AAm?$AAp?$AA_?$AAl?$AA?$AA@ 1007b628     LIBCMTD:wcsnicmp.obj
 0002:00016640       ??_C@_1BK@LKBOPAFJ@?$AAl?$AAa?$AAs?$AAt?$AA?5?$AA?$CB?$AA?$DN?$AA?5?$AAN?$AAU?$AAL?$AAL?$AA?$AA@ 1007b640     LIBCMTD:wcsnicmp.obj
 0002:0001665c       ??_C@_1BE@JKOKKFEL@?$AA_?$AAw?$AAc?$AAs?$AAn?$AAi?$AAc?$AAm?$AAp?$AA?$AA@ 1007b65c     LIBCMTD:wcsnicmp.obj
 0002:00016670       ??_C@_1FE@DNGHOFOC@?$AAf?$AA?3?$AA?2?$AAd?$AAd?$AA?2?$AAv?$AAc?$AAt?$AAo?$AAo?$AAl?$AAs?$AA?2?$AAc?$AAr?$AAt?$AA?2?$AAc?$AAr?$AAt?$AAw?$AA3?$AA2?$AA?2?$AAc?$AAo?$AAn?$AAv?$AAe?$AAr?$AAt@ 1007b670     LIBCMTD:strtod.obj
 0002:000166c4       ??_C@_1BE@KFBKGHJC@?$AA_?$AAs?$AAt?$AAr?$AAt?$AAo?$AAd?$AA_?$AAl?$AA?$AA@ 1007b6c4     LIBCMTD:strtod.obj
 0002:000166d8       ??_C@_1FE@IEEFCKDG@?$AAf?$AA?3?$AA?2?$AAd?$AAd?$AA?2?$AAv?$AAc?$AAt?$AAo?$AAo?$AAl?$AAs?$AA?2?$AAc?$AAr?$AAt?$AA?2?$AAc?$AAr?$AAt?$AAw?$AA3?$AA2?$AA?2?$AAc?$AAo?$AAn?$AAv?$AAe?$AAr?$AAt@ 1007b6d8     LIBCMTD:wcstoq.obj
 0002:0001672c       ??_C@_1BA@FACINJJA@?$AAw?$AAc?$AAs?$AAt?$AAo?$AAx?$AAq?$AA?$AA@ 1007b72c     LIBCMTD:wcstoq.obj
 0002:0001673c       ??_C@_0CK@CEJCOKEF@f?3?2dd?2vctools?2crt?2crtw32?2convert@ 1007b73c     LIBCMTD:wcstoq.obj
 0002:00016768       ??_C@_1FE@LABOBFHJ@?$AAf?$AA?3?$AA?2?$AAd?$AAd?$AA?2?$AAv?$AAc?$AAt?$AAo?$AAo?$AAl?$AAs?$AA?2?$AAc?$AAr?$AAt?$AA?2?$AAc?$AAr?$AAt?$AAw?$AA3?$AA2?$AA?2?$AAc?$AAo?$AAn?$AAv?$AAe?$AAr?$AAt@ 1007b768     LIBCMTD:wcstod.obj
 0002:000167bc       ??_C@_1BE@CIGDJHAJ@?$AA_?$AAw?$AAc?$AAs?$AAt?$AAo?$AAd?$AA_?$AAl?$AA?$AA@ 1007b7bc     LIBCMTD:wcstod.obj
 0002:000167d0       ??_C@_1CA@JGBKKNCE@?$AA_?$AA_?$AAw?$AAs?$AAt?$AAr?$AAg?$AAt?$AAo?$AAl?$AAd?$AA1?$AA2?$AA_?$AAl?$AA?$AA@ 1007b7d0     LIBCMTD:wstrgtold.obj
 0002:000167f0       __load_config_used         1007b7f0     LIBCMTD:loadcfg.obj
 0002:000168fc       ??_R3AbstractStrategy@@8   1007b8fc     driver.obj
 0002:0001690c       ??_R2AbstractStrategy@@8   1007b90c     driver.obj
 0002:00016914       ??_R1A@?0A@EA@AbstractStrategy@@8 1007b914     driver.obj
 0002:00016930       ??_R4SimpleStrategy2@@6B@  1007b930     driver.obj
 0002:00016944       ??_R3SimpleStrategy2@@8    1007b944     driver.obj
 0002:00016954       ??_R2SimpleStrategy2@@8    1007b954     driver.obj
 0002:00016964       ??_R1A@?0A@EA@SimpleStrategy2@@8 1007b964     driver.obj
 0002:00016980       ??_R1A@?0A@EA@SimpleStrategy@@8 1007b980     driver.obj
 0002:0001699c       ??_R3SimpleStrategy@@8     1007b99c     driver.obj
 0002:000169ac       ??_R2SimpleStrategy@@8     1007b9ac     driver.obj
 0002:000169b8       ??_R4AbstractStrategy@@6B@ 1007b9b8     strategy.obj
 0002:000169cc       ??_R4SimpleStrategy@@6B@   1007b9cc     strategy.obj
 0002:000169e0       ??_R1A@?0A@EA@exception@std@@8 1007b9e0     LIBCMTD:new.obj
 0002:000169fc       ??_R3exception@std@@8      1007b9fc     LIBCMTD:new.obj
 0002:00016a0c       ??_R2exception@std@@8      1007ba0c     LIBCMTD:new.obj
 0002:00016a14       ??_R4bad_alloc@std@@6B@    1007ba14     LIBCMTD:new.obj
 0002:00016a28       ??_R3bad_alloc@std@@8      1007ba28     LIBCMTD:new.obj
 0002:00016a38       ??_R2bad_alloc@std@@8      1007ba38     LIBCMTD:new.obj
 0002:00016a44       ??_R1A@?0A@EA@bad_alloc@std@@8 1007ba44     LIBCMTD:new.obj
 0002:00016a60       ??_R4type_info@@6B@        1007ba60     LIBCMTD:typinfo.obj
 0002:00016a74       ??_R3type_info@@8          1007ba74     LIBCMTD:typinfo.obj
 0002:00016a84       ??_R2type_info@@8          1007ba84     LIBCMTD:typinfo.obj
 0002:00016a8c       ??_R1A@?0A@EA@type_info@@8 1007ba8c     LIBCMTD:typinfo.obj
 0002:00016aa8       ??_R4exception@std@@6B@    1007baa8     LIBCMTD:stdexcpt.obj
 0002:00016abc       ??_R4bad_cast@std@@6B@     1007babc     LIBCMTD:stdexcpt.obj
 0002:00016ad0       ??_R3bad_cast@std@@8       1007bad0     LIBCMTD:stdexcpt.obj
 0002:00016ae0       ??_R2bad_cast@std@@8       1007bae0     LIBCMTD:stdexcpt.obj
 0002:00016aec       ??_R1A@?0A@EA@bad_cast@std@@8 1007baec     LIBCMTD:stdexcpt.obj
 0002:00016b08       ??_R4bad_typeid@std@@6B@   1007bb08     LIBCMTD:stdexcpt.obj
 0002:00016b1c       ??_R3bad_typeid@std@@8     1007bb1c     LIBCMTD:stdexcpt.obj
 0002:00016b2c       ??_R2bad_typeid@std@@8     1007bb2c     LIBCMTD:stdexcpt.obj
 0002:00016b38       ??_R1A@?0A@EA@bad_typeid@std@@8 1007bb38     LIBCMTD:stdexcpt.obj
 0002:00016b54       ??_R4__non_rtti_object@std@@6B@ 1007bb54     LIBCMTD:stdexcpt.obj
 0002:00016b68       ??_R3__non_rtti_object@std@@8 1007bb68     LIBCMTD:stdexcpt.obj
 0002:00016b78       ??_R2__non_rtti_object@std@@8 1007bb78     LIBCMTD:stdexcpt.obj
 0002:00016b88       ??_R1A@?0A@EA@__non_rtti_object@std@@8 1007bb88     LIBCMTD:stdexcpt.obj
 0002:00016ba4       ??_R4bad_exception@std@@6B@ 1007bba4     LIBCMTD:frame.obj
 0002:00016bb8       ??_R3bad_exception@std@@8  1007bbb8     LIBCMTD:frame.obj
 0002:00016bc8       ??_R2bad_exception@std@@8  1007bbc8     LIBCMTD:frame.obj
 0002:00016bd4       ??_R1A@?0A@EA@bad_exception@std@@8 1007bbd4     LIBCMTD:frame.obj
 0002:00016bf0       ??_R4DNameNode@@6B@        1007bbf0     LIBCMTD:undname.obj
 0002:00016c04       ??_R3DNameNode@@8          1007bc04     LIBCMTD:undname.obj
 0002:00016c14       ??_R2DNameNode@@8          1007bc14     LIBCMTD:undname.obj
 0002:00016c1c       ??_R1A@?0A@EA@DNameNode@@8 1007bc1c     LIBCMTD:undname.obj
 0002:00016c38       ??_R4charNode@@6B@         1007bc38     LIBCMTD:undname.obj
 0002:00016c4c       ??_R3charNode@@8           1007bc4c     LIBCMTD:undname.obj
 0002:00016c5c       ??_R2charNode@@8           1007bc5c     LIBCMTD:undname.obj
 0002:00016c68       ??_R1A@?0A@EA@charNode@@8  1007bc68     LIBCMTD:undname.obj
 0002:00016c84       ??_R4pcharNode@@6B@        1007bc84     LIBCMTD:undname.obj
 0002:00016c98       ??_R3pcharNode@@8          1007bc98     LIBCMTD:undname.obj
 0002:00016ca8       ??_R2pcharNode@@8          1007bca8     LIBCMTD:undname.obj
 0002:00016cb4       ??_R1A@?0A@EA@pcharNode@@8 1007bcb4     LIBCMTD:undname.obj
 0002:00016cd0       ??_R4pDNameNode@@6B@       1007bcd0     LIBCMTD:undname.obj
 0002:00016ce4       ??_R3pDNameNode@@8         1007bce4     LIBCMTD:undname.obj
 0002:00016cf4       ??_R2pDNameNode@@8         1007bcf4     LIBCMTD:undname.obj
 0002:00016d00       ??_R1A@?0A@EA@pDNameNode@@8 1007bd00     LIBCMTD:undname.obj
 0002:00016d1c       ??_R4DNameStatusNode@@6B@  1007bd1c     LIBCMTD:undname.obj
 0002:00016d30       ??_R3DNameStatusNode@@8    1007bd30     LIBCMTD:undname.obj
 0002:00016d40       ??_R2DNameStatusNode@@8    1007bd40     LIBCMTD:undname.obj
 0002:00016d4c       ??_R1A@?0A@EA@DNameStatusNode@@8 1007bd4c     LIBCMTD:undname.obj
 0002:00016d68       ??_R4pairNode@@6B@         1007bd68     LIBCMTD:undname.obj
 0002:00016d7c       ??_R3pairNode@@8           1007bd7c     LIBCMTD:undname.obj
 0002:00016d8c       ??_R2pairNode@@8           1007bd8c     LIBCMTD:undname.obj
 0002:00016d98       ??_R1A@?0A@EA@pairNode@@8  1007bd98     LIBCMTD:undname.obj
 0002:00016db4       ___rtc_iaa                 1007bdb4     LIBCMTD:initsect.obj
 0002:00016dd8       ___rtc_izz                 1007bdd8     LIBCMTD:initsect.obj
 0002:00016ddc       ___rtc_taa                 1007bddc     LIBCMTD:initsect.obj
 0002:00016e00       ___rtc_tzz                 1007be00     LIBCMTD:initsect.obj
 0002:00016efc       __TI2?AVbad_alloc@std@@    1007befc     LIBCMTD:new.obj
 0002:00016f0c       __CTA2?AVbad_alloc@std@@   1007bf0c     LIBCMTD:new.obj
 0002:00016f18       __CT??_R0?AVbad_alloc@std@@@8??0bad_alloc@std@@QAE@ABV01@@Z12 1007bf18     LIBCMTD:new.obj
 0002:00016f34       __CT??_R0?AVexception@std@@@8??0exception@std@@QAE@ABV01@@Z12 1007bf34     LIBCMTD:new.obj
 0002:00017424       __TI2?AVbad_exception@std@@ 1007c424     LIBCMTD:frame.obj
 0002:00017434       __CTA2?AVbad_exception@std@@ 1007c434     LIBCMTD:frame.obj
 0002:00017440       __CT??_R0?AVbad_exception@std@@@8??0bad_exception@std@@QAE@ABV01@@Z12 1007c440     LIBCMTD:frame.obj
 0002:00017bc4       __IMPORT_DESCRIPTOR_tgf    1007cbc4     tgf:tgf.dll
 0002:00017bd8       __IMPORT_DESCRIPTOR_robottools 1007cbd8     robottools:robottools.dll
 0002:00017bec       __IMPORT_DESCRIPTOR_KERNEL32 1007cbec     kernel32:KERNEL32.dll
 0002:00017c00       __NULL_IMPORT_DESCRIPTOR   1007cc00     tgf:tgf.dll
 0003:00000050       ?_sgdGravity@@3PANA        1007e050     sg_vs2008_32:sgd.obj
 0003:00000098       __fltused                  1007e098     LIBCMTD:fpinit.obj
 0003:0000009c       __ldused                   1007e09c     LIBCMTD:fpinit.obj
 0003:000000a0       ___security_cookie         1007e0a0     LIBCMTD:gs_cookie.obj
 0003:000000a4       ___security_cookie_complement 1007e0a4     LIBCMTD:gs_cookie.obj
 0003:000000f8       __iob                      1007e0f8     LIBCMTD:_file.obj
 0003:0000049c       __crtBreakAlloc            1007e49c     LIBCMTD:dbgheap.obj
 0003:000004a0       ___crtDebugFillThreshold   1007e4a0     LIBCMTD:dbgheap.obj
 0003:000004a4       __crtDbgFlag               1007e4a4     LIBCMTD:dbgheap.obj
 0003:000004b0       ?_RTC_ErrorLevels@@3PAHA   1007e4b0     LIBCMTD:error.obj
 0003:000004c4       __cfltcvt_tab              1007e4c4     LIBCMTD:cmiscdat.obj
 0003:000004ec       ___isa_enabled             1007e4ec     LIBCMTD:cpu_disp.obj
 0003:000004f0       ___flsindex                1007e4f0     LIBCMTD:tidtable.obj
 0003:00000500       ___nullstring              1007e500     LIBCMTD:output.obj
 0003:00000504       ___wnullstring             1007e504     LIBCMTD:output.obj
 0003:00000768       __d_inf                    1007e768     LIBCMTD:util.obj
 0003:00000770       __d_ind                    1007e770     LIBCMTD:util.obj
 0003:00000778       __d_max                    1007e778     LIBCMTD:util.obj
 0003:00000780       __d_min                    1007e780     LIBCMTD:util.obj
 0003:00000788       __d_mzero                  1007e788     LIBCMTD:util.obj
 0003:000007b0       __pfnAllocHook             1007e7b0     LIBCMTD:dbghook.obj
 0003:000007c0       __lookuptrailbytes         1007e7c0     LIBCMTD:read.obj
 0003:000008c0       ___abort_behavior          1007e8c0     LIBCMTD:abort.obj
 0003:000008c8       ___badioinfo               1007e8c8     LIBCMTD:ioinit.obj
 0003:00000910       __mbctype                  1007e910     LIBCMTD:mbctype.obj
 0003:00000a18       __mbcasemap                1007ea18     LIBCMTD:mbctype.obj
 0003:00000b18       ___initialmbcinfo          1007eb18     LIBCMTD:mbctype.obj
 0003:00000d3c       ___ptmbcinfo               1007ed3c     LIBCMTD:mbctype.obj
 0003:00000e30       __CrtDbgMode               1007ee30     LIBCMTD:dbgrptt.obj
 0003:00000e3c       __CrtDbgFile               1007ee3c     LIBCMTD:dbgrptt.obj
 0003:00000e48       __crtAssertBusy            1007ee48     LIBCMTD:dbgrptt.obj
 0003:00000e54       ___mb_cur_max              1007ee54     LIBCMTD:nlsdata.obj
 0003:00000e58       ___wclocalestr             1007ee58     LIBCMTD:nlsdata.obj
 0003:00000e60       ___lc_time_c               1007ee60     LIBCMTD:nlsdata.obj
 0003:00000fc4       ___ptlocinfo               1007efc4     LIBCMTD:nlsdata.obj
 0003:00000fc8       ___initiallocinfo          1007efc8     LIBCMTD:nlsdata.obj
 0003:00001080       ___initiallocalestructinfo 1007f080     LIBCMTD:nlsdata.obj
 0003:00001088       ___globallocalestatus      1007f088     LIBCMTD:glstatus.obj
 0003:00001090       __NLG_Destination          1007f090     LIBCMTD:exsup.obj
 0003:000010a0       __matherr_flag             1007f0a0     LIBCMTD:matherr.obj
 0003:000010a8       ___lconv                   1007f0a8     LIBCMTD:lconv.obj
 0003:000010ac       ___lconv_static_decimal    1007f0ac     LIBCMTD:lconv.obj
 0003:000010b0       ___lconv_c                 1007f0b0     LIBCMTD:lconv.obj
 0003:00001100       ___lconv_static_W_decimal  1007f100     LIBCMTD:lconv.obj
 0003:00001108       __pctype                   1007f108     LIBCMTD:ctype.obj
 0003:0000110c       __pwctype                  1007f10c     LIBCMTD:ctype.obj
 0003:00001140       __confh                    1007f140     LIBCMTD:initcon.obj
 0003:00001148       __pow10pos                 1007f148     LIBCMTD:constpow.obj
 0003:000012a8       __pow10neg                 1007f2a8     LIBCMTD:constpow.obj
 0003:00001410       __HUGE                     1007f410     LIBCMTD:huge.obj
 0003:00001418       ??_R0?AVAbstractStrategy@@@8 1007f418     driver.obj
 0003:00001438       ??_R0?AVSimpleStrategy2@@@8 1007f438     driver.obj
 0003:00001458       ??_R0?AVSimpleStrategy@@@8 1007f458     driver.obj
 0003:00001478       ??_R0?AVbad_alloc@std@@@8  1007f478     LIBCMTD:new.obj
 0003:00001494       ??_R0?AVexception@std@@@8  1007f494     LIBCMTD:new.obj
 0003:000014b0       ??_R0?AVtype_info@@@8      1007f4b0     LIBCMTD:typinfo.obj
 0003:000014c8       ??_R0?AVbad_cast@std@@@8   1007f4c8     LIBCMTD:stdexcpt.obj
 0003:000014e4       ??_R0?AVbad_typeid@std@@@8 1007f4e4     LIBCMTD:stdexcpt.obj
 0003:00001504       ??_R0?AV__non_rtti_object@std@@@8 1007f504     LIBCMTD:stdexcpt.obj
 0003:00001528       ??_R0?AVbad_exception@std@@@8 1007f528     LIBCMTD:frame.obj
 0003:00001548       ??_R0?AVDNameNode@@@8      1007f548     LIBCMTD:undname.obj
 0003:00001560       ??_R0?AVcharNode@@@8       1007f560     LIBCMTD:undname.obj
 0003:00001578       ??_R0?AVpcharNode@@@8      1007f578     LIBCMTD:undname.obj
 0003:00001590       ??_R0?AVpDNameNode@@@8     1007f590     LIBCMTD:undname.obj
 0003:000015ac       ??_R0?AVDNameStatusNode@@@8 1007f5ac     LIBCMTD:undname.obj
 0003:000015cc       ??_R0?AVpairNode@@@8       1007f5cc     LIBCMTD:undname.obj
 0003:00001628       ?cardata@Driver@@0PAVCardata@@A 1007f628     driver.obj
 0003:00001630       ?currentsimtime@Driver@@0NA 1007f630     driver.obj
 0003:00001638       ?MAX_UNSTUCK_ANGLE@Driver@@0MB 1007f638     driver.obj
 0003:0000163c       ?track@Opponent@@0PAUtTrack@@A 1007f63c     opponent.obj
 0003:00001a48       ___fastflag                1007fa48     LIBCMTD:fpinit.obj
 0003:00001d74       __aenvptr                  1007fd74     LIBCMTD:dllcrt0.obj
 0003:00001d78       __wenvptr                  1007fd78     LIBCMTD:dllcrt0.obj
 0003:00001d7c       __umaskval                 1007fd7c     LIBCMTD:crt0dat.obj
 0003:00001d80       __exitflag                 1007fd80     LIBCMTD:crt0dat.obj
 0003:00001d84       __C_Termination_Done       1007fd84     LIBCMTD:crt0dat.obj
 0003:00001d88       ___winitenv                1007fd88     LIBCMTD:crt0dat.obj
 0003:00001d8c       ___initenv                 1007fd8c     LIBCMTD:crt0dat.obj
 0003:00001d90       ___argc                    1007fd90     LIBCMTD:crt0dat.obj
 0003:00001d94       ___argv                    1007fd94     LIBCMTD:crt0dat.obj
 0003:00001d98       ___wargv                   1007fd98     LIBCMTD:crt0dat.obj
 0003:00001d9c       __environ                  1007fd9c     LIBCMTD:crt0dat.obj
 0003:00001da0       __wenviron                 1007fda0     LIBCMTD:crt0dat.obj
 0003:00001da4       __pgmptr                   1007fda4     LIBCMTD:crt0dat.obj
 0003:00001da8       __wpgmptr                  1007fda8     LIBCMTD:crt0dat.obj
 0003:00001dac       __C_Exit_Done              1007fdac     LIBCMTD:crt0dat.obj
 0003:00001db0       __cflush                   1007fdb0     LIBCMTD:_file.obj
 0003:00001db4       ?_pnhHeap@@3P6AHI@ZA       1007fdb4     LIBCMTD:handler.obj
 0003:00001f20       ___crtDebugCheckCount      1007ff20     LIBCMTD:dbgheap.obj
 0003:00001f28       ?_pfnDumpClient@@3P6AXPAXI@ZA 1007ff28     LIBCMTD:dbgheap.obj
 0003:00001f44       ?wsprintffp@@3P6AHPADPBDZZA 1007ff44     LIBCMTD:error.obj
 0003:00001f50       ___isa_available           1007ff50     LIBCMTD:cpu_disp.obj
 0003:00001f54       ___favor                   1007ff54     LIBCMTD:cpu_disp.obj
 0003:00001f58       ?__pInconsistency@@3P6AXXZA 1007ff58     LIBCMTD:hooks.obj
 0003:00001f5c       ?g_OutOfMemoryExceptionCallback@@3P6GPAXXZA 1007ff5c     LIBCMTD:frame.obj
 0003:00001f60       ___pInvalidArgHandler      1007ff60     LIBCMTD:invarg.obj
 0003:00001f70       ___app_type                1007ff70     LIBCMTD:crt0msg.obj
 0003:000025a0       ___pPurecall               100805a0     LIBCMTD:inithelp.obj
 0003:000025a8       __crtheap                  100805a8     LIBCMTD:heapinit.obj
 0003:000025b0       ___pioinfo                 100805b0     LIBCMTD:ioinit.obj
 0003:000027d0       ___mbcodepage              100807d0     LIBCMTD:mbctype.obj
 0003:000027d4       ___ismbcodepage            100807d4     LIBCMTD:mbctype.obj
 0003:000027d8       ___mbulinfo                100807d8     LIBCMTD:mbctype.obj
 0003:000027e4       ___mblocalename            100807e4     LIBCMTD:mbctype.obj
 0003:000027ec       __stdbuf                   100807ec     LIBCMTD:_sftbuf.obj
 0003:000027f4       __newmode                  100807f4     LIBCMTD:_newmode.obj
 0003:00002814       __outputformat             10080814     LIBCMTD:outputformat.obj
 0003:0000281c       ?pArgList@UnDecorator@@0PAVReplicator@@A 1008081c     LIBCMTD:undname.obj
 0003:00002820       ?pZNameList@UnDecorator@@0PAVReplicator@@A 10080820     LIBCMTD:undname.obj
 0003:00002824       ?pTemplateArgList@UnDecorator@@0PAVReplicator@@A 10080824     LIBCMTD:undname.obj
 0003:00002828       ?gName@UnDecorator@@0PBDB  10080828     LIBCMTD:undname.obj
 0003:0000282c       ?name@UnDecorator@@0PBDB   1008082c     LIBCMTD:undname.obj
 0003:00002830       ?outputString@UnDecorator@@0PADA 10080830     LIBCMTD:undname.obj
 0003:00002834       ?maxStringLength@UnDecorator@@0HA 10080834     LIBCMTD:undname.obj
 0003:00002838       ?disableFlags@UnDecorator@@0KA 10080838     LIBCMTD:undname.obj
 0003:0000283c       ?fExplicitTemplateParams@UnDecorator@@0_NA 1008083c     LIBCMTD:undname.obj
 0003:0000283d       ?fGetTemplateArgumentList@UnDecorator@@0_NA 1008083d     LIBCMTD:undname.obj
 0003:00002840       ?m_pGetParameter@UnDecorator@@0P6APADJ@ZA 10080840     LIBCMTD:undname.obj
 0003:000028a8       ?nodes@?1??make@DNameStatusNode@@SAPAV2@W4DNameStatus@@@Z@4PAV2@A 100808a8     LIBCMTD:undname.obj
 0003:000028d8       ??_B?1??make@DNameStatusNode@@SAPAV1@W4DNameStatus@@@Z@51 100808d8     LIBCMTD:undname.obj
 0003:000028dc       __commode                  100808dc     LIBCMTD:ncommode.obj
 0003:000028e0       ___error_mode              100808e0     LIBCMTD:errmode.obj
 0003:000028e8       ___lconv_static_null       100808e8     LIBCMTD:lconv.obj
 0003:000028ec       ___lconv_static_W_null     100808ec     LIBCMTD:lconv.obj
 0003:000028f0       ___locale_changed          100808f0     LIBCMTD:wsetloca.obj
 0003:000028f4       __fmode                    100808f4     LIBCMTD:txtmode.obj
 0003:000028f8       ___unguarded_readlc_active 100808f8     <common>
 0003:000028fc       ___setlc_active            100808fc     <common>
 0003:00002900       __pReportHookListW         10080900     <common>
 0003:00002904       __pReportHookList          10080904     <common>
 0003:00002908       __pfnReportHook            10080908     <common>
 0003:0000290c       __nhandle                  1008090c     <common>
 0003:00002910       __pmatherr                 10080910     <common>
 0003:00002920       _encodedKERNEL32Functions  10080920     <common>
 0003:000029a4       __debugger_hook_dummy      100809a4     <common>
 0003:000029a8       ___use_sse2_mathfcns       100809a8     <common>
 0003:000029c0       __bufin                    100809c0     <common>
 0003:000039c0       ___piob                    100819c0     <common>
 0003:000039c4       __nstream                  100819c4     <common>
 0003:000039c8       ___dyn_tls_init_callback   100819c8     <common>
 0003:000039cc       ___onexitend               100819cc     <common>
 0003:000039d0       ___onexitbegin             100819d0     <common>
 0003:000039d4       ___mbctype_initialized     100819d4     <common>
 0003:000039d8       ___env_initialized         100819d8     <common>
 0003:000039dc       __acmdln                   100819dc     <common>

 entry point at        0001:0000fc30

 Static symbols

 0000:fff79000       .debug$S                   10000000     kernel32:KERNEL32.dll
 0000:fff79000       .debug$S                   10000000     kernel32:KERNEL32.dll
 0000:fff79000       .debug$S                   10000000     kernel32:KERNEL32.dll
 0000:fff79000       .debug$S                   10000000     kernel32:KERNEL32.dll
 0000:fff79000       .debug$S                   10000000     kernel32:KERNEL32.dll
 0000:fff79000       .debug$S                   10000000     kernel32:KERNEL32.dll
 0000:fff79000       .debug$S                   10000000     kernel32:KERNEL32.dll
 0000:fff79000       .debug$S                   10000000     kernel32:KERNEL32.dll
 0000:fff79000       .debug$S                   10000000     kernel32:KERNEL32.dll
 0000:fff79000       .debug$S                   10000000     kernel32:KERNEL32.dll
 0000:fff79000       .debug$S                   10000000     kernel32:KERNEL32.dll
 0000:fff79000       .debug$S                   10000000     kernel32:KERNEL32.dll
 0000:fff79000       .debug$S                   10000000     kernel32:KERNEL32.dll
 0000:fff79000       .debug$S                   10000000     kernel32:KERNEL32.dll
 0000:fff79000       .debug$S                   10000000     kernel32:KERNEL32.dll
 0000:fff79000       .debug$S                   10000000     kernel32:KERNEL32.dll
 0000:fff79000       .debug$S                   10000000     kernel32:KERNEL32.dll
 0000:fff79000       .debug$S                   10000000     kernel32:KERNEL32.dll
 0000:fff79000       .debug$S                   10000000     kernel32:KERNEL32.dll
 0000:fff79000       .debug$S                   10000000     kernel32:KERNEL32.dll
 0000:fff79000       .debug$S                   10000000     robottools:robottools.dll
 0000:fff79000       .debug$S                   10000000     robottools:robottools.dll
 0000:fff79000       .debug$S                   10000000     kernel32:KERNEL32.dll
 0000:fff79000       .debug$S                   10000000     tgf:tgf.dll
 0000:fff79000       .debug$S                   10000000     kernel32:KERNEL32.dll
 0000:fff79000       .debug$S                   10000000     tgf:tgf.dll
 0000:fff79000       .debug$S                   10000000     tgf:tgf.dll
 0000:fff79000       .debug$S                   10000000     tgf:tgf.dll
 0000:fff79000       .debug$S                   10000000     tgf:tgf.dll
 0000:fff79000       .debug$S                   10000000     tgf:tgf.dll
 0000:fff79000       .debug$S                   10000000     tgf:tgf.dll
 0000:fff79000       .debug$S                   10000000     kernel32:KERNEL32.dll
 0000:fff79000       .debug$S                   10000000     tgf:tgf.dll
 0000:fff79000       .debug$S                   10000000     kernel32:KERNEL32.dll
 0000:fff79000       .debug$S                   10000000     kernel32:KERNEL32.dll
 0000:fff79000       .debug$S                   10000000     kernel32:KERNEL32.dll
 0000:fff79000       .debug$S                   10000000     kernel32:KERNEL32.dll
 0000:fff79000       .debug$S                   10000000     kernel32:KERNEL32.dll
 0000:fff79000       .debug$S                   10000000     kernel32:KERNEL32.dll
 0000:fff79000       .debug$S                   10000000     kernel32:KERNEL32.dll
 0000:fff79000       .debug$S                   10000000     kernel32:KERNEL32.dll
 0000:fff79000       .debug$S                   10000000     kernel32:KERNEL32.dll
 0000:fff79000       .debug$S                   10000000     kernel32:KERNEL32.dll
 0000:fff79000       .debug$S                   10000000     kernel32:KERNEL32.dll
 0000:fff79000       .debug$S                   10000000     kernel32:KERNEL32.dll
 0000:fff79000       .debug$S                   10000000     kernel32:KERNEL32.dll
 0000:fff79000       .debug$S                   10000000     kernel32:KERNEL32.dll
 0000:fff79000       .debug$S                   10000000     kernel32:KERNEL32.dll
 0000:fff79000       .debug$S                   10000000     kernel32:KERNEL32.dll
 0000:fff79000       .debug$S                   10000000     kernel32:KERNEL32.dll
 0000:fff79000       .debug$S                   10000000     kernel32:KERNEL32.dll
 0000:fff79000       .debug$S                   10000000     kernel32:KERNEL32.dll
 0000:fff79000       .debug$S                   10000000     kernel32:KERNEL32.dll
 0000:fff79000       .debug$S                   10000000     kernel32:KERNEL32.dll
 0000:fff79000       .debug$S                   10000000     kernel32:KERNEL32.dll
 0000:fff79000       .debug$S                   10000000     kernel32:KERNEL32.dll
 0000:fff79000       .debug$S                   10000000     kernel32:KERNEL32.dll
 0000:fff79000       .debug$S                   10000000     kernel32:KERNEL32.dll
 0000:fff79000       .debug$S                   10000000     kernel32:KERNEL32.dll
 0000:fff79000       .debug$S                   10000000     kernel32:KERNEL32.dll
 0000:fff79000       .debug$S                   10000000     kernel32:KERNEL32.dll
 0000:fff79000       .debug$S                   10000000     kernel32:KERNEL32.dll
 0000:fff79000       .debug$S                   10000000     kernel32:KERNEL32.dll
 0000:fff79000       .debug$S                   10000000     kernel32:KERNEL32.dll
 0000:fff79000       .debug$S                   10000000     kernel32:KERNEL32.dll
 0000:fff79000       .debug$S                   10000000     kernel32:KERNEL32.dll
 0000:fff79000       .debug$S                   10000000     kernel32:KERNEL32.dll
 0000:fff79000       .debug$S                   10000000     kernel32:KERNEL32.dll
 0000:fff79000       .debug$S                   10000000     kernel32:KERNEL32.dll
 0000:fff79000       .debug$S                   10000000     kernel32:KERNEL32.dll
 0000:fff79000       .debug$S                   10000000     kernel32:KERNEL32.dll
 0000:fff79000       .debug$S                   10000000     kernel32:KERNEL32.dll
 0000:fff79000       .debug$S                   10000000     kernel32:KERNEL32.dll
 0000:fff79000       .debug$S                   10000000     kernel32:KERNEL32.dll
 0000:fff79000       .debug$S                   10000000     kernel32:KERNEL32.dll
 0000:fff79000       .debug$S                   10000000     kernel32:KERNEL32.dll
 0000:fff79000       .debug$S                   10000000     kernel32:KERNEL32.dll
 0000:fff79000       .debug$S                   10000000     kernel32:KERNEL32.dll
 0000:fff79000       .debug$S                   10000000     kernel32:KERNEL32.dll
 0000:fff79000       .debug$S                   10000000     kernel32:KERNEL32.dll
 0000:fff79000       .debug$S                   10000000     kernel32:KERNEL32.dll
 0000:fff79000       .debug$S                   10000000     kernel32:KERNEL32.dll
 0000:fff79000       .debug$S                   10000000     kernel32:KERNEL32.dll
 0000:fff79000       .debug$S                   10000000     kernel32:KERNEL32.dll
 0000:fff79000       .debug$S                   10000000     kernel32:KERNEL32.dll
 0000:fff79000       .debug$S                   10000000     kernel32:KERNEL32.dll
 0000:fff79000       .debug$S                   10000000     kernel32:KERNEL32.dll
 0000:fff79000       .debug$S                   10000000     kernel32:KERNEL32.dll
 0000:fff79000       .debug$S                   10000000     kernel32:KERNEL32.dll
 0000:fff79000       .debug$S                   10000000     kernel32:KERNEL32.dll
 0000:fff79000       .debug$S                   10000000     kernel32:KERNEL32.dll
 0000:fff79000       .debug$S                   10000000     kernel32:KERNEL32.dll
 0000:fff79000       .debug$S                   10000000     kernel32:KERNEL32.dll
 0000:fff79000       .debug$S                   10000000     kernel32:KERNEL32.dll
 0000:fff79000       .debug$S                   10000000     kernel32:KERNEL32.dll
 0000:fff79000       .debug$S                   10000000     kernel32:KERNEL32.dll
 0001:00003ac8       $LN62                      10004ac8     sg_vs2008_32:sgd.obj
 0001:000042e0       ??__E?MAX_UNSTUCK_ANGLE@Driver@@0MB@@YAXXZ 100052e0 f   driver.obj
 0001:0000454c       $LN6                       1000554c     cardata.obj
 0001:00004554       $LN5                       10005554     cardata.obj
 0001:0000456c       $LN4                       1000556c     cardata.obj
 0001:00004570       $LN3                       10005570     cardata.obj
 0001:000049a0       ?initTrack@@YAXHPAUtTrack@@PAXPAPAXPAUSituation@@@Z 100059a0 f   damned.obj
 0001:000049d0       ?newRace@@YAXHPAUCarElt@@PAUSituation@@@Z 100059d0 f   damned.obj
 0001:00004a00       ?drive@@YAXHPAUCarElt@@PAUSituation@@@Z 10005a00 f   damned.obj
 0001:00004a20       ?pitcmd@@YAHHPAUCarElt@@PAUSituation@@@Z 10005a20 f   damned.obj
 0001:00004a40       ?shutdown@@YAXH@Z          10005a40 f   damned.obj
 0001:00004aa0       ?InitFuncPt@@YAHHPAX@Z     10005aa0 f   damned.obj
 0001:00004b90       ?endRace@@YAXHPAUCarElt@@PAUSituation@@@Z 10005b90 f   damned.obj
 0001:0000505c       $LN16                      1000605c     driver.obj
 0001:00005064       $LN15                      10006064     driver.obj
 0001:00005070       $LN13                      10006070     driver.obj
 0001:000061f4       $LN12                      100071f4     driver.obj
 0001:000061fc       $LN11                      100071fc     driver.obj
 0001:00006208       $LN10                      10007208     driver.obj
 0001:0000696c       $LN20                      1000796c     driver.obj
 0001:00006974       $LN19                      10007974     driver.obj
 0001:000069b0       $LN18                      100079b0     driver.obj
 0001:000069b2       $LN17                      100079b2     driver.obj
 0001:000069b4       $LN16                      100079b4     driver.obj
 0001:000069b6       $LN15                      100079b6     driver.obj
 0001:000069b8       $LN14                      100079b8     driver.obj
 0001:00007844       $LN23                      10008844     driver.obj
 0001:0000784c       $LN22                      1000884c     driver.obj
 0001:00007864       $LN21                      10008864     driver.obj
 0001:00007867       $LN20                      10008867     driver.obj
 0001:00008564       $LN8                       10009564     driver.obj
 0001:0000856c       $LN7                       1000956c     driver.obj
 0001:00008578       $LN6                       10009578     driver.obj
 0001:00008774       $LN10                      10009774     driver.obj
 0001:0000877c       $LN9                       1000977c     driver.obj
 0001:00008788       $LN8                       10009788     driver.obj
 0001:000091ec       $LN5                       1000a1ec     driver.obj
 0001:000091f4       $LN4                       1000a1f4     driver.obj
 0001:00009200       $LN3                       1000a200     driver.obj
 0001:00009ac0       $LN14                      1000aac0     learn.obj
 0001:00009ac8       $LN13                      1000aac8     learn.obj
 0001:00009af8       $LN12                      1000aaf8     learn.obj
 0001:00009aff       $LN11                      1000aaff     learn.obj
 0001:00009b06       $LN10                      1000ab06     learn.obj
 0001:00009b0c       $LN9                       1000ab0c     learn.obj
 0001:00009d5c       $LN23                      1000ad5c     learn.obj
 0001:00009d64       $LN22                      1000ad64     learn.obj
 0001:00009d7c       $LN21                      1000ad7c     learn.obj
 0001:00009d83       $LN20                      1000ad83     learn.obj
 0001:00009fe4       $LN13                      1000afe4     learn.obj
 0001:00009fec       $LN12                      1000afec     learn.obj
 0001:0000a01c       $LN11                      1000b01c     learn.obj
 0001:0000a023       $LN10                      1000b023     learn.obj
 0001:0000a028       $LN9                       1000b028     learn.obj
 0001:0000a02f       $LN8                       1000b02f     learn.obj
 0001:0000a780       $LN32                      1000b780     opponent.obj
 0001:0000a788       $LN31                      1000b788     opponent.obj
 0001:0000a7a0       $LN30                      1000b7a0     opponent.obj
 0001:0000a7a7       $LN29                      1000b7a7     opponent.obj
 0001:0000ad58       $LN6                       1000bd58     opponent.obj
 0001:0000ad60       $LN5                       1000bd60     opponent.obj
 0001:0000ad78       $LN4                       1000bd78     opponent.obj
 0001:0000ad7b       $LN3                       1000bd7b     opponent.obj
 0001:0000ca00       $$000000                   1000da00     LIBCMTD:cos.obj
 0001:0000cb30       $$000000                   1000db30     LIBCMTD:sin.obj
 0001:0000cf60       $$000000                   1000df60     LIBCMTD:memset.obj
 0001:0000d000       ?CatchGuardHandler@@YA?AW4_EXCEPTION_DISPOSITION@@PAUEHExceptionRecord@@PAUCatchGuardRN@@PAX2@Z 1000e000 f   LIBCMTD:_trnsctrl_.obj
 0001:0000d050       ?TranslatorGuardHandler@@YA?AW4_EXCEPTION_DISPOSITION@@PAUEHExceptionRecord@@PAUTranslatorGuardRN@@PAX2@Z 1000e050 f   LIBCMTD:_trnsctrl_.obj
 0001:0000d780       $$000000                   1000e780     LIBCMTD:strcmp.obj
 0001:0000d810       $$000000                   1000e810     LIBCMTD:strrchr.obj
 0001:0000d950       $$000000                   1000e950     LIBCMTD:87ctriga.obj
 0001:0000d970       $$000000                   1000e970     LIBCMTD:87ctran.obj
 0001:0000db00       $$000000                   1000eb00     LIBCMTD:log.obj
 0001:0000dc50       $$000000                   1000ec50     LIBCMTD:sqrt.obj
 0001:0000f4a0       $$000000                   100104a0     LIBCMTD:strchr.obj
 0001:0000f5d0       $$000000                   100105d0     LIBCMTD:strncmp.obj
 0001:0000f650       $$000000                   10010650     LIBCMTD:strncpy.obj
 0001:0000f810       $$000000                   10010810     LIBCMTD:ceil_pentium4.obj
 0001:0000f930       $$000000                   10010930     LIBCMTD:ftol2.obj
 0001:0000fc60       ___DllMainCRTStartup       10010c60 f   LIBCMTD:dllcrt0.obj
 0001:0000fe50       $$000000                   10010e50     LIBCMTD:asin.obj
 0001:0000ffa0       $$000000                   10010fa0     LIBCMTD:acos.obj
 0001:000100f0       $$000000                   100110f0     LIBCMTD:tan.obj
 0001:00010c10       __initterm                 10011c10 f   LIBCMTD:crt0dat.obj
 0001:00010ca0       _doexit                    10011ca0 f   LIBCMTD:crt0dat.obj
 0001:00012b90       ?_CrtMemDumpAllObjectsSince_stat@@YAXPBU_CrtMemState@@PAUlocaleinfo_struct@@@Z 10013b90 f   LIBCMTD:dbgheap.obj
 0001:00012ea0       ?__crtIsBadReadPtr@@YAHPBXI@Z 10013ea0 f   LIBCMTD:dbgheap.obj
 0001:00012fd0       _CheckBytes                10013fd0 f   LIBCMTD:dbgheap.obj
 0001:00013464       $LN51                      10014464     LIBCMTD:dbgheap.obj
 0001:000152f0       __heap_alloc_dbg_impl      100162f0 f   LIBCMTD:dbgheap.obj
 0001:00015990       __nh_malloc_dbg_impl       10016990 f   LIBCMTD:dbgheap.obj
 0001:00015a10       __printMemBlockData        10016a10 f   LIBCMTD:dbgheap.obj
 0001:00015d40       _realloc_help              10016d40 f   LIBCMTD:dbgheap.obj
 0001:00016350       _ValidateLocalCookies      10017350 f   LIBCMTD:chandler4.obj
 0001:000165e0       $$000000                   100175e0     LIBCMTD:cos_pentium4.obj
 0001:00016790       $$000000                   10017790     LIBCMTD:87disp.obj
 0001:00016960       $$000000                   10017960     LIBCMTD:common.obj
 0001:00016af0       $$000000                   10017af0     LIBCMTD:genexcep.obj
 0001:00016b50       $$000000                   10017b50     LIBCMTD:sin_pentium4.obj
 0001:00016d20       ?DebuggerProbe@@YAHK@Z     10017d20 f   LIBCMTD:error.obj
 0001:00016dc0       ?DebuggerRuntime@@YAHKHPAXPB_W@Z 10017dc0 f   LIBCMTD:error.obj
 0001:00017140       ?_getMemBlockDataString@@YAXPAD00I@Z 10018140 f   LIBCMTD:error.obj
 0001:000171b0       ?_strlen_priv@@YAIPBD@Z    100181b0 f   LIBCMTD:error.obj
 0001:000171d0       ?failwithmessage@@YAXPAXHHPBD@Z 100181d0 f   LIBCMTD:error.obj
 0001:00017f90       __cftoe2_l                 10018f90 f   LIBCMTD:cvt.obj
 0001:000185f0       __cftof2_l                 100195f0 f   LIBCMTD:cvt.obj
 0001:00019010       __shift                    1001a010 f   LIBCMTD:cvt.obj
 0001:000199b0       $$000000                   1001a9b0     LIBCMTD:lowhelpr.obj
 0001:00019d30       ?CallCatchBlock@@YAPAXPAUEHExceptionRecord@@PAUEHRegistrationNode@@PAU_CONTEXT@@PBU_s_FuncInfo@@PAXHK@Z 1001ad30 f   LIBCMTD:frame.obj
 0001:00019fc0       ?CallUnexpected@@YAXPBU_s_ESTypeList@@@Z 1001afc0 f   LIBCMTD:frame.obj
 0001:0001a00a       __catch$?CallUnexpected@@YAXPBU_s_ESTypeList@@@Z$0 1001b00a f   LIBCMTD:frame.obj
 0001:0001a050       ?CatchIt@@YAXPAUEHExceptionRecord@@PAUEHRegistrationNode@@PAU_CONTEXT@@PAXPBU_s_FuncInfo@@PBU_s_HandlerType@@PBU_s_CatchableType@@PBU_s_TryBlockMapEntry@@H1E@Z 1001b050 f   LIBCMTD:frame.obj
 0001:0001a110       ?ExFilterRethrow@@YAHPAU_EXCEPTION_POINTERS@@@Z 1001b110 f   LIBCMTD:frame.obj
 0001:0001a180       ?FindHandler@@YAXPAUEHExceptionRecord@@PAUEHRegistrationNode@@PAU_CONTEXT@@PAXPBU_s_FuncInfo@@EH1@Z 1001b180 f   LIBCMTD:frame.obj
 0001:0001a650       ?FindHandlerForForeignException@@YAXPAUEHExceptionRecord@@PAUEHRegistrationNode@@PAU_CONTEXT@@PAXPBU_s_FuncInfo@@HH1@Z 1001b650 f   LIBCMTD:frame.obj
 0001:0001a7e0       ?IsInExceptionSpec@@YAEPAUEHExceptionRecord@@PBU_s_ESTypeList@@@Z 1001b7e0 f   LIBCMTD:frame.obj
 0001:0001a8a0       ?Is_bad_exception_allowed@@YAEPBU_s_ESTypeList@@@Z 1001b8a0 f   LIBCMTD:frame.obj
 0001:0001d610       $LN171                     1001e610     LIBCMTD:output.obj
 0001:0001d630       $LN172                     1001e630     LIBCMTD:output.obj
 0001:0001d648       $LN167                     1001e648     LIBCMTD:output.obj
 0001:0001d65c       $LN173                     1001e65c     LIBCMTD:output.obj
 0001:0001d670       $LN168                     1001e670     LIBCMTD:output.obj
 0001:0001d6a0       $LN174                     1001e6a0     LIBCMTD:output.obj
 0001:0001d6dc       $LN169                     1001e6dc     LIBCMTD:output.obj
 0001:0001d780       _write_char                1001e780 f   LIBCMTD:output.obj
 0001:0001d820       _write_multi_char          1001e820 f   LIBCMTD:output.obj
 0001:0001d860       _write_string              1001e860 f   LIBCMTD:output.obj
 0001:0001dbb0       $$000000                   1001ebb0     LIBCMTD:87triga.obj
 0001:0001dc60       $$000000                   1001ec60     LIBCMTD:87cdisp.obj
 0001:0001dee0       $$000000                   1001eee0     LIBCMTD:exp_pentium4.obj
 0001:0001e1a0       $$000000                   1001f1a0     LIBCMTD:87tran.obj
 0001:0001e620       __get_fname                1001f620 f   LIBCMTD:fpexcept.obj
 0001:0001efe4       $LN55                      1001ffe4     LIBCMTD:fpexcept.obj
 0001:0001f680       $$000000                   10020680     LIBCMTD:log_pentium4.obj
 0001:0001ff90       ___IsPackagedAppHelper     10020f90 f   LIBCMTD:winapisupp.obj
 0001:000210e0       _flsall                    100220e0 f   LIBCMTD:fflush.obj
 0001:00021c24       $LN92                      10022c24     LIBCMTD:_open.obj
 0001:00021c58       $LN91                      10022c58     LIBCMTD:_open.obj
 0001:00021cb0       $$000000                   10022cb0     LIBCMTD:exsup4.obj
 0001:00021d40       __unwind_handler4          10022d40 f   LIBCMTD:exsup4.obj
 0001:00023760       $$000000                   10024760     LIBCMTD:memcpy.obj
 0001:000239b0       LeadUpVec                  100249b0     LIBCMTD:memcpy.obj
 0001:00023a2c       UnwindUpVec                10024a2c     LIBCMTD:memcpy.obj
 0001:00023a98       TrailUpVec                 10024a98     LIBCMTD:memcpy.obj
 0001:00023b3c       LeadDownVec                10024b3c     LIBCMTD:memcpy.obj
 0001:00023bc8       UnwindDownVec              10024bc8     LIBCMTD:memcpy.obj
 0001:00023c34       TrailDownVec               10024c34     LIBCMTD:memcpy.obj
 0001:00026060       $LN68                      10027060     LIBCMTD:libm_error.obj
 0001:000260a4       $LN67                      100270a4     LIBCMTD:libm_error.obj
 0001:0002614c       $LN69                      1002714c     LIBCMTD:libm_error.obj
 0001:00026520       _xcptlookup                10027520 f   LIBCMTD:winxfltr.obj
 0001:00026cd0       _parse_cmdline             10027cd0 f   LIBCMTD:stdargv.obj
 0001:00027450       $$000000                   10028450     LIBCMTD:asin_pentium4.obj
 0001:000279d0       $$000000                   100289d0     LIBCMTD:acos_pentium4.obj
 0001:00027f30       $$000000                   10028f30     LIBCMTD:tan_pentium4.obj
 0001:00028480       __onexit_nolock            10029480 f   LIBCMTD:onexit.obj
 0001:00028660       _ctrlevent_capture@4       10029660 f   LIBCMTD:winsig.obj
 0001:00028a5c       $LN41                      10029a5c     LIBCMTD:winsig.obj
 0001:00028a74       $LN39                      10029a74     LIBCMTD:winsig.obj
 0001:00028a90       _siglookup                 10029a90 f   LIBCMTD:winsig.obj
 0001:00028e54       $LN49                      10029e54     LIBCMTD:winsig.obj
 0001:00028e68       $LN46                      10029e68     LIBCMTD:winsig.obj
 0001:00028e80       $LN50                      10029e80     LIBCMTD:winsig.obj
 0001:00028e88       $LN47                      10029e88     LIBCMTD:winsig.obj
 0001:00029140       ?CPtoLocaleName@@YAPB_WH@Z 1002a140 f   LIBCMTD:mbctype.obj
 0001:000291b4       $LN10                      1002a1b4     LIBCMTD:mbctype.obj
 0001:000291c8       $LN9                       1002a1c8     LIBCMTD:mbctype.obj
 0001:000291e0       ?getSystemCP@@YAHH@Z       1002a1e0 f   LIBCMTD:mbctype.obj
 0001:000292f0       ?setSBCS@@YAXPAUthreadmbcinfostruct@@@Z 1002a2f0 f   LIBCMTD:mbctype.obj
 0001:000293d0       ?setSBUpLow@@YAXPAUthreadmbcinfostruct@@@Z 1002a3d0 f   LIBCMTD:mbctype.obj
 0001:0002e2a4       $LN424                     1002f2a4     LIBCMTD:outputp.obj
 0001:0002e2c4       $LN425                     1002f2c4     LIBCMTD:outputp.obj
 0001:0002e2dc       $LN420                     1002f2dc     LIBCMTD:outputp.obj
 0001:0002e2f0       $LN426                     1002f2f0     LIBCMTD:outputp.obj
 0001:0002e304       $LN421                     1002f304     LIBCMTD:outputp.obj
 0001:0002e334       $LN427                     1002f334     LIBCMTD:outputp.obj
 0001:0002e370       $LN422                     1002f370     LIBCMTD:outputp.obj
 0001:0002e3a8       $LN428                     1002f3a8     LIBCMTD:outputp.obj
 0001:0002e6e0       _write_char                1002f6e0 f   LIBCMTD:outputp.obj
 0001:0002e780       _write_multi_char          1002f780 f   LIBCMTD:outputp.obj
 0001:0002e7c0       _write_string              1002f7c0 f   LIBCMTD:outputp.obj
 0001:0002eba0       $$000000                   1002fba0     LIBCMTD:strlen.obj
 0001:00030b50       $$000000                   10031b50     LIBCMTD:chkstk.obj
 0001:00031710       __is_LFH_enabled           10032710 f   LIBCMTD:expand.obj
 0001:00032694       $LN19                      10033694     LIBCMTD:87except.obj
 0001:000326c0       ?GetPdbDll@@YAPAUHINSTANCE__@@XZ 100336c0 f   LIBCMTD:pdblkup.obj
 0001:00032800       ?GetPdbDllFromInstallPath@@YAPAUHINSTANCE__@@XZ 10033800 f   LIBCMTD:pdblkup.obj
 0001:00032a30       ?GetPdbDllPathFromFilePath@@YAHPB_WPA_WI@Z 10033a30 f   LIBCMTD:pdblkup.obj
 0001:00033a50       $$000000                   10034a50     LIBCMTD:memmove.obj
 0001:00033ca0       LeadUpVec                  10034ca0     LIBCMTD:memmove.obj
 0001:00033d1c       UnwindUpVec                10034d1c     LIBCMTD:memmove.obj
 0001:00033d88       TrailUpVec                 10034d88     LIBCMTD:memmove.obj
 0001:00033e2c       LeadDownVec                10034e2c     LIBCMTD:memmove.obj
 0001:00033eb8       UnwindDownVec              10034eb8     LIBCMTD:memmove.obj
 0001:00033f24       TrailDownVec               10034f24     LIBCMTD:memmove.obj
 0001:00034960       $$000000                   10035960     LIBCMTD:lldiv.obj
 0001:00034a10       $$000000                   10035a10     LIBCMTD:llrem.obj
 0001:00034ad0       $$000000                   10035ad0     LIBCMTD:llshl.obj
 0001:00034af0       $$000000                   10035af0     LIBCMTD:ullshr.obj
 0001:00034cc0       $$000000                   10035cc0     LIBCMTD:exsup.obj
 0001:00034ce0       __unwind_handler           10035ce0 f   LIBCMTD:exsup.obj
 0001:00035f10       $$000000                   10036f10     LIBCMTD:ulldiv.obj
 0001:00035f80       $$000000                   10036f80     LIBCMTD:ullrem.obj
 0001:0003a86c       $LN57                      1003b86c     LIBCMTD:undname.obj
 0001:0003a898       $LN53                      1003b898     LIBCMTD:undname.obj
 0001:0003a8b8       $LN58                      1003b8b8     LIBCMTD:undname.obj
 0001:0003a8ec       $LN54                      1003b8ec     LIBCMTD:undname.obj
 0001:0003a948       $LN59                      1003b948     LIBCMTD:undname.obj
 0001:0003a958       $LN55                      1003b958     LIBCMTD:undname.obj
 0001:0003a978       $LN60                      1003b978     LIBCMTD:undname.obj
 0001:0003a980       $LN56                      1003b980     LIBCMTD:undname.obj
 0001:0003ab08       $LN19                      1003bb08     LIBCMTD:undname.obj
 0001:0003ab2c       $LN18                      1003bb2c     LIBCMTD:undname.obj
 0001:0003bba0       $LN16                      1003cba0     LIBCMTD:undname.obj
 0001:0003bbc0       $LN15                      1003cbc0     LIBCMTD:undname.obj
 0001:0003bd54       $LN17                      1003cd54     LIBCMTD:undname.obj
 0001:0003bd74       $LN18                      1003cd74     LIBCMTD:undname.obj
 0001:0003bd7c       $LN16                      1003cd7c     LIBCMTD:undname.obj
 0001:0003d0e4       $LN62                      1003e0e4     LIBCMTD:undname.obj
 0001:0003d100       $LN59                      1003e100     LIBCMTD:undname.obj
 0001:0003d160       $LN63                      1003e160     LIBCMTD:undname.obj
 0001:0003d194       $LN60                      1003e194     LIBCMTD:undname.obj
 0001:0003d1f4       $LN64                      1003e1f4     LIBCMTD:undname.obj
 0001:0003d208       $LN65                      1003e208     LIBCMTD:undname.obj
 0001:0003d210       $LN61                      1003e210     LIBCMTD:undname.obj
 0001:0003d548       $LN28                      1003e548     LIBCMTD:undname.obj
 0001:0003d55c       $LN26                      1003e55c     LIBCMTD:undname.obj
 0001:0003d5a0       $LN29                      1003e5a0     LIBCMTD:undname.obj
 0001:0003d5c4       $LN27                      1003e5c4     LIBCMTD:undname.obj
 0001:0003df34       $LN40                      1003ef34     LIBCMTD:undname.obj
 0001:0003df4c       $LN39                      1003ef4c     LIBCMTD:undname.obj
 0001:0003eca4       $LN35                      1003fca4     LIBCMTD:undname.obj
 0001:0003eccc       $LN34                      1003fccc     LIBCMTD:undname.obj
 0001:0003ed24       $LN36                      1003fd24     LIBCMTD:undname.obj
 0001:0003f914       $LN118                     10040914     LIBCMTD:undname.obj
 0001:0003f930       $LN119                     10040930     LIBCMTD:undname.obj
 0001:0003f958       $LN116                     10040958     LIBCMTD:undname.obj
 0001:0003f9ac       $LN120                     100409ac     LIBCMTD:undname.obj
 0001:0003f9c0       $LN117                     100409c0     LIBCMTD:undname.obj
 0001:0003fa14       $LN121                     10040a14     LIBCMTD:undname.obj
 0001:00040450       ?und_memcpy@@YAXPADPBDI@Z  10041450 f   LIBCMTD:undname.obj
 0001:00040490       ?und_strlen@@YAIPBD@Z      10041490 f   LIBCMTD:undname.obj
 0001:000404d0       ?und_strncmp@@YAIPBD0I@Z   100414d0 f   LIBCMTD:undname.obj
 0001:000430c0       ?__crtGetLocaleInfoA_stat@@YAHPAUlocaleinfo_struct@@PB_WKPADH@Z 100440c0 f   LIBCMTD:a_loc.obj
 0001:00043580       ___crtEnumLocalesProc@4    10044580 f   LIBCMTD:winapinls.obj
 0001:00043940       ?x_ismbbtype_l@@YAHPAUlocaleinfo_struct@@IHH@Z 10044940 f   LIBCMTD:ismbbyte.obj
 0001:00043d80       ?__crtLCMapStringA_stat@@YAHPAUlocaleinfo_struct@@PB_WKPBDHPADHHH@Z 10044d80 f   LIBCMTD:a_map.obj
 0001:00044060       ?strncnt@@YAHPBDH@Z        10045060 f   LIBCMTD:a_map.obj
 0001:00044110       ?__crtGetStringTypeA_stat@@YAHPAUlocaleinfo_struct@@KPBDHPAGHH@Z 10045110 f   LIBCMTD:a_str.obj
 0001:000459a8       $LN180                     100469a8     LIBCMTD:outputs.obj
 0001:000459c8       $LN181                     100469c8     LIBCMTD:outputs.obj
 0001:000459e0       $LN176                     100469e0     LIBCMTD:outputs.obj
 0001:000459f4       $LN182                     100469f4     LIBCMTD:outputs.obj
 0001:00045a08       $LN177                     10046a08     LIBCMTD:outputs.obj
 0001:00045a38       $LN183                     10046a38     LIBCMTD:outputs.obj
 0001:00045a74       $LN178                     10046a74     LIBCMTD:outputs.obj
 0001:00045ab0       _write_char                10046ab0 f   LIBCMTD:outputs.obj
 0001:00045b50       _write_multi_char          10046b50 f   LIBCMTD:outputs.obj
 0001:00045b90       _write_string              10046b90 f   LIBCMTD:outputs.obj
 0001:00045c50       ?strtoxl@@YAKPAUlocaleinfo_struct@@PBDPAPBDHH@Z 10046c50 f   LIBCMTD:strtol.obj
 0001:000483e0       $LN160                     100493e0     LIBCMTD:woutput.obj
 0001:00048400       $LN161                     10049400     LIBCMTD:woutput.obj
 0001:00048418       $LN156                     10049418     LIBCMTD:woutput.obj
 0001:0004842c       $LN162                     1004942c     LIBCMTD:woutput.obj
 0001:00048440       $LN157                     10049440     LIBCMTD:woutput.obj
 0001:00048470       $LN163                     10049470     LIBCMTD:woutput.obj
 0001:000484ac       $LN158                     100494ac     LIBCMTD:woutput.obj
 0001:000484f0       _write_char                100494f0 f   LIBCMTD:woutput.obj
 0001:00048550       _write_multi_char          10049550 f   LIBCMTD:woutput.obj
 0001:00048590       _write_string              10049590 f   LIBCMTD:woutput.obj
 0001:00048a50       @x64toa_s@24               10049a50 f   LIBCMTD:xtoas.obj
 0001:00048fb0       _xtoa_s@20                 10049fb0 f   LIBCMTD:xtoas.obj
 0001:00049b80       ?wcsncnt@@YAIPB_WI@Z       1004ab80 f   LIBCMTD:wcstombs.obj
 0001:0004a4c0       @x64tow_s@24               1004b4c0 f   LIBCMTD:xtows.obj
 0001:0004aa30       _xtow_s@20                 1004ba30 f   LIBCMTD:xtows.obj
 0001:0004bf50       _fix_grouping              1004cf50 f   LIBCMTD:initmon.obj
 0001:0004c3d0       _fix_grouping              1004d3d0 f   LIBCMTD:initnum.obj
 0001:0004ce90       __get_lc_time              1004de90 f   LIBCMTD:inittime.obj
 0001:0004e358       $LN16                      1004f358     LIBCMTD:wsetloca.obj
 0001:0004e370       __copytlocinfo_nolock      1004f370 f   LIBCMTD:wsetloca.obj
 0001:0004f030       __wsetlocale_get_all       10050030 f   LIBCMTD:wsetloca.obj
 0001:0004f3f0       __wsetlocale_nolock        100503f0 f   LIBCMTD:wsetloca.obj
 0001:0004f840       __wsetlocale_set_cat       10050840 f   LIBCMTD:wsetloca.obj
 0001:0004fe20       _sync_legacy_variables_lk  10050e20 f   LIBCMTD:wsetloca.obj
 0001:00052108       $LN137                     10053108     LIBCMTD:strgtold.obj
 0001:00052138       $LN138                     10053138     LIBCMTD:strgtold.obj
 0001:00052148       $LN134                     10053148     LIBCMTD:strgtold.obj
 0001:00052184       $LN139                     10053184     LIBCMTD:strgtold.obj
 0001:00052190       $LN135                     10053190     LIBCMTD:strgtold.obj
 0001:000521cc       $LN140                     100531cc     LIBCMTD:strgtold.obj
 0001:000521d8       $LN136                     100531d8     LIBCMTD:strgtold.obj
 0001:000528e0       ___abstract_cw_sse2        100538e0 f   LIBCMTD:ieee87.obj
 0001:00052a30       ___abstract_sw_sse2        10053a30 f   LIBCMTD:ieee87.obj
 0001:00052ac0       ___clearfp_sse2            10053ac0 f   LIBCMTD:ieee87.obj
 0001:00052b90       ___control87_sse2          10053b90 f   LIBCMTD:ieee87.obj
 0001:00052c10       ___fpreset_sse2            10053c10 f   LIBCMTD:ieee87.obj
 0001:00052c30       ___hw_cw_sse2              10053c30 f   LIBCMTD:ieee87.obj
 0001:00052d80       ___statusfp_sse2           10053d80 f   LIBCMTD:ieee87.obj
 0001:00052da0       __abstract_cw              10053da0 f   LIBCMTD:ieee87.obj
 0001:00052ef0       __abstract_sw              10053ef0 f   LIBCMTD:ieee87.obj
 0001:000530f0       __hw_cw                    100540f0 f   LIBCMTD:ieee87.obj
 0001:00054560       ___createFile              10055560 f   LIBCMTD:wopen.obj
 0001:00055a7c       $LN137                     10056a7c     LIBCMTD:wopen.obj
 0001:00055a94       $LN136                     10056a94     LIBCMTD:wopen.obj
 0001:00055b08       $LN138                     10056b08     LIBCMTD:wopen.obj
 0001:00055b1c       $LN139                     10056b1c     LIBCMTD:wopen.obj
 0001:00059bbc       $LN398                     1005abbc     LIBCMTD:woutputp.obj
 0001:00059bdc       $LN399                     1005abdc     LIBCMTD:woutputp.obj
 0001:00059bf4       $LN394                     1005abf4     LIBCMTD:woutputp.obj
 0001:00059c08       $LN400                     1005ac08     LIBCMTD:woutputp.obj
 0001:00059c1c       $LN395                     1005ac1c     LIBCMTD:woutputp.obj
 0001:00059c4c       $LN401                     1005ac4c     LIBCMTD:woutputp.obj
 0001:00059c88       $LN396                     1005ac88     LIBCMTD:woutputp.obj
 0001:00059cc0       $LN402                     1005acc0     LIBCMTD:woutputp.obj
 0001:00059ce0       _write_char                1005ace0 f   LIBCMTD:woutputp.obj
 0001:00059d40       _write_multi_char          1005ad40 f   LIBCMTD:woutputp.obj
 0001:00059d80       _write_string              1005ad80 f   LIBCMTD:woutputp.obj
 0001:0005b328       $LN169                     1005c328     LIBCMTD:woutputs.obj
 0001:0005b348       $LN170                     1005c348     LIBCMTD:woutputs.obj
 0001:0005b360       $LN165                     1005c360     LIBCMTD:woutputs.obj
 0001:0005b374       $LN171                     1005c374     LIBCMTD:woutputs.obj
 0001:0005b388       $LN166                     1005c388     LIBCMTD:woutputs.obj
 0001:0005b3b8       $LN172                     1005c3b8     LIBCMTD:woutputs.obj
 0001:0005b3f4       $LN167                     1005c3f4     LIBCMTD:woutputs.obj
 0001:0005b430       _write_char                1005c430 f   LIBCMTD:woutputs.obj
 0001:0005b490       _write_multi_char          1005c490 f   LIBCMTD:woutputs.obj
 0001:0005b4d0       _write_string              1005c4d0 f   LIBCMTD:woutputs.obj
 0001:0005b9c0       _cmpBYTE                   1005c9c0 f   LIBCMTD:memcmp.obj
 0001:0005b9f0       _cmpDWORD                  1005c9f0 f   LIBCMTD:memcmp.obj
 0001:0005bac0       _cmpResult                 1005cac0 f   LIBCMTD:memcmp.obj
 0001:0005baf0       _cmpWORD                   1005caf0 f   LIBCMTD:memcmp.obj
 0001:0005bd14       $LN22                      1005cd14     LIBCMTD:memcmp.obj
 0001:0005bd30       _unaligned_memcmp          1005cd30 f   LIBCMTD:memcmp.obj
 0001:0005c3b4       $LN79                      1005d3b4     LIBCMTD:memcmp.obj
 0001:0005c5d0       _GetLocaleNameFromDefault  1005d5d0 f   LIBCMTD:getqloc.obj
 0001:0005c670       _GetLocaleNameFromLangCountry 1005d670 f   LIBCMTD:getqloc.obj
 0001:0005c750       _GetLocaleNameFromLanguage 1005d750 f   LIBCMTD:getqloc.obj
 0001:0005c7e0       _GetPrimaryLen             1005d7e0 f   LIBCMTD:getqloc.obj
 0001:0005c860       _LangCountryEnumProcEx@12  1005d860 f   LIBCMTD:getqloc.obj
 0001:0005cdc0       _LanguageEnumProcEx@12     1005ddc0 f   LIBCMTD:getqloc.obj
 0001:0005cf00       _ProcessCodePage           1005df00 f   LIBCMTD:getqloc.obj
 0001:0005cfb0       _TestDefaultCountry        1005dfb0 f   LIBCMTD:getqloc.obj
 0001:0005d010       _TestDefaultLanguage       1005e010 f   LIBCMTD:getqloc.obj
 0001:0005d060       _TranslateName             1005e060 f   LIBCMTD:getqloc.obj
 0001:0005d3c0       _CountryEnumProc@4         1005e3c0 f   LIBCMTD:getqloc_downlevel.obj
 0001:0005d500       _GetLcidFromCountry        1005e500 f   LIBCMTD:getqloc_downlevel.obj
 0001:0005d570       _GetLcidFromDefault        1005e570 f   LIBCMTD:getqloc_downlevel.obj
 0001:0005d5b0       _GetLcidFromLangCountry    1005e5b0 f   LIBCMTD:getqloc_downlevel.obj
 0001:0005d690       _GetLcidFromLanguage       1005e690 f   LIBCMTD:getqloc_downlevel.obj
 0001:0005d720       _GetPrimaryLen             1005e720 f   LIBCMTD:getqloc_downlevel.obj
 0001:0005d790       _LangCountryEnumProc@4     1005e790 f   LIBCMTD:getqloc_downlevel.obj
 0001:0005dc30       _LanguageEnumProc@4        1005ec30 f   LIBCMTD:getqloc_downlevel.obj
 0001:0005de10       _LcidFromHexString         1005ee10 f   LIBCMTD:getqloc_downlevel.obj
 0001:0005dea0       _ProcessCodePage           1005eea0 f   LIBCMTD:getqloc_downlevel.obj
 0001:0005df50       _TestDefaultCountry        1005ef50 f   LIBCMTD:getqloc_downlevel.obj
 0001:0005dfa0       _TestDefaultLanguage       1005efa0 f   LIBCMTD:getqloc_downlevel.obj
 0001:0005e030       _TranslateName             1005f030 f   LIBCMTD:getqloc_downlevel.obj
 0001:0005e7d0       ?strtoxq@@YA_KPAUlocaleinfo_struct@@PBDPAPBDHH@Z 1005f7d0 f   LIBCMTD:strtoq.obj
 0001:0005fbc0       $$000000                   10060bc0     LIBCMTD:_strnicm.obj
 0001:0005fc30       ?wcstoxl@@YAKPB_WPAPB_WHH@Z 10060c30 f   LIBCMTD:wcstol.obj
 0001:000610a0       $$000000                   100620a0     LIBCMTD:llmul.obj
 0001:00061400       ?wcstoxq@@YA_KPAUlocaleinfo_struct@@PB_WPAPB_WHH@Z 10062400 f   LIBCMTD:wcstoq.obj
 0001:00062c4c       $LN137                     10063c4c     LIBCMTD:wstrgtold.obj
 0001:00062c7c       $LN138                     10063c7c     LIBCMTD:wstrgtold.obj
 0001:00062c8c       $LN134                     10063c8c     LIBCMTD:wstrgtold.obj
 0001:00062cc8       $LN139                     10063cc8     LIBCMTD:wstrgtold.obj
 0001:00062cd4       $LN135                     10063cd4     LIBCMTD:wstrgtold.obj
 0001:00062d10       $LN140                     10063d10     LIBCMTD:wstrgtold.obj
 0001:00062d1c       $LN136                     10063d1c     LIBCMTD:wstrgtold.obj
 0001:00062f60       __unwindfunclet$?InitFuncPt@@YAHHPAX@Z$0 10063f60 f   damned.obj
 0001:00062f6b       __ehhandler$?InitFuncPt@@YAHHPAX@Z 10063f6b f   damned.obj
 0001:00062f90       __unwindfunclet$?initTrack@Driver@@QAEXPAUtTrack@@PAXPAPAXPAUSituation@@@Z$0 10063f90 f   driver.obj
 0001:00062f9e       __ehhandler$?initTrack@Driver@@QAEXPAUtTrack@@PAXPAPAXPAUSituation@@@Z 10063f9e f   driver.obj
 0001:00062fc6       __unwindfunclet$?newRace@Driver@@QAEXPAUCarElt@@PAUSituation@@@Z$0 10063fc6 f   driver.obj
 0001:00062fd1       __unwindfunclet$?newRace@Driver@@QAEXPAUCarElt@@PAUSituation@@@Z$1 10063fd1 f   driver.obj
 0001:00062fdc       __unwindfunclet$?newRace@Driver@@QAEXPAUCarElt@@PAUSituation@@@Z$2 10063fdc f   driver.obj
 0001:00062fe7       __unwindfunclet$?newRace@Driver@@QAEXPAUCarElt@@PAUSituation@@@Z$3 10063fe7 f   driver.obj
 0001:00062ff2       __ehhandler$?newRace@Driver@@QAEXPAUCarElt@@PAUSituation@@@Z 10063ff2 f   driver.obj
 0001:00063010       __unwindfunclet$??0Opponents@@QAE@PAUSituation@@PAVDriver@@PAVCardata@@@Z$0 10064010 f   opponent.obj
 0001:0006301b       __ehhandler$??0Opponents@@QAE@PAUSituation@@PAVDriver@@PAVCardata@@@Z 1006401b f   opponent.obj
 0001:00063040       __unwindfunclet$??0Pit@@QAE@PAUSituation@@PAVDriver@@@Z$0 10064040 f   pit.obj
 0001:0006304b       __ehhandler$??0Pit@@QAE@PAUSituation@@PAVDriver@@@Z 1006404b f   pit.obj
 0001:00063070       __ehhandler$?CallUnexpected@@YAXPBU_s_ESTypeList@@@Z 10064070 f   LIBCMTD:frame.obj
 0001:00063090       __unwindfunclet$?getSystemCP@@YAHH@Z$0 10064090 f   LIBCMTD:mbctype.obj
 0001:00063098       __ehhandler$?getSystemCP@@YAHH@Z 10064098 f   LIBCMTD:mbctype.obj
 0001:000630c0       __unwindfunclet$?make@DNameStatusNode@@SAPAV1@W4DNameStatus@@@Z$0 100640c0 f   LIBCMTD:undname.obj
 0001:000630ce       __ehhandler$?make@DNameStatusNode@@SAPAV1@W4DNameStatus@@@Z 100640ce f   LIBCMTD:undname.obj
 0001:000630f0       __unwindfunclet$?x_ismbbtype_l@@YAHPAUlocaleinfo_struct@@IHH@Z$0 100640f0 f   LIBCMTD:ismbbyte.obj
 0001:000630f8       __ehhandler$?x_ismbbtype_l@@YAHPAUlocaleinfo_struct@@IHH@Z 100640f8 f   LIBCMTD:ismbbyte.obj
 0001:00063120       __unwindfunclet$?strtoxl@@YAKPAUlocaleinfo_struct@@PBDPAPBDHH@Z$0 10064120 f   LIBCMTD:strtol.obj
 0001:00063128       __ehhandler$?strtoxl@@YAKPAUlocaleinfo_struct@@PBDPAPBDHH@Z 10064128 f   LIBCMTD:strtol.obj
 0001:00063150       __unwindfunclet$?strtoxq@@YA_KPAUlocaleinfo_struct@@PBDPAPBDHH@Z$0 10064150 f   LIBCMTD:strtoq.obj
 0001:00063158       __ehhandler$?strtoxq@@YA_KPAUlocaleinfo_struct@@PBDPAPBDHH@Z 10064158 f   LIBCMTD:strtoq.obj
 0001:00063180       __unwindfunclet$?wcstoxq@@YA_KPAUlocaleinfo_struct@@PB_WPAPB_WHH@Z$0 10064180 f   LIBCMTD:wcstoq.obj
 0001:00063188       __ehhandler$?wcstoxq@@YA_KPAUlocaleinfo_struct@@PB_WPAPB_WHH@Z 10064188 f   LIBCMTD:wcstoq.obj
 0002:00000190       ?MAX_UNSTUCK_ANGLE$initializer$@Driver@@0P6AXXZA 10065190     driver.obj
 0002:0000019c       _pinit                     1006519c     LIBCMTD:_file.obj
 0002:000001a0       _pinit                     100651a0     LIBCMTD:mathfcns.obj
 0002:000001a4       _pinit                     100651a4     LIBCMTD:cpu_disp.obj
 0002:000001a8       _pinit                     100651a8     LIBCMTD:onexit.obj
 0002:000001ac       _pinit                     100651ac     LIBCMTD:mbctype.obj
 0002:000001b8       _pterm                     100651b8     LIBCMTD:wsetloca.obj
 0002:000001bc       _pterm                     100651bc     LIBCMTD:initcon.obj
 0002:000001c0       _pterm                     100651c0     LIBCMTD:_file.obj
 0002:00000208       __ulEndianTest             10065208     cardata.obj
 0002:00000210       _PI                        10065210     cardata.obj
 0002:00000230       __ulEndianTest             10065230     damned.obj
 0002:00000234       $SG109481                  10065234     damned.obj
 0002:00000240       $SG109482                  10065240     damned.obj
 0002:0000024c       $SG109483                  1006524c     damned.obj
 0002:00000258       $SG109484                  10065258     damned.obj
 0002:00000264       $SG109485                  10065264     damned.obj
 0002:00000270       $SG109486                  10065270     damned.obj
 0002:0000027c       $SG109487                  1006527c     damned.obj
 0002:00000288       $SG109488                  10065288     damned.obj
 0002:00000294       $SG109489                  10065294     damned.obj
 0002:000002a0       $SG109490                  100652a0     damned.obj
 0002:000002ac       $SG109492                  100652ac     damned.obj
 0002:000002b8       $SG109493                  100652b8     damned.obj
 0002:000002c4       $SG109494                  100652c4     damned.obj
 0002:000002d0       $SG109495                  100652d0     damned.obj
 0002:000002dc       $SG109496                  100652dc     damned.obj
 0002:000002e8       $SG109497                  100652e8     damned.obj
 0002:000002f4       $SG109498                  100652f4     damned.obj
 0002:00000300       $SG109499                  10065300     damned.obj
 0002:0000030c       $SG109500                  1006530c     damned.obj
 0002:00000318       $SG109501                  10065318     damned.obj
 0002:00000328       $SG109569                  10065328     driver.obj
 0002:00000334       $SG109570                  10065334     driver.obj
 0002:00000344       $SG109584                  10065344     driver.obj
 0002:0000034c       $SG109585                  1006534c     driver.obj
 0002:00000350       $SG109596                  10065350     driver.obj
 0002:0000035c       $SG109597                  1006535c     driver.obj
 0002:0000036c       __ulEndianTest             1006536c     driver.obj
 0002:00000370       _PI                        10065370     driver.obj
 0002:00000378       $SG109977                  10065378     driver.obj
 0002:0000038c       $SG109978                  1006538c     driver.obj
 0002:000003a0       $SG109979                  100653a0     driver.obj
 0002:000003b4       $SG109980                  100653b4     driver.obj
 0002:000003c4       $SG109983                  100653c4     driver.obj
 0002:000003cc       $SG109984                  100653cc     driver.obj
 0002:000003d8       $SG109987                  100653d8     driver.obj
 0002:000003e0       $SG109988                  100653e0     driver.obj
 0002:000003ec       $SG109993                  100653ec     driver.obj
 0002:000003f8       $SG109994                  100653f8     driver.obj
 0002:00000408       $SG109995                  10065408     driver.obj
 0002:00000414       $SG109996                  10065414     driver.obj
 0002:00000424       $SG110003                  10065424     driver.obj
 0002:00000430       $SG110009                  10065430     driver.obj
 0002:00000434       $SG110010                  10065434     driver.obj
 0002:00000444       $SG110013                  10065444     driver.obj
 0002:00000450       $SG110014                  10065450     driver.obj
 0002:00000460       $SG110019                  10065460     driver.obj
 0002:00000474       $SG110020                  10065474     driver.obj
 0002:00000488       $SG110021                  10065488     driver.obj
 0002:0000049c       $SG110022                  1006549c     driver.obj
 0002:000004ac       $SG110030                  100654ac     driver.obj
 0002:000004b0       $SG110031                  100654b0     driver.obj
 0002:000004b4       $SG110143                  100654b4     driver.obj
 0002:000004b8       $SG110144                  100654b8     driver.obj
 0002:000004c0       $SG110145                  100654c0     driver.obj
 0002:000004cc       $SG110147                  100654cc     driver.obj
 0002:000004d0       $SG110150                  100654d0     driver.obj
 0002:000004d4       $SG110153                  100654d4     driver.obj
 0002:00000558       $SG109556                  10065558     driver.obj
 0002:00000578       $SG109558                  10065578     driver.obj
 0002:00000598       $SG109560                  10065598     driver.obj
 0002:000005b4       $SG109563                  100655b4     driver.obj
 0002:00000680       __ulEndianTest             10065680     learn.obj
 0002:00000684       $SG108977                  10065684     learn.obj
 0002:00000687       $SG109001                  10065687     learn.obj
 0002:00000688       $SG108982                  10065688     learn.obj
 0002:00000690       $SG109003                  10065690     learn.obj
 0002:00000698       $SG109026                  10065698     learn.obj
 0002:000006bc       $SG109029                  100656bc     learn.obj
 0002:000006e4       $SG109032                  100656e4     learn.obj
 0002:0000070c       $SG109047                  1006570c     learn.obj
 0002:00000710       $SG109048                  10065710     learn.obj
 0002:00000718       __ulEndianTest             10065718     opponent.obj
 0002:0000073c       __ulEndianTest             1006573c     pit.obj
 0002:00000758       $SG109568                  10065758     strategy.obj
 0002:00000768       $SG109570                  10065768     strategy.obj
 0002:00000770       $SG109571                  10065770     strategy.obj
 0002:00000780       $SG109573                  10065780     strategy.obj
 0002:00000788       $SG109574                  10065788     strategy.obj
 0002:00000798       $SG109576                  10065798     strategy.obj
 0002:000007a4       $SG109577                  100657a4     strategy.obj
 0002:000007b4       $SG109580                  100657b4     strategy.obj
 0002:000007c0       $SG109581                  100657c0     strategy.obj
 0002:000007c4       $SG109596                  100657c4     strategy.obj
 0002:000007d4       $SG109597                  100657d4     strategy.obj
 0002:000007d8       __ulEndianTest             100657d8     strategy.obj
 0002:000007e4       $SG109500                  100657e4     strategy.obj
 0002:000007f0       $SG109501                  100657f0     strategy.obj
 0002:00000800       $SG109504                  10065800     strategy.obj
 0002:0000080c       $SG109505                  1006580c     strategy.obj
 0002:00000810       $SG109507                  10065810     strategy.obj
 0002:00000820       $SG109508                  10065820     strategy.obj
 0002:00000824       $SG109567                  10065824     strategy.obj
 0002:00000888       __ulEndianTest             10065888     sg_vs2008_32:sgd.obj
 0002:00000a88       __ulEndianTest             10065a88     ul_vs2008_32:ulError.obj
 0002:00000c54       _GS_ExceptionPointers      10065c54     LIBCMTD:gs_report.obj
 0002:000010a0       _One                       100660a0     LIBCMTD:ceil_pentium4.obj
 0002:000010b0       _Bns                       100660b0     LIBCMTD:ceil_pentium4.obj
 0002:000010c0       _Zero                      100660c0     LIBCMTD:ceil_pentium4.obj
 0002:000010d0       _S                         100660d0     LIBCMTD:ceil_pentium4.obj
 0002:000010e0       _NegZero                   100660e0     LIBCMTD:ceil_pentium4.obj
 0002:0000162c       ?ExceptionTemplate@?1??_CxxThrowException@@9@8@4UEHExceptionRecord@@B 1006662c     LIBCMTD:throw.obj
 0002:00001678       __CrtDbgModeMsg            10066678     LIBCMTD:dbgrptw.obj
 0002:00001d54       _szBlockUseName            10066d54     LIBCMTD:dbgheap.obj
 0002:00002f20       Ctable                     10067f20     LIBCMTD:cos_pentium4.obj
 0002:00003720       SC_1                       10068720     LIBCMTD:cos_pentium4.obj
 0002:00003730       SC_2                       10068730     LIBCMTD:cos_pentium4.obj
 0002:00003740       SC_3                       10068740     LIBCMTD:cos_pentium4.obj
 0002:00003750       SC_4                       10068750     LIBCMTD:cos_pentium4.obj
 0002:00003760       PI32INV                    10068760     LIBCMTD:cos_pentium4.obj
 0002:00003768       SHIFTER                    10068768     LIBCMTD:cos_pentium4.obj
 0002:00003770       P_2                        10068770     LIBCMTD:cos_pentium4.obj
 0002:00003780       P_1                        10068780     LIBCMTD:cos_pentium4.obj
 0002:00003788       P_3                        10068788     LIBCMTD:cos_pentium4.obj
 0002:00003790       TWO_POW_55                 10068790     LIBCMTD:cos_pentium4.obj
 0002:00003798       TWO_POW_M55                10068798     LIBCMTD:cos_pentium4.obj
 0002:000037a0       ALL_ONES                   100687a0     LIBCMTD:cos_pentium4.obj
 0002:000037a8       NEG_ZERO                   100687a8     LIBCMTD:cos_pentium4.obj
 0002:000037b0       ONE                        100687b0     LIBCMTD:cos_pentium4.obj
 0002:000037c0       SIGN_MASK                  100687c0     LIBCMTD:cos_pentium4.obj
 0002:000037e4       One                        100687e4     LIBCMTD:87disp.obj
 0002:000037ec       XAMtoTagTab                100687ec     LIBCMTD:87disp.obj
 0002:00003800       One                        10068800     LIBCMTD:common.obj
 0002:00003814       DblMax                     10068814     LIBCMTD:common.obj
 0002:0000381c       DblMin                     1006881c     LIBCMTD:common.obj
 0002:00003824       IeeeAdjO                   10068824     LIBCMTD:common.obj
 0002:0000382c       IeeeAdjU                   1006882c     LIBCMTD:common.obj
 0002:00003834       _infinity                  10068834     LIBCMTD:common.obj
 0002:0000383c       _zero                      1006883c     LIBCMTD:common.obj
 0002:00003850       Ctable                     10068850     LIBCMTD:sin_pentium4.obj
 0002:00004050       SC_1                       10069050     LIBCMTD:sin_pentium4.obj
 0002:00004060       SC_2                       10069060     LIBCMTD:sin_pentium4.obj
 0002:00004070       SC_3                       10069070     LIBCMTD:sin_pentium4.obj
 0002:00004080       SC_4                       10069080     LIBCMTD:sin_pentium4.obj
 0002:00004090       PI32INV                    10069090     LIBCMTD:sin_pentium4.obj
 0002:00004098       SHIFTER                    10069098     LIBCMTD:sin_pentium4.obj
 0002:000040a0       P_2                        100690a0     LIBCMTD:sin_pentium4.obj
 0002:000040b0       P_1                        100690b0     LIBCMTD:sin_pentium4.obj
 0002:000040b8       P_3                        100690b8     LIBCMTD:sin_pentium4.obj
 0002:000040c0       TWO_POW_55                 100690c0     LIBCMTD:sin_pentium4.obj
 0002:000040c8       TWO_POW_M55                100690c8     LIBCMTD:sin_pentium4.obj
 0002:000040d0       ALL_ONES                   100690d0     LIBCMTD:sin_pentium4.obj
 0002:000040d8       NEG_ZERO                   100690d8     LIBCMTD:sin_pentium4.obj
 0002:000040e0       ONE                        100690e0     LIBCMTD:sin_pentium4.obj
 0002:000040f0       __RTC_ErrorMessages        100690f0     LIBCMTD:error.obj
 0002:00004108       __RTC_NoFalsePositives     10069108     LIBCMTD:error.obj
 0002:00004120       _stack_premsg              10069120     LIBCMTD:error.obj
 0002:0000413c       _stack_postmsg             1006913c     LIBCMTD:error.obj
 0002:00004150       _uninit_premsg             10069150     LIBCMTD:error.obj
 0002:00004160       _uninit_postmsg            10069160     LIBCMTD:error.obj
 0002:000046c4       __RTC_errlist              100696c4     LIBCMTD:userapi.obj
 0002:00004fb0       DblMax                     10069fb0     LIBCMTD:87cdisp.obj
 0002:00004fb8       DblMin                     10069fb8     LIBCMTD:87cdisp.obj
 0002:00004fc0       IeeeAdjO                   10069fc0     LIBCMTD:87cdisp.obj
 0002:00004fc8       IeeeAdjU                   10069fc8     LIBCMTD:87cdisp.obj
 0002:00004fd0       _infinity                  10069fd0     LIBCMTD:87cdisp.obj
 0002:00004fd8       _zero                      10069fd8     LIBCMTD:87cdisp.obj
 0002:00004fe0       smask                      10069fe0     LIBCMTD:exp_pentium4.obj
 0002:00004ff0       emask                      10069ff0     LIBCMTD:exp_pentium4.obj
 0002:00005000       mmask                      1006a000     LIBCMTD:exp_pentium4.obj
 0002:00005010       bias                       1006a010     LIBCMTD:exp_pentium4.obj
 0002:00005020       Shifter                    1006a020     LIBCMTD:exp_pentium4.obj
 0002:00005030       twom60                     1006a030     LIBCMTD:exp_pentium4.obj
 0002:00005040       cv                         1006a040     LIBCMTD:exp_pentium4.obj
 0002:00005090       Tbl_addr                   1006a090     LIBCMTD:exp_pentium4.obj
 0002:00005490       ONE_val                    1006a490     LIBCMTD:exp_pentium4.obj
 0002:00005498       EMIN                       1006a498     LIBCMTD:exp_pentium4.obj
 0002:000054a0       MAX_ARG                    1006a4a0     LIBCMTD:exp_pentium4.obj
 0002:000054a8       MIN_ARG                    1006a4a8     LIBCMTD:exp_pentium4.obj
 0002:000054b0       INF                        1006a4b0     LIBCMTD:exp_pentium4.obj
 0002:000054b8       ZERO                       1006a4b8     LIBCMTD:exp_pentium4.obj
 0002:000054c0       XMAX                       1006a4c0     LIBCMTD:exp_pentium4.obj
 0002:000054c8       XMIN                       1006a4c8     LIBCMTD:exp_pentium4.obj
 0002:000054d0       Sm_Thres                   1006a4d0     LIBCMTD:exp_pentium4.obj
 0002:000054d8       Del_Thres                  1006a4d8     LIBCMTD:exp_pentium4.obj
 0002:000054fe       _log2max                   1006a4fe     LIBCMTD:87tran.obj
 0002:00005508       _smallarg                  1006a508     LIBCMTD:87tran.obj
 0002:00005512       _half                      1006a512     LIBCMTD:87tran.obj
 0002:00005610       emask                      1006a610     LIBCMTD:log_pentium4.obj
 0002:00005620       Magic                      1006a620     LIBCMTD:log_pentium4.obj
 0002:00005630       hi_mask                    1006a630     LIBCMTD:log_pentium4.obj
 0002:00005640       LOG_2                      1006a640     LIBCMTD:log_pentium4.obj
 0002:00005650       place_L                    1006a650     LIBCMTD:log_pentium4.obj
 0002:00005670       One                        1006a670     LIBCMTD:log_pentium4.obj
 0002:00005680       Zero                       1006a680     LIBCMTD:log_pentium4.obj
 0002:00005690       Two52                      1006a690     LIBCMTD:log_pentium4.obj
 0002:000056a0       Infs                       1006a6a0     LIBCMTD:log_pentium4.obj
 0002:000056b0       NaN                        1006a6b0     LIBCMTD:log_pentium4.obj
 0002:000056c0       coeff                      1006a6c0     LIBCMTD:log_pentium4.obj
 0002:000056f0       B_Tbl                      1006a6f0     LIBCMTD:log_pentium4.obj
 0002:00005b00       T_Tbl                      1006ab00     LIBCMTD:log_pentium4.obj
 0002:0000666c       ?ccsField@?P@??_openfile@@9@9 1006b66c     LIBCMTD:_open.obj
 0002:00006670       ?utf8encoding@?P@??_openfile@@9@9 1006b670     LIBCMTD:_open.obj
 0002:00006678       ?utf16encoding@?P@??_openfile@@9@9 1006b678     LIBCMTD:_open.obj
 0002:00006684       ?unicodeencoding@?P@??_openfile@@9@9 1006b684     LIBCMTD:_open.obj
 0002:00006aa8       _rterrs                    1006baa8     LIBCMTD:crt0msg.obj
 0002:000078b8       _INF                       1006c8b8     LIBCMTD:libm_error.obj
 0002:000078c8       _BIG                       1006c8c8     LIBCMTD:libm_error.obj
 0002:000078d8       _ZERO                      1006c8d8     LIBCMTD:libm_error.obj
 0002:000078e8       _INF_32                    1006c8e8     LIBCMTD:libm_error.obj
 0002:000078f0       _NAN_32                    1006c8f0     LIBCMTD:libm_error.obj
 0002:000078f8       _ZERO_32                   1006c8f8     LIBCMTD:libm_error.obj
 0002:00007900       _libm_largef               1006c900     LIBCMTD:libm_error.obj
 0002:00007908       _libm_smallf               1006c908     LIBCMTD:libm_error.obj
 0002:00007910       _libm_small                1006c910     LIBCMTD:libm_error.obj
 0002:00007b80       Shifter                    1006cb80     LIBCMTD:asin_pentium4.obj
 0002:00007b90       Tbl_addr                   1006cb90     LIBCMTD:asin_pentium4.obj
 0002:00008a90       T_table                    1006da90     LIBCMTD:asin_pentium4.obj
 0002:00009290       PI_BY_2                    1006e290     LIBCMTD:asin_pentium4.obj
 0002:000092a0       SIGNMASK                   1006e2a0     LIBCMTD:asin_pentium4.obj
 0002:000092b0       HALFMASK                   1006e2b0     LIBCMTD:asin_pentium4.obj
 0002:000092c0       HALFMASK2                  1006e2c0     LIBCMTD:asin_pentium4.obj
 0002:000092c8       cv                         1006e2c8     LIBCMTD:asin_pentium4.obj
 0002:000092e0       cv2                        1006e2e0     LIBCMTD:asin_pentium4.obj
 0002:00009320       ABSVALMASK                 1006e320     LIBCMTD:asin_pentium4.obj
 0002:00009328       TMASK                      1006e328     LIBCMTD:asin_pentium4.obj
 0002:00009330       ONEMASK                    1006e330     LIBCMTD:asin_pentium4.obj
 0002:00009338       EMIN                       1006e338     LIBCMTD:asin_pentium4.obj
 0002:00009340       MAX_ARG                    1006e340     LIBCMTD:asin_pentium4.obj
 0002:00009348       MIN_ARG                    1006e348     LIBCMTD:asin_pentium4.obj
 0002:00009350       INF                        1006e350     LIBCMTD:asin_pentium4.obj
 0002:00009358       ZERO                       1006e358     LIBCMTD:asin_pentium4.obj
 0002:00009360       Shifter                    1006e360     LIBCMTD:acos_pentium4.obj
 0002:00009370       Tbl_addr                   1006e370     LIBCMTD:acos_pentium4.obj
 0002:0000a270       T_table                    1006f270     LIBCMTD:acos_pentium4.obj
 0002:0000aa70       PI_BY_2                    1006fa70     LIBCMTD:acos_pentium4.obj
 0002:0000aa80       NEG_PI                     1006fa80     LIBCMTD:acos_pentium4.obj
 0002:0000aa90       PI                         1006fa90     LIBCMTD:acos_pentium4.obj
 0002:0000aaa0       SIGNMASK                   1006faa0     LIBCMTD:acos_pentium4.obj
 0002:0000aab0       HALFMASK                   1006fab0     LIBCMTD:acos_pentium4.obj
 0002:0000aac0       HALFMASK2                  1006fac0     LIBCMTD:acos_pentium4.obj
 0002:0000aad0       cv                         1006fad0     LIBCMTD:acos_pentium4.obj
 0002:0000aaf0       cv2                        1006faf0     LIBCMTD:acos_pentium4.obj
 0002:0000ab30       ABSVALMASK                 1006fb30     LIBCMTD:acos_pentium4.obj
 0002:0000ab38       TMASK                      1006fb38     LIBCMTD:acos_pentium4.obj
 0002:0000ab40       ONEMASK                    1006fb40     LIBCMTD:acos_pentium4.obj
 0002:0000ab48       ONE_BY_2                   1006fb48     LIBCMTD:acos_pentium4.obj
 0002:0000ab50       EMIN                       1006fb50     LIBCMTD:acos_pentium4.obj
 0002:0000ab58       MAX_ARG                    1006fb58     LIBCMTD:acos_pentium4.obj
 0002:0000ab60       MIN_ARG                    1006fb60     LIBCMTD:acos_pentium4.obj
 0002:0000ab68       INF                        1006fb68     LIBCMTD:acos_pentium4.obj
 0002:0000ab70       ZERO                       1006fb70     LIBCMTD:acos_pentium4.obj
 0002:0000ab78       ALPHA                      1006fb78     LIBCMTD:acos_pentium4.obj
 0002:0000ab80       Ctable                     1006fb80     LIBCMTD:tan_pentium4.obj
 0002:0000c180       PI32INV                    10071180     LIBCMTD:tan_pentium4.obj
 0002:0000c190       SHIFTER                    10071190     LIBCMTD:tan_pentium4.obj
 0002:0000c1a0       P_1                        100711a0     LIBCMTD:tan_pentium4.obj
 0002:0000c1b0       P_2                        100711b0     LIBCMTD:tan_pentium4.obj
 0002:0000c1c0       P_3                        100711c0     LIBCMTD:tan_pentium4.obj
 0002:0000c1d0       QQ_2                       100711d0     LIBCMTD:tan_pentium4.obj
 0002:0000c1d8       ONE                        100711d8     LIBCMTD:tan_pentium4.obj
 0002:0000c1e0       MASK_35                    100711e0     LIBCMTD:tan_pentium4.obj
 0002:0000c1f0       sign_mask                  100711f0     LIBCMTD:tan_pentium4.obj
 0002:0000c1f8       TWO_POW_55                 100711f8     LIBCMTD:tan_pentium4.obj
 0002:0000c200       TWO_POW_M55                10071200     LIBCMTD:tan_pentium4.obj
 0002:0000c208       TWO_POW_M53                10071208     LIBCMTD:tan_pentium4.obj
 0002:0000c210       INF                        10071210     LIBCMTD:tan_pentium4.obj
 0002:0000c43c       __mb_locale_names          1007143c     LIBCMTD:mbctype.obj
 0002:0000e154       __CrtDbgModeMsg            10073154     LIBCMTD:dbgrpt.obj
 0002:0000e65c       _msvcrdFilename            1007365c     LIBCMTD:pdblkup.obj
 0002:0000e678       _mspdbName                 10073678     LIBCMTD:pdblkup.obj
 0002:0000e75c       ?dllExt@?1??GetPdbDllPathFromFilePath@@YAHPB_WPA_WI@Z@4QB_WB 1007375c     LIBCMTD:pdblkup.obj
 0002:0000e764       ?mspdbFilename@?1??GetPdbDllPathFromFilePath@@YAHPB_WPA_WI@Z@4QB_WB 10073764     LIBCMTD:pdblkup.obj
 0002:0000ed58       _tokenTable                10073d58     LIBCMTD:undname.obj
 0002:0000ed90       _nameTable                 10073d90     LIBCMTD:undname.obj
 0002:0000eed0       _rttiTable                 10073ed0     LIBCMTD:undname.obj
 0002:00012ca8       __first_127char            10077ca8     LIBCMTD:wsetloca.obj
 0002:00016db8       __RTC_InitBase.rtc$IMZ     1007bdb8     cardata.obj
 0002:00016dbc       __RTC_InitBase.rtc$IMZ     1007bdbc     damned.obj
 0002:00016dc0       __RTC_InitBase.rtc$IMZ     1007bdc0     driver.obj
 0002:00016dc4       __RTC_InitBase.rtc$IMZ     1007bdc4     learn.obj
 0002:00016dc8       __RTC_InitBase.rtc$IMZ     1007bdc8     opponent.obj
 0002:00016dcc       __RTC_InitBase.rtc$IMZ     1007bdcc     pit.obj
 0002:00016dd0       __RTC_InitBase.rtc$IMZ     1007bdd0     spline.obj
 0002:00016dd4       __RTC_InitBase.rtc$IMZ     1007bdd4     strategy.obj
 0002:00016de0       __RTC_Shutdown.rtc$TMZ     1007bde0     cardata.obj
 0002:00016de4       __RTC_Shutdown.rtc$TMZ     1007bde4     damned.obj
 0002:00016de8       __RTC_Shutdown.rtc$TMZ     1007bde8     driver.obj
 0002:00016dec       __RTC_Shutdown.rtc$TMZ     1007bdec     learn.obj
 0002:00016df0       __RTC_Shutdown.rtc$TMZ     1007bdf0     opponent.obj
 0002:00016df4       __RTC_Shutdown.rtc$TMZ     1007bdf4     pit.obj
 0002:00016df8       __RTC_Shutdown.rtc$TMZ     1007bdf8     spline.obj
 0002:00016dfc       __RTC_Shutdown.rtc$TMZ     1007bdfc     strategy.obj
 0002:00016e08       __unwindtable$?InitFuncPt@@YAHHPAX@Z 1007be08     damned.obj
 0002:00016e10       __ehfuncinfo$?InitFuncPt@@YAHHPAX@Z 1007be10     damned.obj
 0002:00016e34       __unwindtable$?initTrack@Driver@@QAEXPAUtTrack@@PAXPAPAXPAUSituation@@@Z 1007be34     driver.obj
 0002:00016e3c       __unwindtable$?newRace@Driver@@QAEXPAUCarElt@@PAUSituation@@@Z 1007be3c     driver.obj
 0002:00016e5c       __ehfuncinfo$?newRace@Driver@@QAEXPAUCarElt@@PAUSituation@@@Z 1007be5c     driver.obj
 0002:00016e80       __ehfuncinfo$?initTrack@Driver@@QAEXPAUtTrack@@PAXPAPAXPAUSituation@@@Z 1007be80     driver.obj
 0002:00016ea4       __unwindtable$??0Opponents@@QAE@PAUSituation@@PAVDriver@@PAVCardata@@@Z 1007bea4     opponent.obj
 0002:00016eac       __ehfuncinfo$??0Opponents@@QAE@PAUSituation@@PAVDriver@@PAVCardata@@@Z 1007beac     opponent.obj
 0002:00016ed0       __unwindtable$??0Pit@@QAE@PAUSituation@@PAVDriver@@@Z 1007bed0     pit.obj
 0002:00016ed8       __ehfuncinfo$??0Pit@@QAE@PAUSituation@@PAVDriver@@@Z 1007bed8     pit.obj
 0002:00016f50       __sehtable$??3@YAXPAX@Z    1007bf50     LIBCMTD:dbgdel.obj
 0002:00016f70       __sehtable$_fclose         1007bf70     LIBCMTD:fclose.obj
 0002:00016f90       __sehtable$__fsopen        1007bf90     LIBCMTD:fopen.obj
 0002:00016fb0       __sehtable$_fread_s        1007bfb0     LIBCMTD:fread.obj
 0002:00016fd0       __sehtable$_fwrite         1007bfd0     LIBCMTD:fwrite.obj
 0002:00016ff0       __sehtable$__CRT_INIT@12   1007bff0     LIBCMTD:dllcrt0.obj
 0002:00017010       __sehtable$___DllMainCRTStartup 1007c010     LIBCMTD:dllcrt0.obj
 0002:00017030       __sehtable$_doexit         1007c030     LIBCMTD:crt0dat.obj
 0002:00017050       __sehtable$_fprintf        1007c050     LIBCMTD:fprintf.obj
 0002:00017070       __sehtable$__mtinitlocknum 1007c070     LIBCMTD:mlock.obj
 0002:00017090       __sehtable$__CrtSetReportHookW2 1007c090     LIBCMTD:dbgrptw.obj
 0002:000170b0       __sehtable$__realloc_dbg   1007c0b0     LIBCMTD:dbgheap.obj
 0002:000170d0       __sehtable$__expand_dbg    1007c0d0     LIBCMTD:dbgheap.obj
 0002:000170f0       __sehtable$__free_dbg      1007c0f0     LIBCMTD:dbgheap.obj
 0002:00017110       __sehtable$__msize_dbg     1007c110     LIBCMTD:dbgheap.obj
 0002:00017130       __sehtable$__CrtCheckMemory 1007c130     LIBCMTD:dbgheap.obj
 0002:00017150       __sehtable$__CrtSetDbgFlag 1007c150     LIBCMTD:dbgheap.obj
 0002:00017170       __sehtable$__CrtDoForAllClientObjects 1007c170     LIBCMTD:dbgheap.obj
 0002:00017190       __sehtable$__CrtIsMemoryBlock 1007c190     LIBCMTD:dbgheap.obj
 0002:000171b0       __sehtable$__CrtMemCheckpoint 1007c1b0     LIBCMTD:dbgheap.obj
 0002:000171d0       __sehtable$__CrtSetDbgBlockType 1007c1d0     LIBCMTD:dbgheap.obj
 0002:000171f0       __sehtable$__heap_alloc_dbg_impl 1007c1f0     LIBCMTD:dbgheap.obj
 0002:00017210       __sehtable$?__crtIsBadReadPtr@@YAHPBXI@Z 1007c210     LIBCMTD:dbgheap.obj
 0002:00017230       __sehtable$?_CrtMemDumpAllObjectsSince_stat@@YAXPBU_CrtMemState@@PAUlocaleinfo_struct@@@Z 1007c230     LIBCMTD:dbgheap.obj
 0002:00017250       __sehtable$?DebuggerProbe@@YAHK@Z 1007c250     LIBCMTD:error.obj
 0002:00017270       __sehtable$?DebuggerRuntime@@YAHKHPAXPB_W@Z 1007c270     LIBCMTD:error.obj
 0002:00017290       __sehtable$__freefls@4     1007c290     LIBCMTD:tidtable.obj
 0002:000172b8       __sehtable$__initptd       1007c2b8     LIBCMTD:tidtable.obj
 0002:000172e0       __sehtable$?terminate@@YAXXZ 1007c2e0     LIBCMTD:hooks.obj
 0002:00017300       __sehtable$?_inconsistency@@YAXXZ 1007c300     LIBCMTD:hooks.obj
 0002:00017320       __sehtable$___FrameUnwindToState 1007c320     LIBCMTD:frame.obj
 0002:00017348       __sehtable$?CallCatchBlock@@YAPAXPAUEHExceptionRecord@@PAUEHRegistrationNode@@PAU_CONTEXT@@PBU_s_FuncInfo@@PAXHK@Z 1007c348     LIBCMTD:frame.obj
 0002:00017370       __sehtable$___BuildCatchObject 1007c370     LIBCMTD:frame.obj
 0002:00017390       __sehtable$___DestructExceptionObject 1007c390     LIBCMTD:frame.obj
 0002:000173ac       __catchsym$?CallUnexpected@@YAXPBU_s_ESTypeList@@@Z$2 1007c3ac     LIBCMTD:frame.obj
 0002:000173bc       __unwindtable$?CallUnexpected@@YAXPBU_s_ESTypeList@@@Z 1007c3bc     LIBCMTD:frame.obj
 0002:000173cc       __tryblocktable$?CallUnexpected@@YAXPBU_s_ESTypeList@@@Z 1007c3cc     LIBCMTD:frame.obj
 0002:000173e0       __ehfuncinfo$?CallUnexpected@@YAXPBU_s_ESTypeList@@@Z 1007c3e0     LIBCMTD:frame.obj
 0002:00017408       __sehtable$___BuildCatchObjectHelper 1007c408     LIBCMTD:frame.obj
 0002:00017460       __sehtable$___set_fpsr_sse2 1007c460     LIBCMTD:fpctrl.obj
 0002:00017480       __sehtable$?_Name_base@type_info@@CAPBDPBV1@PAU__type_info_node@@@Z 1007c480     LIBCMTD:typname.obj
 0002:000174a0       __sehtable$?_Type_info_dtor@type_info@@CAXPAV1@@Z 1007c4a0     LIBCMTD:typname.obj
 0002:000174c0       __sehtable$?_Name_base_internal@type_info@@CAPBDPBV1@PAU__type_info_node@@@Z 1007c4c0     LIBCMTD:typname.obj
 0002:000174e0       __sehtable$?_Type_info_dtor_internal@type_info@@CAXPAV1@@Z 1007c4e0     LIBCMTD:typname.obj
 0002:00017500       __sehtable$___clean_type_info_names_internal 1007c500     LIBCMTD:typname.obj
 0002:00017520       __sehtable$__close         1007c520     LIBCMTD:close.obj
 0002:00017540       __sehtable$_fflush         1007c540     LIBCMTD:fflush.obj
 0002:00017560       __sehtable$_flsall         1007c560     LIBCMTD:fflush.obj
 0002:00017588       __sehtable$__getstream     1007c588     LIBCMTD:stream.obj
 0002:000175a8       __sehtable$__read          1007c5a8     LIBCMTD:read.obj
 0002:000175c8       __sehtable$__write         1007c5c8     LIBCMTD:write.obj
 0002:000175e8       __sehtable$__ioinit        1007c5e8     LIBCMTD:ioinit.obj
 0002:00017608       __sehtable$__IsNonwritableInCurrentImage 1007c608     LIBCMTD:pesect.obj
 0002:00017628       __sehtable$__onexit        1007c628     LIBCMTD:onexit.obj
 0002:00017648       __sehtable$_signal         1007c648     LIBCMTD:winsig.obj
 0002:00017668       __sehtable$_raise          1007c668     LIBCMTD:winsig.obj
 0002:00017688       __sehtable$_ctrlevent_capture@4 1007c688     LIBCMTD:winsig.obj
 0002:000176a8       __sehtable$___updatetmbcinfo 1007c6a8     LIBCMTD:mbctype.obj
 0002:000176c8       __sehtable$__setmbcp       1007c6c8     LIBCMTD:mbctype.obj
 0002:000176e4       __unwindtable$?getSystemCP@@YAHH@Z 1007c6e4     LIBCMTD:mbctype.obj
 0002:000176ec       __ehfuncinfo$?getSystemCP@@YAHH@Z 1007c6ec     LIBCMTD:mbctype.obj
 0002:00017710       __sehtable$_vfprintf_helper 1007c710     LIBCMTD:vfprintf.obj
 0002:00017730       __sehtable$__fcloseall     1007c730     LIBCMTD:closeall.obj
 0002:00017750       __sehtable$__VCrtDbgReportA 1007c750     LIBCMTD:dbgrptt.obj
 0002:00017778       __sehtable$__VCrtDbgReportW 1007c778     LIBCMTD:dbgrptt.obj
 0002:000177a0       __sehtable$___updatetlocinfo 1007c7a0     LIBCMTD:localref.obj
 0002:000177c0       __sehtable$__CrtSetReportHook2 1007c7c0     LIBCMTD:dbgrpt.obj
 0002:000177e0       __sehtable$__lseeki64      1007c7e0     LIBCMTD:lseeki64.obj
 0002:00017800       __sehtable$_printf         1007c800     LIBCMTD:printf.obj
 0002:00017820       __sehtable$___unDName      1007c820     LIBCMTD:undname.obj
 0002:00017840       __sehtable$___unDNameEx    1007c840     LIBCMTD:undname.obj
 0002:0001785c       __unwindtable$?make@DNameStatusNode@@SAPAV1@W4DNameStatus@@@Z 1007c85c     LIBCMTD:undname.obj
 0002:00017864       __ehfuncinfo$?make@DNameStatusNode@@SAPAV1@W4DNameStatus@@@Z 1007c864     LIBCMTD:undname.obj
 0002:00017888       __sehtable$__alloc_osfhnd  1007c888     LIBCMTD:osfinfo.obj
 0002:000178b0       __sehtable$___lock_fhandle 1007c8b0     LIBCMTD:osfinfo.obj
 0002:000178d0       __sehtable$__open_osfhandle 1007c8d0     LIBCMTD:osfinfo.obj
 0002:000178f0       __sehtable$__commit        1007c8f0     LIBCMTD:commit.obj
 0002:00017910       __sehtable$__sopen_helper  1007c910     LIBCMTD:open.obj
 0002:00017930       __sehtable$__open          1007c930     LIBCMTD:open.obj
 0002:00017950       __sehtable$__putwch        1007c950     LIBCMTD:putwch.obj
 0002:0001796c       __unwindtable$?x_ismbbtype_l@@YAHPAUlocaleinfo_struct@@IHH@Z 1007c96c     LIBCMTD:ismbbyte.obj
 0002:00017974       __ehfuncinfo$?x_ismbbtype_l@@YAHPAUlocaleinfo_struct@@IHH@Z 1007c974     LIBCMTD:ismbbyte.obj
 0002:00017998       __unwindtable$?strtoxl@@YAKPAUlocaleinfo_struct@@PBDPAPBDHH@Z 1007c998     LIBCMTD:strtol.obj
 0002:000179a0       __ehfuncinfo$?strtoxl@@YAKPAUlocaleinfo_struct@@PBDPAPBDHH@Z 1007c9a0     LIBCMTD:strtol.obj
 0002:000179c8       __sehtable$__get_current_locale 1007c9c8     LIBCMTD:wsetloca.obj
 0002:000179f0       __sehtable$__free_locale   1007c9f0     LIBCMTD:wsetloca.obj
 0002:00017a18       __sehtable$__wsetlocale    1007ca18     LIBCMTD:wsetloca.obj
 0002:00017a50       __sehtable$__locterm       1007ca50     LIBCMTD:wsetloca.obj
 0002:00017a70       __sehtable$_vprintf_helper 1007ca70     LIBCMTD:vprintf.obj
 0002:00017a90       __sehtable$__wsopen_helper 1007ca90     LIBCMTD:wopen.obj
 0002:00017ab0       __sehtable$__wopen         1007cab0     LIBCMTD:wopen.obj
 0002:00017ad0       __sehtable$_fputwc         1007cad0     LIBCMTD:fputwc.obj
 0002:00017aec       __unwindtable$?strtoxq@@YA_KPAUlocaleinfo_struct@@PBDPAPBDHH@Z 1007caec     LIBCMTD:strtoq.obj
 0002:00017af4       __ehfuncinfo$?strtoxq@@YA_KPAUlocaleinfo_struct@@PBDPAPBDHH@Z 1007caf4     LIBCMTD:strtoq.obj
 0002:00017b18       __sehtable$__chsize_s      1007cb18     LIBCMTD:chsize.obj
 0002:00017b38       __sehtable$__setmode       1007cb38     LIBCMTD:setmode.obj
 0002:00017b54       __unwindtable$?wcstoxq@@YA_KPAUlocaleinfo_struct@@PB_WPAPB_WHH@Z 1007cb54     LIBCMTD:wcstoq.obj
 0002:00017b5c       __ehfuncinfo$?wcstoxq@@YA_KPAUlocaleinfo_struct@@PB_WPAPB_WHH@Z 1007cb5c     LIBCMTD:wcstoq.obj
 0002:00017b80       .edata                     1007cb80     damned.exp
 0002:00017ba8       rgpv                       1007cba8     damned.exp
 0002:00017bac       rgszName                   1007cbac     damned.exp
 0002:00017bb0       rgwOrd                     1007cbb0     damned.exp
 0002:00017bb2       szName                     1007cbb2     damned.exp
 0002:00017bbd       $N00001                    1007cbbd     damned.exp
 0002:00017e1e       .idata$6                   1007ce1e     tgf:tgf.dll
 0002:00017e4a       .idata$6                   1007ce4a     robottools:robottools.dll
 0002:00018486       .idata$6                   1007d486     kernel32:KERNEL32.dll
 0003:00000000       _botname                   1007e000     damned.obj
 0003:00000028       _botdesc                   1007e028     damned.obj
 0003:00000068       __ulSeverityText           1007e068     ul_vs2008_32:ulError.obj
 0003:00000080       _NAME_                     1007e080     LIBCMTD:cos.obj
 0003:00000090       _NAME_                     1007e090     LIBCMTD:sin.obj
 0003:000000b0       LOG_name                   1007e0b0     LIBCMTD:log.obj
 0003:000000c0       _NAME_                     1007e0c0     LIBCMTD:sqrt.obj
 0003:000000d0       _NAME_                     1007e0d0     LIBCMTD:asin.obj
 0003:000000e0       _NAME_                     1007e0e0     LIBCMTD:acos.obj
 0003:000000f0       _NAME_                     1007e0f0     LIBCMTD:tan.obj
 0003:00000378       __locktable                1007e378     LIBCMTD:mlock.obj
 0003:00000498       _dotdotdot                 1007e498     LIBCMTD:dbgrptw.obj
 0003:000004a8       __lRequestCurr             1007e4a8     LIBCMTD:dbgheap.obj
 0003:000004ac       __bNoMansLandFill          1007e4ac     LIBCMTD:dbgheap.obj
 0003:000004ad       __bAlignLandFill           1007e4ad     LIBCMTD:dbgheap.obj
 0003:000004ae       __bDeadLandFill            1007e4ae     LIBCMTD:dbgheap.obj
 0003:000004af       __bCleanLandFill           1007e4af     LIBCMTD:dbgheap.obj
 0003:00000508       _errtable                  1007e508     LIBCMTD:dosmap.obj
 0003:00000670       _ErrnoNoMem                1007e670     LIBCMTD:dosmap.obj
 0003:00000674       _DoserrorNoMem             1007e674     LIBCMTD:dosmap.obj
 0003:00000680       ?_names@?1??_get_fname@@9@9 1007e680     LIBCMTD:fpexcept.obj
 0003:00000790       _over                      1007e790     LIBCMTD:fpctrl.obj
 0003:0000079c       _under                     1007e79c     LIBCMTD:fpctrl.obj
 0003:000007a8       ?__DAZ_ENABLED@?1??__set_fpsr_sse2@@9@9 1007e7a8     LIBCMTD:fpctrl.obj
 0003:000007b4       ?isPackaged@?1??__crtIsPackagedApp@@9@9 1007e7b4     LIBCMTD:winapisupp.obj
 0003:000008c4       _newcw                     1007e8c4     LIBCMTD:ceil.obj
 0003:00000d38       ___rgctypeflag             1007ed38     LIBCMTD:mbctype.obj
 0003:00000d40       ___rgcode_page_info        1007ed40     LIBCMTD:mbctype.obj
 0003:00000e50       _dotdotdot                 1007ee50     LIBCMTD:dbgrpt.obj
 0003:00001104       __ctype_loc_style          1007f104     LIBCMTD:wsetloca.obj
 0003:00001110       _DoubleFormat              1007f110     LIBCMTD:intrncvt.obj
 0003:00001128       _FloatFormat               1007f128     LIBCMTD:intrncvt.obj
 0003:00001600       _driver                    1007f600     damned.obj
 0003:00001640       __ulErrorBuffer            1007f640     ul_vs2008_32:ulError.obj
 0003:00001a40       __ulErrorCB                1007fa40     ul_vs2008_32:ulError.obj
 0003:00001a44       ?init@?1??_RTC_InitBase@@9@4_NA 1007fa44     LIBCMTD:init.obj
 0003:00001a50       _GS_ExceptionRecord        1007fa50     LIBCMTD:gs_report.obj
 0003:00001aa0       _GS_ContextRecord          1007faa0     LIBCMTD:gs_report.obj
 0003:00001d6c       _DebuggerWasPresent        1007fd6c     LIBCMTD:gs_report.obj
 0003:00001d70       ___proc_attached           1007fd70     LIBCMTD:dllcrt0.obj
 0003:00001db8       _lclcritsects              1007fdb8     LIBCMTD:mlock.obj
 0003:00001f24       _check_frequency           1007ff24     LIBCMTD:dbgheap.obj
 0003:00001f2c       _check_counter             1007ff2c     LIBCMTD:dbgheap.obj
 0003:00001f30       __lTotalAlloc              1007ff30     LIBCMTD:dbgheap.obj
 0003:00001f34       __lCurAlloc                1007ff34     LIBCMTD:dbgheap.obj
 0003:00001f38       __lMaxAlloc                1007ff38     LIBCMTD:dbgheap.obj
 0003:00001f3c       __pFirstBlock              1007ff3c     LIBCMTD:dbgheap.obj
 0003:00001f40       __pLastBlock               1007ff40     LIBCMTD:dbgheap.obj
 0003:00001f48       __RTC_ErrorReportFunc      1007ff48     LIBCMTD:userapi.obj
 0003:00001f4c       __RTC_ErrorReportFuncW     1007ff4c     LIBCMTD:userapi.obj
 0003:00001f64       ___type_info_root_node     1007ff64     LIBCMTD:typname.obj
 0003:00001f78       ?outmsg@?M@??_NMSG_WRITE@@9@9 1007ff78     LIBCMTD:crt0msg.obj
 0003:000025a4       __pmatherr_set             100805a4     LIBCMTD:libm_error.obj
 0003:000026b0       ?_pgmname@?1??_setargv@@9@9 100806b0     LIBCMTD:stdargv.obj
 0003:000027b8       _ctrlc_action              100807b8     LIBCMTD:winsig.obj
 0003:000027bc       _ctrlbreak_action          100807bc     LIBCMTD:winsig.obj
 0003:000027c0       _abort_action              100807c0     LIBCMTD:winsig.obj
 0003:000027c4       _term_action               100807c4     LIBCMTD:winsig.obj
 0003:000027c8       _ConsoleCtrlHandler_Installed 100807c8     LIBCMTD:winsig.obj
 0003:000027cc       _g_pfnRtlGenRandom         100807cc     LIBCMTD:rand_s.obj
 0003:000027e8       _fSystemSet                100807e8     LIBCMTD:mbctype.obj
 0003:000027f8       ?pfnGetLastActivePopup@?1??__crtMessageBoxW@@9@9 100807f8     LIBCMTD:crtmboxw.obj
 0003:000027fc       ?pfnGetProcessWindowStation@?1??__crtMessageBoxW@@9@9 100807fc     LIBCMTD:crtmboxw.obj
 0003:00002800       ?pfnGetUserObjectInformation@?1??__crtMessageBoxW@@9@9 10080800     LIBCMTD:crtmboxw.obj
 0003:00002804       ?pfnMessageBox@?1??__crtMessageBoxW@@9@9 10080804     LIBCMTD:crtmboxw.obj
 0003:00002808       ?pfnGetActiveWindow@?1??__crtMessageBoxW@@9@9 10080808     LIBCMTD:crtmboxw.obj
 0003:0000280c       _mspdb                     1008080c     LIBCMTD:pdblkup.obj
 0003:00002810       ?alreadyTried@?1??GetPdbDll@@YAPAUHINSTANCE__@@XZ@4_NA 10080810     LIBCMTD:pdblkup.obj
 0003:00002811       ?PDBOK@?BM@??_RTC_GetSrcLine@@YAHPAEPA_WKPAH1K@Z@4_NA 10080811     LIBCMTD:pdblkup.obj
 0003:00002818       ___enable_percent_n        10080818     LIBCMTD:printf.obj
 0003:00002844       _heap                      10080844     LIBCMTD:undname.obj
 0003:00002858       ?buf@?1??dbGetString@DName@@QBEPADXZ@4PADA 10080858     LIBCMTD:undname.obj
 0003:000028e4       ___crtCallProc             100808e4     LIBCMTD:winapinls.obj
