 accc

 Timestamp is 58a77fd0 (Fri Feb 17 22:57:20 2017)

 Preferred load address is 00400000

 Start         Length     Name                   Class
 0001:00000000 0006c7d5H .text$mn                CODE
 0001:0006c7e0 00000139H .text$x                 CODE
 0002:00000000 00000170H .idata$5                DATA
 0002:00000170 00000004H .CRT$XCA                DATA
 0002:00000174 00000004H .CRT$XCZ                DATA
 0002:00000178 00000004H .CRT$XIA                DATA
 0002:0000017c 00000014H .CRT$XIC                DATA
 0002:00000190 00000004H .CRT$XIY                DATA
 0002:00000194 00000004H .CRT$XIZ                DATA
 0002:00000198 00000004H .CRT$XPA                DATA
 0002:0000019c 00000008H .CRT$XPX                DATA
 0002:000001a4 00000004H .CRT$XPXA               DATA
 0002:000001a8 00000004H .CRT$XPZ                DATA
 0002:000001ac 00000004H .CRT$XTA                DATA
 0002:000001b0 00000004H .CRT$XTZ                DATA
 0002:000001c0 00013d70H .rdata                  DATA
 0002:00013f30 000000bcH .rdata$debug            DATA
 0002:00013fec 00000388H .rdata$r                DATA
 0002:00014374 00000004H .rtc$IAA                DATA
 0002:00014378 0000000cH .rtc$IMZ                DATA
 0002:00014384 00000004H .rtc$IZZ                DATA
 0002:00014388 00000004H .rtc$TAA                DATA
 0002:0001438c 0000000cH .rtc$TMZ                DATA
 0002:00014398 00000004H .rtc$TZZ                DATA
 0002:000143a0 00000d28H .xdata$x                DATA
 0002:000150c8 00000000H .edata                  DATA
 0002:000150c8 00000014H .idata$2                DATA
 0002:000150dc 00000014H .idata$3                DATA
 0002:000150f0 00000170H .idata$4                DATA
 0002:00015260 000006aaH .idata$6                DATA
 0003:00000000 000013dcH .data                   DATA
 0003:000013dc 0000014fH .data$r                 DATA
 0003:00001540 00987f08H .bss                    DATA

  Address         Publics by Value              Rva+Base       Lib:Object

 0000:00000000       __except_list              00000000     <absolute>
 0000:00000000       ___guard_fids_table        00000000     <absolute>
 0000:00000000       ___safe_se_handler_table   00000000     <absolute>
 0000:00000000       ___guard_fids_count        00000000     <absolute>
 0000:00000000       ___safe_se_handler_count   00000000     <absolute>
 0000:00000000       ___guard_flags             00000000     <absolute>
 0000:00000000       ___ImageBase               00400000     <linker-defined>
 0001:00000000       ?loadAndGroup@@YAXPAD@Z    00401000 f   ac3dgroup.obj
 0001:00001a90       ?reorder@@YAXPAUob@@0PANPAUtcoord@@@Z 00402a90 f   ac3dgroup.obj
 0001:00001e80       ?loadAC@@YAHPAD0H@Z        00402e80 f   ac3dload.obj
 0001:00002290       ?terrainSplitOb@@YAHPAPAUob@@@Z 00403290 f   ac3dload.obj
 0001:000033b0       ?mergeSplitted@@YAHPAPAUob@@@Z 004043b0 f   ac3dload.obj
 0001:000037f0       ?freeobject@@YAHPAUob@@@Z  004047f0 f   ac3dload.obj
 0001:00003960       ?findDistmin@@YANPAUob@@0@Z 00404960 f   ac3dload.obj
 0001:00003b40       ?computeTriNorm@@YAXPAUob@@@Z 00404b40 f   ac3dload.obj
 0001:00003f90       ?smoothTriNorm@@YAXPAUob@@@Z 00404f90 f   ac3dload.obj
 0001:00004740       ?computeObjectTriNorm@@YAXPAUob@@@Z 00405740 f   ac3dload.obj
 0001:00004b80       ?smoothFaceTriNorm@@YAXPAUob@@@Z 00405b80 f   ac3dload.obj
 0001:00004e30       ?smoothObjectTriNorm@@YAXPAUob@@@Z 00405e30 f   ac3dload.obj
 0001:00005080       ?normalize@@YAXPAUpoint@@@Z 00406080 f   ac3dload.obj
 0001:00005170       ?checkMustSmoothVector@@YAHPAUpoint@@000@Z 00406170 f   ac3dload.obj
 0001:000052c0       ?mapNormalToSphere@@YAXPAUob@@@Z 004062c0 f   ac3dload.obj
 0001:00005770       ?mapNormalToSphere2@@YAXPAUob@@@Z 00406770 f   ac3dload.obj
 0001:00005860       ?normalMap@@YAXPAUob@@@Z   00406860 f   ac3dload.obj
 0001:00005bd0       ?mapTextureEnv@@YAXPAUob@@@Z 00406bd0 f   ac3dload.obj
 0001:00006070       ?doMaterial@@YAHPADPAUob@@PAUmat@@@Z 00407070 f   ac3dload.obj
 0001:00006240       ?doObject@@YAHPADPAUob@@PAUmat@@@Z 00407240 f   ac3dload.obj
 0001:00006410       ?doKids@@YAHPADPAUob@@PAUmat@@@Z 00407410 f   ac3dload.obj
 0001:00006ca0       ?doName@@YAHPADPAUob@@PAUmat@@@Z 00407ca0 f   ac3dload.obj
 0001:00007010       ?doLoc@@YAHPADPAUob@@PAUmat@@@Z 00408010 f   ac3dload.obj
 0001:000070b0       ?doData@@YAHPADPAUob@@PAUmat@@@Z 004080b0 f   ac3dload.obj
 0001:00007130       ?doTexture@@YAHPADPAUob@@PAUmat@@@Z 00408130 f   ac3dload.obj
 0001:00007290       ?doTexrep@@YAHPADPAUob@@PAUmat@@@Z 00408290 f   ac3dload.obj
 0001:00007320       ?doNumvert@@YAHPADPAUob@@PAUmat@@@Z 00408320 f   ac3dload.obj
 0001:000073d0       ?doNumsurf@@YAHPADPAUob@@PAUmat@@@Z 004083d0 f   ac3dload.obj
 0001:00007460       ?doSurf@@YAHPADPAUob@@PAUmat@@@Z 00408460 f   ac3dload.obj
 0001:000074e0       ?doMat@@YAHPADPAUob@@PAUmat@@@Z 004084e0 f   ac3dload.obj
 0001:00007560       ?doRefs@@YAHPADPAUob@@PAUmat@@@Z 00408560 f   ac3dload.obj
 0001:00007640       ?doCrease@@YAHPADPAUob@@PAUmat@@@Z 00408640 f   ac3dload.obj
 0001:00007650       ?computeSaveAC3D@@YAXPADPAUob@@@Z 00408650 f   ac3dload.obj
 0001:00008440       ?computeSaveOBJ@@YAXPADPAUob@@@Z 00409440 f   ac3dload.obj
 0001:000091f0       ?computeSaveAC3DM@@YAXPADPAUob@@@Z 0040a1f0 f   ac3dload.obj
 0001:00009cd0       ?computeSaveAC3DStrip@@YAXPADPAUob@@@Z 0040acd0 f   ac3dload.obj
 0001:0000a4d0       ?stripifyOb@@YAXPAUob@@H@Z 0040b4d0 f   ac3dload.obj
 0001:0000b670       ?computeNorm@@YAHPAUpoint@@000@Z 0040c670 f   ac3dload.obj
 0001:0000ba30       ?findIndice@@YAHHPAHH@Z    0040ca30 f   ac3dload.obj
 0001:0000ba80       ?splitOb@@YAHPAPAUob@@@Z   0040ca80 f   ac3dload.obj
 0001:0000c600       ?doGetVertex@@YAHPADPAUob@@PAUmat@@@Z 0040d600 f   ac3dload.obj
 0001:0000c970       ?doGetSurf@@YAHPADPAUob@@PAUmat@@@Z 0040d970 f   ac3dload.obj
 0001:0000ca50       ?loadACo@@YAHPAD0H@Z       0040da50 f   ac3dload.obj
 0001:0000ce40       ?printOb@@YAHPAUob@@@Z     0040de40 f   ac3dload.obj
 0001:0000d9d0       ?foundNear@@YAHPAUob@@0HH@Z 0040e9d0 f   ac3dload.obj
 0001:0000ddb0       ?mapTextureEnvOld@@YAXPAUob@@@Z 0040edb0 f   ac3dload.obj
 0001:0000e610       ?normalMap01@@YAXPAUob@@@Z 0040f610 f   ac3dload.obj
 0001:0000e9b0       ?mergeObject@@YAPAUob@@PAU1@0PAD@Z 0040f9b0 f   ac3dload.obj
 0001:0000f5f0       ?findPoint@@YAHPAUpoint@@H0@Z 004105f0 f   ac3dload.obj
 0001:0000f600       ?strstr@@YAPADPADPBD@Z     00410600 f i ac3dload.obj
 0001:0000f620       ?usage@@YAXXZ              00410620 f   mainaccc.obj
 0001:0000f9d0       ?init_args@@YAXHPAPAD@Z    004109d0 f   mainaccc.obj
 0001:00010100       ?redraw@@YAXXZ             00411100 f   mainaccc.obj
 0001:00010110       ?reshape@@YAXHH@Z          00411110 f   mainaccc.obj
 0001:00010120       ?keyboard@@YAXEHH@Z        00411120 f   mainaccc.obj
 0001:00010140       _main                      00411140 f   mainaccc.obj
 0001:00010240       ___initstdio               00411240 f   LIBCMTD:_file.obj
 0001:00010310       ___endstdio                00411310 f   LIBCMTD:_file.obj
 0001:00010350       ___iob_func                00411350 f   LIBCMTD:_file.obj
 0001:00010360       __lock_file                00411360 f   LIBCMTD:_file.obj
 0001:000103c0       __lock_file2               004113c0 f   LIBCMTD:_file.obj
 0001:00010400       __unlock_file              00411400 f   LIBCMTD:_file.obj
 0001:00010460       __unlock_file2             00411460 f   LIBCMTD:_file.obj
 0001:000104a0       __fsopen                   004114a0 f   LIBCMTD:fopen.obj
 0001:000106f0       _fopen                     004116f0 f   LIBCMTD:fopen.obj
 0001:00010710       _fopen_s                   00411710 f   LIBCMTD:fopen.obj
 0001:000107d0       __fprintf_l                004117d0 f   LIBCMTD:fprintf.obj
 0001:00010800       __fprintf_p                00411800 f   LIBCMTD:fprintf.obj
 0001:00010830       __fprintf_p_l              00411830 f   LIBCMTD:fprintf.obj
 0001:00010860       __fprintf_s_l              00411860 f   LIBCMTD:fprintf.obj
 0001:00010890       _fprintf                   00411890 f   LIBCMTD:fprintf.obj
 0001:00010b60       _fprintf_s                 00411b60 f   LIBCMTD:fprintf.obj
 0001:00010b90       __get_printf_count_output  00411b90 f   LIBCMTD:printf.obj
 0001:00010bc0       __printf_l                 00411bc0 f   LIBCMTD:printf.obj
 0001:00010bf0       __printf_p                 00411bf0 f   LIBCMTD:printf.obj
 0001:00010c10       __printf_p_l               00411c10 f   LIBCMTD:printf.obj
 0001:00010c40       __printf_s_l               00411c40 f   LIBCMTD:printf.obj
 0001:00010c70       __set_printf_count_output  00411c70 f   LIBCMTD:printf.obj
 0001:00010cd0       _printf                    00411cd0 f   LIBCMTD:printf.obj
 0001:00010e50       _printf_s                  00411e50 f   LIBCMTD:printf.obj
 0001:00010e70       ___copy_path_to_wide_string 00411e70 f   LIBCMTD:crt0dat.obj
 0001:00011060       ___copy_to_char            00412060 f   LIBCMTD:crt0dat.obj
 0001:00011250       ___crtCorExitProcess       00412250 f   LIBCMTD:crt0dat.obj
 0001:00011290       ___crtExitProcess          00412290 f   LIBCMTD:crt0dat.obj
 0001:000112b0       ___freeCrtMemory           004122b0 f   LIBCMTD:crt0dat.obj
 0001:00011480       __amsg_exit                00412480 f   LIBCMTD:crt0dat.obj
 0001:000114a0       __c_exit                   004124a0 f   LIBCMTD:crt0dat.obj
 0001:000114c0       __cexit                    004124c0 f   LIBCMTD:crt0dat.obj
 0001:000114e0       __cinit                    004124e0 f   LIBCMTD:crt0dat.obj
 0001:00011580       __exit                     00412580 f   LIBCMTD:crt0dat.obj
 0001:000115a0       __exit_app                 004125a0 f   LIBCMTD:crt0dat.obj
 0001:000115c0       __get_pgmptr               004125c0 f   LIBCMTD:crt0dat.obj
 0001:000116e0       __get_wpgmptr              004126e0 f   LIBCMTD:crt0dat.obj
 0001:00011800       __init_pointers            00412800 f   LIBCMTD:crt0dat.obj
 0001:00011890       __initterm_e               00412890 f   LIBCMTD:crt0dat.obj
 0001:000118d0       __lockexit                 004128d0 f   LIBCMTD:crt0dat.obj
 0001:000118e0       __unlockexit               004128e0 f   LIBCMTD:crt0dat.obj
 0001:00011ae0       _exit                      00412ae0 f   LIBCMTD:crt0dat.obj
 0001:00011b00       __atoi64                   00412b00 f   LIBCMTD:atox.obj
 0001:00011b20       __atoi64_l                 00412b20 f   LIBCMTD:atox.obj
 0001:00011b40       __atoi_l                   00412b40 f   LIBCMTD:atox.obj
 0001:00011b60       __atol_l                   00412b60 f   LIBCMTD:atox.obj
 0001:00011b80       __atoll_l                  00412b80 f   LIBCMTD:atox.obj
 0001:00011ba0       _atoi                      00412ba0 f   LIBCMTD:atox.obj
 0001:00011bc0       _atol                      00412bc0 f   LIBCMTD:atox.obj
 0001:00011be0       _atoll                     00412be0 f   LIBCMTD:atox.obj
 0001:00011c00       _malloc                    00412c00 f   LIBCMTD:dbgmalloc.obj
 0001:00011c30       _strcmp                    00412c30 f   LIBCMTD:strcmp.obj
 0001:00011cc0       _fabs                      00412cc0 f   LIBCMTD:fabs.obj
 0001:00011dc0       __CIsqrt                   00412dc0 f   LIBCMTD:sqrt.obj
 0001:00011dd4       _sqrt                      00412dd4     LIBCMTD:sqrt.obj
 0001:00011e80       @_RTC_AllocaHelper@12      00412e80 f   LIBCMTD:stack.obj
 0001:00011ec0       @_RTC_CheckStackVars2@12   00412ec0 f   LIBCMTD:stack.obj
 0001:00011fa0       @_RTC_CheckStackVars@8     00412fa0 f   LIBCMTD:stack.obj
 0001:00012000       __RTC_CheckEsp             00413000 f   LIBCMTD:stack.obj
 0001:00012030       __RTC_InitBase             00413030 f   LIBCMTD:init.obj
 0001:00012060       __RTC_Shutdown             00413060 f   LIBCMTD:init.obj
 0001:00012080       __fpmath                   00413080 f   LIBCMTD:fpinit.obj
 0001:000120a0       ___setfflag                004130a0 f   LIBCMTD:fpinit.obj
 0001:000120c0       __cfltcvt_init             004130c0 f   LIBCMTD:fpinit.obj
 0001:00012180       ___raise_securityfailure   00413180 f   LIBCMTD:gs_report.obj
 0001:000121d0       ___report_gsfailure        004131d0 f   LIBCMTD:gs_report.obj
 0001:000122e0       ___report_rangecheckfailure 004132e0 f   LIBCMTD:gs_report.obj
 0001:000122f0       ___report_securityfailure  004132f0 f   LIBCMTD:gs_report.obj
 0001:000123d0       ___report_securityfailureEx 004133d0 f   LIBCMTD:gs_report.obj
 0001:00012500       __fclose_nolock            00413500 f   LIBCMTD:fclose.obj
 0001:00012610       _fclose                    00413610 f   LIBCMTD:fclose.obj
 0001:00012730       __getc_nolock              00413730 f   LIBCMTD:fgetc.obj
 0001:00012790       _fgetc                     00413790 f   LIBCMTD:fgetc.obj
 0001:000129f0       _getc                      004139f0 f   LIBCMTD:fgetc.obj
 0001:00012c50       _fgets                     00413c50 f   LIBCMTD:fgets.obj
 0001:00013020       __fscanf_l                 00414020 f   LIBCMTD:fscanf.obj
 0001:00013050       __fscanf_s_l               00414050 f   LIBCMTD:fscanf.obj
 0001:00013080       _fscanf                    00414080 f   LIBCMTD:fscanf.obj
 0001:000130b0       _fscanf_s                  004140b0 f   LIBCMTD:fscanf.obj
 0001:000130e0       _vfscanf                   004140e0 f   LIBCMTD:fscanf.obj
 0001:00013100       _vfscanf_fn                00414100 f   LIBCMTD:fscanf.obj
 0001:000133b0       _vfscanf_s                 004143b0 f   LIBCMTD:fscanf.obj
 0001:000133d0       _rewind                    004143d0 f   LIBCMTD:rewind.obj
 0001:00013570       __sscanf_l                 00414570 f   LIBCMTD:sscanf.obj
 0001:000135a0       __sscanf_s_l               004145a0 f   LIBCMTD:sscanf.obj
 0001:000135d0       _sscanf                    004145d0 f   LIBCMTD:sscanf.obj
 0001:00013600       _sscanf_s                  00414600 f   LIBCMTD:sscanf.obj
 0001:000137c0       _vsscanf                   004147c0 f   LIBCMTD:sscanf.obj
 0001:000137e0       _vsscanf_s                 004147e0 f   LIBCMTD:sscanf.obj
 0001:00013800       __snprintf                 00414800 f   LIBCMTD:snprintf.obj
 0001:000139e0       __snprintf_l               004149e0 f   LIBCMTD:snprintf.obj
 0001:00013a10       __scprintf                 00414a10 f   LIBCMTD:sprintf.obj
 0001:00013a30       __scprintf_l               00414a30 f   LIBCMTD:sprintf.obj
 0001:00013a60       __scprintf_p               00414a60 f   LIBCMTD:sprintf.obj
 0001:00013a80       __scprintf_p_l             00414a80 f   LIBCMTD:sprintf.obj
 0001:00013ab0       __snprintf_s               00414ab0 f   LIBCMTD:sprintf.obj
 0001:00013ae0       __snprintf_s_l             00414ae0 f   LIBCMTD:sprintf.obj
 0001:00013b10       __sprintf_l                00414b10 f   LIBCMTD:sprintf.obj
 0001:00013b40       __sprintf_p                00414b40 f   LIBCMTD:sprintf.obj
 0001:00013b70       __sprintf_p_l              00414b70 f   LIBCMTD:sprintf.obj
 0001:00013ba0       __sprintf_s_l              00414ba0 f   LIBCMTD:sprintf.obj
 0001:00013bd0       _sprintf                   00414bd0 f   LIBCMTD:sprintf.obj
 0001:00013d90       _sprintf_s                 00414d90 f   LIBCMTD:sprintf.obj
 0001:00013dc0       __invoke_watson_if_oneof   00414dc0 f i LIBCMTD:system.obj
 0001:00013e00       _system                    00414e00 f   LIBCMTD:system.obj
 0001:00013fe0       _calloc                    00414fe0 f   LIBCMTD:dbgcalloc.obj
 0001:00014010       _free                      00415010 f   LIBCMTD:dbgfree.obj
 0001:00014030       _memcpy                    00415030 f   LIBCMTD:memcpy.obj
 0001:00014680       _memset                    00415680 f   LIBCMTD:memset.obj
 0001:00014710       _strcpy                    00415710 f   LIBCMTD:strcat.obj
 0001:00014720       _strcat                    00415720 f   LIBCMTD:strcat.obj
 0001:00014810       _strlen                    00415810 f   LIBCMTD:strlen.obj
 0001:000148a0       _strncmp                   004158a0 f   LIBCMTD:strncmp.obj
 0001:00014920       _strstr                    00415920 f   LIBCMTD:strstr.obj
 0001:00014b90       _cos                       00415b90 f   LIBCMTD:cos.obj
 0001:00014bd0       __CIcos                    00415bd0 f   LIBCMTD:cos.obj
 0001:00014c0b       __CIcos_default            00415c0b f   LIBCMTD:cos.obj
 0001:00014c1f       __cos_default              00415c1f     LIBCMTD:cos.obj
 0001:00014cc0       __chgsign                  00415cc0 f   LIBCMTD:ieeemisc.obj
 0001:00014d00       __chgsignf                 00415d00 f   LIBCMTD:ieeemisc.obj
 0001:00014d40       __copysign                 00415d40 f   LIBCMTD:ieeemisc.obj
 0001:00014d70       __copysignf                00415d70 f   LIBCMTD:ieeemisc.obj
 0001:00014db0       __finite                   00415db0 f   LIBCMTD:ieeemisc.obj
 0001:00014dd0       __fpclass                  00415dd0 f   LIBCMTD:ieeemisc.obj
 0001:00014ec0       __isnan                    00415ec0 f   LIBCMTD:ieeemisc.obj
 0001:00014f00       __logb                     00415f00 f   LIBCMTD:ieeemisc.obj
 0001:00015030       __nextafter                00416030 f   LIBCMTD:ieeemisc.obj
 0001:00015350       __scalb                    00416350 f   LIBCMTD:ieeemisc.obj
 0001:00015370       @__security_check_cookie@4 00416370 f   LIBCMTD:secchk.obj
 0001:00015380       __alloca_probe             00416380 f   LIBCMTD:chkstk.obj
 0001:00015380       __chkstk                   00416380 f   LIBCMTD:chkstk.obj
 0001:00015610       _mainCRTStartup            00416610 f   LIBCMTD:crt0.obj
 0001:00015620       __fcloseall                00416620 f   LIBCMTD:closeall.obj
 0001:00015750       __fflush_nolock            00416750 f   LIBCMTD:fflush.obj
 0001:000157c0       __flush                    004167c0 f   LIBCMTD:fflush.obj
 0001:00015880       __flushall                 00416880 f   LIBCMTD:fflush.obj
 0001:00015890       _fflush                    00416890 f   LIBCMTD:fflush.obj
 0001:00015ad0       __lock                     00416ad0 f   LIBCMTD:mlock.obj
 0001:00015b10       __lockerr_exit             00416b10 f   LIBCMTD:mlock.obj
 0001:00015b40       __mtdeletelocks            00416b40 f   LIBCMTD:mlock.obj
 0001:00015c00       __mtinitlocknum            00416c00 f   LIBCMTD:mlock.obj
 0001:00015d20       __mtinitlocks              00416d20 f   LIBCMTD:mlock.obj
 0001:00015da0       __unlock                   00416da0 f   LIBCMTD:mlock.obj
 0001:00015dc0       ??0_LocaleUpdate@@QAE@PAUlocaleinfo_struct@@@Z 00416dc0 f i LIBCMTD:dbgheap.obj
 0001:00015ea0       ??1_LocaleUpdate@@QAE@XZ   00416ea0 f i LIBCMTD:dbgheap.obj
 0001:00015ed0       ?GetLocaleT@_LocaleUpdate@@QAEPAUlocaleinfo_struct@@XZ 00416ed0 f i LIBCMTD:dbgheap.obj
 0001:00016370       __CrtCheckMemory           00417370 f   LIBCMTD:dbgheap.obj
 0001:000167d0       __CrtDoForAllClientObjects 004177d0 f   LIBCMTD:dbgheap.obj
 0001:00016900       __CrtDumpMemoryLeaks       00417900 f   LIBCMTD:dbgheap.obj
 0001:000169a0       __CrtGetAllocHook          004179a0 f   LIBCMTD:dbgheap.obj
 0001:000169b0       __CrtGetCheckCount         004179b0 f   LIBCMTD:dbgheap.obj
 0001:000169c0       __CrtGetDumpClient         004179c0 f   LIBCMTD:dbgheap.obj
 0001:000169d0       __CrtIsMemoryBlock         004179d0 f   LIBCMTD:dbgheap.obj
 0001:00016b40       __CrtIsValidHeapPointer    00417b40 f   LIBCMTD:dbgheap.obj
 0001:00016b80       __CrtIsValidPointer        00417b80 f   LIBCMTD:dbgheap.obj
 0001:00016bb0       __CrtMemCheckpoint         00417bb0 f   LIBCMTD:dbgheap.obj
 0001:00016de0       __CrtMemDifference         00417de0 f   LIBCMTD:dbgheap.obj
 0001:00017040       __CrtMemDumpAllObjectsSince 00418040 f   LIBCMTD:dbgheap.obj
 0001:00017080       __CrtMemDumpStatistics     00418080 f   LIBCMTD:dbgheap.obj
 0001:000171a0       __CrtReportBlockType       004181a0 f   LIBCMTD:dbgheap.obj
 0001:000171d0       __CrtSetAllocHook          004181d0 f   LIBCMTD:dbgheap.obj
 0001:000171f0       __CrtSetBreakAlloc         004181f0 f   LIBCMTD:dbgheap.obj
 0001:00017210       __CrtSetCheckCount         00418210 f   LIBCMTD:dbgheap.obj
 0001:00017230       __CrtSetDbgBlockType       00418230 f   LIBCMTD:dbgheap.obj
 0001:00017320       __CrtSetDbgFlag            00418320 f   LIBCMTD:dbgheap.obj
 0001:00017470       __CrtSetDebugFillThreshold 00418470 f   LIBCMTD:dbgheap.obj
 0001:00017490       __CrtSetDumpClient         00418490 f   LIBCMTD:dbgheap.obj
 0001:000174b0       __aligned_free             004184b0 f   LIBCMTD:dbgheap.obj
 0001:000174d0       __aligned_free_dbg         004184d0 f   LIBCMTD:dbgheap.obj
 0001:00017580       __aligned_malloc           00418580 f   LIBCMTD:dbgheap.obj
 0001:000175a0       __aligned_malloc_dbg       004185a0 f   LIBCMTD:dbgheap.obj
 0001:000175c0       __aligned_msize            004185c0 f   LIBCMTD:dbgheap.obj
 0001:000175e0       __aligned_msize_dbg        004185e0 f   LIBCMTD:dbgheap.obj
 0001:00017700       __aligned_offset_malloc    00418700 f   LIBCMTD:dbgheap.obj
 0001:00017720       __aligned_offset_malloc_dbg 00418720 f   LIBCMTD:dbgheap.obj
 0001:00017900       __aligned_offset_realloc   00418900 f   LIBCMTD:dbgheap.obj
 0001:00017930       __aligned_offset_realloc_dbg 00418930 f   LIBCMTD:dbgheap.obj
 0001:00017c40       __aligned_offset_recalloc  00418c40 f   LIBCMTD:dbgheap.obj
 0001:00017c70       __aligned_offset_recalloc_dbg 00418c70 f   LIBCMTD:dbgheap.obj
 0001:00017d30       __aligned_realloc          00418d30 f   LIBCMTD:dbgheap.obj
 0001:00017d50       __aligned_realloc_dbg      00418d50 f   LIBCMTD:dbgheap.obj
 0001:00017d80       __aligned_recalloc         00418d80 f   LIBCMTD:dbgheap.obj
 0001:00017db0       __aligned_recalloc_dbg     00418db0 f   LIBCMTD:dbgheap.obj
 0001:00017de0       __calloc_dbg               00418de0 f   LIBCMTD:dbgheap.obj
 0001:00017e40       __calloc_dbg_impl          00418e40 f   LIBCMTD:dbgheap.obj
 0001:00017ec0       __expand                   00418ec0 f   LIBCMTD:dbgheap.obj
 0001:00017ef0       __expand_dbg               00418ef0 f   LIBCMTD:dbgheap.obj
 0001:00018020       __free_dbg                 00419020 f   LIBCMTD:dbgheap.obj
 0001:000180a0       __free_dbg_nolock          004190a0 f   LIBCMTD:dbgheap.obj
 0001:000185a0       __free_nolock              004195a0 f   LIBCMTD:dbgheap.obj
 0001:000185c0       __heap_alloc               004195c0 f   LIBCMTD:dbgheap.obj
 0001:000185e0       __heap_alloc_dbg           004195e0 f   LIBCMTD:dbgheap.obj
 0001:00018a00       __malloc_dbg               00419a00 f   LIBCMTD:dbgheap.obj
 0001:00018a30       __msize                    00419a30 f   LIBCMTD:dbgheap.obj
 0001:00018a50       __msize_dbg                00419a50 f   LIBCMTD:dbgheap.obj
 0001:00018c60       __nh_malloc                00419c60 f   LIBCMTD:dbgheap.obj
 0001:00018c80       __nh_malloc_dbg            00419c80 f   LIBCMTD:dbgheap.obj
 0001:00018f10       __realloc_dbg              00419f10 f   LIBCMTD:dbgheap.obj
 0001:00018fb0       __recalloc                 00419fb0 f   LIBCMTD:dbgheap.obj
 0001:00018fe0       __recalloc_dbg             00419fe0 f   LIBCMTD:dbgheap.obj
 0001:000196a0       ?_invalid_parameter@@YAXPBG00II@Z 0041a6a0 f   LIBCMTD:invarg.obj
 0001:000196d0       ?_invoke_watson@@YAXPBG00II@Z 0041a6d0 f   LIBCMTD:invarg.obj
 0001:000196f0       __call_reportfault         0041a6f0 f   LIBCMTD:invarg.obj
 0001:00019850       __get_invalid_parameter_handler 0041a850 f   LIBCMTD:invarg.obj
 0001:00019880       __initp_misc_invarg        0041a880 f   LIBCMTD:invarg.obj
 0001:00019890       __invalid_parameter        0041a890 f   LIBCMTD:invarg.obj
 0001:000198f0       __invoke_watson            0041a8f0 f   LIBCMTD:invarg.obj
 0001:00019930       __set_invalid_parameter_handler 0041a930 f   LIBCMTD:invarg.obj
 0001:00019970       ?_CrtDbgReportW@@YAHHPBGH00ZZ 0041a970 f   LIBCMTD:dbgrptw.obj
 0001:000199c0       __CrtDbgReportW            0041a9c0 f   LIBCMTD:dbgrptw.obj
 0001:00019a10       __CrtDbgReportWV           0041aa10 f i LIBCMTD:dbgrptw.obj
 0001:00019a40       __CrtSetReportHookW2       0041aa40 f   LIBCMTD:dbgrptw.obj
 0001:00019d90       ___crtMessageWindowW       0041ad90 f   LIBCMTD:dbgrptw.obj
 0001:0001a240       __invoke_watson_if_error   0041b240 f i LIBCMTD:dbgrptw.obj
 0001:0001a270       __getstream                0041b270 f   LIBCMTD:stream.obj
 0001:0001a4a0       __openfile                 0041b4a0 f   LIBCMTD:_open.obj
 0001:0001aca0       ___doserrno                0041bca0 f   LIBCMTD:dosmap.obj
 0001:0001acd0       __dosmaperr                0041bcd0 f   LIBCMTD:dosmap.obj
 0001:0001ad00       __errno                    0041bd00 f   LIBCMTD:dosmap.obj
 0001:0001ad30       __get_doserrno             0041bd30 f   LIBCMTD:dosmap.obj
 0001:0001adc0       __get_errno                0041bdc0 f   LIBCMTD:dosmap.obj
 0001:0001ae50       __get_errno_from_oserr     0041be50 f   LIBCMTD:dosmap.obj
 0001:0001aed0       __set_doserrno             0041bed0 f   LIBCMTD:dosmap.obj
 0001:0001af00       __set_errno                0041bf00 f   LIBCMTD:dosmap.obj
 0001:0001af90       __except_handler4          0041bf90 f   LIBCMTD:chandler4.obj
 0001:0001b150       __local_unwind4            0041c150 f   LIBCMTD:exsup4.obj
 0001:0001b226       __seh_longjmp_unwind4@4    0041c226 f   LIBCMTD:exsup4.obj
 0001:0001b242       @_EH4_CallFilterFunc@8     0041c242 f   LIBCMTD:exsup4.obj
 0001:0001b259       @_EH4_TransferToHandler@8  0041c259 f   LIBCMTD:exsup4.obj
 0001:0001b272       @_EH4_GlobalUnwind2@8      0041c272 f   LIBCMTD:exsup4.obj
 0001:0001b28b       @_EH4_LocalUnwind@16       0041c28b f   LIBCMTD:exsup4.obj
 0001:0001b2b0       __fileno                   0041c2b0 f   LIBCMTD:fileno.obj
 0001:0001b340       __vfprintf_l               0041c340 f   LIBCMTD:vfprintf.obj
 0001:0001b370       __vfprintf_p               0041c370 f   LIBCMTD:vfprintf.obj
 0001:0001b390       __vfprintf_p_l             0041c390 f   LIBCMTD:vfprintf.obj
 0001:0001b3c0       __vfprintf_s_l             0041c3c0 f   LIBCMTD:vfprintf.obj
 0001:0001b3f0       _vfprintf                  0041c3f0 f   LIBCMTD:vfprintf.obj
 0001:0001b410       _vfprintf_helper           0041c410 f   LIBCMTD:vfprintf.obj
 0001:0001b6e0       _vfprintf_s                0041c6e0 f   LIBCMTD:vfprintf.obj
 0001:0001b700       __ftbuf                    0041c700 f   LIBCMTD:_sftbuf.obj
 0001:0001b790       __stbuf                    0041c790 f   LIBCMTD:_sftbuf.obj
 0001:0001b900       __output_l                 0041c900 f   LIBCMTD:output.obj
 0001:0001cfb0       _get_int64_arg             0041dfb0 f i LIBCMTD:output.obj
 0001:0001cfd0       _get_int_arg               0041dfd0 f i LIBCMTD:output.obj
 0001:0001cff0       _get_short_arg             0041dff0 f i LIBCMTD:output.obj
 0001:0001d1b0       __ioinit                   0041e1b0 f   LIBCMTD:ioinit.obj
 0001:0001d690       __ioterm                   0041e690 f   LIBCMTD:ioinit.obj
 0001:0001d730       __vprintf_l                0041e730 f   LIBCMTD:vprintf.obj
 0001:0001d750       __vprintf_p                0041e750 f   LIBCMTD:vprintf.obj
 0001:0001d770       __vprintf_p_l              0041e770 f   LIBCMTD:vprintf.obj
 0001:0001d790       __vprintf_s_l              0041e790 f   LIBCMTD:vprintf.obj
 0001:0001d7b0       _vprintf                   0041e7b0 f   LIBCMTD:vprintf.obj
 0001:0001d7d0       _vprintf_helper            0041e7d0 f   LIBCMTD:vprintf.obj
 0001:0001d910       _vprintf_s                 0041e910 f   LIBCMTD:vprintf.obj
 0001:0001d930       __RTC_Initialize           0041e930 f   LIBCMTD:initsect.obj
 0001:0001d960       __RTC_Terminate            0041e960 f   LIBCMTD:initsect.obj
 0001:0001d9e0       ___crtCloseThreadpoolTimer 0041e9e0 f   LIBCMTD:winapisupp.obj
 0001:0001da10       ___crtCloseThreadpoolWait  0041ea10 f   LIBCMTD:winapisupp.obj
 0001:0001da40       ___crtCreateEventExW       0041ea40 f   LIBCMTD:winapisupp.obj
 0001:0001daa0       ___crtCreateSemaphoreExW   0041eaa0 f   LIBCMTD:winapisupp.obj
 0001:0001db00       ___crtCreateSymbolicLinkW  0041eb00 f   LIBCMTD:winapisupp.obj
 0001:0001db40       ___crtCreateThreadpoolTimer 0041eb40 f   LIBCMTD:winapisupp.obj
 0001:0001db80       ___crtCreateThreadpoolWait 0041eb80 f   LIBCMTD:winapisupp.obj
 0001:0001dbc0       ___crtFlsAlloc             0041ebc0 f   LIBCMTD:winapisupp.obj
 0001:0001dbf0       ___crtFlsFree              0041ebf0 f   LIBCMTD:winapisupp.obj
 0001:0001dc30       ___crtFlsGetValue          0041ec30 f   LIBCMTD:winapisupp.obj
 0001:0001dc70       ___crtFlsSetValue          0041ec70 f   LIBCMTD:winapisupp.obj
 0001:0001dcb0       ___crtFlushProcessWriteBuffers 0041ecb0 f   LIBCMTD:winapisupp.obj
 0001:0001dce0       ___crtFreeLibraryWhenCallbackReturns 0041ece0 f   LIBCMTD:winapisupp.obj
 0001:0001dd10       ___crtGetCurrentProcessorNumber 0041ed10 f   LIBCMTD:winapisupp.obj
 0001:0001dd40       ___crtGetFileInformationByHandleEx 0041ed40 f   LIBCMTD:winapisupp.obj
 0001:0001dd80       ___crtGetLogicalProcessorInformation 0041ed80 f   LIBCMTD:winapisupp.obj
 0001:0001ddc0       ___crtGetShowWindowMode    0041edc0 f   LIBCMTD:winapisupp.obj
 0001:0001ddf0       ___crtGetTickCount64       0041edf0 f   LIBCMTD:winapisupp.obj
 0001:0001de20       ___crtInitializeCriticalSectionEx 0041ee20 f   LIBCMTD:winapisupp.obj
 0001:0001de70       ___crtIsPackagedApp        0041ee70 f   LIBCMTD:winapisupp.obj
 0001:0001deb0       ___crtLoadWinApiPointers   0041eeb0 f   LIBCMTD:winapisupp.obj
 0001:0001e350       ___crtSetFileInformationByHandle 0041f350 f   LIBCMTD:winapisupp.obj
 0001:0001e390       ___crtSetThreadStackGuarantee 0041f390 f   LIBCMTD:winapisupp.obj
 0001:0001e3c0       ___crtSetThreadpoolTimer   0041f3c0 f   LIBCMTD:winapisupp.obj
 0001:0001e400       ___crtSetThreadpoolWait    0041f400 f   LIBCMTD:winapisupp.obj
 0001:0001e430       ___crtSetUnhandledExceptionFilter 0041f430 f   LIBCMTD:winapisupp.obj
 0001:0001e440       ___crtSleep                0041f440 f   LIBCMTD:winapisupp.obj
 0001:0001e450       ___crtTerminateProcess     0041f450 f   LIBCMTD:winapisupp.obj
 0001:0001e470       ___crtUnhandledException   0041f470 f   LIBCMTD:winapisupp.obj
 0001:0001e490       ___crtWaitForThreadpoolTimerCallbacks 0041f490 f   LIBCMTD:winapisupp.obj
 0001:0001e4c0       __FF_MSGBANNER             0041f4c0 f   LIBCMTD:crt0msg.obj
 0001:0001e510       __GET_RTERRMSG             0041f510 f   LIBCMTD:crt0msg.obj
 0001:0001e550       __NMSG_WRITE               0041f550 f   LIBCMTD:crt0msg.obj
 0001:0001e910       __FindPESection            0041f910 f   LIBCMTD:pesect.obj
 0001:0001e990       __IsNonwritableInCurrentImage 0041f990 f   LIBCMTD:pesect.obj
 0001:0001eac0       __ValidateImageBase        0041fac0 f   LIBCMTD:pesect.obj
 0001:0001eb20       ___onexitinit              0041fb20 f   LIBCMTD:onexit.obj
 0001:0001eb80       __onexit                   0041fb80 f   LIBCMTD:onexit.obj
 0001:0001ed40       _atexit                    0041fd40 f   LIBCMTD:onexit.obj
 0001:0001ed70       __initp_misc_cfltcvt_tab   0041fd70 f   LIBCMTD:cmiscdat.obj
 0001:0001edb0       ?_inconsistency@@YAXXZ     0041fdb0 f   LIBCMTD:hooks.obj
 0001:0001ee40       ?terminate@@YAXXZ          0041fe40 f   LIBCMTD:hooks.obj
 0001:0001eec0       ?unexpected@@YAXXZ         0041fec0 f   LIBCMTD:hooks.obj
 0001:0001eef0       __initp_eh_hooks           0041fef0 f   LIBCMTD:hooks.obj
 0001:0001ef10       ?_query_new_handler@@YAP6AHI@ZXZ 0041ff10 f   LIBCMTD:handler.obj
 0001:0001ef30       ?_set_new_handler@@YAP6AHI@ZH@Z 0041ff30 f   LIBCMTD:handler.obj
 0001:0001ef70       ?_set_new_handler@@YAP6AHI@ZP6AHI@Z@Z 0041ff70 f   LIBCMTD:handler.obj
 0001:0001efb0       __callnewh                 0041ffb0 f   LIBCMTD:handler.obj
 0001:0001eff0       __initp_heap_handler       0041fff0 f   LIBCMTD:handler.obj
 0001:0001f000       ___getlocaleinfo           00420000 f   LIBCMTD:inithelp.obj
 0001:0001f300       __initp_misc_purevirt      00420300 f   LIBCMTD:inithelp.obj
 0001:0001f310       ___fpecode                 00420310 f   LIBCMTD:winsig.obj
 0001:0001f320       ___get_sigabrt             00420320 f   LIBCMTD:winsig.obj
 0001:0001f340       ___pxcptinfoptrs           00420340 f   LIBCMTD:winsig.obj
 0001:0001f350       __initp_misc_winsig        00420350 f   LIBCMTD:winsig.obj
 0001:0001f480       _raise                     00420480 f   LIBCMTD:winsig.obj
 0001:0001f810       _signal                    00420810 f   LIBCMTD:winsig.obj
 0001:0001fbc0       __initp_misc_rand_s        00420bc0 f   LIBCMTD:rand_s.obj
 0001:0001fbd0       _rand_s                    00420bd0 f   LIBCMTD:rand_s.obj
 0001:0001fe30       ___initmbctable            00420e30 f   LIBCMTD:mbctype.obj
 0001:00020450       ___updatetmbcinfo          00421450 f   LIBCMTD:mbctype.obj
 0001:00020570       __getmbcp                  00421570 f   LIBCMTD:mbctype.obj
 0001:000205e0       __setmbcp                  004215e0 f   LIBCMTD:mbctype.obj
 0001:00020880       __setmbcp_nolock           00421880 f   LIBCMTD:mbctype.obj
 0001:00021130       __strtof_l                 00422130 f   LIBCMTD:strtoq.obj
 0001:00021160       __strtoi64                 00422160 f   LIBCMTD:strtoq.obj
 0001:000211b0       __strtoi64_l               004221b0 f   LIBCMTD:strtoq.obj
 0001:000211d0       __strtoimax_l              004221d0 f   LIBCMTD:strtoq.obj
 0001:000211f0       __strtold_l                004221f0 f   LIBCMTD:strtoq.obj
 0001:00021210       __strtoll_l                00422210 f   LIBCMTD:strtoq.obj
 0001:00021230       __strtoui64                00422230 f   LIBCMTD:strtoq.obj
 0001:00021280       __strtoui64_l              00422280 f   LIBCMTD:strtoq.obj
 0001:000212a0       __strtoull_l               004222a0 f   LIBCMTD:strtoq.obj
 0001:000212c0       __strtoumax_l              004222c0 f   LIBCMTD:strtoq.obj
 0001:000212e0       _strtof                    004222e0 f   LIBCMTD:strtoq.obj
 0001:00021310       _strtoimax                 00422310 f   LIBCMTD:strtoq.obj
 0001:00021330       _strtold                   00422330 f   LIBCMTD:strtoq.obj
 0001:00021350       _strtoll                   00422350 f   LIBCMTD:strtoq.obj
 0001:00021370       _strtoull                  00422370 f   LIBCMTD:strtoq.obj
 0001:00021390       _strtoumax                 00422390 f   LIBCMTD:strtoq.obj
 0001:000218b0       __strtol_l                 004228b0 f   LIBCMTD:strtol.obj
 0001:000218d0       __strtoul_l                004228d0 f   LIBCMTD:strtol.obj
 0001:000218f0       _strtol                    004228f0 f   LIBCMTD:strtol.obj
 0001:00021940       _strtoul                   00422940 f   LIBCMTD:strtol.obj
 0001:00021990       __errcode                  00422990 f   LIBCMTD:fpexcept.obj
 0001:00021a00       __except1                  00422a00 f   LIBCMTD:fpexcept.obj
 0001:00021b00       __except2                  00422b00 f   LIBCMTD:fpexcept.obj
 0001:00021c50       __handle_exc               00422c50 f   LIBCMTD:fpexcept.obj
 0001:00021f70       __handle_qnan1             00422f70 f   LIBCMTD:fpexcept.obj
 0001:00021fd0       __handle_qnan2             00422fd0 f   LIBCMTD:fpexcept.obj
 0001:00022040       __raise_exc                00423040 f   LIBCMTD:fpexcept.obj
 0001:00022070       __raise_exc_ex             00423070 f   LIBCMTD:fpexcept.obj
 0001:000225f0       __raise_excf               004235f0 f   LIBCMTD:fpexcept.obj
 0001:00022620       __set_errno_from_matherr   00423620 f   LIBCMTD:fpexcept.obj
 0001:00022660       __umatherr                 00423660 f   LIBCMTD:fpexcept.obj
 0001:00022700       __add_exp                  00423700 f   LIBCMTD:util.obj
 0001:00022730       __decomp                   00423730 f   LIBCMTD:util.obj
 0001:00022850       __get_exp                  00423850 f   LIBCMTD:util.obj
 0001:00022880       __set_bexp                 00423880 f   LIBCMTD:util.obj
 0001:000228b0       __set_exp                  004238b0 f   LIBCMTD:util.obj
 0001:000228f0       __sptype                   004238f0 f   LIBCMTD:util.obj
 0001:00022970       ___clrfp_sse2              00423970 f   LIBCMTD:fpctrl.obj
 0001:000229b0       ___ctrlfp_sse2             004239b0 f   LIBCMTD:fpctrl.obj
 0001:00022a10       ___fclrf_sse2              00423a10 f   LIBCMTD:fpctrl.obj
 0001:00022a30       ___get_fpsr_sse2           00423a30 f   LIBCMTD:fpctrl.obj
 0001:00022a60       ___set_fpsr_sse2           00423a60 f   LIBCMTD:fpctrl.obj
 0001:00022b40       ___set_statfp_sse2         00423b40 f   LIBCMTD:fpctrl.obj
 0001:00022b70       ___statfp_sse2             00423b70 f   LIBCMTD:fpctrl.obj
 0001:00022ba0       __clrfp                    00423ba0 f   LIBCMTD:fpctrl.obj
 0001:00022bc0       __ctrlfp                   00423bc0 f   LIBCMTD:fpctrl.obj
 0001:00022bf0       __set_statfp               00423bf0 f   LIBCMTD:fpctrl.obj
 0001:00022c60       __statfp                   00423c60 f   LIBCMTD:fpctrl.obj
 0001:00022c70       __trandisp1                00423c70 f   LIBCMTD:87disp.obj
 0001:00022cd7       __trandisp2                00423cd7 f   LIBCMTD:87disp.obj
 0001:00022d63       __rttospopde               00423d63     LIBCMTD:87disp.obj
 0001:00022d68       __rttospop                 00423d68     LIBCMTD:87disp.obj
 0001:00022d6a       __rtnospop                 00423d6a     LIBCMTD:87disp.obj
 0001:00022d6c       __rttosnpop                00423d6c     LIBCMTD:87disp.obj
 0001:00022d6d       __rtnospopde               00423d6d     LIBCMTD:87disp.obj
 0001:00022d74       __rtzeropop                00423d74     LIBCMTD:87disp.obj
 0001:00022d76       __rtzeronpop               00423d76     LIBCMTD:87disp.obj
 0001:00022d7b       __rtonepop                 00423d7b     LIBCMTD:87disp.obj
 0001:00022d7d       __rtonenpop                00423d7d     LIBCMTD:87disp.obj
 0001:00022d82       __tosnan1                  00423d82     LIBCMTD:87disp.obj
 0001:00022dad       __nosnan2                  00423dad     LIBCMTD:87disp.obj
 0001:00022daf       __tosnan2                  00423daf     LIBCMTD:87disp.obj
 0001:00022dd7       __nan2                     00423dd7     LIBCMTD:87disp.obj
 0001:00022e16       __rtindfpop                00423e16     LIBCMTD:87disp.obj
 0001:00022e18       __rtindfnpop               00423e18     LIBCMTD:87disp.obj
 0001:00022e29       __rttosnpopde              00423e29     LIBCMTD:87disp.obj
 0001:00022e33       __rtchsifneg               00423e33     LIBCMTD:87disp.obj
 0001:00022e40       __startTwoArgErrorHandling 00423e40 f   LIBCMTD:genexcep.obj
 0001:00022e57       __startOneArgErrorHandling 00423e57 f   LIBCMTD:genexcep.obj
 0001:00022ea0       __twoToTOS                 00423ea0 f   LIBCMTD:common.obj
 0001:00022eb5       __load_CW                  00423eb5 f   LIBCMTD:common.obj
 0001:00022ecc       __convertTOStoQNaN         00423ecc f   LIBCMTD:common.obj
 0001:00022ee5       __fload_withFB             00423ee5 f   LIBCMTD:common.obj
 0001:00022f28       __checkTOS_withFB          00423f28 f   LIBCMTD:common.obj
 0001:00022f3e       __fast_exit                00423f3e f   LIBCMTD:common.obj
 0001:00022f4b       __math_exit                00423f4b f   LIBCMTD:common.obj
 0001:00022f75       __check_overflow_exit      00423f75 f   LIBCMTD:common.obj
 0001:00022f89       __check_range_exit         00423f89 f   LIBCMTD:common.obj
 0001:00023180       ?_RTC_AllocaFailure@@YAXPAXPAU_RTC_ALLOCA_NODE@@H@Z 00424180 f   LIBCMTD:error.obj
 0001:00023300       ?_RTC_Failure@@YAXPAXH@Z   00424300 f   LIBCMTD:error.obj
 0001:00023350       ?_RTC_StackFailure@@YAXPAXPBD@Z 00424350 f   LIBCMTD:error.obj
 0001:000236d0       __RTC_UninitUse            004246d0 f   LIBCMTD:error.obj
 0001:000237c0       ?_RTC_GetErrorFunc@@YAP6AHHPBDH00ZZPBX@Z 004247c0 f   LIBCMTD:userapi.obj
 0001:000237d0       ?_RTC_GetErrorFuncW@@YAP6AHHPB_WH00ZZPBX@Z 004247d0 f   LIBCMTD:userapi.obj
 0001:000237e0       __RTC_GetErrDesc           004247e0 f   LIBCMTD:userapi.obj
 0001:00023800       __RTC_NumErrors            00424800 f   LIBCMTD:userapi.obj
 0001:00023810       __RTC_SetErrorFunc         00424810 f   LIBCMTD:userapi.obj
 0001:00023830       __RTC_SetErrorFuncW        00424830 f   LIBCMTD:userapi.obj
 0001:00023850       __RTC_SetErrorType         00424850 f   LIBCMTD:userapi.obj
 0001:00023880       __CRT_RTC_INIT             00424880 f   LIBCMTD:chkesp.obj
 0001:00023890       __CRT_RTC_INITW            00424890 f   LIBCMTD:chkesp.obj
 0001:000238a0       __chkesp                   004248a0 f   LIBCMTD:chkesp.obj
 0001:000238e0       ?strrchr@@YAPADPADH@Z      004248e0 f i LIBCMTD:cvt.obj
 0001:00023900       __cfltcvt                  00424900 f   LIBCMTD:cvt.obj
 0001:00023930       __cfltcvt_l                00424930 f   LIBCMTD:cvt.obj
 0001:000239f0       __cftoa                    004249f0 f   LIBCMTD:cvt.obj
 0001:00023a20       __cftoa_l                  00424a20 f   LIBCMTD:cvt.obj
 0001:00024290       __cftoe                    00425290 f   LIBCMTD:cvt.obj
 0001:000246d0       __cftoe_l                  004256d0 f   LIBCMTD:cvt.obj
 0001:00024900       __cftof                    00425900 f   LIBCMTD:cvt.obj
 0001:00024bb0       __cftof_l                  00425bb0 f   LIBCMTD:cvt.obj
 0001:00024db0       __cftog                    00425db0 f   LIBCMTD:cvt.obj
 0001:00024de0       __cftog_l                  00425de0 f   LIBCMTD:cvt.obj
 0001:00025070       __cropzeros                00426070 f   LIBCMTD:cvt.obj
 0001:00025090       __cropzeros_l              00426090 f   LIBCMTD:cvt.obj
 0001:000251b0       __fassign                  004261b0 f   LIBCMTD:cvt.obj
 0001:000251d0       __fassign_l                004261d0 f   LIBCMTD:cvt.obj
 0001:00025220       __forcdecpt                00426220 f   LIBCMTD:cvt.obj
 0001:00025240       __forcdecpt_l              00426240 f   LIBCMTD:cvt.obj
 0001:00025310       __positive                 00426310 f   LIBCMTD:cvt.obj
 0001:00025370       __setdefaultprecision      00426370 f   LIBCMTD:fp8.obj
 0001:000253b0       __CrtDefaultAllocHook      004263b0 f   LIBCMTD:dbghook.obj
 0001:000253c0       __crt_debugger_hook        004263c0 f   LIBCMTD:dbghook.obj
 0001:000253d0       __close                    004263d0 f   LIBCMTD:close.obj
 0001:00025610       __close_nolock             00426610 f   LIBCMTD:close.obj
 0001:000256f0       __freebuf                  004266f0 f   LIBCMTD:_freebuf.obj
 0001:00025780       __filbuf                   00426780 f   LIBCMTD:_filbuf.obj
 0001:000259f0       __INTRN_LOCALE_CONV        004269f0 f i LIBCMTD:input.obj
 0001:00025bb0       __input_l                  00426bb0 f   LIBCMTD:input.obj
 0001:00027ab0       __input_s_l                00428ab0 f   LIBCMTD:inputs.obj
 0001:00029c90       __lseek                    0042ac90 f   LIBCMTD:lseek.obj
 0001:00029ee0       __lseek_nolock             0042aee0 f   LIBCMTD:lseek.obj
 0001:0002a020       __flsbuf                   0042b020 f   LIBCMTD:_flsbuf.obj
 0001:0002a2f0       __vsnprintf                0042b2f0 f   LIBCMTD:vsnprint.obj
 0001:0002a310       __vsnprintf_l              0042b310 f   LIBCMTD:vsnprint.obj
 0001:0002a4f0       __vscprintf                0042b4f0 f   LIBCMTD:vsprintf.obj
 0001:0002a510       __vscprintf_helper         0042b510 f   LIBCMTD:vsprintf.obj
 0001:0002a600       __vscprintf_l              0042b600 f   LIBCMTD:vsprintf.obj
 0001:0002a620       __vscprintf_p              0042b620 f   LIBCMTD:vsprintf.obj
 0001:0002a640       __vscprintf_p_l            0042b640 f   LIBCMTD:vsprintf.obj
 0001:0002a660       __vsprintf_l               0042b660 f   LIBCMTD:vsprintf.obj
 0001:0002a820       _vsprintf                  0042b820 f   LIBCMTD:vsprintf.obj
 0001:0002a840       __vsnprintf_c              0042b840 f   LIBCMTD:vsnprnc.obj
 0001:0002a890       __vsnprintf_c_l            0042b890 f   LIBCMTD:vsnprnc.obj
 0001:0002a8e0       __vsnprintf_helper         0042b8e0 f   LIBCMTD:vsnprnc.obj
 0001:0002aae0       __vsnprintf_s              0042bae0 f   LIBCMTD:vsnprnc.obj
 0001:0002ab10       __vsnprintf_s_l            0042bb10 f   LIBCMTD:vsnprnc.obj
 0001:0002aed0       __vsprintf_p               0042bed0 f   LIBCMTD:vsnprnc.obj
 0001:0002af20       __vsprintf_p_l             0042bf20 f   LIBCMTD:vsnprnc.obj
 0001:0002af70       __vsprintf_s_l             0042bf70 f   LIBCMTD:vsnprnc.obj
 0001:0002b200       _vsprintf_s                0042c200 f   LIBCMTD:vsnprnc.obj
 0001:0002b220       __spawnve                  0042c220 f   LIBCMTD:spawnve.obj
 0001:0002b8e0       __spawnvpe                 0042c8e0 f   LIBCMTD:spawnvpe.obj
 0001:0002be30       __access                   0042ce30 f   LIBCMTD:access.obj
 0001:0002be70       __access_s                 0042ce70 f   LIBCMTD:access.obj
 0001:0002bed0       __dupenv_s                 0042ced0 f   LIBCMTD:getenv.obj
 0001:0002bef0       __dupenv_s_dbg             0042cef0 f   LIBCMTD:getenv.obj
 0001:0002c170       __getenv_helper_nolock     0042d170 f   LIBCMTD:getenv.obj
 0001:0002c440       _getenv                    0042d440 f   LIBCMTD:getenv.obj
 0001:0002c5d0       _getenv_s                  0042d5d0 f   LIBCMTD:getenv.obj
 0001:0002c670       ___isa_available_init      0042d670 f   LIBCMTD:cpu_disp.obj
 0001:0002c920       __VEC_memset               0042d920 f   LIBCMTD:p4_memset.obj
 0001:0002c9f0       _strchr                    0042d9f0 f   LIBCMTD:strchr.obj
 0001:0002ca5e       ___from_strstr_to_strchr   0042da5e     LIBCMTD:strchr.obj
 0001:0002cb20       __sse2_mathfcns_init       0042db20 f   LIBCMTD:mathfcns.obj
 0001:0002cb40       __set_SSE2_enable          0042db40 f   LIBCMTD:mathfcns.obj
 0001:0002cb90       __CIcos_pentium4           0042db90 f   LIBCMTD:cos_pentium4.obj
 0001:0002cba8       __cos_pentium4             0042dba8     LIBCMTD:cos_pentium4.obj
 0001:0002cd40       _ldexp                     0042dd40 f   LIBCMTD:ldexp.obj
 0001:0002d020       ?__CxxUnhandledExceptionFilter@@YGJPAU_EXCEPTION_POINTERS@@@Z 0042e020 f   LIBCMTD:unhandld.obj
 0001:0002d090       ___CxxSetUnhandledExceptionFilter 0042e090 f   LIBCMTD:unhandld.obj
 0001:0002d0b0       __XcptFilter               0042e0b0 f   LIBCMTD:winxfltr.obj
 0001:0002d2b0       ___CppXcptFilter           0042e2b0 f   LIBCMTD:winxfltr.obj
 0001:0002d340       ___get_flsindex            0042e340 f   LIBCMTD:tidtable.obj
 0001:0002d350       ___threadhandle            0042e350 f   LIBCMTD:tidtable.obj
 0001:0002d360       ___threadid                0042e360 f   LIBCMTD:tidtable.obj
 0001:0002d370       __freefls@4                0042e370 f   LIBCMTD:tidtable.obj
 0001:0002d570       __freeptd                  0042e570 f   LIBCMTD:tidtable.obj
 0001:0002d5b0       __getptd                   0042e5b0 f   LIBCMTD:tidtable.obj
 0001:0002d5e0       __getptd_noexit            0042e5e0 f   LIBCMTD:tidtable.obj
 0001:0002d690       __initptd                  0042e690 f   LIBCMTD:tidtable.obj
 0001:0002d7d0       __mtinit                   0042e7d0 f   LIBCMTD:tidtable.obj
 0001:0002d880       __mtterm                   0042e880 f   LIBCMTD:tidtable.obj
 0001:0002d8b0       __get_heap_handle          0042e8b0 f   LIBCMTD:heapinit.obj
 0001:0002d8f0       __heap_init                0042e8f0 f   LIBCMTD:heapinit.obj
 0001:0002d920       __heap_term                0042e920 f   LIBCMTD:heapinit.obj
 0001:0002d930       __set_pgmptr               0042e930 f i LIBCMTD:stdargv.obj
 0001:0002d940       __setargv                  0042e940 f   LIBCMTD:stdargv.obj
 0001:0002de10       __setenvp                  0042ee10 f   LIBCMTD:stdenvp.obj
 0001:0002dfb0       ___set_app_type            0042efb0 f   LIBCMTD:errmode.obj
 0001:0002dfc0       __set_error_mode           0042efc0 f   LIBCMTD:errmode.obj
 0001:0002e080       ___security_init_cookie    0042f080 f   LIBCMTD:gs_support.obj
 0001:0002e160       ___crtGetEnvironmentStringsA 0042f160 f   LIBCMTD:a_env.obj
 0001:0002e260       __commit                   0042f260 f   LIBCMTD:commit.obj
 0001:0002e4a0       __write                    0042f4a0 f   LIBCMTD:write.obj
 0001:0002e6f0       __write_nolock             0042f6f0 f   LIBCMTD:write.obj
 0001:0002f4a0       ___addlocaleref            004304a0 f   LIBCMTD:localref.obj
 0001:0002f5c0       ___freetlocinfo            004305c0 f   LIBCMTD:localref.obj
 0001:0002f8b0       ___removelocaleref         004308b0 f   LIBCMTD:localref.obj
 0001:0002f9d0       ___updatetlocinfo          004309d0 f   LIBCMTD:localref.obj
 0001:0002faa0       __updatetlocinfoEx_nolock  00430aa0 f   LIBCMTD:localref.obj
 0001:0002fb20       __chvalidator              00430b20 f   LIBCMTD:isctype.obj
 0001:0002fb70       __chvalidator_l            00430b70 f   LIBCMTD:isctype.obj
 0001:0002fc30       __isctype                  00430c30 f   LIBCMTD:isctype.obj
 0001:0002fc70       __isctype_l                00430c70 f   LIBCMTD:isctype.obj
 0001:0002fdc0       __free_base                00430dc0 f   LIBCMTD:free.obj
 0001:0002fe10       __realloc_base             00430e10 f   LIBCMTD:realloc.obj
 0001:0002ff10       __expand_base              00430f10 f   LIBCMTD:expand.obj
 0001:00030080       __CrtDbgReport             00431080 f   LIBCMTD:dbgrpt.obj
 0001:000300d0       __CrtDbgReportV            004310d0 f i LIBCMTD:dbgrpt.obj
 0001:00030100       __CrtSetReportHook2        00431100 f   LIBCMTD:dbgrpt.obj
 0001:00030450       ___crtMessageWindowA       00431450 f   LIBCMTD:dbgrpt.obj
 0001:00030900       __heapchk                  00431900 f   LIBCMTD:heapchk.obj
 0001:00030930       __heapset                  00431930 f   LIBCMTD:heapchk.obj
 0001:00030940       __heap_alloc_base          00431940 f i LIBCMTD:malloc.obj
 0001:000309a0       __malloc_base              004319a0 f   LIBCMTD:malloc.obj
 0001:00030a30       _memcpy_s                  00431a30 f   LIBCMTD:memcpy_s.obj
 0001:00030c00       _wcscpy_s                  00431c00 f   LIBCMTD:wcscpy_s.obj
 0001:00030f10       _wcslen                    00431f10 f   LIBCMTD:wcslen.obj
 0001:00030f50       ___swprintf_l              00431f50 f   LIBCMTD:swprintf.obj
 0001:00030f80       __scwprintf                00431f80 f   LIBCMTD:swprintf.obj
 0001:00030fa0       __scwprintf_l              00431fa0 f   LIBCMTD:swprintf.obj
 0001:00030fd0       __scwprintf_p              00431fd0 f   LIBCMTD:swprintf.obj
 0001:00030ff0       __scwprintf_p_l            00431ff0 f   LIBCMTD:swprintf.obj
 0001:00031020       __snwprintf_s              00432020 f   LIBCMTD:swprintf.obj
 0001:00031050       __snwprintf_s_l            00432050 f   LIBCMTD:swprintf.obj
 0001:00031080       __swprintf                 00432080 f   LIBCMTD:swprintf.obj
 0001:000312a0       __swprintf_p               004322a0 f   LIBCMTD:swprintf.obj
 0001:000312d0       __swprintf_p_l             004322d0 f   LIBCMTD:swprintf.obj
 0001:00031300       __swprintf_s_l             00432300 f   LIBCMTD:swprintf.obj
 0001:00031330       _swprintf_s                00432330 f   LIBCMTD:swprintf.obj
 0001:00031360       ___crtMessageBoxW          00432360 f   LIBCMTD:crtmboxw.obj
 0001:00031670       ___crtMessageBoxWaitThreadW@4 00432670 f   LIBCMTD:crtmboxw.obj
 0001:000316b0       __CrtDbgBreak              004326b0 f   LIBCMTD:dbgrptt.obj
 0001:000316c0       __CrtGetReportHook         004326c0 f   LIBCMTD:dbgrptt.obj
 0001:000316d0       __CrtSetReportFile         004326d0 f   LIBCMTD:dbgrptt.obj
 0001:000317d0       __CrtSetReportHook         004327d0 f   LIBCMTD:dbgrptt.obj
 0001:000317f0       __CrtSetReportMode         004327f0 f   LIBCMTD:dbgrptt.obj
 0001:00031930       __VCrtDbgReportA           00432930 f   LIBCMTD:dbgrptt.obj
 0001:000321a0       __VCrtDbgReportW           004331a0 f   LIBCMTD:dbgrptt.obj
 0001:00032b20       __open                     00433b20 f   LIBCMTD:open.obj
 0001:00032cc0       __sopen                    00433cc0 f   LIBCMTD:open.obj
 0001:00032d30       __sopen_helper             00433d30 f   LIBCMTD:open.obj
 0001:00032fd0       __sopen_nolock             00433fd0 f   LIBCMTD:open.obj
 0001:00033040       __sopen_s                  00434040 f   LIBCMTD:open.obj
 0001:00033070       __mbsnbcmp                 00434070 f   LIBCMTD:mbsnbcmp.obj
 0001:00033090       __mbsnbcmp_l               00434090 f   LIBCMTD:mbsnbcmp.obj
 0001:000333b0       __mbsnbicmp                004343b0 f   LIBCMTD:mbsnbicm.obj
 0001:000333d0       __mbsnbicmp_l              004343d0 f   LIBCMTD:mbsnbicm.obj
 0001:00033910       __global_unwind2           00434910 f   LIBCMTD:exsup.obj
 0001:00033975       __local_unwind2            00434975 f   LIBCMTD:exsup.obj
 0001:000339f9       __abnormal_termination     004349f9 f   LIBCMTD:exsup.obj
 0001:00033a1c       __NLG_Notify1              00434a1c f   LIBCMTD:exsup.obj
 0001:00033a25       __NLG_Notify               00434a25 f   LIBCMTD:exsup.obj
 0001:00033a3c       __NLG_Dispatch2            00434a3c     LIBCMTD:exsup.obj
 0001:00033a3c       __NLG_Dispatch             00434a3c     LIBCMTD:exsup.obj
 0001:00033a44       __NLG_Call                 00434a44 f   LIBCMTD:exsup.obj
 0001:00033a46       __NLG_Return2              00434a46     LIBCMTD:exsup.obj
 0001:00033a50       __output_s_l               00434a50 f   LIBCMTD:outputs.obj
 0001:00035400       __output_p_l               00436400 f   LIBCMTD:outputp.obj
 0001:00039200       __validate_param_reuseA    0043a200 f   LIBCMTD:outputp.obj
 0001:000394f0       _get_crtdouble_arg         0043a4f0 f i LIBCMTD:outputp.obj
 0001:000396b0       __isatty                   0043a6b0 f   LIBCMTD:isatty.obj
 0001:00039770       ___iswcsym                 0043a770 f i LIBCMTD:_wctype.obj
 0001:000397b0       ___iswcsymf                0043a7b0 f i LIBCMTD:_wctype.obj
 0001:000397f0       __isleadbyte_l             0043a7f0 f i LIBCMTD:_wctype.obj
 0001:00039840       __iswalnum_l               0043a840 f i LIBCMTD:_wctype.obj
 0001:00039860       __iswalpha_l               0043a860 f i LIBCMTD:_wctype.obj
 0001:00039880       __iswblank_l               0043a880 f i LIBCMTD:_wctype.obj
 0001:000398b0       __iswcntrl_l               0043a8b0 f i LIBCMTD:_wctype.obj
 0001:000398d0       __iswcsym_l                0043a8d0 f i LIBCMTD:_wctype.obj
 0001:00039910       __iswcsymf_l               0043a910 f i LIBCMTD:_wctype.obj
 0001:00039950       __iswdigit_l               0043a950 f i LIBCMTD:_wctype.obj
 0001:00039970       __iswgraph_l               0043a970 f i LIBCMTD:_wctype.obj
 0001:00039990       __iswlower_l               0043a990 f i LIBCMTD:_wctype.obj
 0001:000399b0       __iswprint_l               0043a9b0 f i LIBCMTD:_wctype.obj
 0001:000399d0       __iswpunct_l               0043a9d0 f i LIBCMTD:_wctype.obj
 0001:000399f0       __iswspace_l               0043a9f0 f i LIBCMTD:_wctype.obj
 0001:00039a10       __iswupper_l               0043aa10 f i LIBCMTD:_wctype.obj
 0001:00039a30       __iswxdigit_l              0043aa30 f i LIBCMTD:_wctype.obj
 0001:00039a50       _isleadbyte                0043aa50 f i LIBCMTD:_wctype.obj
 0001:00039a70       _iswalnum                  0043aa70 f i LIBCMTD:_wctype.obj
 0001:00039a90       _iswalpha                  0043aa90 f i LIBCMTD:_wctype.obj
 0001:00039ab0       _iswascii                  0043aab0 f i LIBCMTD:_wctype.obj
 0001:00039ae0       _iswblank                  0043aae0 f i LIBCMTD:_wctype.obj
 0001:00039b10       _iswcntrl                  0043ab10 f i LIBCMTD:_wctype.obj
 0001:00039b30       _iswdigit                  0043ab30 f i LIBCMTD:_wctype.obj
 0001:00039b50       _iswgraph                  0043ab50 f i LIBCMTD:_wctype.obj
 0001:00039b70       _iswlower                  0043ab70 f i LIBCMTD:_wctype.obj
 0001:00039b90       _iswprint                  0043ab90 f i LIBCMTD:_wctype.obj
 0001:00039bb0       _iswpunct                  0043abb0 f i LIBCMTD:_wctype.obj
 0001:00039bd0       _iswspace                  0043abd0 f i LIBCMTD:_wctype.obj
 0001:00039bf0       _iswupper                  0043abf0 f i LIBCMTD:_wctype.obj
 0001:00039c10       _iswxdigit                 0043ac10 f i LIBCMTD:_wctype.obj
 0001:00039c30       __wctomb_l                 0043ac30 f   LIBCMTD:wctomb.obj
 0001:00039cb0       __wctomb_s_l               0043acb0 f   LIBCMTD:wctomb.obj
 0001:0003a000       _wctomb                    0043b000 f   LIBCMTD:wctomb.obj
 0001:0003a050       _wctomb_s                  0043b050 f   LIBCMTD:wctomb.obj
 0001:0003a070       __aulldiv                  0043b070 f   LIBCMTD:ulldiv.obj
 0001:0003a0e0       __aullrem                  0043b0e0 f   LIBCMTD:ullrem.obj
 0001:0003a160       _wcscat_s                  0043b160 f   LIBCMTD:wcscat_s.obj
 0001:0003a570       _wcsncpy_s                 0043b570 f   LIBCMTD:wcsncpy_s.obj
 0001:0003a9a0       __fptrap                   0043b9a0 f   LIBCMTD:crt0fp.obj
 0001:0003a9b0       __set_abort_behavior       0043b9b0 f   LIBCMTD:abort.obj
 0001:0003a9e0       _abort                     0043b9e0 f   LIBCMTD:abort.obj
 0001:0003aa50       _strncpy_s                 0043ba50 f   LIBCMTD:strncpy_s.obj
 0001:0003afa0       __MallocaIsSizeInRange     0043bfa0 f i LIBCMTD:a_loc.obj
 0001:0003afd0       __MarkAllocaS              0043bfd0 f i LIBCMTD:a_loc.obj
 0001:0003aff0       ___crtGetLocaleInfoA       0043bff0 f   LIBCMTD:a_loc.obj
 0001:0003b040       __freea                    0043c040 f i LIBCMTD:a_loc.obj
 0001:0003b0b0       _GetTableIndexFromLcid     0043c0b0 f   LIBCMTD:winapinls.obj
 0001:0003b120       _GetTableIndexFromLocaleName 0043c120 f   LIBCMTD:winapinls.obj
 0001:0003b1b0       ___crtCompareStringEx      0043c1b0 f   LIBCMTD:winapinls.obj
 0001:0003b220       ___crtDownlevelLCIDToLocaleName 0043c220 f   LIBCMTD:winapinls.obj
 0001:0003b2f0       ___crtDownlevelLocaleNameToLCID 0043c2f0 f   LIBCMTD:winapinls.obj
 0001:0003b350       ___crtEnumSystemLocalesEx  0043c350 f   LIBCMTD:winapinls.obj
 0001:0003b3c0       ___crtGetDateFormatEx      0043c3c0 f   LIBCMTD:winapinls.obj
 0001:0003b430       ___crtGetLocaleInfoEx      0043c430 f   LIBCMTD:winapinls.obj
 0001:0003b490       ___crtGetTimeFormatEx      0043c490 f   LIBCMTD:winapinls.obj
 0001:0003b500       ___crtGetUserDefaultLocaleName 0043c500 f   LIBCMTD:winapinls.obj
 0001:0003b550       ___crtIsValidLocaleName    0043c550 f   LIBCMTD:winapinls.obj
 0001:0003b590       ___crtLCMapStringEx        0043c590 f   LIBCMTD:winapinls.obj
 0001:0003b600       ___wcsnicmp_ascii          0043c600 f   LIBCMTD:winapinls.obj
 0001:0003ba00       ___crtLCMapStringA         0043ca00 f   LIBCMTD:a_map.obj
 0001:0003bba0       ___crtGetStringTypeA       0043cba0 f   LIBCMTD:a_str.obj
 0001:0003bcf0       ?_CallCatchBlock2@@YAPAXPAUEHRegistrationNode@@PBU_s_FuncInfo@@PAXHK@Z 0043ccf0 f   LIBCMTD:_trnsctrl_.obj
 0001:0003bd60       ?_CallMemberFunction0@@YGXPAX0@Z 0043cd60 f   LIBCMTD:_trnsctrl_.obj
 0001:0003bd70       ?_CallMemberFunction1@@YGXPAX00@Z 0043cd70 f   LIBCMTD:_trnsctrl_.obj
 0001:0003bd80       ?_CallMemberFunction2@@YGXPAX00H@Z 0043cd80 f   LIBCMTD:_trnsctrl_.obj
 0001:0003bd90       ?_CallSETranslator@@YAHPAUEHExceptionRecord@@PAUEHRegistrationNode@@PAX2PBU_s_FuncInfo@@H1@Z 0043cd90 f   LIBCMTD:_trnsctrl_.obj
 0001:0003be80       ?_GetRangeOfTrysToCheck@@YAPBU_s_TryBlockMapEntry@@PBU_s_FuncInfo@@HHPAI1@Z 0043ce80 f   LIBCMTD:_trnsctrl_.obj
 0001:0003bf10       ?_JumpToContinuation@@YGXPAXPAUEHRegistrationNode@@@Z 0043cf10 f   LIBCMTD:_trnsctrl_.obj
 0001:0003bf50       ?_UnwindNestedFrames@@YGXPAUEHRegistrationNode@@PAUEHExceptionRecord@@@Z 0043cf50 f   LIBCMTD:_trnsctrl_.obj
 0001:0003bfb0       __CreateFrameInfo          0043cfb0 f   LIBCMTD:_trnsctrl_.obj
 0001:0003bfe0       __FindAndUnlinkFrame       0043cfe0 f   LIBCMTD:_trnsctrl_.obj
 0001:0003c040       __IsExceptionObjectToBeDestroyed 0043d040 f   LIBCMTD:_trnsctrl_.obj
 0001:0003c070       ___CxxFrameHandler         0043d070 f   LIBCMTD:_trnsctrl_.obj
 0001:0003c0b0       ___CxxFrameHandler2        0043d0b0 f   LIBCMTD:_trnsctrl_.obj
 0001:0003c0f0       ___CxxFrameHandler3        0043d0f0 f   LIBCMTD:_trnsctrl_.obj
 0001:0003c130       ___CxxLongjmpUnwind@4      0043d130 f   LIBCMTD:_trnsctrl_.obj
 0001:0003c160       __strtod_l                 0043d160 f   LIBCMTD:strtod.obj
 0001:0003c370       _strtod                    0043d370 f   LIBCMTD:strtod.obj
 0001:0003c390       ___crt_atoflt_l            0043d390 f   LIBCMTD:atodbl.obj
 0001:0003c4a0       __atodbl                   0043d4a0 f   LIBCMTD:atodbl.obj
 0001:0003c4c0       __atodbl_l                 0043d4c0 f   LIBCMTD:atodbl.obj
 0001:0003c5c0       __atoflt                   0043d5c0 f   LIBCMTD:atodbl.obj
 0001:0003c5e0       __atoflt_l                 0043d5e0 f   LIBCMTD:atodbl.obj
 0001:0003c600       __atoldbl                  0043d600 f   LIBCMTD:atodbl.obj
 0001:0003c620       __atoldbl_l                0043d620 f   LIBCMTD:atodbl.obj
 0001:0003c720       __allmul                   0043d720 f   LIBCMTD:llmul.obj
 0001:0003c760       ___init_dummy              0043d760 f   LIBCMTD:wsetloca.obj
 0001:0003c770       __locterm                  0043d770 f   LIBCMTD:wsetloca.obj
 0001:0003c800       ____setlc_active_func      0043d800 f   LIBCMTD:wsetloca.obj
 0001:0003c810       ____unguarded_readlc_active_add_func 0043d810 f   LIBCMTD:wsetloca.obj
 0001:0003c820       ___copy_locale_name        0043d820 f   LIBCMTD:wsetloca.obj
 0001:0003c8c0       ___create_locale           0043d8c0 f   LIBCMTD:wsetloca.obj
 0001:0003c8e0       ___free_locale             0043d8e0 f   LIBCMTD:wsetloca.obj
 0001:0003c900       ___get_current_locale      0043d900 f   LIBCMTD:wsetloca.obj
 0001:0003c910       ___lc_lctowcs              0043d910 f   LIBCMTD:wsetloca.obj
 0001:0003c9c0       ___lc_wcstolc              0043d9c0 f   LIBCMTD:wsetloca.obj
 0001:0003cbe0       __configthreadlocale       0043dbe0 f   LIBCMTD:wsetloca.obj
 0001:0003cd40       __create_locale            0043dd40 f   LIBCMTD:wsetloca.obj
 0001:0003cdb0       __expandlocale             0043ddb0 f   LIBCMTD:wsetloca.obj
 0001:0003d2a0       __free_locale              0043e2a0 f   LIBCMTD:wsetloca.obj
 0001:0003d3d0       __get_current_locale       0043e3d0 f   LIBCMTD:wsetloca.obj
 0001:0003d4f0       __wcreate_locale           0043e4f0 f   LIBCMTD:wsetloca.obj
 0001:0003d6e0       __wcscats                  0043e6e0 f   LIBCMTD:wsetloca.obj
 0001:0003d760       __wsetlocale               0043e760 f   LIBCMTD:wsetloca.obj
 0001:0003e7f0       __matherr                  0043f7f0 f   LIBCMTD:matherr.obj
 0001:0003e800       __87except                 0043f800 f   LIBCMTD:87except.obj
 0001:0003ee40       ?_RTC_GetSrcLine@@YAHPAEPA_WKPAH1K@Z 0043fe40 f   LIBCMTD:pdblkup.obj
 0001:0003f0f0       ___isascii                 004400f0 f i LIBCMTD:_ctype.obj
 0001:0003f120       ___iscsym                  00440120 f i LIBCMTD:_ctype.obj
 0001:0003f160       ___iscsymf                 00440160 f i LIBCMTD:_ctype.obj
 0001:0003f1a0       ___toascii                 004401a0 f i LIBCMTD:_ctype.obj
 0001:0003f1b0       __isalnum_l                004401b0 f i LIBCMTD:_ctype.obj
 0001:0003f230       __isalpha_l                00440230 f i LIBCMTD:_ctype.obj
 0001:0003f2b0       __isblank_l                004402b0 f i LIBCMTD:_ctype.obj
 0001:0003f340       __iscntrl_l                00440340 f i LIBCMTD:_ctype.obj
 0001:0003f3c0       __iscsym_l                 004403c0 f i LIBCMTD:_ctype.obj
 0001:0003f400       __iscsymf_l                00440400 f i LIBCMTD:_ctype.obj
 0001:0003f440       __isdigit_l                00440440 f i LIBCMTD:_ctype.obj
 0001:0003f4c0       __isgraph_l                004404c0 f i LIBCMTD:_ctype.obj
 0001:0003f540       __islower_l                00440540 f i LIBCMTD:_ctype.obj
 0001:0003f5c0       __isprint_l                004405c0 f i LIBCMTD:_ctype.obj
 0001:0003f640       __ispunct_l                00440640 f i LIBCMTD:_ctype.obj
 0001:0003f6c0       __isspace_l                004406c0 f i LIBCMTD:_ctype.obj
 0001:0003f740       __isupper_l                00440740 f i LIBCMTD:_ctype.obj
 0001:0003f7c0       __isxdigit_l               004407c0 f i LIBCMTD:_ctype.obj
 0001:0003f840       _isalnum                   00440840 f i LIBCMTD:_ctype.obj
 0001:0003f880       _isalpha                   00440880 f i LIBCMTD:_ctype.obj
 0001:0003f8c0       _isblank                   004408c0 f i LIBCMTD:_ctype.obj
 0001:0003f910       _iscntrl                   00440910 f i LIBCMTD:_ctype.obj
 0001:0003f940       _isdigit                   00440940 f i LIBCMTD:_ctype.obj
 0001:0003f970       _isgraph                   00440970 f i LIBCMTD:_ctype.obj
 0001:0003f9b0       _islower                   004409b0 f i LIBCMTD:_ctype.obj
 0001:0003f9e0       _isprint                   004409e0 f i LIBCMTD:_ctype.obj
 0001:0003fa20       _ispunct                   00440a20 f i LIBCMTD:_ctype.obj
 0001:0003fa50       _isspace                   00440a50 f i LIBCMTD:_ctype.obj
 0001:0003fa80       _isupper                   00440a80 f i LIBCMTD:_ctype.obj
 0001:0003fab0       _isxdigit                  00440ab0 f i LIBCMTD:_ctype.obj
 0001:0003faf0       __tolower                  00440af0 f   LIBCMTD:tolower.obj
 0001:0003fb00       __tolower_l                00440b00 f   LIBCMTD:tolower.obj
 0001:0003fd40       _tolower                   00440d40 f   LIBCMTD:tolower.obj
 0001:0003fd90       _strcpy_s                  00440d90 f   LIBCMTD:strcpy_s.obj
 0001:00040090       _memmove                   00441090 f   LIBCMTD:memmove.obj
 0001:000406e0       _strrchr                   004416e0 f   LIBCMTD:strrchr.obj
 0001:00040820       __fptostr                  00441820 f   LIBCMTD:_fptostr.obj
 0001:00040b40       ___dtold                   00441b40 f   LIBCMTD:cfout.obj
 0001:00040ca0       __fltout2                  00441ca0 f   LIBCMTD:cfout.obj
 0001:00040d50       __alldiv                   00441d50 f   LIBCMTD:lldiv.obj
 0001:00040e00       __allrem                   00441e00 f   LIBCMTD:llrem.obj
 0001:00040ec0       __allshl                   00441ec0 f   LIBCMTD:llshl.obj
 0001:00040ee0       __aullshr                  00441ee0 f   LIBCMTD:ullshr.obj
 0001:00040f00       __get_output_format        00441f00 f   LIBCMTD:outputformat.obj
 0001:00040f10       __set_output_format        00441f10 f   LIBCMTD:outputformat.obj
 0001:00040fb0       __controlfp_s              00441fb0 f   LIBCMTD:contrlfp.obj
 0001:000410a0       ___lock_fhandle            004420a0 f   LIBCMTD:osfinfo.obj
 0001:00041190       __alloc_osfhnd             00442190 f   LIBCMTD:osfinfo.obj
 0001:00041430       __free_osfhnd              00442430 f   LIBCMTD:osfinfo.obj
 0001:00041520       __get_osfhandle            00442520 f   LIBCMTD:osfinfo.obj
 0001:000416a0       __open_osfhandle           004426a0 f   LIBCMTD:osfinfo.obj
 0001:000418d0       __set_osfhnd               004428d0 f   LIBCMTD:osfinfo.obj
 0001:000419a0       __unlock_fhandle           004429a0 f   LIBCMTD:osfinfo.obj
 0001:000419d0       __read                     004429d0 f   LIBCMTD:read.obj
 0001:00041ca0       __read_nolock              00442ca0 f   LIBCMTD:read.obj
 0001:00042ee0       __getbuf                   00443ee0 f   LIBCMTD:_getbuf.obj
 0001:00042fb0       __ungetc_nolock            00443fb0 f   LIBCMTD:ungetc.obj
 0001:000431e0       _ungetc                    004441e0 f   LIBCMTD:ungetc.obj
 0001:000432f0       __mbtowc_l                 004442f0 f   LIBCMTD:mbtowc.obj
 0001:00043530       _mbtowc                    00444530 f   LIBCMTD:mbtowc.obj
 0001:00043550       __lseeki64                 00444550 f   LIBCMTD:lseeki64.obj
 0001:000437c0       __lseeki64_nolock          004447c0 f   LIBCMTD:lseeki64.obj
 0001:00043890       _strcat_s                  00444890 f   LIBCMTD:strcat_s.obj
 0001:00043c90       __dospawn                  00444c90 f   LIBCMTD:dospawn.obj
 0001:00044070       __cenvarg                  00445070 f   LIBCMTD:cenvarg.obj
 0001:000446f0       __mbschr                   004456f0 f   LIBCMTD:mbschr.obj
 0001:00044710       __mbschr_l                 00445710 f   LIBCMTD:mbschr.obj
 0001:000448b0       __mbsrchr                  004458b0 f   LIBCMTD:mbsrchr.obj
 0001:000448d0       __mbsrchr_l                004458d0 f   LIBCMTD:mbsrchr.obj
 0001:00044a50       __getpath                  00445a50 f   LIBCMTD:getpath.obj
 0001:00044ba0       __waccess                  00445ba0 f   LIBCMTD:waccess.obj
 0001:00044be0       __waccess_s                00445be0 f   LIBCMTD:waccess.obj
 0001:00044d80       _strnlen                   00445d80 f   LIBCMTD:strlen_s.obj
 0001:00044dc0       ___wtomb_environ           00445dc0 f   LIBCMTD:wtombenv.obj
 0001:00044eb0       __mbsnbicoll               00445eb0 f   LIBCMTD:mbsnbico.obj
 0001:00044ed0       __mbsnbicoll_l             00445ed0 f   LIBCMTD:mbsnbico.obj
 0001:00045210       __ismbbalnum               00446210 f   LIBCMTD:ismbbyte.obj
 0001:00045230       __ismbbalnum_l             00446230 f   LIBCMTD:ismbbyte.obj
 0001:00045250       __ismbbalpha               00446250 f   LIBCMTD:ismbbyte.obj
 0001:00045270       __ismbbalpha_l             00446270 f   LIBCMTD:ismbbyte.obj
 0001:00045290       __ismbbblank               00446290 f   LIBCMTD:ismbbyte.obj
 0001:000452c0       __ismbbblank_l             004462c0 f   LIBCMTD:ismbbyte.obj
 0001:00045300       __ismbbgraph               00446300 f   LIBCMTD:ismbbyte.obj
 0001:00045320       __ismbbgraph_l             00446320 f   LIBCMTD:ismbbyte.obj
 0001:00045340       __ismbbkalnum              00446340 f   LIBCMTD:ismbbyte.obj
 0001:00045360       __ismbbkalnum_l            00446360 f   LIBCMTD:ismbbyte.obj
 0001:00045380       __ismbbkana                00446380 f   LIBCMTD:ismbbyte.obj
 0001:000453a0       __ismbbkana_l              004463a0 f   LIBCMTD:ismbbyte.obj
 0001:00045410       __ismbbkprint              00446410 f   LIBCMTD:ismbbyte.obj
 0001:00045430       __ismbbkprint_l            00446430 f   LIBCMTD:ismbbyte.obj
 0001:00045450       __ismbbkpunct              00446450 f   LIBCMTD:ismbbyte.obj
 0001:00045470       __ismbbkpunct_l            00446470 f   LIBCMTD:ismbbyte.obj
 0001:00045490       __ismbblead                00446490 f   LIBCMTD:ismbbyte.obj
 0001:000454b0       __ismbblead_l              004464b0 f   LIBCMTD:ismbbyte.obj
 0001:000454d0       __ismbbprint               004464d0 f   LIBCMTD:ismbbyte.obj
 0001:000454f0       __ismbbprint_l             004464f0 f   LIBCMTD:ismbbyte.obj
 0001:00045510       __ismbbpunct               00446510 f   LIBCMTD:ismbbyte.obj
 0001:00045530       __ismbbpunct_l             00446530 f   LIBCMTD:ismbbyte.obj
 0001:00045550       __ismbbtrail               00446550 f   LIBCMTD:ismbbyte.obj
 0001:00045570       __ismbbtrail_l             00446570 f   LIBCMTD:ismbbyte.obj
 0001:00045590       __putwch                   00446590 f   LIBCMTD:putwch.obj
 0001:00045620       __putwch_nolock            00446620 f   LIBCMTD:putwch.obj
 0001:00045670       ___free_lconv_mon          00446670 f   LIBCMTD:initmon.obj
 0001:00045820       ___init_monetary           00446820 f   LIBCMTD:initmon.obj
 0001:00045e30       ___free_lconv_num          00446e30 f   LIBCMTD:initnum.obj
 0001:00045ee0       ___init_numeric            00446ee0 f   LIBCMTD:initnum.obj
 0001:000462b0       ___free_lc_time            004472b0 f   LIBCMTD:inittime.obj
 0001:00046be0       ___init_time               00447be0 f   LIBCMTD:inittime.obj
 0001:00047be0       _localeconv                00448be0 f   LIBCMTD:lconv.obj
 0001:00047c30       ___pctype_func             00448c30 f   LIBCMTD:ctype.obj
 0001:00047c80       ___pwctype_func            00448c80 f   LIBCMTD:ctype.obj
 0001:00047c90       ___vswprintf_l             00448c90 f   LIBCMTD:vswprint.obj
 0001:00047cb0       __vscwprintf               00448cb0 f   LIBCMTD:vswprint.obj
 0001:00047cd0       __vscwprintf_helper        00448cd0 f   LIBCMTD:vswprint.obj
 0001:00047dc0       __vscwprintf_l             00448dc0 f   LIBCMTD:vswprint.obj
 0001:00047de0       __vscwprintf_p             00448de0 f   LIBCMTD:vswprint.obj
 0001:00047e00       __vscwprintf_p_l           00448e00 f   LIBCMTD:vswprint.obj
 0001:00047e20       __vswprintf                00448e20 f   LIBCMTD:vswprint.obj
 0001:00047e40       __vswprintf_l              00448e40 f   LIBCMTD:vswprint.obj
 0001:00048060       __vsnwprintf_s             00449060 f   LIBCMTD:vswprnc.obj
 0001:00048090       __vsnwprintf_s_l           00449090 f   LIBCMTD:vswprnc.obj
 0001:00048460       __vswprintf_c              00449460 f   LIBCMTD:vswprnc.obj
 0001:000484b0       __vswprintf_c_l            004494b0 f   LIBCMTD:vswprnc.obj
 0001:00048500       __vswprintf_helper         00449500 f   LIBCMTD:vswprnc.obj
 0001:00048770       __vswprintf_p              00449770 f   LIBCMTD:vswprnc.obj
 0001:000487c0       __vswprintf_p_l            004497c0 f   LIBCMTD:vswprnc.obj
 0001:00048810       __vswprintf_s_l            00449810 f   LIBCMTD:vswprnc.obj
 0001:00048aa0       _vswprintf_s               00449aa0 f   LIBCMTD:vswprnc.obj
 0001:00048ac0       __woutput_l                00449ac0 f   LIBCMTD:woutput.obj
 0001:0004a4e0       __i64toa_s                 0044b4e0 f   LIBCMTD:xtoas.obj
 0001:0004a530       __itoa_s                   0044b530 f   LIBCMTD:xtoas.obj
 0001:0004a590       __ltoa_s                   0044b590 f   LIBCMTD:xtoas.obj
 0001:0004a5d0       __ui64toa_s                0044b5d0 f   LIBCMTD:xtoas.obj
 0001:0004a5f0       __ultoa_s                  0044b5f0 f   LIBCMTD:xtoas.obj
 0001:0004a9f0       __mbstowcs_l               0044b9f0 f   LIBCMTD:mbstowcs.obj
 0001:0004aa10       __mbstowcs_l_helper        0044ba10 f   LIBCMTD:mbstowcs.obj
 0001:0004ada0       __mbstowcs_s_l             0044bda0 f   LIBCMTD:mbstowcs.obj
 0001:0004b160       _mbstowcs                  0044c160 f   LIBCMTD:mbstowcs.obj
 0001:0004b1b0       _mbstowcs_s                0044c1b0 f   LIBCMTD:mbstowcs.obj
 0001:0004b240       __wcstombs_l               0044c240 f   LIBCMTD:wcstombs.obj
 0001:0004b260       __wcstombs_l_helper        0044c260 f   LIBCMTD:wcstombs.obj
 0001:0004b770       __wcstombs_s_l             0044c770 f   LIBCMTD:wcstombs.obj
 0001:0004bad0       _wcstombs                  0044cad0 f   LIBCMTD:wcstombs.obj
 0001:0004baf0       _wcstombs_s                0044caf0 f   LIBCMTD:wcstombs.obj
 0001:0004bf60       __i64tow_s                 0044cf60 f   LIBCMTD:xtows.obj
 0001:0004bfb0       __itow_s                   0044cfb0 f   LIBCMTD:xtows.obj
 0001:0004c010       __ltow_s                   0044d010 f   LIBCMTD:xtows.obj
 0001:0004c050       __ui64tow_s                0044d050 f   LIBCMTD:xtows.obj
 0001:0004c070       __ultow_s                  0044d070 f   LIBCMTD:xtows.obj
 0001:0004c530       __wopen                    0044d530 f   LIBCMTD:wopen.obj
 0001:0004c6d0       __wsopen                   0044d6d0 f   LIBCMTD:wopen.obj
 0001:0004c740       __wsopen_helper            0044d740 f   LIBCMTD:wopen.obj
 0001:0004c9e0       __wsopen_nolock            0044d9e0 f   LIBCMTD:wopen.obj
 0001:0004da60       __wsopen_s                 0044ea60 f   LIBCMTD:wopen.obj
 0001:0004da90       _strnicmp                  0044ea90 f   LIBCMTD:strnicmp.obj
 0001:0004da90       __strnicmp                 0044ea90 f   LIBCMTD:strnicmp.obj
 0001:0004dc60       __strnicmp_l               0044ec60 f   LIBCMTD:strnicmp.obj
 0001:0004def0       __iswctype_l               0044eef0 f   LIBCMTD:iswctype.obj
 0001:0004df10       _is_wctype                 0044ef10 f   LIBCMTD:iswctype.obj
 0001:0004df30       _iswctype                  0044ef30 f   LIBCMTD:iswctype.obj
 0001:0004df90       ____lc_codepage_func       0044ef90 f   LIBCMTD:initctyp.obj
 0001:0004dfe0       ____lc_collate_cp_func     0044efe0 f   LIBCMTD:initctyp.obj
 0001:0004e030       ____lc_locale_name_func    0044f030 f   LIBCMTD:initctyp.obj
 0001:0004e080       ____mb_cur_max_func        0044f080 f   LIBCMTD:initctyp.obj
 0001:0004e0d0       ____mb_cur_max_l_func      0044f0d0 f   LIBCMTD:initctyp.obj
 0001:0004e100       ___init_ctype              0044f100 f   LIBCMTD:initctyp.obj
 0001:0004e740       _wcsnlen                   0044f740 f   LIBCMTD:wcslen_s.obj
 0001:0004e780       __CallSettingFrame@12      0044f780 f   LIBCMTD:lowhelpr.obj
 0001:0004e7a7       __NLG_Return               0044f7a7     LIBCMTD:lowhelpr.obj
 0001:0004e7d0       ___DestructExceptionObject 0044f7d0 f   LIBCMTD:frame.obj
 0001:0004e8f0       ??0bad_exception@std@@QAE@ABV01@@Z 0044f8f0 f i LIBCMTD:frame.obj
 0001:0004e920       ??0bad_exception@std@@QAE@PBD@Z 0044f920 f i LIBCMTD:frame.obj
 0001:0004e950       ??1bad_exception@std@@UAE@XZ 0044f950 f i LIBCMTD:frame.obj
 0001:0004e970       ??_Gbad_exception@std@@UAEPAXI@Z 0044f970 f i LIBCMTD:frame.obj
 0001:0004e970       ??_Ebad_exception@std@@UAEPAXI@Z 0044f970 f i LIBCMTD:frame.obj
 0001:0004f560       ?__uncaught_exception@@YA_NXZ 00450560 f   LIBCMTD:frame.obj
 0001:0004f590       ?_is_exception_typeof@@YAHABVtype_info@@PAU_EXCEPTION_POINTERS@@@Z 00450590 f   LIBCMTD:frame.obj
 0001:0004f670       __SetWinRTOutOfMemoryExceptionCallback 00450670 f   LIBCMTD:frame.obj
 0001:0004f680       ___AdjustPointer           00450680 f   LIBCMTD:frame.obj
 0001:0004f6d0       ___BuildCatchObject        004506d0 f   LIBCMTD:frame.obj
 0001:0004f7e0       ___BuildCatchObjectHelper  004507e0 f   LIBCMTD:frame.obj
 0001:0004fae0       ___CxxDetectRethrow        00450ae0 f   LIBCMTD:frame.obj
 0001:0004fb60       ___CxxExceptionFilter      00450b60 f   LIBCMTD:frame.obj
 0001:0004fd60       ___CxxQueryExceptionSize   00450d60 f   LIBCMTD:frame.obj
 0001:0004fd70       ___CxxRegisterExceptionObject 00450d70 f   LIBCMTD:frame.obj
 0001:0004feb0       ___CxxUnregisterExceptionObject 00450eb0 f   LIBCMTD:frame.obj
 0001:00050030       ___FrameUnwindFilter       00451030 f   LIBCMTD:frame.obj
 0001:000500b0       ___FrameUnwindToState      004510b0 f   LIBCMTD:frame.obj
 0001:00050230       ___GetPlatformExceptionInfo 00451230 f   LIBCMTD:frame.obj
 0001:000502f0       ___InternalCxxFrameHandler 004512f0 f   LIBCMTD:frame.obj
 0001:00050460       ___TypeMatch               00451460 f   LIBCMTD:frame.obj
 0001:00050540       __fltin2                   00451540 f   LIBCMTD:cfin.obj
 0001:00050620       __CopyMan                  00451620 f i LIBCMTD:intrncvt.obj
 0001:00050670       __FillZeroMan              00451670 f i LIBCMTD:intrncvt.obj
 0001:000506a0       __IncMan                   004516a0 f i LIBCMTD:intrncvt.obj
 0001:00050750       __IsZeroMan                00451750 f i LIBCMTD:intrncvt.obj
 0001:00050790       __RoundMan                 00451790 f i LIBCMTD:intrncvt.obj
 0001:00050870       __ShrMan                   00451870 f i LIBCMTD:intrncvt.obj
 0001:00050960       __ZeroTail                 00451960 f i LIBCMTD:intrncvt.obj
 0001:000509f0       ___addl                    004519f0 f i LIBCMTD:intrncvt.obj
 0001:00050a30       __ld12cvt                  00451a30 f i LIBCMTD:intrncvt.obj
 0001:00050cf0       __ld12tod                  00451cf0 f   LIBCMTD:intrncvt.obj
 0001:00050d10       __ld12tof                  00451d10 f   LIBCMTD:intrncvt.obj
 0001:00050d30       __ld12told                 00451d30 f   LIBCMTD:intrncvt.obj
 0001:00050e30       ___STRINGTOLD_L            00451e30 f   LIBCMTD:strgtold.obj
 0001:00050ea0       ___ld12mul                 00451ea0 f i LIBCMTD:strgtold.obj
 0001:000512b0       ___multtenpow12            004522b0 f i LIBCMTD:strgtold.obj
 0001:00051390       ___shl_12                  00452390 f i LIBCMTD:strgtold.obj
 0001:00051410       ___shr_12                  00452410 f i LIBCMTD:strgtold.obj
 0001:00051490       ___strgtold12_l            00452490 f   LIBCMTD:strgtold.obj
 0001:00051f80       ___init_collate            00452f80 f   LIBCMTD:initcoll.obj
 0001:00052140       _memcmp                    00453140 f   LIBCMTD:memcmp.obj
 0001:00052a10       _wcscmp                    00453a10 f   LIBCMTD:wcscmp.obj
 0001:00052a70       _wcscspn                   00453a70 f   LIBCMTD:wcscspn.obj
 0001:00052ae0       _wcsncmp                   00453ae0 f   LIBCMTD:wcsncmp.obj
 0001:00052b40       _wcspbrk                   00453b40 f   LIBCMTD:wcspbrk.obj
 0001:000536d0       ___get_qualified_locale    004546d0 f   LIBCMTD:getqloc.obj
 0001:000546a0       ___get_qualified_locale_downlevel 004556a0 f   LIBCMTD:getqloc_downlevel.obj
 0001:00054970       __wmakepath_s              00455970 f   LIBCMTD:wmakepath_s.obj
 0001:00054d30       __wsplitpath_s             00455d30 f   LIBCMTD:wsplitpath_s.obj
 0001:00055370       _$I10_OUTPUT               00456370 f   LIBCMTD:x10fout.obj
 0001:00055980       ___add_12                  00456980 f i LIBCMTD:x10fout.obj
 0001:00055c30       ___control87_2             00456c30 f   LIBCMTD:ieee87.obj
 0001:000560d0       __clearfp                  004570d0 f   LIBCMTD:ieee87.obj
 0001:00056110       __control87                00457110 f i LIBCMTD:ieee87.obj
 0001:000561c0       __controlfp                004571c0 f   LIBCMTD:ieee87.obj
 0001:000561e0       __fpreset                  004571e0 f   LIBCMTD:ieee87.obj
 0001:000563a0       __set_controlfp            004573a0 f   LIBCMTD:ieee87.obj
 0001:00056430       __statusfp                 00457430 f   LIBCMTD:ieee87.obj
 0001:00056470       __statusfp2                00457470 f   LIBCMTD:ieee87.obj
 0001:000564b0       __mbsnicmp                 004574b0 f   LIBCMTD:mbsnicmp.obj
 0001:000564d0       __mbsnicmp_l               004574d0 f   LIBCMTD:mbsnicmp.obj
 0001:000569a0       ___crtsetenv               004579a0 f   LIBCMTD:setenv.obj
 0001:00057070       __strnicoll                00458070 f   LIBCMTD:strnicol.obj
 0001:000570b0       __strnicoll_l              004580b0 f   LIBCMTD:strnicol.obj
 0001:000577d0       ___crtCompareStringA       004587d0 f   LIBCMTD:a_cmp.obj
 0001:00057830       ___termconout              00458830 f   LIBCMTD:initcon.obj
 0001:00057860       ___initconout              00458860 f   LIBCMTD:initcon.obj
 0001:00057890       __validate_param_reuseW    00458890 f   LIBCMTD:woutputp.obj
 0001:00057b70       __woutput_p_l              00458b70 f   LIBCMTD:woutputp.obj
 0001:0005b670       __woutput_s_l              0045c670 f   LIBCMTD:woutputs.obj
 0001:0005cdc0       __fputwc_nolock            0045ddc0 f   LIBCMTD:fputwc.obj
 0001:0005d0b0       _fputwc                    0045e0b0 f   LIBCMTD:fputwc.obj
 0001:0005d1c0       _putwc                     0045e1c0 f   LIBCMTD:fputwc.obj
 0001:0005d1e0       __chsize                   0045e1e0 f   LIBCMTD:chsize.obj
 0001:0005d220       __chsize_nolock            0045e220 f   LIBCMTD:chsize.obj
 0001:0005d4d0       __chsize_s                 0045e4d0 f   LIBCMTD:chsize.obj
 0001:0005d7a0       __get_fmode                0045e7a0 f   LIBCMTD:setmode.obj
 0001:0005d840       __set_fmode                0045e840 f   LIBCMTD:setmode.obj
 0001:0005d8f0       __setmode                  0045e8f0 f   LIBCMTD:setmode.obj
 0001:0005dbb0       __setmode_nolock           0045ebb0 f   LIBCMTD:setmode.obj
 0001:0005de20       ___ascii_strnicmp          0045ee20 f   LIBCMTD:_strnicm.obj
 0001:0005de90       ??3@YAXPAX@Z               0045ee90 f   LIBCMTD:dbgdel.obj
 0001:0005df80       ?_ValidateExecute@@YAHP6GHXZ@Z 0045ef80 f   LIBCMTD:validate.obj
 0001:0005dfa0       ?_ValidateRead@@YAHPBXI@Z  0045efa0 f   LIBCMTD:validate.obj
 0001:0005dfc0       ?_ValidateWrite@@YAHPAXI@Z 0045efc0 f   LIBCMTD:validate.obj
 0001:0005dfe0       ??0type_info@@AAE@ABV0@@Z  0045efe0 f   LIBCMTD:typinfo.obj
 0001:0005e000       ??1type_info@@UAE@XZ       0045f000 f   LIBCMTD:typinfo.obj
 0001:0005e020       ??4type_info@@AAEAAV0@ABV0@@Z 0045f020 f   LIBCMTD:typinfo.obj
 0001:0005e030       ??8type_info@@QBE_NABV0@@Z 0045f030 f   LIBCMTD:typinfo.obj
 0001:0005e070       ??9type_info@@QBE_NABV0@@Z 0045f070 f   LIBCMTD:typinfo.obj
 0001:0005e0b0       ??_Gtype_info@@UAEPAXI@Z   0045f0b0 f i LIBCMTD:typinfo.obj
 0001:0005e0b0       ??_Etype_info@@UAEPAXI@Z   0045f0b0 f i LIBCMTD:typinfo.obj
 0001:0005e0e0       ?_name_internal_method@type_info@@QBEPBDPAU__type_info_node@@@Z 0045f0e0 f   LIBCMTD:typinfo.obj
 0001:0005e100       ?_type_info_dtor_internal_method@type_info@@QAEXXZ 0045f100 f   LIBCMTD:typinfo.obj
 0001:0005e120       ?before@type_info@@QBE_NABV1@@Z 0045f120 f   LIBCMTD:typinfo.obj
 0001:0005e160       ?name@type_info@@QBEPBDPAU__type_info_node@@@Z 0045f160 f   LIBCMTD:typinfo.obj
 0001:0005e180       ?raw_name@type_info@@QBEPBDXZ 0045f180 f   LIBCMTD:typinfo.obj
 0001:0005e1a0       ??0__non_rtti_object@std@@QAE@ABV01@@Z 0045f1a0 f   LIBCMTD:stdexcpt.obj
 0001:0005e1d0       ??0__non_rtti_object@std@@QAE@PBD@Z 0045f1d0 f   LIBCMTD:stdexcpt.obj
 0001:0005e200       ??0bad_cast@std@@QAE@ABV01@@Z 0045f200 f   LIBCMTD:stdexcpt.obj
 0001:0005e230       ??0bad_cast@std@@QAE@PBD@Z 0045f230 f   LIBCMTD:stdexcpt.obj
 0001:0005e260       ??0bad_typeid@std@@QAE@ABV01@@Z 0045f260 f   LIBCMTD:stdexcpt.obj
 0001:0005e290       ??0bad_typeid@std@@QAE@PBD@Z 0045f290 f   LIBCMTD:stdexcpt.obj
 0001:0005e2c0       ??0exception@std@@QAE@ABQBD@Z 0045f2c0 f   LIBCMTD:stdexcpt.obj
 0001:0005e300       ??0exception@std@@QAE@ABQBDH@Z 0045f300 f   LIBCMTD:stdexcpt.obj
 0001:0005e330       ??0exception@std@@QAE@ABV01@@Z 0045f330 f   LIBCMTD:stdexcpt.obj
 0001:0005e370       ??0exception@std@@QAE@XZ   0045f370 f   LIBCMTD:stdexcpt.obj
 0001:0005e3a0       ??1__non_rtti_object@std@@UAE@XZ 0045f3a0 f   LIBCMTD:stdexcpt.obj
 0001:0005e3c0       ??1bad_cast@std@@UAE@XZ    0045f3c0 f   LIBCMTD:stdexcpt.obj
 0001:0005e3e0       ??1bad_typeid@std@@UAE@XZ  0045f3e0 f   LIBCMTD:stdexcpt.obj
 0001:0005e400       ??1exception@std@@UAE@XZ   0045f400 f   LIBCMTD:stdexcpt.obj
 0001:0005e420       ??4exception@std@@QAEAAV01@ABV01@@Z 0045f420 f   LIBCMTD:stdexcpt.obj
 0001:0005e470       ??_G__non_rtti_object@std@@UAEPAXI@Z 0045f470 f i LIBCMTD:stdexcpt.obj
 0001:0005e470       ??_E__non_rtti_object@std@@UAEPAXI@Z 0045f470 f i LIBCMTD:stdexcpt.obj
 0001:0005e4a0       ??_Ebad_cast@std@@UAEPAXI@Z 0045f4a0 f i LIBCMTD:stdexcpt.obj
 0001:0005e4a0       ??_Gbad_cast@std@@UAEPAXI@Z 0045f4a0 f i LIBCMTD:stdexcpt.obj
 0001:0005e4d0       ??_Gbad_typeid@std@@UAEPAXI@Z 0045f4d0 f i LIBCMTD:stdexcpt.obj
 0001:0005e4d0       ??_Ebad_typeid@std@@UAEPAXI@Z 0045f4d0 f i LIBCMTD:stdexcpt.obj
 0001:0005e500       ??_Gexception@std@@UAEPAXI@Z 0045f500 f i LIBCMTD:stdexcpt.obj
 0001:0005e500       ??_Eexception@std@@UAEPAXI@Z 0045f500 f i LIBCMTD:stdexcpt.obj
 0001:0005e530       ?_Copy_str@exception@std@@AAEXPBD@Z 0045f530 f   LIBCMTD:stdexcpt.obj
 0001:0005e590       ?_Tidy@exception@std@@AAEXXZ 0045f590 f   LIBCMTD:stdexcpt.obj
 0001:0005e5d0       ?what@exception@std@@UBEPBDXZ 0045f5d0 f   LIBCMTD:stdexcpt.obj
 0001:0005e600       __CxxThrowException@8      0045f600 f   LIBCMTD:throw.obj
 0001:0005e6a0       ___mtold12                 0045f6a0 f   LIBCMTD:mantold.obj
 0001:0005e7f0       __wtoi                     0045f7f0 f   LIBCMTD:wtox.obj
 0001:0005e810       __wtoi64                   0045f810 f   LIBCMTD:wtox.obj
 0001:0005e830       __wtoi64_l                 0045f830 f   LIBCMTD:wtox.obj
 0001:0005e850       __wtoi_l                   0045f850 f   LIBCMTD:wtox.obj
 0001:0005e870       __wtol                     0045f870 f   LIBCMTD:wtox.obj
 0001:0005e890       __wtol_l                   0045f890 f   LIBCMTD:wtox.obj
 0001:0005e8b0       __wtoll                    0045f8b0 f   LIBCMTD:wtox.obj
 0001:0005e8d0       __wtoll_l                  0045f8d0 f   LIBCMTD:wtox.obj
 0001:0005e8f0       _wcschr                    0045f8f0 f   LIBCMTD:wcschr.obj
 0001:0005ea70       __wcsicmp                  0045fa70 f   LIBCMTD:wcsicmp.obj
 0001:0005ec40       __wcsicmp_l                0045fc40 f   LIBCMTD:wcsicmp.obj
 0001:0005eeb0       __wcsnicmp                 0045feb0 f   LIBCMTD:wcsnicmp.obj
 0001:0005f0a0       __wcsnicmp_l               004600a0 f   LIBCMTD:wcsnicmp.obj
 0001:0005f6c0       __wcstol_l                 004606c0 f   LIBCMTD:wcstol.obj
 0001:0005f6e0       __wcstoul_l                004606e0 f   LIBCMTD:wcstol.obj
 0001:0005f700       _wcstol                    00460700 f   LIBCMTD:wcstol.obj
 0001:0005f720       _wcstoul                   00460720 f   LIBCMTD:wcstol.obj
 0001:0005f740       __flswbuf                  00460740 f   LIBCMTD:_flswbuf.obj
 0001:0005fa30       ?_Name_base@type_info@@CAPBDPBV1@PAU__type_info_node@@@Z 00460a30 f   LIBCMTD:typname.obj
 0001:0005fbe0       ?_Name_base_internal@type_info@@CAPBDPBV1@PAU__type_info_node@@@Z 00460be0 f   LIBCMTD:typname.obj
 0001:0005fda0       ?_Type_info_dtor@type_info@@CAXPAV1@@Z 00460da0 f   LIBCMTD:typname.obj
 0001:0005feb0       ?_Type_info_dtor_internal@type_info@@CAXPAV1@@Z 00460eb0 f   LIBCMTD:typname.obj
 0001:0005ffc0       ___clean_type_info_names_internal 00460fc0 f   LIBCMTD:typname.obj
 0001:00060070       ___unDNameHelper           00461070 f   LIBCMTD:typname.obj
 0001:00060600       __wcstof_l                 00461600 f   LIBCMTD:wcstoq.obj
 0001:00060710       __wcstoi64                 00461710 f   LIBCMTD:wcstoq.obj
 0001:00060760       __wcstoi64_l               00461760 f   LIBCMTD:wcstoq.obj
 0001:00060780       __wcstoimax_l              00461780 f   LIBCMTD:wcstoq.obj
 0001:000607a0       __wcstold_l                004617a0 f   LIBCMTD:wcstoq.obj
 0001:000607c0       __wcstoll_l                004617c0 f   LIBCMTD:wcstoq.obj
 0001:000607e0       __wcstoui64                004617e0 f   LIBCMTD:wcstoq.obj
 0001:00060830       __wcstoui64_l              00461830 f   LIBCMTD:wcstoq.obj
 0001:00060850       __wcstoull_l               00461850 f   LIBCMTD:wcstoq.obj
 0001:00060870       __wcstoumax_l              00461870 f   LIBCMTD:wcstoq.obj
 0001:00060890       _wcstof                    00461890 f   LIBCMTD:wcstoq.obj
 0001:000608b0       _wcstoimax                 004618b0 f   LIBCMTD:wcstoq.obj
 0001:000608d0       _wcstold                   004618d0 f   LIBCMTD:wcstoq.obj
 0001:000608f0       _wcstoll                   004618f0 f   LIBCMTD:wcstoq.obj
 0001:00060910       _wcstoull                  00461910 f   LIBCMTD:wcstoq.obj
 0001:00060930       _wcstoumax                 00461930 f   LIBCMTD:wcstoq.obj
 0001:00060950       __towlower_l               00461950 f   LIBCMTD:towlower.obj
 0001:00060aa0       _towlower                  00461aa0 f   LIBCMTD:towlower.obj
 0001:00060ac0       __wchartodigit             00461ac0 f   LIBCMTD:wchtodig.obj
 0001:00060de0       ??0Block@_HeapManager@@QAE@XZ 00461de0 f i LIBCMTD:undname.obj
 0001:00060e00       ??0DName@@QAE@AAPBDD@Z     00461e00 f   LIBCMTD:undname.obj
 0001:000610c0       ??0DName@@QAE@ABV0@@Z      004620c0 f i LIBCMTD:undname.obj
 0001:000610e0       ??0DName@@QAE@D@Z          004620e0 f   LIBCMTD:undname.obj
 0001:000611c0       ??0DName@@QAE@PAV0@@Z      004621c0 f   LIBCMTD:undname.obj
 0001:00061300       ??0DName@@QAE@PBD@Z        00462300 f   LIBCMTD:undname.obj
 0001:000613f0       ??0DName@@QAE@W4DNameStatus@@@Z 004623f0 f   LIBCMTD:undname.obj
 0001:00061510       ??0DName@@QAE@XZ           00462510 f i LIBCMTD:undname.obj
 0001:000615d0       ??0DName@@QAE@_J@Z         004625d0 f   LIBCMTD:undname.obj
 0001:00061750       ??0DName@@QAE@_K@Z         00462750 f   LIBCMTD:undname.obj
 0001:00061890       ??0DNameNode@@IAE@XZ       00462890 f   LIBCMTD:undname.obj
 0001:000618b0       ??0DNameStatusNode@@AAE@W4DNameStatus@@@Z 004628b0 f   LIBCMTD:undname.obj
 0001:00061900       ??0Replicator@@QAE@XZ      00462900 f i LIBCMTD:undname.obj
 0001:00061920       ??0UnDecorator@@QAE@PADPBDHP6APADJ@ZK@Z 00462920 f i LIBCMTD:undname.obj
 0001:000619c0       ??0charNode@@QAE@D@Z       004629c0 f   LIBCMTD:undname.obj
 0001:000619f0       ??0pDNameNode@@QAE@PAVDName@@@Z 004629f0 f   LIBCMTD:undname.obj
 0001:00061a50       ??0pairNode@@QAE@PAVDNameNode@@0@Z 00462a50 f   LIBCMTD:undname.obj
 0001:00061a90       ??0pcharNode@@QAE@PBDH@Z   00462a90 f   LIBCMTD:undname.obj
 0001:00061b30       ??2@YAPAXIAAV_HeapManager@@H@Z 00462b30 f i LIBCMTD:undname.obj
 0001:00061b50       ??4DName@@QAEAAV0@ABV0@@Z  00462b50 f   LIBCMTD:undname.obj
 0001:00061b70       ??4DName@@QAEAAV0@D@Z      00462b70 f i LIBCMTD:undname.obj
 0001:00061c50       ??4DName@@QAEAAV0@PAV0@@Z  00462c50 f   LIBCMTD:undname.obj
 0001:00061d80       ??4DName@@QAEAAV0@PBD@Z    00462d80 f   LIBCMTD:undname.obj
 0001:00061e60       ??4DName@@QAEAAV0@W4DNameStatus@@@Z 00462e60 f   LIBCMTD:undname.obj
 0001:00061f60       ??AReplicator@@QBE?AVDName@@H@Z 00462f60 f   LIBCMTD:undname.obj
 0001:00061fd0       ??BUnDecorator@@QAEPADXZ   00462fd0 f i LIBCMTD:undname.obj
 0001:00062280       ??H@YA?AVDName@@DABV0@@Z   00463280 f i LIBCMTD:undname.obj
 0001:000622b0       ??H@YA?AVDName@@PBDABV0@@Z 004632b0 f i LIBCMTD:undname.obj
 0001:000622e0       ??H@YA?AVDName@@W4DNameStatus@@ABV0@@Z 004632e0 f i LIBCMTD:undname.obj
 0001:00062310       ??HDName@@QBE?AV0@ABV0@@Z  00463310 f   LIBCMTD:undname.obj
 0001:00062350       ??HDName@@QBE?AV0@D@Z      00463350 f   LIBCMTD:undname.obj
 0001:00062390       ??HDName@@QBE?AV0@PAV0@@Z  00463390 f   LIBCMTD:undname.obj
 0001:000623d0       ??HDName@@QBE?AV0@PBD@Z    004633d0 f   LIBCMTD:undname.obj
 0001:00062410       ??HDName@@QBE?AV0@W4DNameStatus@@@Z 00463410 f   LIBCMTD:undname.obj
 0001:00062450       ??YDName@@QAEAAV0@ABV0@@Z  00463450 f   LIBCMTD:undname.obj
 0001:000624c0       ??YDName@@QAEAAV0@D@Z      004634c0 f   LIBCMTD:undname.obj
 0001:00062540       ??YDName@@QAEAAV0@PAV0@@Z  00463540 f   LIBCMTD:undname.obj
 0001:000625f0       ??YDName@@QAEAAV0@PBD@Z    004635f0 f   LIBCMTD:undname.obj
 0001:00062690       ??YDName@@QAEAAV0@W4DNameStatus@@@Z 00463690 f   LIBCMTD:undname.obj
 0001:000626f0       ??YReplicator@@QAEAAV0@ABVDName@@@Z 004636f0 f   LIBCMTD:undname.obj
 0001:00062780       ??_5DName@@QAEAAV0@ABV0@@Z 00463780 f   LIBCMTD:undname.obj
 0001:000627e0       ?Constructor@_HeapManager@@QAEXP6APAXI@ZP6AXPAX@Z@Z 004637e0 f i LIBCMTD:undname.obj
 0001:00062820       ?Destructor@_HeapManager@@QAEXXZ 00463820 f i LIBCMTD:undname.obj
 0001:00062870       ?UScore@UnDecorator@@SAPBDW4Tokens@@@Z 00463870 f   LIBCMTD:undname.obj
 0001:000628a0       ?append@DName@@AAEXPAVDNameNode@@@Z 004638a0 f   LIBCMTD:undname.obj
 0001:00062930       ?composeDeclaration@UnDecorator@@CA?AVDName@@ABV2@@Z 00463930 f i LIBCMTD:undname.obj
 0001:000645b0       ?dbGetString@DName@@QBEPADXZ 004655b0 f   LIBCMTD:undname.obj
 0001:000645d0       ?doAccessSpecifiers@UnDecorator@@SAHXZ 004655d0 f i LIBCMTD:undname.obj
 0001:00064600       ?doAllocationLanguage@UnDecorator@@SAHXZ 00465600 f i LIBCMTD:undname.obj
 0001:00064630       ?doAllocationModel@UnDecorator@@SAHXZ 00465630 f i LIBCMTD:undname.obj
 0001:00064660       ?doEcsu@UnDecorator@@SAHXZ 00465660 f i LIBCMTD:undname.obj
 0001:00064690       ?doEllipsis@UnDecorator@@SAHXZ 00465690 f i LIBCMTD:undname.obj
 0001:000646c0       ?doFunctionReturns@UnDecorator@@SAHXZ 004656c0 f i LIBCMTD:undname.obj
 0001:000646f0       ?doMSKeywords@UnDecorator@@SAHXZ 004656f0 f i LIBCMTD:undname.obj
 0001:00064720       ?doMemberTypes@UnDecorator@@SAHXZ 00465720 f i LIBCMTD:undname.obj
 0001:00064750       ?doNameOnly@UnDecorator@@SAHXZ 00465750 f i LIBCMTD:undname.obj
 0001:00064760       ?doNoIdentCharCheck@UnDecorator@@SAHXZ 00465760 f i LIBCMTD:undname.obj
 0001:00064770       ?doPchar@DName@@AAEXPBDH@Z 00465770 f   LIBCMTD:undname.obj
 0001:000648b0       ?doPtr64@UnDecorator@@SAHXZ 004658b0 f i LIBCMTD:undname.obj
 0001:000648e0       ?doRestrictionSpec@UnDecorator@@SAHXZ 004658e0 f i LIBCMTD:undname.obj
 0001:00064910       ?doThisTypes@UnDecorator@@SAHXZ 00465910 f i LIBCMTD:undname.obj
 0001:00064940       ?doThrowTypes@UnDecorator@@SAHXZ 00465940 f i LIBCMTD:undname.obj
 0001:00064970       ?doTypeOnly@UnDecorator@@SAHXZ 00465970 f i LIBCMTD:undname.obj
 0001:00064980       ?doUnderScore@UnDecorator@@SAHXZ 00465980 f i LIBCMTD:undname.obj
 0001:000649b0       ?getArgumentList@UnDecorator@@CA?AVDName@@XZ 004659b0 f   LIBCMTD:undname.obj
 0001:00064b00       ?getArgumentTypes@UnDecorator@@CA?AVDName@@XZ 00465b00 f   LIBCMTD:undname.obj
 0001:00064c60       ?getArrayType@UnDecorator@@CA?AVDName@@ABV2@@Z 00465c60 f i LIBCMTD:undname.obj
 0001:00064ea0       ?getBasedType@UnDecorator@@CA?AVDName@@XZ 00465ea0 f   LIBCMTD:undname.obj
 0001:00064f60       ?getBasicDataType@UnDecorator@@CA?AVDName@@ABV2@@Z 00465f60 f   LIBCMTD:undname.obj
 0001:00065520       ?getCallIndex@UnDecorator@@CA?AVDName@@XZ 00466520 f i LIBCMTD:undname.obj
 0001:00065540       ?getCallingConvention@UnDecorator@@CA?AVDName@@XZ 00466540 f   LIBCMTD:undname.obj
 0001:000656d0       ?getDataIndirectType@UnDecorator@@CA?AVDName@@ABV2@PBD0H@Z 004666d0 f   LIBCMTD:undname.obj
 0001:00065df0       ?getDataIndirectType@UnDecorator@@CA?AVDName@@XZ 00466df0 f i LIBCMTD:undname.obj
 0001:00065e30       ?getDataType@UnDecorator@@CA?AVDName@@PAV2@@Z 00466e30 f   LIBCMTD:undname.obj
 0001:00065f50       ?getDecoratedName@UnDecorator@@CA?AVDName@@XZ 00466f50 f   LIBCMTD:undname.obj
 0001:00066270       ?getDimension@UnDecorator@@CA?AVDName@@_N@Z 00467270 f   LIBCMTD:undname.obj
 0001:00066520       ?getDispatchTarget@UnDecorator@@CA?AVDName@@XZ 00467520 f   LIBCMTD:undname.obj
 0001:000665c0       ?getDisplacement@UnDecorator@@CA?AVDName@@XZ 004675c0 f i LIBCMTD:undname.obj
 0001:000665e0       ?getECSUDataType@UnDecorator@@CA?AVDName@@XZ 004675e0 f   LIBCMTD:undname.obj
 0001:000667b0       ?getECSUName@UnDecorator@@CA?AVDName@@XZ 004677b0 f i LIBCMTD:undname.obj
 0001:000667d0       ?getEnumType@UnDecorator@@CA?AVDName@@XZ 004677d0 f i LIBCMTD:undname.obj
 0001:00066920       ?getExtendedDataIndirectType@UnDecorator@@CA?AVDName@@AAPBDAA_NH@Z 00467920 f   LIBCMTD:undname.obj
 0001:00066b70       ?getExternalDataType@UnDecorator@@CA?AVDName@@ABV2@@Z 00467b70 f i LIBCMTD:undname.obj
 0001:00066c00       ?getFunctionIndirectType@UnDecorator@@CA?AVDName@@ABV2@@Z 00467c00 f   LIBCMTD:undname.obj
 0001:00067070       ?getGuardNumber@UnDecorator@@CA?AVDName@@XZ 00468070 f i LIBCMTD:undname.obj
 0001:00067090       ?getLastChar@DName@@QBEDXZ 00468090 f i LIBCMTD:undname.obj
 0001:000670c0       ?getLastChar@DNameStatusNode@@UBEDXZ 004680c0 f i LIBCMTD:undname.obj
 0001:000670f0       ?getLastChar@charNode@@UBEDXZ 004680f0 f i LIBCMTD:undname.obj
 0001:00067110       ?getLastChar@pDNameNode@@UBEDXZ 00468110 f i LIBCMTD:undname.obj
 0001:00067140       ?getLastChar@pairNode@@UBEDXZ 00468140 f i LIBCMTD:undname.obj
 0001:00067190       ?getLastChar@pcharNode@@UBEDXZ 00468190 f i LIBCMTD:undname.obj
 0001:000671d0       ?getLexicalFrame@UnDecorator@@CA?AVDName@@XZ 004681d0 f i LIBCMTD:undname.obj
 0001:00067210       ?getMemory@_HeapManager@@QAEPAXIH@Z 00468210 f   LIBCMTD:undname.obj
 0001:00067320       ?getNumberOfDimensions@UnDecorator@@CAHXZ 00468320 f   LIBCMTD:undname.obj
 0001:00067420       ?getOperatorName@UnDecorator@@CA?AVDName@@_NPA_N@Z 00468420 f i LIBCMTD:undname.obj
 0001:00067db0       ?getPointerType@UnDecorator@@CA?AVDName@@ABV2@0@Z 00468db0 f i LIBCMTD:undname.obj
 0001:00067de0       ?getPointerTypeArray@UnDecorator@@CA?AVDName@@ABV2@0@Z 00468de0 f i LIBCMTD:undname.obj
 0001:00067e10       ?getPrimaryDataType@UnDecorator@@CA?AVDName@@ABV2@@Z 00468e10 f   LIBCMTD:undname.obj
 0001:000681b0       ?getPtrRefDataType@UnDecorator@@CA?AVDName@@ABV2@H@Z 004691b0 f i LIBCMTD:undname.obj
 0001:000682f0       ?getPtrRefType@UnDecorator@@CA?AVDName@@ABV2@0PBD@Z 004692f0 f   LIBCMTD:undname.obj
 0001:00068460       ?getReferenceType@UnDecorator@@CA?AVDName@@ABV2@0PBD@Z 00469460 f i LIBCMTD:undname.obj
 0001:00068480       ?getRestrictionSpec@UnDecorator@@CA?AVDName@@XZ 00469480 f   LIBCMTD:undname.obj
 0001:000685d0       ?getReturnType@UnDecorator@@CA?AVDName@@PAV2@@Z 004695d0 f   LIBCMTD:undname.obj
 0001:00068620       ?getScope@UnDecorator@@CA?AVDName@@XZ 00469620 f   LIBCMTD:undname.obj
 0001:00068b10       ?getScopedName@UnDecorator@@CA?AVDName@@XZ 00469b10 f   LIBCMTD:undname.obj
 0001:00068c30       ?getSignedDimension@UnDecorator@@CA?AVDName@@XZ 00469c30 f   LIBCMTD:undname.obj
 0001:00068cb0       ?getStorageConvention@UnDecorator@@CA?AVDName@@XZ 00469cb0 f i LIBCMTD:undname.obj
 0001:00068cd0       ?getString@DName@@QBEPADPAD0@Z 00469cd0 f i LIBCMTD:undname.obj
 0001:00068d10       ?getString@DName@@QBEPADPADH@Z 00469d10 f i LIBCMTD:undname.obj
 0001:00068da0       ?getString@DNameStatusNode@@UBEPADPAD0@Z 00469da0 f i LIBCMTD:undname.obj
 0001:00068de0       ?getString@charNode@@UBEPADPAD0@Z 00469de0 f i LIBCMTD:undname.obj
 0001:00068e10       ?getString@pDNameNode@@UBEPADPAD0@Z 00469e10 f i LIBCMTD:undname.obj
 0001:00068e50       ?getString@pairNode@@UBEPADPAD0@Z 00469e50 f i LIBCMTD:undname.obj
 0001:00068eb0       ?getString@pcharNode@@UBEPADPAD0@Z 00469eb0 f i LIBCMTD:undname.obj
 0001:00068ee0       ?getStringEncoding@UnDecorator@@CA?AVDName@@PADH@Z 00469ee0 f   LIBCMTD:undname.obj
 0001:00068ff0       ?getStringHelper@@YAPADPAD00H@Z 00469ff0 f i LIBCMTD:undname.obj
 0001:00069030       ?getSymbolName@UnDecorator@@CA?AVDName@@XZ 0046a030 f i LIBCMTD:undname.obj
 0001:000690c0       ?getTemplateArgumentList@UnDecorator@@CA?AVDName@@XZ 0046a0c0 f   LIBCMTD:undname.obj
 0001:000693e0       ?getTemplateConstant@UnDecorator@@CA?AVDName@@XZ 0046a3e0 f   LIBCMTD:undname.obj
 0001:000698d0       ?getTemplateName@UnDecorator@@CA?AVDName@@_N@Z 0046a8d0 f   LIBCMTD:undname.obj
 0001:00069aa0       ?getThisType@UnDecorator@@CA?AVDName@@XZ 0046aaa0 f i LIBCMTD:undname.obj
 0001:00069ae0       ?getThrowTypes@UnDecorator@@CA?AVDName@@XZ 0046aae0 f   LIBCMTD:undname.obj
 0001:00069b90       ?getTypeEncoding@UnDecorator@@CAHXZ 0046ab90 f i LIBCMTD:undname.obj
 0001:0006a5d0       ?getVCallThunkType@UnDecorator@@CA?AVDName@@XZ 0046b5d0 f i LIBCMTD:undname.obj
 0001:0006a630       ?getVbTableType@UnDecorator@@CA?AVDName@@ABV2@@Z 0046b630 f i LIBCMTD:undname.obj
 0001:0006a650       ?getVdispMapType@UnDecorator@@CA?AVDName@@ABV2@@Z 0046b650 f i LIBCMTD:undname.obj
 0001:0006a6c0       ?getVfTableType@UnDecorator@@CA?AVDName@@ABV2@@Z 0046b6c0 f i LIBCMTD:undname.obj
 0001:0006a880       ?getZName@UnDecorator@@CA?AVDName@@_N0@Z 0046b880 f   LIBCMTD:undname.obj
 0001:0006ab30       ?haveTemplateParameters@UnDecorator@@SAHXZ 0046bb30 f i LIBCMTD:undname.obj
 0001:0006ab40       ?isArray@DName@@QBEHXZ     0046bb40 f i LIBCMTD:undname.obj
 0001:0006ab60       ?isComArray@DName@@QBEHXZ  0046bb60 f i LIBCMTD:undname.obj
 0001:0006ab80       ?isEmpty@DName@@QBEHXZ     0046bb80 f i LIBCMTD:undname.obj
 0001:0006abb0       ?isFull@Replicator@@QBEHXZ 0046bbb0 f i LIBCMTD:undname.obj
 0001:0006abe0       ?isNoTE@DName@@QBEHXZ      0046bbe0 f i LIBCMTD:undname.obj
 0001:0006ac00       ?isPinPtr@DName@@QBEHXZ    0046bc00 f i LIBCMTD:undname.obj
 0001:0006ac20       ?isPtrRef@DName@@QBEHXZ    0046bc20 f i LIBCMTD:undname.obj
 0001:0006ac40       ?isUDC@DName@@QBEHXZ       0046bc40 f i LIBCMTD:undname.obj
 0001:0006ac80       ?isUDTThunk@DName@@QBEHXZ  0046bc80 f i LIBCMTD:undname.obj
 0001:0006acc0       ?isVCallThunk@DName@@QBEHXZ 0046bcc0 f i LIBCMTD:undname.obj
 0001:0006ace0       ?isValid@DName@@QBEHXZ     0046bce0 f i LIBCMTD:undname.obj
 0001:0006ad20       ?length@DName@@QBEHXZ      0046bd20 f i LIBCMTD:undname.obj
 0001:0006ad50       ?length@DNameStatusNode@@UBEHXZ 0046bd50 f i LIBCMTD:undname.obj
 0001:0006ad70       ?length@charNode@@UBEHXZ   0046bd70 f i LIBCMTD:undname.obj
 0001:0006ad80       ?length@pDNameNode@@UBEHXZ 0046bd80 f i LIBCMTD:undname.obj
 0001:0006adb0       ?length@pairNode@@UBEHXZ   0046bdb0 f i LIBCMTD:undname.obj
 0001:0006ae00       ?length@pcharNode@@UBEHXZ  0046be00 f i LIBCMTD:undname.obj
 0001:0006ae20       ?make@DNameStatusNode@@SAPAV1@W4DNameStatus@@@Z 0046be20 f i LIBCMTD:undname.obj
 0001:0006aed0       ?setIsArray@DName@@QAEXXZ  0046bed0 f i LIBCMTD:undname.obj
 0001:0006aef0       ?setIsComArray@DName@@QAEXXZ 0046bef0 f i LIBCMTD:undname.obj
 0001:0006af10       ?setIsNoTE@DName@@QAEXXZ   0046bf10 f i LIBCMTD:undname.obj
 0001:0006af30       ?setIsPinPtr@DName@@QAEXXZ 0046bf30 f i LIBCMTD:undname.obj
 0001:0006af50       ?setIsUDC@DName@@QAEXXZ    0046bf50 f i LIBCMTD:undname.obj
 0001:0006af80       ?setIsVCallThunk@DName@@QAEXXZ 0046bf80 f i LIBCMTD:undname.obj
 0001:0006afa0       ?setPtrRef@DName@@QAEAAV1@XZ 0046bfa0 f i LIBCMTD:undname.obj
 0001:0006afc0       ?status@DName@@QBE?AW4DNameStatus@@XZ 0046bfc0 f i LIBCMTD:undname.obj
 0001:0006b0c0       ___unDName                 0046c0c0 f   LIBCMTD:undname.obj
 0001:0006b1a0       ___unDNameEx               0046c1a0 f   LIBCMTD:undname.obj
 0001:0006b280       __wcstod_l                 0046c280 f   LIBCMTD:wcstod.obj
 0001:0006b440       _wcstod                    0046c440 f   LIBCMTD:wcstod.obj
 0001:0006b460       ___crtLCMapStringW         0046c460 f   LIBCMTD:w_map.obj
 0001:0006b4a0       __get_purecall_handler     0046c4a0 f   LIBCMTD:purevirt.obj
 0001:0006b4c0       __purecall                 0046c4c0 f   LIBCMTD:purevirt.obj
 0001:0006b500       __set_purecall_handler     0046c500 f   LIBCMTD:purevirt.obj
 0001:0006b530       __wfltin2                  0046c530 f   LIBCMTD:wcfin.obj
 0001:0006b610       ___WSTRINGTOLD_L           0046c610 f   LIBCMTD:wstrgtold.obj
 0001:0006b680       ___wstrgtold12_l           0046c680 f   LIBCMTD:wstrgtold.obj
 0001:0006c178       _EnterCriticalSection@4    0046d178 f   kernel32:KERNEL32.dll
 0001:0006c17e       _LeaveCriticalSection@4    0046d17e f   kernel32:KERNEL32.dll
 0001:0006c184       _EncodePointer@4           0046d184 f   kernel32:KERNEL32.dll
 0001:0006c18a       _DecodePointer@4           0046d18a f   kernel32:KERNEL32.dll
 0001:0006c190       _GetLastError@0            0046d190 f   kernel32:KERNEL32.dll
 0001:0006c196       _ExitProcess@4             0046d196 f   kernel32:KERNEL32.dll
 0001:0006c19c       _GetModuleHandleExW@12     0046d19c f   kernel32:KERNEL32.dll
 0001:0006c1a2       _GetProcAddress@8          0046d1a2 f   kernel32:KERNEL32.dll
 0001:0006c1a8       _AreFileApisANSI@0         0046d1a8 f   kernel32:KERNEL32.dll
 0001:0006c1ae       _MultiByteToWideChar@24    0046d1ae f   kernel32:KERNEL32.dll
 0001:0006c1b4       _WideCharToMultiByte@32    0046d1b4 f   kernel32:KERNEL32.dll
 0001:0006c1ba       _IsDebuggerPresent@0       0046d1ba f   kernel32:KERNEL32.dll
 0001:0006c1c0       _IsProcessorFeaturePresent@4 0046d1c0 f   kernel32:KERNEL32.dll
 0001:0006c1c6       _GetCommandLineA@0         0046d1c6 f   kernel32:KERNEL32.dll
 0001:0006c1cc       _DeleteCriticalSection@4   0046d1cc f   kernel32:KERNEL32.dll
 0001:0006c1d2       _FatalAppExitA@8           0046d1d2 f   kernel32:KERNEL32.dll
 0001:0006c1d8       _HeapValidate@12           0046d1d8 f   kernel32:KERNEL32.dll
 0001:0006c1de       _GetSystemInfo@4           0046d1de f   kernel32:KERNEL32.dll
 0001:0006c1e4       _GetModuleFileNameW@12     0046d1e4 f   kernel32:KERNEL32.dll
 0001:0006c1ea       _RtlUnwind@16              0046d1ea f   kernel32:KERNEL32.dll
 0001:0006c1f0       _GetStdHandle@4            0046d1f0 f   kernel32:KERNEL32.dll
 0001:0006c1f6       _GetFileType@4             0046d1f6 f   kernel32:KERNEL32.dll
 0001:0006c1fc       _GetStartupInfoW@4         0046d1fc f   kernel32:KERNEL32.dll
 0001:0006c202       _UnhandledExceptionFilter@4 0046d202 f   kernel32:KERNEL32.dll
 0001:0006c208       _SetUnhandledExceptionFilter@4 0046d208 f   kernel32:KERNEL32.dll
 0001:0006c20e       _SetLastError@4            0046d20e f   kernel32:KERNEL32.dll
 0001:0006c214       _InitializeCriticalSectionAndSpinCount@8 0046d214 f   kernel32:KERNEL32.dll
 0001:0006c21a       _CreateEventW@16           0046d21a f   kernel32:KERNEL32.dll
 0001:0006c220       _Sleep@4                   0046d220 f   kernel32:KERNEL32.dll
 0001:0006c226       _GetCurrentProcess@0       0046d226 f   kernel32:KERNEL32.dll
 0001:0006c22c       _TerminateProcess@8        0046d22c f   kernel32:KERNEL32.dll
 0001:0006c232       _TlsAlloc@0                0046d232 f   kernel32:KERNEL32.dll
 0001:0006c238       _TlsGetValue@4             0046d238 f   kernel32:KERNEL32.dll
 0001:0006c23e       _TlsSetValue@8             0046d23e f   kernel32:KERNEL32.dll
 0001:0006c244       _TlsFree@4                 0046d244 f   kernel32:KERNEL32.dll
 0001:0006c24a       _GetTickCount@0            0046d24a f   kernel32:KERNEL32.dll
 0001:0006c250       _GetModuleHandleW@4        0046d250 f   kernel32:KERNEL32.dll
 0001:0006c256       _CreateSemaphoreW@16       0046d256 f   kernel32:KERNEL32.dll
 0001:0006c25c       _WriteFile@20              0046d25c f   kernel32:KERNEL32.dll
 0001:0006c262       _SetConsoleCtrlHandler@8   0046d262 f   kernel32:KERNEL32.dll
 0001:0006c268       _FreeLibrary@4             0046d268 f   kernel32:KERNEL32.dll
 0001:0006c26e       _LoadLibraryExW@12         0046d26e f   kernel32:KERNEL32.dll
 0001:0006c274       _IsValidCodePage@4         0046d274 f   kernel32:KERNEL32.dll
 0001:0006c27a       _GetACP@0                  0046d27a f   kernel32:KERNEL32.dll
 0001:0006c280       _GetOEMCP@0                0046d280 f   kernel32:KERNEL32.dll
 0001:0006c286       _GetCPInfo@8               0046d286 f   kernel32:KERNEL32.dll
 0001:0006c28c       _RaiseException@16         0046d28c f   kernel32:KERNEL32.dll
 0001:0006c292       _CloseHandle@4             0046d292 f   kernel32:KERNEL32.dll
 0001:0006c298       _SetFilePointerEx@20       0046d298 f   kernel32:KERNEL32.dll
 0001:0006c29e       _GetCurrentThread@0        0046d29e f   kernel32:KERNEL32.dll
 0001:0006c2a4       _GetCurrentThreadId@0      0046d2a4 f   kernel32:KERNEL32.dll
 0001:0006c2aa       _GetProcessHeap@0          0046d2aa f   kernel32:KERNEL32.dll
 0001:0006c2b0       _GetModuleFileNameA@12     0046d2b0 f   kernel32:KERNEL32.dll
 0001:0006c2b6       _QueryPerformanceCounter@4 0046d2b6 f   kernel32:KERNEL32.dll
 0001:0006c2bc       _GetCurrentProcessId@0     0046d2bc f   kernel32:KERNEL32.dll
 0001:0006c2c2       _GetSystemTimeAsFileTime@4 0046d2c2 f   kernel32:KERNEL32.dll
 0001:0006c2c8       _GetEnvironmentStringsW@0  0046d2c8 f   kernel32:KERNEL32.dll
 0001:0006c2ce       _FreeEnvironmentStringsW@4 0046d2ce f   kernel32:KERNEL32.dll
 0001:0006c2d4       _FlushFileBuffers@4        0046d2d4 f   kernel32:KERNEL32.dll
 0001:0006c2da       _GetConsoleCP@0            0046d2da f   kernel32:KERNEL32.dll
 0001:0006c2e0       _GetConsoleMode@8          0046d2e0 f   kernel32:KERNEL32.dll
 0001:0006c2e6       _HeapFree@12               0046d2e6 f   kernel32:KERNEL32.dll
 0001:0006c2ec       _HeapReAlloc@16            0046d2ec f   kernel32:KERNEL32.dll
 0001:0006c2f2       _HeapSize@12               0046d2f2 f   kernel32:KERNEL32.dll
 0001:0006c2f8       _HeapQueryInformation@20   0046d2f8 f   kernel32:KERNEL32.dll
 0001:0006c2fe       _HeapAlloc@12              0046d2fe f   kernel32:KERNEL32.dll
 0001:0006c304       _OutputDebugStringW@4      0046d304 f   kernel32:KERNEL32.dll
 0001:0006c30a       _WaitForSingleObjectEx@12  0046d30a f   kernel32:KERNEL32.dll
 0001:0006c310       _CreateThread@24           0046d310 f   kernel32:KERNEL32.dll
 0001:0006c316       _OutputDebugStringA@4      0046d316 f   kernel32:KERNEL32.dll
 0001:0006c31c       _WriteConsoleW@20          0046d31c f   kernel32:KERNEL32.dll
 0001:0006c322       _GetDateFormatW@24         0046d322 f   kernel32:KERNEL32.dll
 0001:0006c328       _GetTimeFormatW@24         0046d328 f   kernel32:KERNEL32.dll
 0001:0006c32e       _CompareStringW@24         0046d32e f   kernel32:KERNEL32.dll
 0001:0006c334       _LCMapStringW@24           0046d334 f   kernel32:KERNEL32.dll
 0001:0006c33a       _GetLocaleInfoW@16         0046d33a f   kernel32:KERNEL32.dll
 0001:0006c340       _IsValidLocale@8           0046d340 f   kernel32:KERNEL32.dll
 0001:0006c346       _GetUserDefaultLCID@0      0046d346 f   kernel32:KERNEL32.dll
 0001:0006c34c       _EnumSystemLocalesW@8      0046d34c f   kernel32:KERNEL32.dll
 0001:0006c352       _GetStringTypeW@16         0046d352 f   kernel32:KERNEL32.dll
 0001:0006c358       _VirtualQuery@12           0046d358 f   kernel32:KERNEL32.dll
 0001:0006c35e       _SetStdHandle@8            0046d35e f   kernel32:KERNEL32.dll
 0001:0006c364       _ReadFile@20               0046d364 f   kernel32:KERNEL32.dll
 0001:0006c36a       _ReadConsoleW@20           0046d36a f   kernel32:KERNEL32.dll
 0001:0006c370       _WaitForSingleObject@8     0046d370 f   kernel32:KERNEL32.dll
 0001:0006c376       _GetExitCodeProcess@8      0046d376 f   kernel32:KERNEL32.dll
 0001:0006c37c       _CreateProcessA@40         0046d37c f   kernel32:KERNEL32.dll
 0001:0006c382       _GetFileAttributesExW@12   0046d382 f   kernel32:KERNEL32.dll
 0001:0006c388       _CreateFileW@28            0046d388 f   kernel32:KERNEL32.dll
 0001:0006c38e       _SetEnvironmentVariableA@8 0046d38e f   kernel32:KERNEL32.dll
 0001:0006c394       _SetEndOfFile@4            0046d394 f   kernel32:KERNEL32.dll
 0001:0006c3a0       ___ascii_stricmp           0046d3a0 f   LIBCMTD:stricmp.obj
 0001:0006c420       _stricmp                   0046d420 f   LIBCMTD:stricmp.obj
 0001:0006c420       __stricmp                  0046d420 f   LIBCMTD:stricmp.obj
 0001:0006c550       __stricmp_l                0046d550 f   LIBCMTD:stricmp.obj
 0001:0006c730       __strdup                   0046d730 f   LIBCMTD:strdup.obj
 0001:0006c730       _strdup                    0046d730 f   LIBCMTD:strdup.obj
 0001:0006c750       __strdup_dbg               0046d750 f   LIBCMTD:strdup.obj
 0002:00000000       __imp__EnterCriticalSection@4 0046e000     kernel32:KERNEL32.dll
 0002:00000004       __imp__LeaveCriticalSection@4 0046e004     kernel32:KERNEL32.dll
 0002:00000008       __imp__EncodePointer@4     0046e008     kernel32:KERNEL32.dll
 0002:0000000c       __imp__DecodePointer@4     0046e00c     kernel32:KERNEL32.dll
 0002:00000010       __imp__GetLastError@0      0046e010     kernel32:KERNEL32.dll
 0002:00000014       __imp__ExitProcess@4       0046e014     kernel32:KERNEL32.dll
 0002:00000018       __imp__GetModuleHandleExW@12 0046e018     kernel32:KERNEL32.dll
 0002:0000001c       __imp__GetProcAddress@8    0046e01c     kernel32:KERNEL32.dll
 0002:00000020       __imp__AreFileApisANSI@0   0046e020     kernel32:KERNEL32.dll
 0002:00000024       __imp__MultiByteToWideChar@24 0046e024     kernel32:KERNEL32.dll
 0002:00000028       __imp__WideCharToMultiByte@32 0046e028     kernel32:KERNEL32.dll
 0002:0000002c       __imp__IsDebuggerPresent@0 0046e02c     kernel32:KERNEL32.dll
 0002:00000030       __imp__IsProcessorFeaturePresent@4 0046e030     kernel32:KERNEL32.dll
 0002:00000034       __imp__GetCommandLineA@0   0046e034     kernel32:KERNEL32.dll
 0002:00000038       __imp__DeleteCriticalSection@4 0046e038     kernel32:KERNEL32.dll
 0002:0000003c       __imp__FatalAppExitA@8     0046e03c     kernel32:KERNEL32.dll
 0002:00000040       __imp__HeapValidate@12     0046e040     kernel32:KERNEL32.dll
 0002:00000044       __imp__GetSystemInfo@4     0046e044     kernel32:KERNEL32.dll
 0002:00000048       __imp__GetModuleFileNameW@12 0046e048     kernel32:KERNEL32.dll
 0002:0000004c       __imp__RtlUnwind@16        0046e04c     kernel32:KERNEL32.dll
 0002:00000050       __imp__GetStdHandle@4      0046e050     kernel32:KERNEL32.dll
 0002:00000054       __imp__GetFileType@4       0046e054     kernel32:KERNEL32.dll
 0002:00000058       __imp__GetStartupInfoW@4   0046e058     kernel32:KERNEL32.dll
 0002:0000005c       __imp__UnhandledExceptionFilter@4 0046e05c     kernel32:KERNEL32.dll
 0002:00000060       __imp__SetUnhandledExceptionFilter@4 0046e060     kernel32:KERNEL32.dll
 0002:00000064       __imp__SetLastError@4      0046e064     kernel32:KERNEL32.dll
 0002:00000068       __imp__InitializeCriticalSectionAndSpinCount@8 0046e068     kernel32:KERNEL32.dll
 0002:0000006c       __imp__CreateEventW@16     0046e06c     kernel32:KERNEL32.dll
 0002:00000070       __imp__Sleep@4             0046e070     kernel32:KERNEL32.dll
 0002:00000074       __imp__GetCurrentProcess@0 0046e074     kernel32:KERNEL32.dll
 0002:00000078       __imp__TerminateProcess@8  0046e078     kernel32:KERNEL32.dll
 0002:0000007c       __imp__TlsAlloc@0          0046e07c     kernel32:KERNEL32.dll
 0002:00000080       __imp__TlsGetValue@4       0046e080     kernel32:KERNEL32.dll
 0002:00000084       __imp__TlsSetValue@8       0046e084     kernel32:KERNEL32.dll
 0002:00000088       __imp__TlsFree@4           0046e088     kernel32:KERNEL32.dll
 0002:0000008c       __imp__GetTickCount@0      0046e08c     kernel32:KERNEL32.dll
 0002:00000090       __imp__GetModuleHandleW@4  0046e090     kernel32:KERNEL32.dll
 0002:00000094       __imp__CreateSemaphoreW@16 0046e094     kernel32:KERNEL32.dll
 0002:00000098       __imp__WriteFile@20        0046e098     kernel32:KERNEL32.dll
 0002:0000009c       __imp__SetConsoleCtrlHandler@8 0046e09c     kernel32:KERNEL32.dll
 0002:000000a0       __imp__FreeLibrary@4       0046e0a0     kernel32:KERNEL32.dll
 0002:000000a4       __imp__LoadLibraryExW@12   0046e0a4     kernel32:KERNEL32.dll
 0002:000000a8       __imp__IsValidCodePage@4   0046e0a8     kernel32:KERNEL32.dll
 0002:000000ac       __imp__GetACP@0            0046e0ac     kernel32:KERNEL32.dll
 0002:000000b0       __imp__GetOEMCP@0          0046e0b0     kernel32:KERNEL32.dll
 0002:000000b4       __imp__GetCPInfo@8         0046e0b4     kernel32:KERNEL32.dll
 0002:000000b8       __imp__RaiseException@16   0046e0b8     kernel32:KERNEL32.dll
 0002:000000bc       __imp__CloseHandle@4       0046e0bc     kernel32:KERNEL32.dll
 0002:000000c0       __imp__SetFilePointerEx@20 0046e0c0     kernel32:KERNEL32.dll
 0002:000000c4       __imp__GetCurrentThread@0  0046e0c4     kernel32:KERNEL32.dll
 0002:000000c8       __imp__GetCurrentThreadId@0 0046e0c8     kernel32:KERNEL32.dll
 0002:000000cc       __imp__GetProcessHeap@0    0046e0cc     kernel32:KERNEL32.dll
 0002:000000d0       __imp__GetModuleFileNameA@12 0046e0d0     kernel32:KERNEL32.dll
 0002:000000d4       __imp__QueryPerformanceCounter@4 0046e0d4     kernel32:KERNEL32.dll
 0002:000000d8       __imp__GetCurrentProcessId@0 0046e0d8     kernel32:KERNEL32.dll
 0002:000000dc       __imp__GetSystemTimeAsFileTime@4 0046e0dc     kernel32:KERNEL32.dll
 0002:000000e0       __imp__GetEnvironmentStringsW@0 0046e0e0     kernel32:KERNEL32.dll
 0002:000000e4       __imp__FreeEnvironmentStringsW@4 0046e0e4     kernel32:KERNEL32.dll
 0002:000000e8       __imp__FlushFileBuffers@4  0046e0e8     kernel32:KERNEL32.dll
 0002:000000ec       __imp__GetConsoleCP@0      0046e0ec     kernel32:KERNEL32.dll
 0002:000000f0       __imp__GetConsoleMode@8    0046e0f0     kernel32:KERNEL32.dll
 0002:000000f4       __imp__HeapFree@12         0046e0f4     kernel32:KERNEL32.dll
 0002:000000f8       __imp__HeapReAlloc@16      0046e0f8     kernel32:KERNEL32.dll
 0002:000000fc       __imp__HeapSize@12         0046e0fc     kernel32:KERNEL32.dll
 0002:00000100       __imp__HeapQueryInformation@20 0046e100     kernel32:KERNEL32.dll
 0002:00000104       __imp__HeapAlloc@12        0046e104     kernel32:KERNEL32.dll
 0002:00000108       __imp__OutputDebugStringW@4 0046e108     kernel32:KERNEL32.dll
 0002:0000010c       __imp__WaitForSingleObjectEx@12 0046e10c     kernel32:KERNEL32.dll
 0002:00000110       __imp__CreateThread@24     0046e110     kernel32:KERNEL32.dll
 0002:00000114       __imp__OutputDebugStringA@4 0046e114     kernel32:KERNEL32.dll
 0002:00000118       __imp__WriteConsoleW@20    0046e118     kernel32:KERNEL32.dll
 0002:0000011c       __imp__GetDateFormatW@24   0046e11c     kernel32:KERNEL32.dll
 0002:00000120       __imp__GetTimeFormatW@24   0046e120     kernel32:KERNEL32.dll
 0002:00000124       __imp__CompareStringW@24   0046e124     kernel32:KERNEL32.dll
 0002:00000128       __imp__LCMapStringW@24     0046e128     kernel32:KERNEL32.dll
 0002:0000012c       __imp__GetLocaleInfoW@16   0046e12c     kernel32:KERNEL32.dll
 0002:00000130       __imp__IsValidLocale@8     0046e130     kernel32:KERNEL32.dll
 0002:00000134       __imp__GetUserDefaultLCID@0 0046e134     kernel32:KERNEL32.dll
 0002:00000138       __imp__EnumSystemLocalesW@8 0046e138     kernel32:KERNEL32.dll
 0002:0000013c       __imp__GetStringTypeW@16   0046e13c     kernel32:KERNEL32.dll
 0002:00000140       __imp__VirtualQuery@12     0046e140     kernel32:KERNEL32.dll
 0002:00000144       __imp__SetStdHandle@8      0046e144     kernel32:KERNEL32.dll
 0002:00000148       __imp__ReadFile@20         0046e148     kernel32:KERNEL32.dll
 0002:0000014c       __imp__ReadConsoleW@20     0046e14c     kernel32:KERNEL32.dll
 0002:00000150       __imp__WaitForSingleObject@8 0046e150     kernel32:KERNEL32.dll
 0002:00000154       __imp__GetExitCodeProcess@8 0046e154     kernel32:KERNEL32.dll
 0002:00000158       __imp__CreateProcessA@40   0046e158     kernel32:KERNEL32.dll
 0002:0000015c       __imp__GetFileAttributesExW@12 0046e15c     kernel32:KERNEL32.dll
 0002:00000160       __imp__CreateFileW@28      0046e160     kernel32:KERNEL32.dll
 0002:00000164       __imp__SetEnvironmentVariableA@8 0046e164     kernel32:KERNEL32.dll
 0002:00000168       __imp__SetEndOfFile@4      0046e168     kernel32:KERNEL32.dll
 0002:0000016c       \177KERNEL32_NULL_THUNK_DATA 0046e16c     kernel32:KERNEL32.dll
 0002:00000170       ___xc_a                    0046e170     LIBCMTD:crt0init.obj
 0002:00000174       ___xc_z                    0046e174     LIBCMTD:crt0init.obj
 0002:00000178       ___xi_a                    0046e178     LIBCMTD:crt0init.obj
 0002:00000194       ___xi_z                    0046e194     LIBCMTD:crt0init.obj
 0002:00000198       ___xp_a                    0046e198     LIBCMTD:crt0init.obj
 0002:000001a8       ___xp_z                    0046e1a8     LIBCMTD:crt0init.obj
 0002:000001ac       ___xt_a                    0046e1ac     LIBCMTD:crt0init.obj
 0002:000001b0       ___xt_z                    0046e1b0     LIBCMTD:crt0init.obj
 0002:00000908       __real@0000000000000000    0046e908     ac3dgroup.obj
 0002:00000910       __real@3f50624dd2f1a9fc    0046e910     ac3dgroup.obj
 0002:00000918       __real@412e848000000000    0046e918     ac3dgroup.obj
 0002:00002048       __real@3f847ae147ae147b    00470048     ac3dload.obj
 0002:00002050       __real@3fa999999999999a    00470050     ac3dload.obj
 0002:00002058       __real@3fb999999999999a    00470058     ac3dload.obj
 0002:00002060       __real@3fe0000000000000    00470060     ac3dload.obj
 0002:00002068       __real@3feff7ced916872b    00470068     ac3dload.obj
 0002:00002070       __real@3ff0000000000000    00470070     ac3dload.obj
 0002:00002078       __real@3ff8000000000000    00470078     ac3dload.obj
 0002:00002080       __real@4000000000000000    00470080     ac3dload.obj
 0002:00002088       __real@4008000000000000    00470088     ac3dload.obj
 0002:00002090       __real@400921fb567806cd    00470090     ac3dload.obj
 0002:00002098       __real@4066800000000000    00470098     ac3dload.obj
 0002:000020a0       __real@40c3878000000000    004700a0     ac3dload.obj
 0002:000020a8       __real@40c3880000000000    004700a8     ac3dload.obj
 0002:000020b0       __real@40f869f000000000    004700b0     ac3dload.obj
 0002:000020b8       __real@40f86a0000000000    004700b8     ac3dload.obj
 0002:000020c0       __real@c0c3878000000000    004700c0     ac3dload.obj
 0002:000020c8       __real@c0c3880000000000    004700c8     ac3dload.obj
 0002:000020d0       __real@c0f869f000000000    004700d0     ac3dload.obj
 0002:000020e0       __xmm@41f00000000000000000000000000000 004700e0     ac3dload.obj
 0002:000020f0       __xmm@80000000000000008000000000000000 004700f0     ac3dload.obj
 0002:0000292c       ??_C@_0CH@FPHLCLAF@f?3?2dd?2vctools?2crt?2crtw32?2stdio?2_@ 0047092c     LIBCMTD:_file.obj
 0002:00002954       ??_C@_1BO@CLGIAEOJ@?$AA?$CI?$AAf?$AAi?$AAl?$AAe?$AA?5?$AA?$CB?$AA?$DN?$AA?5?$AAN?$AAU?$AAL?$AAL?$AA?$CJ?$AA?$AA@ 00470954     LIBCMTD:fopen.obj
 0002:00002974       ??_C@_15GANGMFKL@?$AA?$CF?$AAs?$AA?$AA@ 00470974     LIBCMTD:fopen.obj
 0002:00002980       ??_C@_1EO@HOHPPGLK@?$AAf?$AA?3?$AA?2?$AAd?$AAd?$AA?2?$AAv?$AAc?$AAt?$AAo?$AAo?$AAl?$AAs?$AA?2?$AAc?$AAr?$AAt?$AA?2?$AAc?$AAr?$AAt?$AAw?$AA3?$AA2?$AA?2?$AAs?$AAt?$AAd?$AAi?$AAo?$AA?2?$AAf@ 00470980     LIBCMTD:fopen.obj
 0002:000029d0       ??_C@_1BA@HNEAFMNL@?$AA_?$AAf?$AAs?$AAo?$AAp?$AAe?$AAn?$AA?$AA@ 004709d0     LIBCMTD:fopen.obj
 0002:000029e0       ??_C@_1BO@MJMKAKCJ@?$AA?$CI?$AAm?$AAo?$AAd?$AAe?$AA?5?$AA?$CB?$AA?$DN?$AA?5?$AAN?$AAU?$AAL?$AAL?$AA?$CJ?$AA?$AA@ 004709e0     LIBCMTD:fopen.obj
 0002:00002a00       ??_C@_1CI@HBNALCBB@?$AA?$CI?$AA?$CK?$AAm?$AAo?$AAd?$AAe?$AA?5?$AA?$CB?$AA?$DN?$AA?5?$AA_?$AAT?$AA?$CI?$AA?8?$AA?2?$AA0?$AA?8?$AA?$CJ?$AA?$CJ?$AA?$AA@ 00470a00     LIBCMTD:fopen.obj
 0002:00002a28       ??_C@_1CA@LLJLFCDN@?$AA?$CI?$AAp?$AAf?$AAi?$AAl?$AAe?$AA?5?$AA?$CB?$AA?$DN?$AA?5?$AAN?$AAU?$AAL?$AAL?$AA?$CJ?$AA?$AA@ 00470a28     LIBCMTD:fopen.obj
 0002:00002a48       ??_C@_1BA@PBGKCCAP@?$AAf?$AAo?$AAp?$AAe?$AAn?$AA_?$AAs?$AA?$AA@ 00470a48     LIBCMTD:fopen.obj
 0002:00002a58       ??_C@_1BM@JMKHIAHP@?$AA?$CI?$AAs?$AAt?$AAr?$AA?5?$AA?$CB?$AA?$DN?$AA?5?$AAN?$AAU?$AAL?$AAL?$AA?$CJ?$AA?$AA@ 00470a58     LIBCMTD:fprintf.obj
 0002:00002a78       ??_C@_1FC@FLPGPAOO@?$AAf?$AA?3?$AA?2?$AAd?$AAd?$AA?2?$AAv?$AAc?$AAt?$AAo?$AAo?$AAl?$AAs?$AA?2?$AAc?$AAr?$AAt?$AA?2?$AAc?$AAr?$AAt?$AAw?$AA3?$AA2?$AA?2?$AAs?$AAt?$AAd?$AAi?$AAo?$AA?2?$AAf@ 00470a78     LIBCMTD:fprintf.obj
 0002:00002acc       ??_C@_1BA@DNOHIGNM@?$AAf?$AAp?$AAr?$AAi?$AAn?$AAt?$AAf?$AA?$AA@ 00470acc     LIBCMTD:fprintf.obj
 0002:00002adc       ??_C@_1CC@MGIEJOME@?$AA?$CI?$AAf?$AAo?$AAr?$AAm?$AAa?$AAt?$AA?5?$AA?$CB?$AA?$DN?$AA?5?$AAN?$AAU?$AAL?$AAL?$AA?$CJ?$AA?$AA@ 00470adc     LIBCMTD:fprintf.obj
 0002:00002b00       ??_C@_1BAA@ODEGEDCK@?$AA?$CI?$AA?5?$AA?$CI?$AA_?$AAS?$AAt?$AAr?$AAe?$AAa?$AAm?$AA?9?$AA?$DO?$AA_?$AAf?$AAl?$AAa?$AAg?$AA?5?$AA?$CG?$AA?5?$AA_?$AAI?$AAO?$AAS?$AAT?$AAR?$AAG?$AA?$CJ?$AA?5?$AA?$HM?$AA?$HM?$AA?5@ 00470b00     LIBCMTD:fprintf.obj
 0002:00002c00       ??_C@_1FA@GMJBBNDK@?$AAf?$AA?3?$AA?2?$AAd?$AAd?$AA?2?$AAv?$AAc?$AAt?$AAo?$AAo?$AAl?$AAs?$AA?2?$AAc?$AAr?$AAt?$AA?2?$AAc?$AAr?$AAt?$AAw?$AA3?$AA2?$AA?2?$AAs?$AAt?$AAd?$AAi?$AAo?$AA?2?$AAp@ 00470c00     LIBCMTD:printf.obj
 0002:00002c50       ??_C@_1O@GKDHFACN@?$AAp?$AAr?$AAi?$AAn?$AAt?$AAf?$AA?$AA@ 00470c50     LIBCMTD:printf.obj
 0002:00002c60       ??_C@_1BI@BGOHAHKC@?$AAm?$AAs?$AAc?$AAo?$AAr?$AAe?$AAe?$AA?4?$AAd?$AAl?$AAl?$AA?$AA@ 00470c60     LIBCMTD:crt0dat.obj
 0002:00002c78       ??_C@_0P@MIGLKIOC@CorExitProcess?$AA@ 00470c78     LIBCMTD:crt0dat.obj
 0002:00002c88       ??_C@_1BO@LKEBEKJP@?$AAp?$AAV?$AAa?$AAl?$AAu?$AAe?$AA?5?$AA?$CB?$AA?$DN?$AA?5?$AAN?$AAU?$AAL?$AAL?$AA?$AA@ 00470c88     LIBCMTD:crt0dat.obj
 0002:00002ca8       ??_C@_1FG@MHCBBJEK@?$AAf?$AA?3?$AA?2?$AAd?$AAd?$AA?2?$AAv?$AAc?$AAt?$AAo?$AAo?$AAl?$AAs?$AA?2?$AAc?$AAr?$AAt?$AA?2?$AAc?$AAr?$AAt?$AAw?$AA3?$AA2?$AA?2?$AAs?$AAt?$AAa?$AAr?$AAt?$AAu?$AAp@ 00470ca8     LIBCMTD:crt0dat.obj
 0002:00002d00       ??_C@_1BK@PNLDCCDP@?$AA_?$AAg?$AAe?$AAt?$AA_?$AAw?$AAp?$AAg?$AAm?$AAp?$AAt?$AAr?$AA?$AA@ 00470d00     LIBCMTD:crt0dat.obj
 0002:00002d1c       ??_C@_1CC@CDIPMFPD@?$AA_?$AAw?$AAp?$AAg?$AAm?$AAp?$AAt?$AAr?$AA?5?$AA?$CB?$AA?$DN?$AA?5?$AAN?$AAU?$AAL?$AAL?$AA?$AA@ 00470d1c     LIBCMTD:crt0dat.obj
 0002:00002d40       ??_C@_1BI@COAAPHJK@?$AA_?$AAg?$AAe?$AAt?$AA_?$AAp?$AAg?$AAm?$AAp?$AAt?$AAr?$AA?$AA@ 00470d40     LIBCMTD:crt0dat.obj
 0002:00002d58       ??_C@_1CA@BBNAFCKO@?$AA_?$AAp?$AAg?$AAm?$AAp?$AAt?$AAr?$AA?5?$AA?$CB?$AA?$DN?$AA?5?$AAN?$AAU?$AAL?$AAL?$AA?$AA@ 00470d58     LIBCMTD:crt0dat.obj
 0002:00002d78       ??_C@_1BK@DJNILIMN@?$AAp?$AAa?$AAt?$AAh?$AA?5?$AA?$CB?$AA?$DN?$AA?5?$AAN?$AAU?$AAL?$AAL?$AA?$AA@ 00470d78     LIBCMTD:crt0dat.obj
 0002:00002d94       ??_C@_1DG@KANBJOCK@?$AA_?$AA_?$AAc?$AAo?$AAp?$AAy?$AA_?$AAp?$AAa?$AAt?$AAh?$AA_?$AAt?$AAo?$AA_?$AAw?$AAi?$AAd?$AAe?$AA_?$AAs?$AAt?$AAr?$AAi?$AAn?$AAg?$AA?$AA@ 00470d94     LIBCMTD:crt0dat.obj
 0002:00002dcc       ??_C@_1CA@BGODLPHH@?$AAo?$AAu?$AAt?$AAP?$AAa?$AAt?$AAh?$AA?5?$AA?$CB?$AA?$DN?$AA?5?$AAN?$AAU?$AAL?$AAL?$AA?$AA@ 00470dcc     LIBCMTD:crt0dat.obj
 0002:00002dec       ??_C@_0CL@LMMOJFEN@f?3?2dd?2vctools?2crt?2crtw32?2startup@ 00470dec     LIBCMTD:crt0dat.obj
 0002:00002e18       ??_C@_1CC@NLGECIOD@?$AAi?$AAn?$AAS?$AAt?$AAr?$AAi?$AAn?$AAg?$AA?5?$AA?$CB?$AA?$DN?$AA?5?$AAN?$AAU?$AAL?$AAL?$AA?$AA@ 00470e18     LIBCMTD:crt0dat.obj
 0002:00002e3c       ??_C@_1BO@PNPLHAEP@?$AA_?$AA_?$AAc?$AAo?$AAp?$AAy?$AA_?$AAt?$AAo?$AA_?$AAc?$AAh?$AAa?$AAr?$AA?$AA@ 00470e3c     LIBCMTD:crt0dat.obj
 0002:00002e5c       ??_C@_1CE@HIPDKGHC@?$AAo?$AAu?$AAt?$AAS?$AAt?$AAr?$AAi?$AAn?$AAg?$AA?5?$AA?$CB?$AA?$DN?$AA?5?$AAN?$AAU?$AAL?$AAL?$AA?$AA@ 00470e5c     LIBCMTD:crt0dat.obj
 0002:00002e80       ?ProcessDetach@NativeDll@<CrtImplementationDetails>@@0IB 00470e80     LIBCMTD:dbgmalloc.obj
 0002:00002e84       ?ProcessAttach@NativeDll@<CrtImplementationDetails>@@0IB 00470e84     LIBCMTD:dbgmalloc.obj
 0002:00002e88       ?ThreadAttach@NativeDll@<CrtImplementationDetails>@@0IB 00470e88     LIBCMTD:dbgmalloc.obj
 0002:00002e8c       ?ThreadDetach@NativeDll@<CrtImplementationDetails>@@0IB 00470e8c     LIBCMTD:dbgmalloc.obj
 0002:00002e90       ?ProcessVerifier@NativeDll@<CrtImplementationDetails>@@0IB 00470e90     LIBCMTD:dbgmalloc.obj
 0002:00002e94       __FPinit                   00470e94     LIBCMTD:fpinit.obj
 0002:00002ea0       ??_C@_1CC@FADMNIL@?$AA?$CI?$AAs?$AAt?$AAr?$AAe?$AAa?$AAm?$AA?5?$AA?$CB?$AA?$DN?$AA?5?$AAN?$AAU?$AAL?$AAL?$AA?$CJ?$AA?$AA@ 00470ea0     LIBCMTD:fclose.obj
 0002:00002ec8       ??_C@_1FA@HHFEGMDA@?$AAf?$AA?3?$AA?2?$AAd?$AAd?$AA?2?$AAv?$AAc?$AAt?$AAo?$AAo?$AAl?$AAs?$AA?2?$AAc?$AAr?$AAt?$AA?2?$AAc?$AAr?$AAt?$AAw?$AA3?$AA2?$AA?2?$AAs?$AAt?$AAd?$AAi?$AAo?$AA?2?$AAf@ 00470ec8     LIBCMTD:fclose.obj
 0002:00002f18       ??_C@_1O@EGMJNCOI@?$AAf?$AAc?$AAl?$AAo?$AAs?$AAe?$AA?$AA@ 00470f18     LIBCMTD:fclose.obj
 0002:00002f28       ??_C@_1BO@JINCABEC@?$AA_?$AAf?$AAc?$AAl?$AAo?$AAs?$AAe?$AA_?$AAn?$AAo?$AAl?$AAo?$AAc?$AAk?$AA?$AA@ 00470f28     LIBCMTD:fclose.obj
 0002:00002f48       ??_C@_1EO@IKPEINGH@?$AAf?$AA?3?$AA?2?$AAd?$AAd?$AA?2?$AAv?$AAc?$AAt?$AAo?$AAo?$AAl?$AAs?$AA?2?$AAc?$AAr?$AAt?$AA?2?$AAc?$AAr?$AAt?$AAw?$AA3?$AA2?$AA?2?$AAs?$AAt?$AAd?$AAi?$AAo?$AA?2?$AAf@ 00470f48     LIBCMTD:fgetc.obj
 0002:00002f98       ??_C@_1M@FBFFFGJE@?$AAf?$AAg?$AAe?$AAt?$AAc?$AA?$AA@ 00470f98     LIBCMTD:fgetc.obj
 0002:00002fa4       ??_C@_19OGFDBGF@?$AAg?$AAe?$AAt?$AAc?$AA?$AA@ 00470fa4     LIBCMTD:fgetc.obj
 0002:00002fb0       ??_C@_1EK@KICPAPCG@?$AA?$CI?$AA?5?$AAs?$AAt?$AAr?$AAi?$AAn?$AAg?$AA?5?$AA?$CB?$AA?$DN?$AA?5?$AAN?$AAU?$AAL?$AAL?$AA?5?$AA?$CJ?$AA?5?$AA?$HM?$AA?$HM?$AA?5?$AA?$CI?$AA?5?$AAc?$AAo?$AAu?$AAn?$AAt?$AA?5?$AA?$DN?$AA?$DN@ 00470fb0     LIBCMTD:fgets.obj
 0002:00003000       ??_C@_1EO@PGEPLMEM@?$AAf?$AA?3?$AA?2?$AAd?$AAd?$AA?2?$AAv?$AAc?$AAt?$AAo?$AAo?$AAl?$AAs?$AA?2?$AAc?$AAr?$AAt?$AA?2?$AAc?$AAr?$AAt?$AAw?$AA3?$AA2?$AA?2?$AAs?$AAt?$AAd?$AAi?$AAo?$AA?2?$AAf@ 00471000     LIBCMTD:fgets.obj
 0002:00003050       ??_C@_1M@BEMABAL@?$AAf?$AAg?$AAe?$AAt?$AAs?$AA?$AA@ 00471050     LIBCMTD:fgets.obj
 0002:0000305c       ??_C@_1BO@CLMMCNLO@?$AA?$CI?$AA?5?$AAc?$AAo?$AAu?$AAn?$AAt?$AA?5?$AA?$DO?$AA?$DN?$AA?5?$AA0?$AA?5?$AA?$CJ?$AA?$AA@ 0047105c     LIBCMTD:fgets.obj
 0002:0000307c       ??_C@_1CA@EHPEFHFN@?$AA?$CI?$AA?5?$AAs?$AAt?$AAr?$AA?5?$AA?$CB?$AA?$DN?$AA?5?$AAN?$AAU?$AAL?$AAL?$AA?5?$AA?$CJ?$AA?$AA@ 0047107c     LIBCMTD:fgets.obj
 0002:000030a0       ??_C@_1FA@HCAJDIPN@?$AAf?$AA?3?$AA?2?$AAd?$AAd?$AA?2?$AAv?$AAc?$AAt?$AAo?$AAo?$AAl?$AAs?$AA?2?$AAc?$AAr?$AAt?$AA?2?$AAc?$AAr?$AAt?$AAw?$AA3?$AA2?$AA?2?$AAs?$AAt?$AAd?$AAi?$AAo?$AA?2?$AAf@ 004710a0     LIBCMTD:fscanf.obj
 0002:000030f0       ??_C@_1BG@NDFLNKCO@?$AAv?$AAf?$AAs?$AAc?$AAa?$AAn?$AAf?$AA_?$AAf?$AAn?$AA?$AA@ 004710f0     LIBCMTD:fscanf.obj
 0002:00003108       ??_C@_1FA@NJIDCGGN@?$AAf?$AA?3?$AA?2?$AAd?$AAd?$AA?2?$AAv?$AAc?$AAt?$AAo?$AAo?$AAl?$AAs?$AA?2?$AAc?$AAr?$AAt?$AA?2?$AAc?$AAr?$AAt?$AAw?$AA3?$AA2?$AA?2?$AAs?$AAt?$AAd?$AAi?$AAo?$AA?2?$AAr@ 00471108     LIBCMTD:rewind.obj
 0002:00003158       ??_C@_1O@MIDPMBMH@?$AAr?$AAe?$AAw?$AAi?$AAn?$AAd?$AA?$AA@ 00471158     LIBCMTD:rewind.obj
 0002:00003168       ??_C@_1CC@OLIJCKA@?$AA?$CI?$AAs?$AAt?$AAr?$AAi?$AAn?$AAg?$AA?5?$AA?$CB?$AA?$DN?$AA?5?$AAN?$AAU?$AAL?$AAL?$AA?$CJ?$AA?$AA@ 00471168     LIBCMTD:sscanf.obj
 0002:00003190       ??_C@_1FA@LIFAAFAC@?$AAf?$AA?3?$AA?2?$AAd?$AAd?$AA?2?$AAv?$AAc?$AAt?$AAo?$AAo?$AAl?$AAs?$AA?2?$AAc?$AAr?$AAt?$AA?2?$AAc?$AAr?$AAt?$AAw?$AA3?$AA2?$AA?2?$AAs?$AAt?$AAd?$AAi?$AAo?$AA?2?$AAs@ 00471190     LIBCMTD:sscanf.obj
 0002:000031e0       ??_C@_1BC@KMGJCMNP@?$AAv?$AAs?$AAc?$AAa?$AAn?$AA_?$AAf?$AAn?$AA?$AA@ 004711e0     LIBCMTD:sscanf.obj
 0002:000031f8       ??_C@_1FC@JALKILNE@?$AAf?$AA?3?$AA?2?$AAd?$AAd?$AA?2?$AAv?$AAc?$AAt?$AAo?$AAo?$AAl?$AAs?$AA?2?$AAc?$AAr?$AAt?$AA?2?$AAc?$AAr?$AAt?$AAw?$AA3?$AA2?$AA?2?$AAs?$AAt?$AAd?$AAi?$AAo?$AA?2?$AAs@ 004711f8     LIBCMTD:snprintf.obj
 0002:0000324c       ??_C@_1BE@CHNFPLHD@?$AA_?$AAs?$AAn?$AAp?$AAr?$AAi?$AAn?$AAt?$AAf?$AA?$AA@ 0047124c     LIBCMTD:snprintf.obj
 0002:00003260       ??_C@_1EC@FABAOFFO@?$AA?$CI?$AAc?$AAo?$AAu?$AAn?$AAt?$AA?5?$AA?$DN?$AA?$DN?$AA?5?$AA0?$AA?$CJ?$AA?5?$AA?$HM?$AA?$HM?$AA?5?$AA?$CI?$AAs?$AAt?$AAr?$AAi?$AAn?$AAg?$AA?5?$AA?$CB?$AA?$DN?$AA?5?$AAN?$AAU?$AAL?$AAL?$AA?$CJ@ 00471260     LIBCMTD:snprintf.obj
 0002:000032a4       ??_C@_1BA@KBJJGFFE@?$AAs?$AAp?$AAr?$AAi?$AAn?$AAt?$AAf?$AA?$AA@ 004712a4     LIBCMTD:sprintf.obj
 0002:000032b8       ??_C@_1EO@FOLOHKCE@?$AAf?$AA?3?$AA?2?$AAd?$AAd?$AA?2?$AAv?$AAc?$AAt?$AAo?$AAo?$AAl?$AAs?$AA?2?$AAc?$AAr?$AAt?$AA?2?$AAc?$AAr?$AAt?$AAw?$AA3?$AA2?$AA?2?$AAe?$AAx?$AAe?$AAc?$AA?2?$AAs?$AAy@ 004712b8     LIBCMTD:system.obj
 0002:00003308       ??_C@_1O@KFLILLAF@?$AAs?$AAy?$AAs?$AAt?$AAe?$AAm?$AA?$AA@ 00471308     LIBCMTD:system.obj
 0002:00003318       ??_C@_1MM@JHNDNAAG@?$AA_?$AAd?$AAu?$AAp?$AAe?$AAn?$AAv?$AA_?$AAs?$AA_?$AAd?$AAb?$AAg?$AA?$CI?$AA?$CG?$AAe?$AAn?$AAv?$AAb?$AAu?$AAf?$AA?0?$AA?5?$AA?$CI?$AA?$CI?$AAv?$AAo?$AAi?$AAd?$AA?5?$AA?$CK?$AA?$CJ@ 00471318     LIBCMTD:system.obj
 0002:000033e4       ??_C@_0CH@IBCEAGOF@f?3?2dd?2vctools?2crt?2crtw32?2exec?2sy@ 004713e4     LIBCMTD:system.obj
 0002:0000340c       ??_C@_07CFPBBAOO@COMSPEC?$AA@ 0047140c     LIBCMTD:system.obj
 0002:00003414       ??_C@_1CK@IGDBHKGD@?$AA?$CK?$AAc?$AAo?$AAm?$AAm?$AAa?$AAn?$AAd?$AA?5?$AA?$CB?$AA?$DN?$AA?5?$AA_?$AAT?$AA?$CI?$AA?8?$AA?2?$AA0?$AA?8?$AA?$CJ?$AA?$AA@ 00471414     LIBCMTD:system.obj
 0002:00003440       ??_C@_02HNHPBPFE@?1c?$AA@  00471440     LIBCMTD:system.obj
 0002:00003444       ??_C@_07INNMNHPJ@cmd?4exe?$AA@ 00471444     LIBCMTD:system.obj
 0002:0000344c       __real@00000000            0047144c     LIBCMTD:ieeemisc.obj
 0002:00003450       ??_C@_0CJ@LPLBAFNO@f?3?2dd?2vctools?2crt?2crtw32?2startup@ 00471450     LIBCMTD:mlock.obj
 0002:00003490       ??_C@_04HJMOFLDF@Free?$AA@ 00471490     LIBCMTD:dbgheap.obj
 0002:00003498       ??_C@_06EFAGIKOH@Normal?$AA@ 00471498     LIBCMTD:dbgheap.obj
 0002:000034a0       ??_C@_03OGPFLFLO@CRT?$AA@  004714a0     LIBCMTD:dbgheap.obj
 0002:000034a4       ??_C@_06KMEJCCGM@Ignore?$AA@ 004714a4     LIBCMTD:dbgheap.obj
 0002:000034ac       ??_C@_06PJIGMIJB@Client?$AA@ 004714ac     LIBCMTD:dbgheap.obj
 0002:000034b4       ??_C@_1CE@LJFEPPMP@?$AA_?$AAC?$AAr?$AAt?$AAC?$AAh?$AAe?$AAc?$AAk?$AAM?$AAe?$AAm?$AAo?$AAr?$AAy?$AA?$CI?$AA?$CJ?$AA?$AA@ 004714b4     LIBCMTD:dbgheap.obj
 0002:000034d8       ??_C@_1FA@JKEKCOIC@?$AAf?$AA?3?$AA?2?$AAd?$AAd?$AA?2?$AAv?$AAc?$AAt?$AAo?$AAo?$AAl?$AAs?$AA?2?$AAc?$AAr?$AAt?$AA?2?$AAc?$AAr?$AAt?$AAw?$AA3?$AA2?$AA?2?$AAm?$AAi?$AAs?$AAc?$AA?2?$AAd?$AAb@ 004714d8     LIBCMTD:dbgheap.obj
 0002:00003528       ??_C@_0DF@BBEGIFEK@Client?5hook?5allocation?5failure?5a@ 00471528     LIBCMTD:dbgheap.obj
 0002:00003560       ??_C@_0CB@CCLOLAHO@Client?5hook?5allocation?5failure?4?6@ 00471560     LIBCMTD:dbgheap.obj
 0002:00003584       ??_C@_02DKCKIIND@?$CFs?$AA@ 00471584     LIBCMTD:dbgheap.obj
 0002:00003588       ??_C@_0CF@BICKFLAF@Invalid?5allocation?5size?3?5?$CFIu?5byt@ 00471588     LIBCMTD:dbgheap.obj
 0002:000035b0       ??_C@_0DC@JEMAGEKG@Error?3?5memory?5allocation?3?5bad?5me@ 004715b0     LIBCMTD:dbgheap.obj
 0002:000035e4       ??_C@_0DI@KKJPDPGM@Client?5hook?5re?9allocation?5failur@ 004715e4     LIBCMTD:dbgheap.obj
 0002:0000361c       ??_C@_0CE@DOFMDOL@Client?5hook?5re?9allocation?5failur@ 0047161c     LIBCMTD:dbgheap.obj
 0002:00003640       ??_C@_0ED@GPCPBAGP@Invalid?5allocation?5size?3?5?$CFIu?5byt@ 00471640     LIBCMTD:dbgheap.obj
 0002:00003688       ??_C@_0FA@EFEIGJKG@Error?3?5memory?5allocation?3?5bad?5me@ 00471688     LIBCMTD:dbgheap.obj
 0002:000036d8       ??_C@_0EM@LGFLMAGJ@The?5Block?5at?50x?$CFp?5was?5allocated?5@ 004716d8     LIBCMTD:dbgheap.obj
 0002:00003728       ??_C@_1EE@GFOPCECE@?$AA_?$AAC?$AAr?$AAt?$AAI?$AAs?$AAV?$AAa?$AAl?$AAi?$AAd?$AAH?$AAe?$AAa?$AAp?$AAP?$AAo?$AAi?$AAn?$AAt?$AAe?$AAr?$AA?$CI?$AAp?$AAU?$AAs?$AAe?$AAr?$AAD?$AAa?$AAt?$AAa@ 00471728     LIBCMTD:dbgheap.obj
 0002:00003770       ??_C@_1IK@DCPKDGNH@?$AAp?$AAO?$AAl?$AAd?$AAB?$AAl?$AAo?$AAc?$AAk?$AA?9?$AA?$DO?$AAn?$AAL?$AAi?$AAn?$AAe?$AA?5?$AA?$DN?$AA?$DN?$AA?5?$AAI?$AAG?$AAN?$AAO?$AAR?$AAE?$AA_?$AAL?$AAI?$AAN?$AAE?$AA?5@ 00471770     LIBCMTD:dbgheap.obj
 0002:000037fc       ??_C@_0DA@HFBKENN@Error?3?5possible?5heap?5corruption?5@ 004717fc     LIBCMTD:dbgheap.obj
 0002:00003830       ??_C@_1GE@PCKLOLAO@?$AAf?$AAR?$AAe?$AAa?$AAl?$AAl?$AAo?$AAc?$AA?5?$AA?$HM?$AA?$HM?$AA?5?$AA?$CI?$AA?$CB?$AAf?$AAR?$AAe?$AAa?$AAl?$AAl?$AAo?$AAc?$AA?5?$AA?$CG?$AA?$CG?$AA?5?$AAp?$AAN?$AAe?$AAw?$AAB?$AAl@ 00471830     LIBCMTD:dbgheap.obj
 0002:00003894       ??_C@_1DC@GEFKNOOL@?$AA_?$AAp?$AAL?$AAa?$AAs?$AAt?$AAB?$AAl?$AAo?$AAc?$AAk?$AA?5?$AA?$DN?$AA?$DN?$AA?5?$AAp?$AAO?$AAl?$AAd?$AAB?$AAl?$AAo?$AAc?$AAk?$AA?$AA@ 00471894     LIBCMTD:dbgheap.obj
 0002:000038c8       ??_C@_1DE@KOOKLFBB@?$AA_?$AAp?$AAF?$AAi?$AAr?$AAs?$AAt?$AAB?$AAl?$AAo?$AAc?$AAk?$AA?5?$AA?$DN?$AA?$DN?$AA?5?$AAp?$AAO?$AAl?$AAd?$AAB?$AAl?$AAo?$AAc?$AAk?$AA?$AA@ 004718c8     LIBCMTD:dbgheap.obj
 0002:000038fc       ??_C@_1CE@CJACEFBA@?$AAp?$AAU?$AAs?$AAe?$AAr?$AAD?$AAa?$AAt?$AAa?$AA?5?$AA?$CB?$AA?$DN?$AA?5?$AAN?$AAU?$AAL?$AAL?$AA?$AA@ 004718fc     LIBCMTD:dbgheap.obj
 0002:00003920       ??_C@_1BI@HAPNGHDP@?$AA_?$AAe?$AAx?$AAp?$AAa?$AAn?$AAd?$AA_?$AAd?$AAb?$AAg?$AA?$AA@ 00471920     LIBCMTD:dbgheap.obj
 0002:00003938       ??_C@_0EJ@HEIBCIMJ@The?5Block?5at?50x?$CFp?5was?5allocated?5@ 00471938     LIBCMTD:dbgheap.obj
 0002:00003984       ??_C@_0BL@KEIPLFAC@Client?5hook?5free?5failure?4?6?$AA@ 00471984     LIBCMTD:dbgheap.obj
 0002:000039a0       ??_C@_1EO@LHDAJOCM@?$AA_?$AAB?$AAL?$AAO?$AAC?$AAK?$AA_?$AAT?$AAY?$AAP?$AAE?$AA_?$AAI?$AAS?$AA_?$AAV?$AAA?$AAL?$AAI?$AAD?$AA?$CI?$AAp?$AAH?$AAe?$AAa?$AAd?$AA?9?$AA?$DO?$AAn?$AAB?$AAl?$AAo@ 004719a0     LIBCMTD:dbgheap.obj
 0002:000039f0       ??_C@_0KI@JGFOHMEB@HEAP?5CORRUPTION?5DETECTED?3?5before@ 004719f0     LIBCMTD:dbgheap.obj
 0002:00003a98       ??_C@_0IK@PJCGLBOB@HEAP?5CORRUPTION?5DETECTED?3?5before@ 00471a98     LIBCMTD:dbgheap.obj
 0002:00003b28       ??_C@_0KE@MBMNHHHN@HEAP?5CORRUPTION?5DETECTED?3?5after?5@ 00471b28     LIBCMTD:dbgheap.obj
 0002:00003bd0       ??_C@_0IG@LEMBDCJK@HEAP?5CORRUPTION?5DETECTED?3?5after?5@ 00471bd0     LIBCMTD:dbgheap.obj
 0002:00003c58       ??_C@_1HK@HPCBMDFG@?$AAp?$AAH?$AAe?$AAa?$AAd?$AA?9?$AA?$DO?$AAn?$AAL?$AAi?$AAn?$AAe?$AA?5?$AA?$DN?$AA?$DN?$AA?5?$AAI?$AAG?$AAN?$AAO?$AAR?$AAE?$AA_?$AAL?$AAI?$AAN?$AAE?$AA?5?$AA?$CG?$AA?$CG?$AA?5?$AAp@ 00471c58     LIBCMTD:dbgheap.obj
 0002:00003cd4       ??_C@_1DM@ODCJIDCP@?$AAp?$AAH?$AAe?$AAa?$AAd?$AA?9?$AA?$DO?$AAn?$AAB?$AAl?$AAo?$AAc?$AAk?$AAU?$AAs?$AAe?$AA?5?$AA?$DN?$AA?$DN?$AA?5?$AAn?$AAB?$AAl?$AAo?$AAc?$AAk?$AAU?$AAs?$AAe?$AA?$AA@ 00471cd4     LIBCMTD:dbgheap.obj
 0002:00003d10       ??_C@_1CK@DMAGEMBG@?$AA_?$AAp?$AAL?$AAa?$AAs?$AAt?$AAB?$AAl?$AAo?$AAc?$AAk?$AA?5?$AA?$DN?$AA?$DN?$AA?5?$AAp?$AAH?$AAe?$AAa?$AAd?$AA?$AA@ 00471d10     LIBCMTD:dbgheap.obj
 0002:00003d3c       ??_C@_1CM@MMAADDMD@?$AA_?$AAp?$AAF?$AAi?$AAr?$AAs?$AAt?$AAB?$AAl?$AAo?$AAc?$AAk?$AA?5?$AA?$DN?$AA?$DN?$AA?5?$AAp?$AAH?$AAe?$AAa?$AAd?$AA?$AA@ 00471d3c     LIBCMTD:dbgheap.obj
 0002:00003d68       ??_C@_1BG@MBKOGDLD@?$AA_?$AAm?$AAs?$AAi?$AAz?$AAe?$AA_?$AAd?$AAb?$AAg?$AA?$AA@ 00471d68     LIBCMTD:dbgheap.obj
 0002:00003d80       ??_C@_0CE@MKKHMBMK@_heapchk?5fails?5with?5_HEAPBADBEGI@ 00471d80     LIBCMTD:dbgheap.obj
 0002:00003da4       ??_C@_0CD@CPKEAPBD@_heapchk?5fails?5with?5_HEAPBADNODE@ 00471da4     LIBCMTD:dbgheap.obj
 0002:00003dc8       ??_C@_0CC@MJGLGBDG@_heapchk?5fails?5with?5_HEAPBADEND?4@ 00471dc8     LIBCMTD:dbgheap.obj
 0002:00003dec       ??_C@_0CC@MFFCHFHO@_heapchk?5fails?5with?5_HEAPBADPTR?4@ 00471dec     LIBCMTD:dbgheap.obj
 0002:00003e10       ??_C@_0CL@HNNNMKMJ@_heapchk?5fails?5with?5unknown?5retu@ 00471e10     LIBCMTD:dbgheap.obj
 0002:00003e3c       ??_C@_07OHKEFPKJ@DAMAGED?$AA@ 00471e3c     LIBCMTD:dbgheap.obj
 0002:00003e48       ??_C@_0KA@IHNJJKPL@HEAP?5CORRUPTION?5DETECTED?3?5on?5top@ 00471e48     LIBCMTD:dbgheap.obj
 0002:00003ee8       ??_C@_0IC@BBJIOOJH@HEAP?5CORRUPTION?5DETECTED?3?5on?5top@ 00471ee8     LIBCMTD:dbgheap.obj
 0002:00003f70       ??_C@_0EG@DGJMPDBH@?$CFhs?5located?5at?50x?$CFp?5is?5?$CFIu?5bytes@ 00471f70     LIBCMTD:dbgheap.obj
 0002:00003fb8       ??_C@_0CI@JMLBEDHJ@?$CFhs?5located?5at?50x?$CFp?5is?5?$CFIu?5bytes@ 00471fb8     LIBCMTD:dbgheap.obj
 0002:00003fe0       ??_C@_1BHO@NNANJNF@?$AA?$CI?$AAf?$AAN?$AAe?$AAw?$AAB?$AAi?$AAt?$AAs?$AA?$DN?$AA?$DN?$AA_?$AAC?$AAR?$AAT?$AAD?$AAB?$AAG?$AA_?$AAR?$AAE?$AAP?$AAO?$AAR?$AAT?$AA_?$AAF?$AAL?$AAA?$AAG?$AA?$CJ?$AA?5@ 00471fe0     LIBCMTD:dbgheap.obj
 0002:00004160       ??_C@_1BO@GJFDNMNF@?$AA_?$AAC?$AAr?$AAt?$AAS?$AAe?$AAt?$AAD?$AAb?$AAg?$AAF?$AAl?$AAa?$AAg?$AA?$AA@ 00472160     LIBCMTD:dbgheap.obj
 0002:00004180       ??_C@_1BI@CJGCEEDL@?$AAp?$AAf?$AAn?$AA?5?$AA?$CB?$AA?$DN?$AA?5?$AAN?$AAU?$AAL?$AAL?$AA?$AA@ 00472180     LIBCMTD:dbgheap.obj
 0002:00004198       ??_C@_1DE@GJCKCKEC@?$AA_?$AAC?$AAr?$AAt?$AAD?$AAo?$AAF?$AAo?$AAr?$AAA?$AAl?$AAl?$AAC?$AAl?$AAi?$AAe?$AAn?$AAt?$AAO?$AAb?$AAj?$AAe?$AAc?$AAt?$AAs?$AA?$AA@ 00472198     LIBCMTD:dbgheap.obj
 0002:000041cc       ??_C@_1BM@MIMANDHC@?$AAs?$AAt?$AAa?$AAt?$AAe?$AA?5?$AA?$CB?$AA?$DN?$AA?5?$AAN?$AAU?$AAL?$AAL?$AA?$AA@ 004721cc     LIBCMTD:dbgheap.obj
 0002:000041e8       ??_C@_1CE@NJJKELF@?$AA_?$AAC?$AAr?$AAt?$AAM?$AAe?$AAm?$AAC?$AAh?$AAe?$AAc?$AAk?$AAp?$AAo?$AAi?$AAn?$AAt?$AA?$AA@ 004721e8     LIBCMTD:dbgheap.obj
 0002:0000420c       ??_C@_0DP@LEFMFBOD@Bad?5memory?5block?5found?5at?50x?$CFp?4?6@ 0047220c     LIBCMTD:dbgheap.obj
 0002:0000424c       ??_C@_0CB@EAAIGELO@Bad?5memory?5block?5found?5at?50x?$CFp?4?6@ 0047224c     LIBCMTD:dbgheap.obj
 0002:00004270       ??_C@_1CE@PDIENACM@?$AA_?$AAC?$AAr?$AAt?$AAM?$AAe?$AAm?$AAD?$AAi?$AAf?$AAf?$AAe?$AAr?$AAe?$AAn?$AAc?$AAe?$AA?$AA@ 00472270     LIBCMTD:dbgheap.obj
 0002:00004294       ??_C@_1CC@DHPFEMMN@?$AAo?$AAl?$AAd?$AAS?$AAt?$AAa?$AAt?$AAe?$AA?5?$AA?$CB?$AA?$DN?$AA?5?$AAN?$AAU?$AAL?$AAL?$AA?$AA@ 00472294     LIBCMTD:dbgheap.obj
 0002:000042b8       ??_C@_1CC@DFPEDFBP@?$AAn?$AAe?$AAw?$AAS?$AAt?$AAa?$AAt?$AAe?$AA?5?$AA?$CB?$AA?$DN?$AA?5?$AAN?$AAU?$AAL?$AAL?$AA?$AA@ 004722b8     LIBCMTD:dbgheap.obj
 0002:000042dc       ??_C@_05MKKEDADM@?$CF?42X?5?$AA@ 004722dc     LIBCMTD:dbgheap.obj
 0002:000042e4       ??_C@_1CG@LPFIACGM@?$AA_?$AAp?$AAr?$AAi?$AAn?$AAt?$AAM?$AAe?$AAm?$AAB?$AAl?$AAo?$AAc?$AAk?$AAD?$AAa?$AAt?$AAa?$AA?$AA@ 004722e4     LIBCMTD:dbgheap.obj
 0002:0000430c       ??_C@_1BI@KALLJECN@?$AA?$CI?$AA?$CK?$AA_?$AAe?$AAr?$AAr?$AAn?$AAo?$AA?$CI?$AA?$CJ?$AA?$CJ?$AA?$AA@ 0047230c     LIBCMTD:dbgheap.obj
 0002:00004324       ??_C@_0BA@HJBKCELP@?5Data?3?5?$DM?$CFs?$DO?5?$CFs?6?$AA@ 00472324     LIBCMTD:dbgheap.obj
 0002:00004334       ??_C@_0BE@KCIPKCIA@Dumping?5objects?5?9?$DO?6?$AA@ 00472334     LIBCMTD:dbgheap.obj
 0002:00004348       ??_C@_0BE@OIEFNFL@?$CDFile?5Error?$CD?$CI?$CFd?$CJ?5?3?5?$AA@ 00472348     LIBCMTD:dbgheap.obj
 0002:0000435c       ??_C@_0L@JMEFFCCJ@?$CFhs?$CI?$CFd?$CJ?5?3?5?$AA@ 0047235c     LIBCMTD:dbgheap.obj
 0002:00004368       ??_C@_06PKLGBFGM@?$HL?$CFld?$HN?5?$AA@ 00472368     LIBCMTD:dbgheap.obj
 0002:00004370       ??_C@_0DD@GHNAAKBB@client?5block?5at?50x?$CFp?0?5subtype?5?$CFx@ 00472370     LIBCMTD:dbgheap.obj
 0002:000043a4       ??_C@_0CH@FAGDDGPN@normal?5block?5at?50x?$CFp?0?5?$CFIu?5bytes?5@ 004723a4     LIBCMTD:dbgheap.obj
 0002:000043cc       ??_C@_0DA@MDLBNIBM@crt?5block?5at?50x?$CFp?0?5subtype?5?$CFx?0?5?$CF@ 004723cc     LIBCMTD:dbgheap.obj
 0002:000043fc       ??_C@_0BH@GFGKJDCO@Object?5dump?5complete?4?6?$AA@ 004723fc     LIBCMTD:dbgheap.obj
 0002:00004414       ??_C@_0BI@JBFPOEJA@Detected?5memory?5leaks?$CB?6?$AA@ 00472414     LIBCMTD:dbgheap.obj
 0002:0000442c       ??_C@_1CM@MPNIBKGK@?$AA_?$AAC?$AAr?$AAt?$AAM?$AAe?$AAm?$AAD?$AAu?$AAm?$AAp?$AAS?$AAt?$AAa?$AAt?$AAi?$AAs?$AAt?$AAi?$AAc?$AAs?$AA?$AA@ 0047242c     LIBCMTD:dbgheap.obj
 0002:00004458       ??_C@_0BO@DACNIABB@?$CFId?5bytes?5in?5?$CFId?5?$CFhs?5Blocks?4?6?$AA@ 00472458     LIBCMTD:dbgheap.obj
 0002:00004478       ??_C@_0CB@BLHDAFNE@Largest?5number?5used?3?5?$CFId?5bytes?4?6@ 00472478     LIBCMTD:dbgheap.obj
 0002:0000449c       ??_C@_0BP@DEDHGGGI@Total?5allocations?3?5?$CFId?5bytes?4?6?$AA@ 0047249c     LIBCMTD:dbgheap.obj
 0002:000044bc       ??_C@_1CE@NPMGPNNP@?$AAI?$AAS?$AA_?$AA2?$AA_?$AAP?$AAO?$AAW?$AA_?$AAN?$AA?$CI?$AAa?$AAl?$AAi?$AAg?$AAn?$AA?$CJ?$AA?$AA@ 004724bc     LIBCMTD:dbgheap.obj
 0002:000044e0       ??_C@_1DG@DONCJBBJ@?$AA_?$AAa?$AAl?$AAi?$AAg?$AAn?$AAe?$AAd?$AA_?$AAo?$AAf?$AAf?$AAs?$AAe?$AAt?$AA_?$AAm?$AAa?$AAl?$AAl?$AAo?$AAc?$AA_?$AAd?$AAb?$AAg?$AA?$AA@ 004724e0     LIBCMTD:dbgheap.obj
 0002:00004518       ??_C@_1DK@LFLKFPDA@?$AAo?$AAf?$AAf?$AAs?$AAe?$AAt?$AA?5?$AA?$DN?$AA?$DN?$AA?5?$AA0?$AA?5?$AA?$HM?$AA?$HM?$AA?5?$AAo?$AAf?$AAf?$AAs?$AAe?$AAt?$AA?5?$AA?$DM?$AA?5?$AAs?$AAi?$AAz?$AAe?$AA?$AA@ 00472518     LIBCMTD:dbgheap.obj
 0002:00004558       ??_C@_0EI@NDNJMAJK@The?5block?5at?50x?$CFp?5was?5not?5alloca@ 00472558     LIBCMTD:dbgheap.obj
 0002:000045a0       ??_C@_0DL@PGHMMKNE@Damage?5before?50x?$CFp?5which?5was?5all@ 004725a0     LIBCMTD:dbgheap.obj
 0002:000045dc       ??_C@_1DI@NINIKFFK@?$AA_?$AAa?$AAl?$AAi?$AAg?$AAn?$AAe?$AAd?$AA_?$AAo?$AAf?$AAf?$AAs?$AAe?$AAt?$AA_?$AAr?$AAe?$AAa?$AAl?$AAl?$AAo?$AAc?$AA_?$AAd?$AAb?$AAg?$AA?$AA@ 004725dc     LIBCMTD:dbgheap.obj
 0002:00004618       ??_C@_0EF@PGELACII@The?5block?5at?50x?$CFp?5was?5not?5alloca@ 00472618     LIBCMTD:dbgheap.obj
 0002:00004660       ??_C@_1CC@MOBIKHH@?$AAm?$AAe?$AAm?$AAb?$AAl?$AAo?$AAc?$AAk?$AA?5?$AA?$CB?$AA?$DN?$AA?5?$AAN?$AAU?$AAL?$AAL?$AA?$AA@ 00472660     LIBCMTD:dbgheap.obj
 0002:00004684       ??_C@_1CG@CEGMHIMN@?$AA_?$AAa?$AAl?$AAi?$AAg?$AAn?$AAe?$AAd?$AA_?$AAm?$AAs?$AAi?$AAz?$AAe?$AA_?$AAd?$AAb?$AAg?$AA?$AA@ 00472684     LIBCMTD:dbgheap.obj
 0002:000046b8       ??_C@_1BA@GLMCNLEM@?$AAW?$AAa?$AAr?$AAn?$AAi?$AAn?$AAg?$AA?$AA@ 004726b8     LIBCMTD:dbgrptw.obj
 0002:000046c8       ??_C@_1M@ILHOPKA@?$AAE?$AAr?$AAr?$AAo?$AAr?$AA?$AA@ 004726c8     LIBCMTD:dbgrptw.obj
 0002:000046d4       ??_C@_1CC@CGHMNGDG@?$AAA?$AAs?$AAs?$AAe?$AAr?$AAt?$AAi?$AAo?$AAn?$AA?5?$AAF?$AAa?$AAi?$AAl?$AAe?$AAd?$AA?$AA@ 004726d4     LIBCMTD:dbgrptw.obj
 0002:000046f8       ??_C@_17LGKOMLJ@?$AA?4?$AA?4?$AA?4?$AA?$AA@ 004726f8     LIBCMTD:dbgrptw.obj
 0002:00004700       ??_C@_1HI@OFEHGPPC@?$AAm?$AAo?$AAd?$AAe?$AA?5?$AA?$DN?$AA?$DN?$AA?5?$AA_?$AAC?$AAR?$AAT?$AA_?$AAR?$AAP?$AAT?$AAH?$AAO?$AAO?$AAK?$AA_?$AAI?$AAN?$AAS?$AAT?$AAA?$AAL?$AAL?$AA?5?$AA?$HM?$AA?$HM?$AA?5@ 00472700     LIBCMTD:dbgrptw.obj
 0002:00004778       ??_C@_1EO@JACJHHCK@?$AAf?$AA?3?$AA?2?$AAd?$AAd?$AA?2?$AAv?$AAc?$AAt?$AAo?$AAo?$AAl?$AAs?$AA?2?$AAc?$AAr?$AAt?$AA?2?$AAc?$AAr?$AAt?$AAw?$AA3?$AA2?$AA?2?$AAm?$AAi?$AAs?$AAc?$AA?2?$AAd?$AAb@ 00472778     LIBCMTD:dbgrptw.obj
 0002:000047c8       ??_C@_1CI@IIHEAKEI@?$AA_?$AAC?$AAr?$AAt?$AAS?$AAe?$AAt?$AAR?$AAe?$AAp?$AAo?$AAr?$AAt?$AAH?$AAo?$AAo?$AAk?$AAW?$AA2?$AA?$AA@ 004727c8     LIBCMTD:dbgrptw.obj
 0002:000047f0       ??_C@_1CG@JBJEFOCM@?$AAp?$AAf?$AAn?$AAN?$AAe?$AAw?$AAH?$AAo?$AAo?$AAk?$AA?5?$AA?$CB?$AA?$DN?$AA?5?$AAN?$AAU?$AAL?$AAL?$AA?$AA@ 004727f0     LIBCMTD:dbgrptw.obj
 0002:00004818       ??_C@_1FI@PHIAFFHM@?$AA?$CI?$AA?$CC?$AAT?$AAh?$AAe?$AA?5?$AAh?$AAo?$AAo?$AAk?$AA?5?$AAf?$AAu?$AAn?$AAc?$AAt?$AAi?$AAo?$AAn?$AA?5?$AAi?$AAs?$AA?5?$AAn?$AAo?$AAt?$AA?5?$AAi?$AAn?$AA?5?$AAt?$AAh@ 00472818     LIBCMTD:dbgrptw.obj
 0002:00004870       ??_C@_0CH@BBGAHGHC@f?3?2dd?2vctools?2crt?2crtw32?2misc?2db@ 00472870     LIBCMTD:dbgrptw.obj
 0002:00004898       ??_C@_1CI@PGJIFDEK@?$AA_?$AA_?$AAc?$AAr?$AAt?$AAM?$AAe?$AAs?$AAs?$AAa?$AAg?$AAe?$AAW?$AAi?$AAn?$AAd?$AAo?$AAw?$AAW?$AA?$AA@ 00472898     LIBCMTD:dbgrptw.obj
 0002:000048c0       ??_C@_1GI@DEDNNLCI@?$AAw?$AAc?$AAs?$AAc?$AAp?$AAy?$AA_?$AAs?$AA?$CI?$AAs?$AAz?$AAE?$AAx?$AAe?$AAN?$AAa?$AAm?$AAe?$AA?0?$AA?5?$AA2?$AA6?$AA0?$AA?0?$AA?5?$AAL?$AA?$CC?$AA?$DM?$AAp?$AAr?$AAo?$AAg@ 004728c0     LIBCMTD:dbgrptw.obj
 0002:00004928       ??_C@_1CO@EAEJAADC@?$AA?$DM?$AAp?$AAr?$AAo?$AAg?$AAr?$AAa?$AAm?$AA?5?$AAn?$AAa?$AAm?$AAe?$AA?5?$AAu?$AAn?$AAk?$AAn?$AAo?$AAw?$AAn?$AA?$DO?$AA?$AA@ 00472928     LIBCMTD:dbgrptw.obj
 0002:00004958       ??_C@_1NO@LECLLHOL@?$AAm?$AAe?$AAm?$AAc?$AAp?$AAy?$AA_?$AAs?$AA?$CI?$AAs?$AAz?$AAS?$AAh?$AAo?$AAr?$AAt?$AAP?$AAr?$AAo?$AAg?$AAN?$AAa?$AAm?$AAe?$AA?0?$AA?5?$AAs?$AAi?$AAz?$AAe?$AAo?$AAf@ 00472958     LIBCMTD:dbgrptw.obj
 0002:00004a38       ??_C@_1OG@PMPPFHAF@?$AA?6?$AA?6?$AAF?$AAo?$AAr?$AA?5?$AAi?$AAn?$AAf?$AAo?$AAr?$AAm?$AAa?$AAt?$AAi?$AAo?$AAn?$AA?5?$AAo?$AAn?$AA?5?$AAh?$AAo?$AAw?$AA?5?$AAy?$AAo?$AAu?$AAr?$AA?5?$AAp?$AAr@ 00472a38     LIBCMTD:dbgrptw.obj
 0002:00004b20       ??_C@_11LOCGONAA@?$AA?$AA@ 00472b20     LIBCMTD:dbgrptw.obj
 0002:00004b24       ??_C@_1BK@PEDCIPMA@?$AAE?$AAx?$AAp?$AAr?$AAe?$AAs?$AAs?$AAi?$AAo?$AAn?$AA?3?$AA?5?$AA?$AA@ 00472b24     LIBCMTD:dbgrptw.obj
 0002:00004b40       ??_C@_15IABLJNFO@?$AA?6?$AA?6?$AA?$AA@ 00472b40     LIBCMTD:dbgrptw.obj
 0002:00004b48       ??_C@_1BA@GLLGCPCK@?$AA?6?$AAL?$AAi?$AAn?$AAe?$AA?3?$AA?5?$AA?$AA@ 00472b48     LIBCMTD:dbgrptw.obj
 0002:00004b58       ??_C@_1BA@LNHECFIM@?$AA?6?$AAF?$AAi?$AAl?$AAe?$AA?3?$AA?5?$AA?$AA@ 00472b58     LIBCMTD:dbgrptw.obj
 0002:00004b68       ??_C@_1BE@CGCJKGHI@?$AA?6?$AAM?$AAo?$AAd?$AAu?$AAl?$AAe?$AA?3?$AA?5?$AA?$AA@ 00472b68     LIBCMTD:dbgrptw.obj
 0002:00004b80       ??_C@_1KM@HNMIBKJH@?$AAD?$AAe?$AAb?$AAu?$AAg?$AA?5?$AA?$CF?$AAs?$AA?$CB?$AA?6?$AA?6?$AAP?$AAr?$AAo?$AAg?$AAr?$AAa?$AAm?$AA?3?$AA?5?$AA?$CF?$AAs?$AA?$CF?$AAs?$AA?$CF?$AAs?$AA?$CF?$AAs?$AA?$CF?$AAs?$AA?$CF?$AAs@ 00472b80     LIBCMTD:dbgrptw.obj
 0002:00004c30       ??_C@_1JI@EACPGHID@?$AAw?$AAc?$AAs?$AAc?$AAp?$AAy?$AA_?$AAs?$AA?$CI?$AAs?$AAz?$AAO?$AAu?$AAt?$AAM?$AAe?$AAs?$AAs?$AAa?$AAg?$AAe?$AA?0?$AA?5?$AA4?$AA0?$AA9?$AA6?$AA?0?$AA?5?$AAL?$AA?$CC?$AA_@ 00472c30     LIBCMTD:dbgrptw.obj
 0002:00004cc8       ??_C@_1FG@BBOLDHGF@?$AA_?$AAC?$AAr?$AAt?$AAD?$AAb?$AAg?$AAR?$AAe?$AAp?$AAo?$AAr?$AAt?$AA?3?$AA?5?$AAS?$AAt?$AAr?$AAi?$AAn?$AAg?$AA?5?$AAt?$AAo?$AAo?$AA?5?$AAl?$AAo?$AAn?$AAg?$AA?5?$AAo@ 00472cc8     LIBCMTD:dbgrptw.obj
 0002:00004d20       ??_C@_1EK@MBDPDCGA@?$AAM?$AAi?$AAc?$AAr?$AAo?$AAs?$AAo?$AAf?$AAt?$AA?5?$AAV?$AAi?$AAs?$AAu?$AAa?$AAl?$AA?5?$AAC?$AA?$CL?$AA?$CL?$AA?5?$AAR?$AAu?$AAn?$AAt?$AAi?$AAm?$AAe?$AA?5?$AAL?$AAi?$AAb@ 00472d20     LIBCMTD:dbgrptw.obj
 0002:00004d6c       ??_C@_0CI@CCALCGFN@f?3?2dd?2vctools?2crt?2crtw32?2stdio?2s@ 00472d6c     LIBCMTD:stream.obj
 0002:00004db4       ??_C@_1CC@JBMDNKJP@?$AAf?$AAi?$AAl?$AAe?$AAn?$AAa?$AAm?$AAe?$AA?5?$AA?$CB?$AA?$DN?$AA?5?$AAN?$AAU?$AAL?$AAL?$AA?$AA@ 00472db4     LIBCMTD:_open.obj
 0002:00004dd8       ??_C@_1EO@FCBMLNIH@?$AAf?$AA?3?$AA?2?$AAd?$AAd?$AA?2?$AAv?$AAc?$AAt?$AAo?$AAo?$AAl?$AAs?$AA?2?$AAc?$AAr?$AAt?$AA?2?$AAc?$AAr?$AAt?$AAw?$AA3?$AA2?$AA?2?$AAs?$AAt?$AAd?$AAi?$AAo?$AA?2?$AA_@ 00472dd8     LIBCMTD:_open.obj
 0002:00004e28       ??_C@_1BK@HGLMNMEC@?$AAm?$AAo?$AAd?$AAe?$AA?5?$AA?$CB?$AA?$DN?$AA?5?$AAN?$AAU?$AAL?$AAL?$AA?$AA@ 00472e28     LIBCMTD:_open.obj
 0002:00004e44       ??_C@_1BI@MFCLPIBM@?$AAs?$AAt?$AAr?$AA?5?$AA?$CB?$AA?$DN?$AA?5?$AAN?$AAU?$AAL?$AAL?$AA?$AA@ 00472e44     LIBCMTD:_open.obj
 0002:00004e5c       ??_C@_1DK@PKMJBLLN@?$AA?$CI?$AA?$CC?$AAI?$AAn?$AAv?$AAa?$AAl?$AAi?$AAd?$AA?5?$AAf?$AAi?$AAl?$AAe?$AA?5?$AAo?$AAp?$AAe?$AAn?$AA?5?$AAm?$AAo?$AAd?$AAe?$AA?$CC?$AA?0?$AA0?$AA?$CJ?$AA?$AA@ 00472e5c     LIBCMTD:_open.obj
 0002:00004e98       ??_C@_1BE@DONHJJKE@?$AA_?$AAo?$AAp?$AAe?$AAn?$AAf?$AAi?$AAl?$AAe?$AA?$AA@ 00472e98     LIBCMTD:_open.obj
 0002:00004eac       ??_C@_1CI@KEDPFCAL@?$AA?$CI?$AA?$CK?$AAm?$AAo?$AAd?$AAe?$AA?5?$AA?$DN?$AA?$DN?$AA?5?$AA_?$AAT?$AA?$CI?$AA?8?$AA?2?$AA0?$AA?8?$AA?$CJ?$AA?$CJ?$AA?$AA@ 00472eac     LIBCMTD:_open.obj
 0002:00004ed8       ??_C@_1EM@IOHICOCC@?$AAf?$AA?3?$AA?2?$AAd?$AAd?$AA?2?$AAv?$AAc?$AAt?$AAo?$AAo?$AAl?$AAs?$AA?2?$AAc?$AAr?$AAt?$AA?2?$AAc?$AAr?$AAt?$AAw?$AA3?$AA2?$AA?2?$AAd?$AAo?$AAs?$AA?2?$AAd?$AAo?$AAs@ 00472ed8     LIBCMTD:dosmap.obj
 0002:00004f24       ??_C@_1BG@KCMPBBDK@?$AA_?$AAg?$AAe?$AAt?$AA_?$AAe?$AAr?$AAr?$AAn?$AAo?$AA?$AA@ 00472f24     LIBCMTD:dosmap.obj
 0002:00004f3c       ??_C@_1BM@INIPHHDD@?$AA_?$AAg?$AAe?$AAt?$AA_?$AAd?$AAo?$AAs?$AAe?$AAr?$AAr?$AAn?$AAo?$AA?$AA@ 00472f3c     LIBCMTD:dosmap.obj
 0002:00004f58       ??_C@_1FA@CKEACION@?$AAf?$AA?3?$AA?2?$AAd?$AAd?$AA?2?$AAv?$AAc?$AAt?$AAo?$AAo?$AAl?$AAs?$AA?2?$AAc?$AAr?$AAt?$AA?2?$AAc?$AAr?$AAt?$AAw?$AA3?$AA2?$AA?2?$AAs?$AAt?$AAd?$AAi?$AAo?$AA?2?$AAf@ 00472f58     LIBCMTD:fileno.obj
 0002:00004fa8       ??_C@_1BA@JGHIEKKM@?$AA_?$AAf?$AAi?$AAl?$AAe?$AAn?$AAo?$AA?$AA@ 00472fa8     LIBCMTD:fileno.obj
 0002:00004fb8       ??_C@_1FE@MJOOBDBG@?$AAf?$AA?3?$AA?2?$AAd?$AAd?$AA?2?$AAv?$AAc?$AAt?$AAo?$AAo?$AAl?$AAs?$AA?2?$AAc?$AAr?$AAt?$AA?2?$AAc?$AAr?$AAt?$AAw?$AA3?$AA2?$AA?2?$AAs?$AAt?$AAd?$AAi?$AAo?$AA?2?$AAv@ 00472fb8     LIBCMTD:vfprintf.obj
 0002:0000500c       ??_C@_1CA@OEHMHBJF@?$AAv?$AAf?$AAp?$AAr?$AAi?$AAn?$AAt?$AAf?$AA_?$AAh?$AAe?$AAl?$AAp?$AAe?$AAr?$AA?$AA@ 0047300c     LIBCMTD:vfprintf.obj
 0002:00005030       ??_C@_1FC@LKGACDMH@?$AAf?$AA?3?$AA?2?$AAd?$AAd?$AA?2?$AAv?$AAc?$AAt?$AAo?$AAo?$AAl?$AAs?$AA?2?$AAc?$AAr?$AAt?$AA?2?$AAc?$AAr?$AAt?$AAw?$AA3?$AA2?$AA?2?$AAs?$AAt?$AAd?$AAi?$AAo?$AA?2?$AA_@ 00473030     LIBCMTD:_sftbuf.obj
 0002:00005084       ??_C@_0CJ@KDJGPIJL@f?3?2dd?2vctools?2crt?2crtw32?2stdio?2_@ 00473084     LIBCMTD:_sftbuf.obj
 0002:000050b0       ??_C@_1CO@KCKAACMI@?$AAf?$AAl?$AAa?$AAg?$AA?5?$AA?$DN?$AA?$DN?$AA?5?$AA0?$AA?5?$AA?$HM?$AA?$HM?$AA?5?$AAf?$AAl?$AAa?$AAg?$AA?5?$AA?$DN?$AA?$DN?$AA?5?$AA1?$AA?$AA@ 004730b0     LIBCMTD:_sftbuf.obj
 0002:000050e0       ??_C@_06OJHGLDPL@?$CInull?$CJ?$AA@ 004730e0     LIBCMTD:output.obj
 0002:000050e8       ??_C@_1O@CEDCILHN@?$AA?$CI?$AAn?$AAu?$AAl?$AAl?$AA?$CJ?$AA?$AA@ 004730e8     LIBCMTD:output.obj
 0002:000050f8       ___lookuptable             004730f8     LIBCMTD:output.obj
 0002:00005158       ??_C@_1FA@KMIJDCIC@?$AAf?$AA?3?$AA?2?$AAd?$AAd?$AA?2?$AAv?$AAc?$AAt?$AAo?$AAo?$AAl?$AAs?$AA?2?$AAc?$AAr?$AAt?$AA?2?$AAc?$AAr?$AAt?$AAw?$AA3?$AA2?$AA?2?$AAs?$AAt?$AAd?$AAi?$AAo?$AA?2?$AAo@ 00473158     LIBCMTD:output.obj
 0002:000051a8       ??_C@_1BE@IONLIDNC@?$AA_?$AAo?$AAu?$AAt?$AAp?$AAu?$AAt?$AA_?$AAl?$AA?$AA@ 004731a8     LIBCMTD:output.obj
 0002:000051bc       ??_C@_1CC@IFFHEMNF@?$AA?$CI?$AAc?$AAh?$AA?5?$AA?$CB?$AA?$DN?$AA?5?$AA_?$AAT?$AA?$CI?$AA?8?$AA?2?$AA0?$AA?8?$AA?$CJ?$AA?$CJ?$AA?$AA@ 004731bc     LIBCMTD:output.obj
 0002:000051e0       ??_C@_1EK@PNGFDECN@?$AA?$CI?$AA?$CC?$AA?8?$AAn?$AA?8?$AA?5?$AAf?$AAo?$AAr?$AAm?$AAa?$AAt?$AA?5?$AAs?$AAp?$AAe?$AAc?$AAi?$AAf?$AAi?$AAe?$AAr?$AA?5?$AAd?$AAi?$AAs?$AAa?$AAb?$AAl?$AAe?$AAd?$AA?$CC@ 004731e0     LIBCMTD:output.obj
 0002:0000522c       ??_C@_0CI@CMOPBIOD@f?3?2dd?2vctools?2crt?2crtw32?2stdio?2o@ 0047322c     LIBCMTD:output.obj
 0002:00005254       ??_C@_0CI@BIOGDJKL@f?3?2dd?2vctools?2crt?2crtw32?2lowio?2i@ 00473254     LIBCMTD:ioinit.obj
 0002:00005280       ??_C@_1FC@LLDAFLML@?$AAf?$AA?3?$AA?2?$AAd?$AAd?$AA?2?$AAv?$AAc?$AAt?$AAo?$AAo?$AAl?$AAs?$AA?2?$AAc?$AAr?$AAt?$AA?2?$AAc?$AAr?$AAt?$AAw?$AA3?$AA2?$AA?2?$AAs?$AAt?$AAd?$AAi?$AAo?$AA?2?$AAv@ 00473280     LIBCMTD:vprintf.obj
 0002:000052d4       ??_C@_1BO@JGFPDJCP@?$AAv?$AAp?$AAr?$AAi?$AAn?$AAt?$AAf?$AA_?$AAh?$AAe?$AAl?$AAp?$AAe?$AAr?$AA?$AA@ 004732d4     LIBCMTD:vprintf.obj
 0002:000052f4       ??_C@_1BK@MGMFAEKH@?$AAk?$AAe?$AAr?$AAn?$AAe?$AAl?$AA3?$AA2?$AA?4?$AAd?$AAl?$AAl?$AA?$AA@ 004732f4     LIBCMTD:winapisupp.obj
 0002:00005310       ??_C@_08KNHFBNJ@FlsAlloc?$AA@ 00473310     LIBCMTD:winapisupp.obj
 0002:0000531c       ??_C@_07PEJMOBNF@FlsFree?$AA@ 0047331c     LIBCMTD:winapisupp.obj
 0002:00005324       ??_C@_0M@GDNOONDI@FlsGetValue?$AA@ 00473324     LIBCMTD:winapisupp.obj
 0002:00005330       ??_C@_0M@JCPCPOEF@FlsSetValue?$AA@ 00473330     LIBCMTD:winapisupp.obj
 0002:0000533c       ??_C@_0BM@HCFOFFN@InitializeCriticalSectionEx?$AA@ 0047333c     LIBCMTD:winapisupp.obj
 0002:00005358       ??_C@_0P@DLHPPCNH@CreateEventExW?$AA@ 00473358     LIBCMTD:winapisupp.obj
 0002:00005368       ??_C@_0BD@KIEEOEEH@CreateSemaphoreExW?$AA@ 00473368     LIBCMTD:winapisupp.obj
 0002:0000537c       ??_C@_0BI@BKLFFAPO@SetThreadStackGuarantee?$AA@ 0047337c     LIBCMTD:winapisupp.obj
 0002:00005394       ??_C@_0BG@OGFAJCKC@CreateThreadpoolTimer?$AA@ 00473394     LIBCMTD:winapisupp.obj
 0002:000053ac       ??_C@_0BD@LPLEMMDI@SetThreadpoolTimer?$AA@ 004733ac     LIBCMTD:winapisupp.obj
 0002:000053c0       ??_C@_0CA@FMNJENH@WaitForThreadpoolTimerCallbacks?$AA@ 004733c0     LIBCMTD:winapisupp.obj
 0002:000053e0       ??_C@_0BF@DCFCCNOC@CloseThreadpoolTimer?$AA@ 004733e0     LIBCMTD:winapisupp.obj
 0002:000053f8       ??_C@_0BF@FLABGKKM@CreateThreadpoolWait?$AA@ 004733f8     LIBCMTD:winapisupp.obj
 0002:00005410       ??_C@_0BC@MGCOHNA@SetThreadpoolWait?$AA@ 00473410     LIBCMTD:winapisupp.obj
 0002:00005424       ??_C@_0BE@OCIOMIMP@CloseThreadpoolWait?$AA@ 00473424     LIBCMTD:winapisupp.obj
 0002:00005438       ??_C@_0BJ@LKGHFHBO@FlushProcessWriteBuffers?$AA@ 00473438     LIBCMTD:winapisupp.obj
 0002:00005454       ??_C@_0BP@KALKKPMO@FreeLibraryWhenCallbackReturns?$AA@ 00473454     LIBCMTD:winapisupp.obj
 0002:00005474       ??_C@_0BK@DFNBACLA@GetCurrentProcessorNumber?$AA@ 00473474     LIBCMTD:winapisupp.obj
 0002:00005490       ??_C@_0BP@KHGALBC@GetLogicalProcessorInformation?$AA@ 00473490     LIBCMTD:winapisupp.obj
 0002:000054b0       ??_C@_0BE@FKKLLFLM@CreateSymbolicLinkW?$AA@ 004734b0     LIBCMTD:winapisupp.obj
 0002:000054c4       ??_C@_0BJ@OHNKDLIJ@SetDefaultDllDirectories?$AA@ 004734c4     LIBCMTD:winapisupp.obj
 0002:000054e0       ??_C@_0BE@LJANKFHF@EnumSystemLocalesEx?$AA@ 004734e0     LIBCMTD:winapisupp.obj
 0002:000054f4       ??_C@_0BA@IHGNDAEB@CompareStringEx?$AA@ 004734f4     LIBCMTD:winapisupp.obj
 0002:00005504       ??_C@_0BA@EPCJIIPD@GetDateFormatEx?$AA@ 00473504     LIBCMTD:winapisupp.obj
 0002:00005514       ??_C@_0BA@ONOKGCMP@GetLocaleInfoEx?$AA@ 00473514     LIBCMTD:winapisupp.obj
 0002:00005524       ??_C@_0BA@CIJJKCJJ@GetTimeFormatEx?$AA@ 00473524     LIBCMTD:winapisupp.obj
 0002:00005534       ??_C@_0BJ@PBCCBIPI@GetUserDefaultLocaleName?$AA@ 00473534     LIBCMTD:winapisupp.obj
 0002:00005550       ??_C@_0BC@CELBKLLA@IsValidLocaleName?$AA@ 00473550     LIBCMTD:winapisupp.obj
 0002:00005564       ??_C@_0O@KKBNKAPF@LCMapStringEx?$AA@ 00473564     LIBCMTD:winapisupp.obj
 0002:00005574       ??_C@_0BE@JOGNEJCI@GetCurrentPackageId?$AA@ 00473574     LIBCMTD:winapisupp.obj
 0002:00005588       ??_C@_0P@CDHHOHKP@GetTickCount64?$AA@ 00473588     LIBCMTD:winapisupp.obj
 0002:00005598       ??_C@_0BO@KPCLFDJJ@GetFileInformationByHandleExW?$AA@ 00473598     LIBCMTD:winapisupp.obj
 0002:000055b8       ??_C@_0BM@MHIDLABK@SetFileInformationByHandleW?$AA@ 004735b8     LIBCMTD:winapisupp.obj
 0002:00005690       ??_C@_1FK@PGACCAFB@?$AAR?$AA6?$AA0?$AA0?$AA2?$AA?$AN?$AA?6?$AA?9?$AA?5?$AAf?$AAl?$AAo?$AAa?$AAt?$AAi?$AAn?$AAg?$AA?5?$AAp?$AAo?$AAi?$AAn?$AAt?$AA?5?$AAs?$AAu?$AAp?$AAp?$AAo?$AAr?$AAt?$AA?5@ 00473690     LIBCMTD:crt0msg.obj
 0002:000056f0       ??_C@_1FE@LLNEDJMD@?$AAR?$AA6?$AA0?$AA0?$AA8?$AA?$AN?$AA?6?$AA?9?$AA?5?$AAn?$AAo?$AAt?$AA?5?$AAe?$AAn?$AAo?$AAu?$AAg?$AAh?$AA?5?$AAs?$AAp?$AAa?$AAc?$AAe?$AA?5?$AAf?$AAo?$AAr?$AA?5?$AAa?$AAr@ 004736f0     LIBCMTD:crt0msg.obj
 0002:00005748       ??_C@_1FI@HONFMGBI@?$AAR?$AA6?$AA0?$AA0?$AA9?$AA?$AN?$AA?6?$AA?9?$AA?5?$AAn?$AAo?$AAt?$AA?5?$AAe?$AAn?$AAo?$AAu?$AAg?$AAh?$AA?5?$AAs?$AAp?$AAa?$AAc?$AAe?$AA?5?$AAf?$AAo?$AAr?$AA?5?$AAe?$AAn@ 00473748     LIBCMTD:crt0msg.obj
 0002:000057a0       ??_C@_1EG@BEHAGFJD@?$AAR?$AA6?$AA0?$AA1?$AA0?$AA?$AN?$AA?6?$AA?9?$AA?5?$AAa?$AAb?$AAo?$AAr?$AAt?$AA?$CI?$AA?$CJ?$AA?5?$AAh?$AAa?$AAs?$AA?5?$AAb?$AAe?$AAe?$AAn?$AA?5?$AAc?$AAa?$AAl?$AAl?$AAe?$AAd@ 004737a0     LIBCMTD:crt0msg.obj
 0002:000057e8       ??_C@_1FI@LOGNIKDM@?$AAR?$AA6?$AA0?$AA1?$AA6?$AA?$AN?$AA?6?$AA?9?$AA?5?$AAn?$AAo?$AAt?$AA?5?$AAe?$AAn?$AAo?$AAu?$AAg?$AAh?$AA?5?$AAs?$AAp?$AAa?$AAc?$AAe?$AA?5?$AAf?$AAo?$AAr?$AA?5?$AAt?$AAh@ 004737e8     LIBCMTD:crt0msg.obj
 0002:00005840       ??_C@_1FK@BEOGODMC@?$AAR?$AA6?$AA0?$AA1?$AA7?$AA?$AN?$AA?6?$AA?9?$AA?5?$AAu?$AAn?$AAe?$AAx?$AAp?$AAe?$AAc?$AAt?$AAe?$AAd?$AA?5?$AAm?$AAu?$AAl?$AAt?$AAi?$AAt?$AAh?$AAr?$AAe?$AAa?$AAd?$AA?5@ 00473840     LIBCMTD:crt0msg.obj
 0002:000058a0       ??_C@_1EC@JIBHAOPH@?$AAR?$AA6?$AA0?$AA1?$AA8?$AA?$AN?$AA?6?$AA?9?$AA?5?$AAu?$AAn?$AAe?$AAx?$AAp?$AAe?$AAc?$AAt?$AAe?$AAd?$AA?5?$AAh?$AAe?$AAa?$AAp?$AA?5?$AAe?$AAr?$AAr?$AAo?$AAr?$AA?$AN?$AA?6@ 004738a0     LIBCMTD:crt0msg.obj
 0002:000058e8       ??_C@_1FC@ECHBIFBC@?$AAR?$AA6?$AA0?$AA1?$AA9?$AA?$AN?$AA?6?$AA?9?$AA?5?$AAu?$AAn?$AAa?$AAb?$AAl?$AAe?$AA?5?$AAt?$AAo?$AA?5?$AAo?$AAp?$AAe?$AAn?$AA?5?$AAc?$AAo?$AAn?$AAs?$AAo?$AAl?$AAe?$AA?5@ 004738e8     LIBCMTD:crt0msg.obj
 0002:00005940       ??_C@_1GK@FHCKBEFA@?$AAR?$AA6?$AA0?$AA2?$AA4?$AA?$AN?$AA?6?$AA?9?$AA?5?$AAn?$AAo?$AAt?$AA?5?$AAe?$AAn?$AAo?$AAu?$AAg?$AAh?$AA?5?$AAs?$AAp?$AAa?$AAc?$AAe?$AA?5?$AAf?$AAo?$AAr?$AA?5?$AA_?$AAo@ 00473940     LIBCMTD:crt0msg.obj
 0002:000059b0       ??_C@_1EM@MAADIHMB@?$AAR?$AA6?$AA0?$AA2?$AA5?$AA?$AN?$AA?6?$AA?9?$AA?5?$AAp?$AAu?$AAr?$AAe?$AA?5?$AAv?$AAi?$AAr?$AAt?$AAu?$AAa?$AAl?$AA?5?$AAf?$AAu?$AAn?$AAc?$AAt?$AAi?$AAo?$AAn?$AA?5?$AAc@ 004739b0     LIBCMTD:crt0msg.obj
 0002:00005a00       ??_C@_1GK@MCAAGJMO@?$AAR?$AA6?$AA0?$AA2?$AA6?$AA?$AN?$AA?6?$AA?9?$AA?5?$AAn?$AAo?$AAt?$AA?5?$AAe?$AAn?$AAo?$AAu?$AAg?$AAh?$AA?5?$AAs?$AAp?$AAa?$AAc?$AAe?$AA?5?$AAf?$AAo?$AAr?$AA?5?$AAs?$AAt@ 00473a00     LIBCMTD:crt0msg.obj
 0002:00005a70       ??_C@_1GK@MFGOKLAG@?$AAR?$AA6?$AA0?$AA2?$AA7?$AA?$AN?$AA?6?$AA?9?$AA?5?$AAn?$AAo?$AAt?$AA?5?$AAe?$AAn?$AAo?$AAu?$AAg?$AAh?$AA?5?$AAs?$AAp?$AAa?$AAc?$AAe?$AA?5?$AAf?$AAo?$AAr?$AA?5?$AAl?$AAo@ 00473a70     LIBCMTD:crt0msg.obj
 0002:00005ae0       ??_C@_1EK@HHFLMAOL@?$AAR?$AA6?$AA0?$AA2?$AA8?$AA?$AN?$AA?6?$AA?9?$AA?5?$AAu?$AAn?$AAa?$AAb?$AAl?$AAe?$AA?5?$AAt?$AAo?$AA?5?$AAi?$AAn?$AAi?$AAt?$AAi?$AAa?$AAl?$AAi?$AAz?$AAe?$AA?5?$AAh?$AAe@ 00473ae0     LIBCMTD:crt0msg.obj
 0002:00005b2c       ??_C@_1DO@BMFCDCD@?$AAR?$AA6?$AA0?$AA3?$AA0?$AA?$AN?$AA?6?$AA?9?$AA?5?$AAC?$AAR?$AAT?$AA?5?$AAn?$AAo?$AAt?$AA?5?$AAi?$AAn?$AAi?$AAt?$AAi?$AAa?$AAl?$AAi?$AAz?$AAe?$AAd?$AA?$AN?$AA?6?$AA?$AA@ 00473b2c     LIBCMTD:crt0msg.obj
 0002:00005b70       ??_C@_1MG@ENCOOIDF@?$AAR?$AA6?$AA0?$AA3?$AA1?$AA?$AN?$AA?6?$AA?9?$AA?5?$AAA?$AAt?$AAt?$AAe?$AAm?$AAp?$AAt?$AA?5?$AAt?$AAo?$AA?5?$AAi?$AAn?$AAi?$AAt?$AAi?$AAa?$AAl?$AAi?$AAz?$AAe?$AA?5?$AAt@ 00473b70     LIBCMTD:crt0msg.obj
 0002:00005c38       ??_C@_1GG@GOPILAJP@?$AAR?$AA6?$AA0?$AA3?$AA2?$AA?$AN?$AA?6?$AA?9?$AA?5?$AAn?$AAo?$AAt?$AA?5?$AAe?$AAn?$AAo?$AAu?$AAg?$AAh?$AA?5?$AAs?$AAp?$AAa?$AAc?$AAe?$AA?5?$AAf?$AAo?$AAr?$AA?5?$AAl?$AAo@ 00473c38     LIBCMTD:crt0msg.obj
 0002:00005ca0       ??_C@_1BOO@KGEDBGAJ@?$AAR?$AA6?$AA0?$AA3?$AA3?$AA?$AN?$AA?6?$AA?9?$AA?5?$AAA?$AAt?$AAt?$AAe?$AAm?$AAp?$AAt?$AA?5?$AAt?$AAo?$AA?5?$AAu?$AAs?$AAe?$AA?5?$AAM?$AAS?$AAI?$AAL?$AA?5?$AAc?$AAo?$AAd@ 00473ca0     LIBCMTD:crt0msg.obj
 0002:00005e90       ??_C@_1GG@MKFPEKFO@?$AAR?$AA6?$AA0?$AA3?$AA4?$AA?$AN?$AA?6?$AA?9?$AA?5?$AAi?$AAn?$AAc?$AAo?$AAn?$AAs?$AAi?$AAs?$AAt?$AAe?$AAn?$AAt?$AA?5?$AAo?$AAn?$AAe?$AAx?$AAi?$AAt?$AA?5?$AAb?$AAe?$AAg@ 00473e90     LIBCMTD:crt0msg.obj
 0002:00005ef8       ??_C@_1BO@BFCDCGC@?$AAD?$AAO?$AAM?$AAA?$AAI?$AAN?$AA?5?$AAe?$AAr?$AAr?$AAo?$AAr?$AA?$AN?$AA?6?$AA?$AA@ 00473ef8     LIBCMTD:crt0msg.obj
 0002:00005f18       ??_C@_1BK@KMOMNAAI@?$AAS?$AAI?$AAN?$AAG?$AA?5?$AAe?$AAr?$AAr?$AAo?$AAr?$AA?$AN?$AA?6?$AA?$AA@ 00473f18     LIBCMTD:crt0msg.obj
 0002:00005f34       ??_C@_1BM@JBBEPPHI@?$AAT?$AAL?$AAO?$AAS?$AAS?$AA?5?$AAe?$AAr?$AAr?$AAo?$AAr?$AA?$AN?$AA?6?$AA?$AA@ 00473f34     LIBCMTD:crt0msg.obj
 0002:00005f50       ??_C@_15JNBOKNOG@?$AA?$AN?$AA?6?$AA?$AA@ 00473f50     LIBCMTD:crt0msg.obj
 0002:00005f58       ??_C@_1BO@BKOMIGKJ@?$AAr?$AAu?$AAn?$AAt?$AAi?$AAm?$AAe?$AA?5?$AAe?$AAr?$AAr?$AAo?$AAr?$AA?5?$AA?$AA@ 00473f58     LIBCMTD:crt0msg.obj
 0002:00005f78       ??_C@_1FG@ILOHEEMG@?$AAf?$AA?3?$AA?2?$AAd?$AAd?$AA?2?$AAv?$AAc?$AAt?$AAo?$AAo?$AAl?$AAs?$AA?2?$AAc?$AAr?$AAt?$AA?2?$AAc?$AAr?$AAt?$AAw?$AA3?$AA2?$AA?2?$AAs?$AAt?$AAa?$AAr?$AAt?$AAu?$AAp@ 00473f78     LIBCMTD:crt0msg.obj
 0002:00005fd0       ??_C@_1BI@EAHMBMEC@?$AA_?$AAN?$AAM?$AAS?$AAG?$AA_?$AAW?$AAR?$AAI?$AAT?$AAE?$AA?$AA@ 00473fd0     LIBCMTD:crt0msg.obj
 0002:00005fe8       ??_C@_1KO@BKLCKNFL@?$AAw?$AAc?$AAs?$AAc?$AAp?$AAy?$AA_?$AAs?$AA?$CI?$AAo?$AAu?$AAt?$AAm?$AAs?$AAg?$AA?0?$AA?5?$AA?$CI?$AAs?$AAi?$AAz?$AAe?$AAo?$AAf?$AA?$CI?$AAo?$AAu?$AAt?$AAm?$AAs?$AAg?$AA?$CJ@ 00473fe8     LIBCMTD:crt0msg.obj
 0002:00006098       ??_C@_1DE@JNGNBFGO@?$AAR?$AAu?$AAn?$AAt?$AAi?$AAm?$AAe?$AA?5?$AAE?$AAr?$AAr?$AAo?$AAr?$AA?$CB?$AA?6?$AA?6?$AAP?$AAr?$AAo?$AAg?$AAr?$AAa?$AAm?$AA?3?$AA?5?$AA?$AA@ 00474098     LIBCMTD:crt0msg.obj
 0002:000060d0       ??_C@_1HK@FJJNAABO@?$AAw?$AAc?$AAs?$AAc?$AAp?$AAy?$AA_?$AAs?$AA?$CI?$AAp?$AAr?$AAo?$AAg?$AAn?$AAa?$AAm?$AAe?$AA?0?$AA?5?$AAp?$AAr?$AAo?$AAg?$AAn?$AAa?$AAm?$AAe?$AA_?$AAs?$AAi?$AAz?$AAe@ 004740d0     LIBCMTD:crt0msg.obj
 0002:00006150       ??_C@_1HI@FLHKGEBE@?$AAw?$AAc?$AAs?$AAn?$AAc?$AAp?$AAy?$AA_?$AAs?$AA?$CI?$AAp?$AAc?$AAh?$AA?0?$AA?5?$AAp?$AAr?$AAo?$AAg?$AAn?$AAa?$AAm?$AAe?$AA_?$AAs?$AAi?$AAz?$AAe?$AA?5?$AA?9?$AA?5?$AA?$CI@ 00474150     LIBCMTD:crt0msg.obj
 0002:000061c8       ??_C@_1IA@DCJGKHFO@?$AAw?$AAc?$AAs?$AAc?$AAa?$AAt?$AA_?$AAs?$AA?$CI?$AAo?$AAu?$AAt?$AAm?$AAs?$AAg?$AA?0?$AA?5?$AA?$CI?$AAs?$AAi?$AAz?$AAe?$AAo?$AAf?$AA?$CI?$AAo?$AAu?$AAt?$AAm?$AAs?$AAg?$AA?$CJ@ 004741c8     LIBCMTD:crt0msg.obj
 0002:00006248       ??_C@_1IG@NMONDPP@?$AAw?$AAc?$AAs?$AAc?$AAa?$AAt?$AA_?$AAs?$AA?$CI?$AAo?$AAu?$AAt?$AAm?$AAs?$AAg?$AA?0?$AA?5?$AA?$CI?$AAs?$AAi?$AAz?$AAe?$AAo?$AAf?$AA?$CI?$AAo?$AAu?$AAt?$AAm?$AAs?$AAg?$AA?$CJ@ 00474248     LIBCMTD:crt0msg.obj
 0002:000062d0       ??_C@_0CH@JPGODKFM@f?3?2dd?2vctools?2crt?2crtw32?2misc?2on@ 004742d0     LIBCMTD:onexit.obj
 0002:000062f8       ??_C@_1BC@JLLICHIC@?$AAp?$AAn?$AAh?$AA?5?$AA?$DN?$AA?$DN?$AA?5?$AA0?$AA?$AA@ 004742f8     LIBCMTD:handler.obj
 0002:00006310       ??_C@_1FE@HELBPGKC@?$AAf?$AA?3?$AA?2?$AAd?$AAd?$AA?2?$AAv?$AAc?$AAt?$AAo?$AAo?$AAl?$AAs?$AA?2?$AAc?$AAr?$AAt?$AA?2?$AAc?$AAr?$AAt?$AAw?$AA3?$AA2?$AA?2?$AAh?$AAe?$AAa?$AAp?$AA?2?$AAh?$AAa@ 00474310     LIBCMTD:handler.obj
 0002:00006364       ??_C@_0CJ@PLENACMA@f?3?2dd?2vctools?2crt?2crtw32?2misc?2in@ 00474364     LIBCMTD:inithelp.obj
 0002:00006390       ??_C@_1FC@PPCAPEFB@?$AAf?$AA?3?$AA?2?$AAd?$AAd?$AA?2?$AAv?$AAc?$AAt?$AAo?$AAo?$AAl?$AAs?$AA?2?$AAc?$AAr?$AAt?$AA?2?$AAc?$AAr?$AAt?$AAw?$AA3?$AA2?$AA?2?$AAm?$AAi?$AAs?$AAc?$AA?2?$AAi?$AAn@ 00474390     LIBCMTD:inithelp.obj
 0002:000063e4       ??_C@_1CA@KHHCPEI@?$AA_?$AA_?$AAg?$AAe?$AAt?$AAl?$AAo?$AAc?$AAa?$AAl?$AAe?$AAi?$AAn?$AAf?$AAo?$AA?$AA@ 004743e4     LIBCMTD:inithelp.obj
 0002:00006408       ??_C@_1GO@NGIGJNHH@?$AAs?$AAt?$AAr?$AAn?$AAc?$AAp?$AAy?$AA_?$AAs?$AA?$CI?$AA?$CK?$AAs?$AAt?$AAr?$AAa?$AAd?$AAd?$AAr?$AAe?$AAs?$AAs?$AA?0?$AA?5?$AAo?$AAu?$AAt?$AAs?$AAi?$AAz?$AAe?$AA?0?$AA?5@ 00474408     LIBCMTD:inithelp.obj
 0002:00006478       ??_C@_0CH@KINPIPGE@f?3?2dd?2vctools?2crt?2crtw32?2misc?2wi@ 00474478     LIBCMTD:winsig.obj
 0002:000064a0       ??_C@_1DO@MLNEDKGB@?$AA?$CI?$AA?$CC?$AAI?$AAn?$AAv?$AAa?$AAl?$AAi?$AAd?$AA?5?$AAs?$AAi?$AAg?$AAn?$AAa?$AAl?$AA?5?$AAo?$AAr?$AA?5?$AAe?$AAr?$AAr?$AAo?$AAr?$AA?$CC?$AA?0?$AA?5?$AA0?$AA?$CJ?$AA?$AA@ 004744a0     LIBCMTD:winsig.obj
 0002:000064e0       ??_C@_1EO@BCKLPCCI@?$AAf?$AA?3?$AA?2?$AAd?$AAd?$AA?2?$AAv?$AAc?$AAt?$AAo?$AAo?$AAl?$AAs?$AA?2?$AAc?$AAr?$AAt?$AA?2?$AAc?$AAr?$AAt?$AAw?$AA3?$AA2?$AA?2?$AAm?$AAi?$AAs?$AAc?$AA?2?$AAw?$AAi@ 004744e0     LIBCMTD:winsig.obj
 0002:00006530       ??_C@_1O@EJLDHPPL@?$AAs?$AAi?$AAg?$AAn?$AAa?$AAl?$AA?$AA@ 00474530     LIBCMTD:winsig.obj
 0002:00006540       ??_C@_1M@DMJEIKHL@?$AAr?$AAa?$AAi?$AAs?$AAe?$AA?$AA@ 00474540     LIBCMTD:winsig.obj
 0002:0000654c       ??_C@_1CK@GFDNDKK@?$AA_?$AAR?$AAa?$AAn?$AAd?$AAo?$AAm?$AAV?$AAa?$AAl?$AAu?$AAe?$AA?5?$AA?$CB?$AA?$DN?$AA?5?$AAN?$AAU?$AAL?$AAL?$AA?$AA@ 0047454c     LIBCMTD:rand_s.obj
 0002:00006578       ??_C@_1EO@GANOMFFN@?$AAf?$AA?3?$AA?2?$AAd?$AAd?$AA?2?$AAv?$AAc?$AAt?$AAo?$AAo?$AAl?$AAs?$AA?2?$AAc?$AAr?$AAt?$AA?2?$AAc?$AAr?$AAt?$AAw?$AA3?$AA2?$AA?2?$AAm?$AAi?$AAs?$AAc?$AA?2?$AAr?$AAa@ 00474578     LIBCMTD:rand_s.obj
 0002:000065c8       ??_C@_1O@IJGPPOGF@?$AAr?$AAa?$AAn?$AAd?$AA_?$AAs?$AA?$AA@ 004745c8     LIBCMTD:rand_s.obj
 0002:000065d8       ??_C@_1BK@GAEMIDIL@?$AAA?$AAD?$AAV?$AAA?$AAP?$AAI?$AA3?$AA2?$AA?4?$AAD?$AAL?$AAL?$AA?$AA@ 004745d8     LIBCMTD:rand_s.obj
 0002:000065f8       ??_C@_1GA@EBEDGGGB@?$AA?$CI?$AA?$CC?$AAr?$AAa?$AAn?$AAd?$AA_?$AAs?$AA?5?$AAi?$AAs?$AA?5?$AAn?$AAo?$AAt?$AA?5?$AAa?$AAv?$AAa?$AAi?$AAl?$AAa?$AAb?$AAl?$AAe?$AA?5?$AAo?$AAn?$AA?5?$AAt?$AAh?$AAi@ 004745f8     LIBCMTD:rand_s.obj
 0002:00006658       ??_C@_0BC@JEAENNKH@SystemFunction036?$AA@ 00474658     LIBCMTD:rand_s.obj
 0002:0000667c       ??_C@_1M@HPNHIDJI@?$AAj?$AAa?$AA?9?$AAJ?$AAP?$AA?$AA@ 0047467c     LIBCMTD:mbctype.obj
 0002:00006688       ??_C@_1M@BIBDDEMK@?$AAz?$AAh?$AA?9?$AAC?$AAN?$AA?$AA@ 00474688     LIBCMTD:mbctype.obj
 0002:00006694       ??_C@_1M@JLOOOEGK@?$AAk?$AAo?$AA?9?$AAK?$AAR?$AA?$AA@ 00474694     LIBCMTD:mbctype.obj
 0002:000066a0       ??_C@_1M@CLNBBOPM@?$AAz?$AAh?$AA?9?$AAT?$AAW?$AA?$AA@ 004746a0     LIBCMTD:mbctype.obj
 0002:000066ac       ??_C@_0CM@BEDCPGGG@f?3?2dd?2vctools?2crt?2crtw32?2mbstrin@ 004746ac     LIBCMTD:mbctype.obj
 0002:000066d8       ??_C@_1BK@LAOAACLJ@?$AAn?$AAp?$AAt?$AAr?$AA?5?$AA?$CB?$AA?$DN?$AA?5?$AAN?$AAU?$AAL?$AAL?$AA?$AA@ 004746d8     LIBCMTD:strtoq.obj
 0002:000066f8       ??_C@_1FE@JDMNKKN@?$AAf?$AA?3?$AA?2?$AAd?$AAd?$AA?2?$AAv?$AAc?$AAt?$AAo?$AAo?$AAl?$AAs?$AA?2?$AAc?$AAr?$AAt?$AA?2?$AAc?$AAr?$AAt?$AAw?$AA3?$AA2?$AA?2?$AAc?$AAo?$AAn?$AAv?$AAe?$AAr?$AAt@ 004746f8     LIBCMTD:strtoq.obj
 0002:0000674c       ??_C@_1BA@BMMDEPNE@?$AAs?$AAt?$AAr?$AAt?$AAo?$AAx?$AAq?$AA?$AA@ 0047474c     LIBCMTD:strtoq.obj
 0002:00006760       ??_C@_1FE@CEHLKAHD@?$AAi?$AAb?$AAa?$AAs?$AAe?$AA?5?$AA?$DN?$AA?$DN?$AA?5?$AA0?$AA?5?$AA?$HM?$AA?$HM?$AA?5?$AA?$CI?$AA2?$AA?5?$AA?$DM?$AA?$DN?$AA?5?$AAi?$AAb?$AAa?$AAs?$AAe?$AA?5?$AA?$CG?$AA?$CG?$AA?5?$AAi?$AAb?$AAa@ 00474760     LIBCMTD:strtoq.obj
 0002:000067b8       ??_C@_1FE@OOICPOFH@?$AAf?$AA?3?$AA?2?$AAd?$AAd?$AA?2?$AAv?$AAc?$AAt?$AAo?$AAo?$AAl?$AAs?$AA?2?$AAc?$AAr?$AAt?$AA?2?$AAc?$AAr?$AAt?$AAw?$AA3?$AA2?$AA?2?$AAc?$AAo?$AAn?$AAv?$AAe?$AAr?$AAt@ 004747b8     LIBCMTD:strtol.obj
 0002:0000680c       ??_C@_1BA@LOLAMAJG@?$AAs?$AAt?$AAr?$AAt?$AAo?$AAx?$AAl?$AA?$AA@ 0047480c     LIBCMTD:strtol.obj
 0002:0000681c       ??_C@_03KHJOGHMM@exp?$AA@  0047481c     LIBCMTD:fpexcept.obj
 0002:00006820       ??_C@_03JGHBODFD@pow?$AA@  00474820     LIBCMTD:fpexcept.obj
 0002:00006824       ??_C@_03MGHMBJCF@log?$AA@  00474824     LIBCMTD:fpexcept.obj
 0002:00006828       ??_C@_05HGHHAHAP@log10?$AA@ 00474828     LIBCMTD:fpexcept.obj
 0002:00006830       ??_C@_04COOMCNPB@sinh?$AA@ 00474830     LIBCMTD:fpexcept.obj
 0002:00006838       ??_C@_04HPJJNFIM@cosh?$AA@ 00474838     LIBCMTD:fpexcept.obj
 0002:00006840       ??_C@_04FJHINJAO@tanh?$AA@ 00474840     LIBCMTD:fpexcept.obj
 0002:00006848       ??_C@_04FIHNOPOL@asin?$AA@ 00474848     LIBCMTD:fpexcept.obj
 0002:00006850       ??_C@_04PDIFKINK@acos?$AA@ 00474850     LIBCMTD:fpexcept.obj
 0002:00006858       ??_C@_04MLLJIGOK@atan?$AA@ 00474858     LIBCMTD:fpexcept.obj
 0002:00006860       ??_C@_05KNGEOGJB@atan2?$AA@ 00474860     LIBCMTD:fpexcept.obj
 0002:00006868       ??_C@_04EIAKFFMI@sqrt?$AA@ 00474868     LIBCMTD:fpexcept.obj
 0002:00006870       ??_C@_03BLEJJJBH@sin?$AA@  00474870     LIBCMTD:fpexcept.obj
 0002:00006874       ??_C@_03LALBNOCG@cos?$AA@  00474874     LIBCMTD:fpexcept.obj
 0002:00006878       ??_C@_03IIINPABG@tan?$AA@  00474878     LIBCMTD:fpexcept.obj
 0002:0000687c       ??_C@_04GFPJNGEK@ceil?$AA@ 0047487c     LIBCMTD:fpexcept.obj
 0002:00006884       ??_C@_05PBJFFIGL@floor?$AA@ 00474884     LIBCMTD:fpexcept.obj
 0002:0000688c       ??_C@_04ODHECPBC@fabs?$AA@ 0047488c     LIBCMTD:fpexcept.obj
 0002:00006894       ??_C@_04EHEDPDJG@modf?$AA@ 00474894     LIBCMTD:fpexcept.obj
 0002:0000689c       ??_C@_05CEJMAHNP@ldexp?$AA@ 0047489c     LIBCMTD:fpexcept.obj
 0002:000068a4       ??_C@_05KBKMEMPO@_cabs?$AA@ 004748a4     LIBCMTD:fpexcept.obj
 0002:000068ac       ??_C@_06MEIMCGCF@_hypot?$AA@ 004748ac     LIBCMTD:fpexcept.obj
 0002:000068b4       ??_C@_04KEPJIHGP@fmod?$AA@ 004748b4     LIBCMTD:fpexcept.obj
 0002:000068bc       ??_C@_05GKKHEGJL@frexp?$AA@ 004748bc     LIBCMTD:fpexcept.obj
 0002:000068c4       ??_C@_03MJLDFKDL@_y0?$AA@  004748c4     LIBCMTD:fpexcept.obj
 0002:000068c8       ??_C@_03NAKIGLHK@_y1?$AA@  004748c8     LIBCMTD:fpexcept.obj
 0002:000068cc       ??_C@_03ONILCKOB@_yn?$AA@  004748cc     LIBCMTD:fpexcept.obj
 0002:000068d0       ??_C@_05JGDBENOH@_logb?$AA@ 004748d0     LIBCMTD:fpexcept.obj
 0002:000068d8       ??_C@_0L@KDOEJCKC@_nextafter?$AA@ 004748d8     LIBCMTD:fpexcept.obj
 0002:000068f0       __indefinite               004748f0     LIBCMTD:87disp.obj
 0002:000068fa       __piby2                    004748fa     LIBCMTD:87disp.obj
 0002:00006928       __DEFAULT_CW_in_mem        00474928     LIBCMTD:common.obj
 0002:0000692a       __pi_by_2_to_61            0047492a     LIBCMTD:common.obj
 0002:00006a00       ??_C@_0NN@NGPKDKPD@The?5value?5of?5ESP?5was?5not?5properl@ 00474a00     LIBCMTD:error.obj
 0002:00006ae0       ??_C@_0BBN@GPMLNJCF@A?5cast?5to?5a?5smaller?5data?5type?5ha@ 00474ae0     LIBCMTD:error.obj
 0002:00006c00       ??_C@_0BN@FFOINMNJ@Stack?5memory?5was?5corrupted?6?$AN?$AA@ 00474c00     LIBCMTD:error.obj
 0002:00006c20       ??_C@_0DG@HKJMLLLP@A?5local?5variable?5was?5used?5before@ 00474c20     LIBCMTD:error.obj
 0002:00006c58       ??_C@_0CM@NGINOKPC@Stack?5memory?5around?5_alloca?5was?5@ 00474c58     LIBCMTD:error.obj
 0002:00006c84       ??_C@_0BO@GNIAFIKK@Unknown?5Runtime?5Check?5Error?6?$AN?$AA@ 00474c84     LIBCMTD:error.obj
 0002:00006ca8       ??_C@_1GM@OLMCBDMB@?$AAR?$AAu?$AAn?$AAt?$AAi?$AAm?$AAe?$AA?5?$AAC?$AAh?$AAe?$AAc?$AAk?$AA?5?$AAE?$AAr?$AAr?$AAo?$AAr?$AA?4?$AA?6?$AA?$AN?$AA?5?$AAU?$AAn?$AAa?$AAb?$AAl?$AAe?$AA?5?$AAt?$AAo@ 00474ca8     LIBCMTD:error.obj
 0002:00006d18       ??_C@_1EA@NFKNIFJP@?$AAR?$AAu?$AAn?$AA?9?$AAT?$AAi?$AAm?$AAe?$AA?5?$AAC?$AAh?$AAe?$AAc?$AAk?$AA?5?$AAF?$AAa?$AAi?$AAl?$AAu?$AAr?$AAe?$AA?5?$AA?$CD?$AA?$CF?$AAd?$AA?5?$AA?9?$AA?5?$AA?$CF?$AAs?$AA?$AA@ 00474d18     LIBCMTD:error.obj
 0002:00006d58       ??_C@_0BB@PFFGGCJP@Unknown?5Filename?$AA@ 00474d58     LIBCMTD:error.obj
 0002:00006d6c       ??_C@_0BE@GNBOBNCK@Unknown?5Module?5Name?$AA@ 00474d6c     LIBCMTD:error.obj
 0002:00006d80       ??_C@_0CA@IODNCDPG@Run?9Time?5Check?5Failure?5?$CD?$CFd?5?9?5?$CFs?$AA@ 00474d80     LIBCMTD:error.obj
 0002:00006da0       ??_C@_0CG@IAFNJNEE@Stack?5corrupted?5near?5unknown?5var@ 00474da0     LIBCMTD:error.obj
 0002:00006dc8       ??_C@_1BG@OILDLIOJ@?$AAu?$AAs?$AAe?$AAr?$AA3?$AA2?$AA?4?$AAd?$AAl?$AAl?$AA?$AA@ 00474dc8     LIBCMTD:error.obj
 0002:00006de0       ??_C@_09FOPFMPEJ@wsprintfA?$AA@ 00474de0     LIBCMTD:error.obj
 0002:00006df0       ??_C@_0EJ@LJKNEOLN@Stack?5area?5around?5_alloca?5memory@ 00474df0     LIBCMTD:error.obj
 0002:00006e3c       ??_C@_08OMAHNMHJ@?6Data?3?5?$DM?$AA@ 00474e3c     LIBCMTD:error.obj
 0002:00006e48       ??_C@_0CK@DKGBICFE@?6Allocation?5number?5within?5this?5f@ 00474e48     LIBCMTD:error.obj
 0002:00006e74       ??_C@_07DFDJCKFN@?6Size?3?5?$AA@ 00474e74     LIBCMTD:error.obj
 0002:00006e7c       ??_C@_0N@MHFFIMFG@?6Address?3?50x?$AA@ 00474e7c     LIBCMTD:error.obj
 0002:00006e90       ??_C@_0EI@CLEPFNGI@Stack?5area?5around?5_alloca?5memory@ 00474e90     LIBCMTD:error.obj
 0002:00006ed8       ??_C@_0BC@KIBAILCI@?$CFs?$CFs?$CFp?$CFs?$CFld?$CFs?$CFd?$CFs?$AA@ 00474ed8     LIBCMTD:error.obj
 0002:00006eec       ??_C@_01EEMJAFIK@?6?$AA@   00474eec     LIBCMTD:error.obj
 0002:00006ef0       ??_C@_02LLMPMKNF@?$DO?5?$AA@ 00474ef0     LIBCMTD:error.obj
 0002:00006ef4       ??_C@_08KJEDNCKC@?$CFs?$CFs?$CFs?$CFs?$AA@ 00474ef4     LIBCMTD:error.obj
 0002:00006f00       ??_C@_0DE@OHJBPMBP@A?5variable?5is?5being?5used?5without@ 00474f00     LIBCMTD:error.obj
 0002:00006f48       ??_C@_0BJ@HEGAHDFO@Stack?5pointer?5corruption?$AA@ 00474f48     LIBCMTD:userapi.obj
 0002:00006f64       ??_C@_0CK@FEGOIOPB@Cast?5to?5smaller?5type?5causing?5los@ 00474f64     LIBCMTD:userapi.obj
 0002:00006f90       ??_C@_0BI@CIGMDCBH@Stack?5memory?5corruption?$AA@ 00474f90     LIBCMTD:userapi.obj
 0002:00006fa8       ??_C@_0CK@CNLNOEPB@Local?5variable?5used?5before?5initi@ 00474fa8     LIBCMTD:userapi.obj
 0002:00006fd4       ??_C@_0BP@OGBCLIBO@Stack?5around?5_alloca?5corrupted?$AA@ 00474fd4     LIBCMTD:userapi.obj
 0002:00006ff8       ??_C@_0NM@DNEDKLDF@The?5value?5of?5ESP?5was?5not?5properl@ 00474ff8     LIBCMTD:chkesp.obj
 0002:000070d4       ??_C@_00CNPNBAHC@?$AA@     004750d4     LIBCMTD:chkesp.obj
 0002:000070d8       ??_C@_0CM@CNHKCLGP@f?3?2dd?2vctools?2crt?2crtw32?2misc?2i3@ 004750d8     LIBCMTD:chkesp.obj
 0002:00007104       ??_C@_1BI@ICGGMGLK@?$AAb?$AAu?$AAf?$AA?5?$AA?$CB?$AA?$DN?$AA?5?$AAN?$AAU?$AAL?$AAL?$AA?$AA@ 00475104     LIBCMTD:cvt.obj
 0002:00007120       ??_C@_1EG@OHONNKNN@?$AAf?$AA?3?$AA?2?$AAd?$AAd?$AA?2?$AAv?$AAc?$AAt?$AAo?$AAo?$AAl?$AAs?$AA?2?$AAc?$AAr?$AAt?$AA?2?$AAf?$AAp?$AAw?$AA3?$AA2?$AA?2?$AAc?$AAo?$AAn?$AAv?$AA?2?$AAc?$AAv?$AAt@ 00475120     LIBCMTD:cvt.obj
 0002:00007168       ??_C@_1BE@OLBNEILL@?$AA_?$AAc?$AAf?$AAt?$AAo?$AAe?$AA2?$AA_?$AAl?$AA?$AA@ 00475168     LIBCMTD:cvt.obj
 0002:0000717c       ??_C@_1CA@CBMNPEO@?$AAs?$AAi?$AAz?$AAe?$AAI?$AAn?$AAB?$AAy?$AAt?$AAe?$AAs?$AA?5?$AA?$DO?$AA?5?$AA0?$AA?$AA@ 0047517c     LIBCMTD:cvt.obj
 0002:000071a0       ??_C@_1HE@NACBNDPP@?$AAs?$AAi?$AAz?$AAe?$AAI?$AAn?$AAB?$AAy?$AAt?$AAe?$AAs?$AA?5?$AA?$DO?$AA?5?$AA?$CI?$AAs?$AAi?$AAz?$AAe?$AA_?$AAt?$AA?$CJ?$AA?$CI?$AA3?$AA?5?$AA?$CL?$AA?5?$AA?$CI?$AAn?$AAd?$AAe?$AAc@ 004751a0     LIBCMTD:cvt.obj
 0002:00007218       ??_C@_1LE@EOIFGNCJ@?$AAs?$AAt?$AAr?$AAc?$AAp?$AAy?$AA_?$AAs?$AA?$CI?$AAp?$AA?0?$AA?5?$AA?$CI?$AAs?$AAi?$AAz?$AAe?$AAI?$AAn?$AAB?$AAy?$AAt?$AAe?$AAs?$AA?5?$AA?$DN?$AA?$DN?$AA?5?$AA?$CI?$AAs?$AAi?$AAz@ 00475218     LIBCMTD:cvt.obj
 0002:000072cc       ??_C@_05KLBDPFGC@e?$CL000?$AA@ 004752cc     LIBCMTD:cvt.obj
 0002:000072d4       ??_C@_1BC@INKAPMHI@?$AA_?$AAc?$AAf?$AAt?$AAo?$AAe?$AA_?$AAl?$AA?$AA@ 004752d4     LIBCMTD:cvt.obj
 0002:000072e8       ??_C@_1BC@JOKPCIC@?$AA_?$AAc?$AAf?$AAt?$AAo?$AAa?$AA_?$AAl?$AA?$AA@ 004752e8     LIBCMTD:cvt.obj
 0002:00007300       ??_C@_1FC@IKIMAMJB@?$AAs?$AAi?$AAz?$AAe?$AAI?$AAn?$AAB?$AAy?$AAt?$AAe?$AAs?$AA?5?$AA?$DO?$AA?5?$AA?$CI?$AAs?$AAi?$AAz?$AAe?$AA_?$AAt?$AA?$CJ?$AA?$CI?$AA1?$AA?5?$AA?$CL?$AA?5?$AA4?$AA?5?$AA?$CL?$AA?5?$AAn@ 00475300     LIBCMTD:cvt.obj
 0002:00007354       ??_C@_1BE@CKPDLI@?$AA_?$AAc?$AAf?$AAt?$AAo?$AAf?$AA2?$AA_?$AAl?$AA?$AA@ 00475354     LIBCMTD:cvt.obj
 0002:00007368       ??_C@_1BC@DCPPLJL@?$AA_?$AAc?$AAf?$AAt?$AAo?$AAf?$AA_?$AAl?$AA?$AA@ 00475368     LIBCMTD:cvt.obj
 0002:0000737c       ??_C@_1BC@MPIFPLAF@?$AA_?$AAc?$AAf?$AAt?$AAo?$AAg?$AA_?$AAl?$AA?$AA@ 0047537c     LIBCMTD:cvt.obj
 0002:00007390       ??_C@_1FI@JJOJLGLE@?$AAf?$AA?3?$AA?2?$AAd?$AAd?$AA?2?$AAv?$AAc?$AAt?$AAo?$AAo?$AAl?$AAs?$AA?2?$AAc?$AAr?$AAt?$AA?2?$AAc?$AAr?$AAt?$AAw?$AA3?$AA2?$AA?2?$AAs?$AAt?$AAa?$AAr?$AAt?$AAu?$AAp@ 00475390     LIBCMTD:fp8.obj
 0002:000073e8       ??_C@_1CK@JMKHCBEI@?$AA_?$AAs?$AAe?$AAt?$AAd?$AAe?$AAf?$AAa?$AAu?$AAl?$AAt?$AAp?$AAr?$AAe?$AAc?$AAi?$AAs?$AAi?$AAo?$AAn?$AA?$AA@ 004753e8     LIBCMTD:fp8.obj
 0002:00007418       ??_C@_1GE@KOCFNGPB@?$AA_?$AAc?$AAo?$AAn?$AAt?$AAr?$AAo?$AAl?$AAf?$AAp?$AA_?$AAs?$AA?$CI?$AA?$CI?$AA?$CI?$AAv?$AAo?$AAi?$AAd?$AA?5?$AA?$CK?$AA?$CJ?$AA0?$AA?$CJ?$AA?0?$AA?5?$AA0?$AAx?$AA0?$AA0?$AA0?$AA1@ 00475418     LIBCMTD:fp8.obj
 0002:00007480       ??_C@_1FO@LPCLHKGE@?$AA?$CI?$AAf?$AAh?$AA?5?$AA?$DO?$AA?$DN?$AA?5?$AA0?$AA?5?$AA?$CG?$AA?$CG?$AA?5?$AA?$CI?$AAu?$AAn?$AAs?$AAi?$AAg?$AAn?$AAe?$AAd?$AA?$CJ?$AAf?$AAh?$AA?5?$AA?$DM?$AA?5?$AA?$CI?$AAu?$AAn?$AAs?$AAi@ 00475480     LIBCMTD:close.obj
 0002:000074e0       ??_C@_1EO@EJLBBGEB@?$AAf?$AA?3?$AA?2?$AAd?$AAd?$AA?2?$AAv?$AAc?$AAt?$AAo?$AAo?$AAl?$AAs?$AA?2?$AAc?$AAr?$AAt?$AA?2?$AAc?$AAr?$AAt?$AAw?$AA3?$AA2?$AA?2?$AAl?$AAo?$AAw?$AAi?$AAo?$AA?2?$AAc@ 004754e0     LIBCMTD:close.obj
 0002:00007530       ??_C@_1O@EDEJGJBM@?$AA_?$AAc?$AAl?$AAo?$AAs?$AAe?$AA?$AA@ 00475530     LIBCMTD:close.obj
 0002:00007540       ??_C@_1CM@OKGMMMDH@?$AA?$CI?$AA_?$AAo?$AAs?$AAf?$AAi?$AAl?$AAe?$AA?$CI?$AAf?$AAh?$AA?$CJ?$AA?5?$AA?$CG?$AA?5?$AAF?$AAO?$AAP?$AAE?$AAN?$AA?$CJ?$AA?$AA@ 00475540     LIBCMTD:close.obj
 0002:00007570       ??_C@_1JE@ECKHFIFP@?$AA?$CI?$AA?$CC?$AAI?$AAn?$AAv?$AAa?$AAl?$AAi?$AAd?$AA?5?$AAf?$AAi?$AAl?$AAe?$AA?5?$AAd?$AAe?$AAs?$AAc?$AAr?$AAi?$AAp?$AAt?$AAo?$AAr?$AA?4?$AA?5?$AAF?$AAi?$AAl?$AAe?$AA?5@ 00475570     LIBCMTD:close.obj
 0002:00007604       ??_C@_1BO@KIJENGPH@?$AAs?$AAt?$AAr?$AAe?$AAa?$AAm?$AA?5?$AA?$CB?$AA?$DN?$AA?5?$AAN?$AAU?$AAL?$AAL?$AA?$AA@ 00475604     LIBCMTD:_freebuf.obj
 0002:00007628       ??_C@_1FE@DBCNNJOP@?$AAf?$AA?3?$AA?2?$AAd?$AAd?$AA?2?$AAv?$AAc?$AAt?$AAo?$AAo?$AAl?$AAs?$AA?2?$AAc?$AAr?$AAt?$AA?2?$AAc?$AAr?$AAt?$AAw?$AA3?$AA2?$AA?2?$AAs?$AAt?$AAd?$AAi?$AAo?$AA?2?$AA_@ 00475628     LIBCMTD:_freebuf.obj
 0002:00007680       ??_C@_1FC@KLDIFLFI@?$AAf?$AA?3?$AA?2?$AAd?$AAd?$AA?2?$AAv?$AAc?$AAt?$AAo?$AAo?$AAl?$AAs?$AA?2?$AAc?$AAr?$AAt?$AA?2?$AAc?$AAr?$AAt?$AAw?$AA3?$AA2?$AA?2?$AAs?$AAt?$AAd?$AAi?$AAo?$AA?2?$AA_@ 00475680     LIBCMTD:_filbuf.obj
 0002:000076d4       ??_C@_1BA@IIKEPOGH@?$AA_?$AAf?$AAi?$AAl?$AAb?$AAu?$AAf?$AA?$AA@ 004756d4     LIBCMTD:_filbuf.obj
 0002:000076e4       ??_C@_1DO@MBOKMJPK@?$AAn?$AAF?$AAl?$AAo?$AAa?$AAt?$AAS?$AAt?$AAr?$AAU?$AAs?$AAe?$AAd?$AA?$DM?$AA?$DN?$AA?$CI?$AA?$CK?$AAp?$AAn?$AAF?$AAl?$AAo?$AAa?$AAt?$AAS?$AAt?$AAr?$AAS?$AAz?$AA?$CJ?$AA?$AA@ 004756e4     LIBCMTD:input.obj
 0002:00007728       ??_C@_1EO@KHEPNMPN@?$AAf?$AA?3?$AA?2?$AAd?$AAd?$AA?2?$AAv?$AAc?$AAt?$AAo?$AAo?$AAl?$AAs?$AA?2?$AAc?$AAr?$AAt?$AA?2?$AAc?$AAr?$AAt?$AAw?$AA3?$AA2?$AA?2?$AAs?$AAt?$AAd?$AAi?$AAo?$AA?2?$AAi@ 00475728     LIBCMTD:input.obj
 0002:00007778       ??_C@_0CH@IOLKKJMC@f?3?2dd?2vctools?2crt?2crtw32?2stdio?2i@ 00475778     LIBCMTD:input.obj
 0002:000077a0       ??_C@_1BC@MJNBEDIJ@?$AA_?$AAi?$AAn?$AAp?$AAu?$AAt?$AA_?$AAl?$AA?$AA@ 004757a0     LIBCMTD:input.obj
 0002:000077b4       ??_C@_1BG@LBKFJFHM@?$AA_?$AAi?$AAn?$AAp?$AAu?$AAt?$AA_?$AAs?$AA_?$AAl?$AA?$AA@ 004757b4     LIBCMTD:inputs.obj
 0002:000077cc       ??_C@_1DG@MPPGJOHD@?$AA?$CI?$AA?$CC?$AAI?$AAn?$AAv?$AAa?$AAl?$AAi?$AAd?$AA?5?$AAI?$AAn?$AAp?$AAu?$AAt?$AA?5?$AAF?$AAo?$AAr?$AAm?$AAa?$AAt?$AA?$CC?$AA?0?$AA0?$AA?$CJ?$AA?$AA@ 004757cc     LIBCMTD:inputs.obj
 0002:00007808       ??_C@_1EO@CCHAPCBN@?$AAf?$AA?3?$AA?2?$AAd?$AAd?$AA?2?$AAv?$AAc?$AAt?$AAo?$AAo?$AAl?$AAs?$AA?2?$AAc?$AAr?$AAt?$AA?2?$AAc?$AAr?$AAt?$AAw?$AA3?$AA2?$AA?2?$AAl?$AAo?$AAw?$AAi?$AAo?$AA?2?$AAl@ 00475808     LIBCMTD:lseek.obj
 0002:00007858       ??_C@_1O@EDOIKGHF@?$AA_?$AAl?$AAs?$AAe?$AAe?$AAk?$AA?$AA@ 00475858     LIBCMTD:lseek.obj
 0002:00007868       ??_C@_1DM@LMLOLGJ@?$AA?$CI?$AA?$CC?$AAI?$AAn?$AAv?$AAa?$AAl?$AAi?$AAd?$AA?5?$AAf?$AAi?$AAl?$AAe?$AA?5?$AAd?$AAe?$AAs?$AAc?$AAr?$AAi?$AAp?$AAt?$AAo?$AAr?$AA?$CC?$AA?0?$AA0?$AA?$CJ?$AA?$AA@ 00475868     LIBCMTD:lseek.obj
 0002:000078a8       ??_C@_1FC@OBEHAONE@?$AAf?$AA?3?$AA?2?$AAd?$AAd?$AA?2?$AAv?$AAc?$AAt?$AAo?$AAo?$AAl?$AAs?$AA?2?$AAc?$AAr?$AAt?$AA?2?$AAc?$AAr?$AAt?$AAw?$AA3?$AA2?$AA?2?$AAs?$AAt?$AAd?$AAi?$AAo?$AA?2?$AA_@ 004758a8     LIBCMTD:_flsbuf.obj
 0002:00007900       ??_C@_1HO@MLMGPAFH@?$AA?$CI?$AA?$CC?$AAi?$AAn?$AAc?$AAo?$AAn?$AAs?$AAi?$AAs?$AAt?$AAe?$AAn?$AAt?$AA?5?$AAI?$AAO?$AAB?$AA?5?$AAf?$AAi?$AAe?$AAl?$AAd?$AAs?$AA?$CC?$AA?0?$AA?5?$AAs?$AAt?$AAr?$AAe@ 00475900     LIBCMTD:_flsbuf.obj
 0002:00007980       ??_C@_1FE@CKCGICM@?$AAf?$AA?3?$AA?2?$AAd?$AAd?$AA?2?$AAv?$AAc?$AAt?$AAo?$AAo?$AAl?$AAs?$AA?2?$AAc?$AAr?$AAt?$AA?2?$AAc?$AAr?$AAt?$AAw?$AA3?$AA2?$AA?2?$AAs?$AAt?$AAd?$AAi?$AAo?$AA?2?$AAv@ 00475980     LIBCMTD:vsnprint.obj
 0002:000079d4       ??_C@_1BK@FHMHFMNL@?$AA_?$AAv?$AAs?$AAn?$AAp?$AAr?$AAi?$AAn?$AAt?$AAf?$AA_?$AAl?$AA?$AA@ 004759d4     LIBCMTD:vsnprint.obj
 0002:000079f0       ??_C@_1BI@IGILPKD@?$AA_?$AAv?$AAs?$AAp?$AAr?$AAi?$AAn?$AAt?$AAf?$AA_?$AAl?$AA?$AA@ 004759f0     LIBCMTD:vsprintf.obj
 0002:00007a08       ??_C@_1CE@HMKDJHB@?$AA_?$AAv?$AAs?$AAc?$AAp?$AAr?$AAi?$AAn?$AAt?$AAf?$AA_?$AAh?$AAe?$AAl?$AAp?$AAe?$AAr?$AA?$AA@ 00475a08     LIBCMTD:vsprintf.obj
 0002:00007a2c       ??_C@_1CE@PCFPEIFI@?$AA_?$AAv?$AAs?$AAn?$AAp?$AAr?$AAi?$AAn?$AAt?$AAf?$AA_?$AAh?$AAe?$AAl?$AAp?$AAe?$AAr?$AA?$AA@ 00475a2c     LIBCMTD:vsnprnc.obj
 0002:00007a50       ??_C@_1BO@MLMCMBKN@?$AAf?$AAo?$AAr?$AAm?$AAa?$AAt?$AA?5?$AA?$CB?$AA?$DN?$AA?5?$AAN?$AAU?$AAL?$AAL?$AA?$AA@ 00475a50     LIBCMTD:vsnprnc.obj
 0002:00007a70       ??_C@_1BM@BLJALHEF@?$AA_?$AAv?$AAs?$AAp?$AAr?$AAi?$AAn?$AAt?$AAf?$AA_?$AAs?$AA_?$AAl?$AA?$AA@ 00475a70     LIBCMTD:vsnprnc.obj
 0002:00007a90       ??_C@_1EE@OKCKIGFK@?$AAs?$AAt?$AAr?$AAi?$AAn?$AAg?$AA?5?$AA?$CB?$AA?$DN?$AA?5?$AAN?$AAU?$AAL?$AAL?$AA?5?$AA?$CG?$AA?$CG?$AA?5?$AAs?$AAi?$AAz?$AAe?$AAI?$AAn?$AAB?$AAy?$AAt?$AAe?$AAs?$AA?5?$AA?$DO?$AA?5@ 00475a90     LIBCMTD:vsnprnc.obj
 0002:00007ad4       ??_C@_1DA@HPBFKMEB@?$AA?$CI?$AA?$CC?$AAB?$AAu?$AAf?$AAf?$AAe?$AAr?$AA?5?$AAt?$AAo?$AAo?$AA?5?$AAs?$AAm?$AAa?$AAl?$AAl?$AA?$CC?$AA?0?$AA?5?$AA0?$AA?$CJ?$AA?$AA@ 00475ad4     LIBCMTD:vsnprnc.obj
 0002:00007b04       ??_C@_1BO@MMPELNIM@?$AA_?$AAv?$AAs?$AAn?$AAp?$AAr?$AAi?$AAn?$AAt?$AAf?$AA_?$AAs?$AA_?$AAl?$AA?$AA@ 00475b04     LIBCMTD:vsnprnc.obj
 0002:00007b24       ??_C@_04CPCBDHLK@?4cmd?$AA@ 00475b24     LIBCMTD:spawnve.obj
 0002:00007b2c       ??_C@_04NEEFLLOK@?4bat?$AA@ 00475b2c     LIBCMTD:spawnve.obj
 0002:00007b34       ??_C@_04JLMDILM@?4exe?$AA@ 00475b34     LIBCMTD:spawnve.obj
 0002:00007b3c       ??_C@_04PNGHFIJN@?4com?$AA@ 00475b3c     LIBCMTD:spawnve.obj
 0002:00007b44       ??_C@_1BK@EILABNJE@?$AAn?$AAa?$AAm?$AAe?$AA?5?$AA?$CB?$AA?$DN?$AA?5?$AAN?$AAU?$AAL?$AAL?$AA?$AA@ 00475b44     LIBCMTD:spawnve.obj
 0002:00007b60       ??_C@_1FA@OEKDEAAE@?$AAf?$AA?3?$AA?2?$AAd?$AAd?$AA?2?$AAv?$AAc?$AAt?$AAo?$AAo?$AAl?$AAs?$AA?2?$AAc?$AAr?$AAt?$AA?2?$AAc?$AAr?$AAt?$AAw?$AA3?$AA2?$AA?2?$AAe?$AAx?$AAe?$AAc?$AA?2?$AAs?$AAp@ 00475b60     LIBCMTD:spawnve.obj
 0002:00007bb0       ??_C@_1BE@BCIEHILB@?$AAc?$AAo?$AAm?$AAe?$AAx?$AAe?$AAc?$AAm?$AAd?$AA?$AA@ 00475bb0     LIBCMTD:spawnve.obj
 0002:00007bc4       ??_C@_1BK@DKFDJEHE@?$AAa?$AAr?$AAg?$AAv?$AA?5?$AA?$CB?$AA?$DN?$AA?5?$AAN?$AAU?$AAL?$AAL?$AA?$AA@ 00475bc4     LIBCMTD:spawnve.obj
 0002:00007be0       ??_C@_1BC@FFPEOJOO@?$AA_?$AAs?$AAp?$AAa?$AAw?$AAn?$AAv?$AAe?$AA?$AA@ 00475be0     LIBCMTD:spawnve.obj
 0002:00007bf4       ??_C@_1CE@CONABGGG@?$AA?$CK?$AAn?$AAa?$AAm?$AAe?$AA?5?$AA?$CB?$AA?$DN?$AA?5?$AA_?$AAT?$AA?$CI?$AA?8?$AA?2?$AA0?$AA?8?$AA?$CJ?$AA?$AA@ 00475bf4     LIBCMTD:spawnve.obj
 0002:00007c18       ??_C@_1BM@CNLEOMNN@?$AA?$CK?$AAa?$AAr?$AAg?$AAv?$AA?5?$AA?$CB?$AA?$DN?$AA?5?$AAN?$AAU?$AAL?$AAL?$AA?$AA@ 00475c18     LIBCMTD:spawnve.obj
 0002:00007c34       ??_C@_1CG@JGBGIIEL@?$AA?$CK?$AA?$CK?$AAa?$AAr?$AAg?$AAv?$AA?5?$AA?$CB?$AA?$DN?$AA?5?$AA_?$AAT?$AA?$CI?$AA?8?$AA?2?$AA0?$AA?8?$AA?$CJ?$AA?$AA@ 00475c34     LIBCMTD:spawnve.obj
 0002:00007c5c       ??_C@_0CI@HEEEAHPK@f?3?2dd?2vctools?2crt?2crtw32?2exec?2sp@ 00475c5c     LIBCMTD:spawnve.obj
 0002:00007c88       ??_C@_1FC@KHABJACH@?$AAs?$AAt?$AAr?$AAc?$AAp?$AAy?$AA_?$AAs?$AA?$CI?$AAp?$AAa?$AAt?$AAh?$AAn?$AAa?$AAm?$AAe?$AA?0?$AA?5?$AAp?$AAa?$AAt?$AAh?$AAn?$AAa?$AAm?$AAe?$AA_?$AAs?$AAi?$AAz?$AAe@ 00475c88     LIBCMTD:spawnve.obj
 0002:00007cdc       ??_C@_02CEGDFPFP@?4?2?$AA@ 00475cdc     LIBCMTD:spawnve.obj
 0002:00007ce0       ??_C@_1FA@BMMNMOKN@?$AAs?$AAt?$AAr?$AAc?$AAa?$AAt?$AA_?$AAs?$AA?$CI?$AAp?$AAa?$AAt?$AAh?$AAn?$AAa?$AAm?$AAe?$AA?0?$AA?5?$AAp?$AAa?$AAt?$AAh?$AAn?$AAa?$AAm?$AAe?$AA_?$AAs?$AAi?$AAz?$AAe@ 00475ce0     LIBCMTD:spawnve.obj
 0002:00007d30       ??_C@_1DI@MKECICIJ@?$AAs?$AAt?$AAr?$AAc?$AAp?$AAy?$AA_?$AAs?$AA?$CI?$AAp?$AA?0?$AA?5?$AAs?$AAi?$AAz?$AAe?$AA?0?$AA?5?$AAp?$AAa?$AAt?$AAh?$AAn?$AAa?$AAm?$AAe?$AA?$CJ?$AA?$AA@ 00475d30     LIBCMTD:spawnve.obj
 0002:00007d68       ??_C@_1GA@BLELMIAD@?$AAs?$AAt?$AAr?$AAc?$AAp?$AAy?$AA_?$AAs?$AA?$CI?$AAe?$AAx?$AAt?$AA?0?$AA?5?$AAs?$AAi?$AAz?$AAe?$AA?5?$AA?9?$AA?5?$AA?$CI?$AAe?$AAx?$AAt?$AA?5?$AA?9?$AA?5?$AAp?$AA?$CJ?$AA?0?$AA?5@ 00475d68     LIBCMTD:spawnve.obj
 0002:00007dc8       ??_C@_1FC@DNJFLFHP@?$AAf?$AA?3?$AA?2?$AAd?$AAd?$AA?2?$AAv?$AAc?$AAt?$AAo?$AAo?$AAl?$AAs?$AA?2?$AAc?$AAr?$AAt?$AA?2?$AAc?$AAr?$AAt?$AAw?$AA3?$AA2?$AA?2?$AAe?$AAx?$AAe?$AAc?$AA?2?$AAs?$AAp@ 00475dc8     LIBCMTD:spawnvpe.obj
 0002:00007e1c       ??_C@_1BE@EGMIEFFD@?$AA_?$AAs?$AAp?$AAa?$AAw?$AAn?$AAv?$AAp?$AAe?$AA?$AA@ 00475e1c     LIBCMTD:spawnvpe.obj
 0002:00007e30       ??_C@_1CM@DMCMCPME@?$AA?$CK?$AAf?$AAi?$AAl?$AAe?$AAn?$AAa?$AAm?$AAe?$AA?5?$AA?$CB?$AA?$DN?$AA?5?$AA_?$AAT?$AA?$CI?$AA?8?$AA?2?$AA0?$AA?8?$AA?$CJ?$AA?$AA@ 00475e30     LIBCMTD:spawnvpe.obj
 0002:00007e60       ??_C@_1MK@KNKCHLKC@?$AA_?$AAd?$AAu?$AAp?$AAe?$AAn?$AAv?$AA_?$AAs?$AA_?$AAd?$AAb?$AAg?$AA?$CI?$AA?$CG?$AAe?$AAn?$AAv?$AAb?$AAu?$AAf?$AA?0?$AA?5?$AA?$CI?$AA?$CI?$AAv?$AAo?$AAi?$AAd?$AA?5?$AA?$CK?$AA?$CJ@ 00475e60     LIBCMTD:spawnvpe.obj
 0002:00007f2c       ??_C@_0CJ@IPJLLODM@f?3?2dd?2vctools?2crt?2crtw32?2exec?2sp@ 00475f2c     LIBCMTD:spawnvpe.obj
 0002:00007f58       ??_C@_04HBHDLLBA@PATH?$AA@ 00475f58     LIBCMTD:spawnvpe.obj
 0002:00007f60       ??_C@_01KICIPPFI@?2?$AA@   00475f60     LIBCMTD:spawnvpe.obj
 0002:00007f64       ??_C@_1DC@INHIHLBE@?$AAs?$AAt?$AAr?$AAc?$AAa?$AAt?$AA_?$AAs?$AA?$CI?$AAb?$AAu?$AAf?$AA?0?$AA?5?$AA2?$AA6?$AA0?$AA?0?$AA?5?$AA?$CC?$AA?2?$AA?2?$AA?$CC?$AA?$CJ?$AA?$AA@ 00475f64     LIBCMTD:spawnvpe.obj
 0002:00007f98       ??_C@_1DK@DFMMGMNL@?$AAs?$AAt?$AAr?$AAc?$AAa?$AAt?$AA_?$AAs?$AA?$CI?$AAb?$AAu?$AAf?$AA?0?$AA?5?$AA2?$AA6?$AA0?$AA?0?$AA?5?$AAf?$AAi?$AAl?$AAe?$AAn?$AAa?$AAm?$AAe?$AA?$CJ?$AA?$AA@ 00475f98     LIBCMTD:spawnvpe.obj
 0002:00007fd4       ??_C@_1CC@FKAOHHLO@?$AA?$CI?$AAo?$AAp?$AAt?$AAi?$AAo?$AAn?$AA?5?$AA?$CB?$AA?$DN?$AA?5?$AAN?$AAU?$AAL?$AAL?$AA?$CJ?$AA?$AA@ 00475fd4     LIBCMTD:getenv.obj
 0002:00007ff8       ??_C@_1EO@JOEHPJNP@?$AAf?$AA?3?$AA?2?$AAd?$AAd?$AA?2?$AAv?$AAc?$AAt?$AAo?$AAo?$AAl?$AAs?$AA?2?$AAc?$AAr?$AAt?$AA?2?$AAc?$AAr?$AAt?$AAw?$AA3?$AA2?$AA?2?$AAm?$AAi?$AAs?$AAc?$AA?2?$AAg?$AAe@ 00475ff8     LIBCMTD:getenv.obj
 0002:00008048       ??_C@_1O@GMKGKCJO@?$AAg?$AAe?$AAt?$AAe?$AAn?$AAv?$AA?$AA@ 00476048     LIBCMTD:getenv.obj
 0002:00008058       ??_C@_1FA@HILOOCMA@?$AA?$CI?$AA_?$AAt?$AAc?$AAs?$AAn?$AAl?$AAe?$AAn?$AA?$CI?$AAo?$AAp?$AAt?$AAi?$AAo?$AAn?$AA?0?$AA?5?$AA_?$AAM?$AAA?$AAX?$AA_?$AAE?$AAN?$AAV?$AA?$CJ?$AA?5?$AA?$DM?$AA?5?$AA_?$AAM@ 00476058     LIBCMTD:getenv.obj
 0002:000080a8       ??_C@_1GI@JBIFPFJH@?$AA_?$AAt?$AAc?$AAs?$AAn?$AAl?$AAe?$AAn?$AA?$CI?$AA?$CK?$AAs?$AAe?$AAa?$AAr?$AAc?$AAh?$AA?5?$AA?$CL?$AA?5?$AAl?$AAe?$AAn?$AAg?$AAt?$AAh?$AA?5?$AA?$CL?$AA?5?$AA1?$AA?0?$AA?5?$AA_@ 004760a8     LIBCMTD:getenv.obj
 0002:00008110       ??_C@_1CK@PIKDAOCL@?$AAp?$AAR?$AAe?$AAt?$AAu?$AAr?$AAn?$AAV?$AAa?$AAl?$AAu?$AAe?$AA?5?$AA?$CB?$AA?$DN?$AA?5?$AAN?$AAU?$AAL?$AAL?$AA?$AA@ 00476110     LIBCMTD:getenv.obj
 0002:0000813c       ??_C@_1CC@BAJKDIIF@?$AA_?$AAg?$AAe?$AAt?$AAe?$AAn?$AAv?$AA_?$AAs?$AA_?$AAh?$AAe?$AAl?$AAp?$AAe?$AAr?$AA?$AA@ 0047613c     LIBCMTD:getenv.obj
 0002:00008160       ??_C@_1JM@NLPGJJPH@?$AA?$CI?$AAb?$AAu?$AAf?$AAf?$AAe?$AAr?$AA?5?$AA?$CB?$AA?$DN?$AA?5?$AAN?$AAU?$AAL?$AAL?$AA?5?$AA?$CG?$AA?$CG?$AA?5?$AAs?$AAi?$AAz?$AAe?$AAI?$AAn?$AAT?$AAC?$AAh?$AAa?$AAr?$AAs?$AA?5@ 00476160     LIBCMTD:getenv.obj
 0002:00008200       ??_C@_1EI@HHOBPCFK@?$AAs?$AAt?$AAr?$AAc?$AAp?$AAy?$AA_?$AAs?$AA?$CI?$AAb?$AAu?$AAf?$AAf?$AAe?$AAr?$AA?0?$AA?5?$AAs?$AAi?$AAz?$AAe?$AAI?$AAn?$AAT?$AAC?$AAh?$AAa?$AAr?$AAs?$AA?0?$AA?5?$AAs@ 00476200     LIBCMTD:getenv.obj
 0002:00008248       ??_C@_1CA@FHNFMDOJ@?$AAp?$AAB?$AAu?$AAf?$AAf?$AAe?$AAr?$AA?5?$AA?$CB?$AA?$DN?$AA?5?$AAN?$AAU?$AAL?$AAL?$AA?$AA@ 00476248     LIBCMTD:getenv.obj
 0002:00008268       ??_C@_1CC@KPLOPIEM@?$AA_?$AAd?$AAu?$AAp?$AAe?$AAn?$AAv?$AA_?$AAs?$AA_?$AAh?$AAe?$AAl?$AAp?$AAe?$AAr?$AA?$AA@ 00476268     LIBCMTD:getenv.obj
 0002:0000828c       ??_C@_1CA@GDBKELOE@?$AAv?$AAa?$AAr?$AAn?$AAa?$AAm?$AAe?$AA?5?$AA?$CB?$AA?$DN?$AA?5?$AAN?$AAU?$AAL?$AAL?$AA?$AA@ 0047628c     LIBCMTD:getenv.obj
 0002:000082ac       ??_C@_1DM@GNKNEGJO@?$AAs?$AAt?$AAr?$AAc?$AAp?$AAy?$AA_?$AAs?$AA?$CI?$AA?$CK?$AAp?$AAB?$AAu?$AAf?$AAf?$AAe?$AAr?$AA?0?$AA?5?$AAs?$AAi?$AAz?$AAe?$AA?0?$AA?5?$AAs?$AAt?$AAr?$AA?$CJ?$AA?$AA@ 004762ac     LIBCMTD:getenv.obj
 0002:00008ba0       __XcptActTab               00476ba0     LIBCMTD:winxfltr.obj
 0002:00008c30       __XcptActTabCount          00476c30     LIBCMTD:winxfltr.obj
 0002:00008c34       __XcptActTabSize           00476c34     LIBCMTD:winxfltr.obj
 0002:00008c38       __First_FPE_Indx           00476c38     LIBCMTD:winxfltr.obj
 0002:00008c3c       __Num_FPE                  00476c3c     LIBCMTD:winxfltr.obj
 0002:00008c40       ??_C@_0CM@KPPOKOAI@f?3?2dd?2vctools?2crt?2crtw32?2startup@ 00476c40     LIBCMTD:tidtable.obj
 0002:00008c6c       ??_C@_1BC@DENNNKIM@?$AA_?$AAc?$AAr?$AAt?$AAh?$AAe?$AAa?$AAp?$AA?$AA@ 00476c6c     LIBCMTD:heapinit.obj
 0002:00008c80       ??_C@_1FC@JOHAHJGP@?$AAf?$AA?3?$AA?2?$AAd?$AAd?$AA?2?$AAv?$AAc?$AAt?$AAo?$AAo?$AAl?$AAs?$AA?2?$AAc?$AAr?$AAt?$AA?2?$AAc?$AAr?$AAt?$AAw?$AA3?$AA2?$AA?2?$AAh?$AAe?$AAa?$AAp?$AA?2?$AAh?$AAe@ 00476c80     LIBCMTD:heapinit.obj
 0002:00008cd4       ??_C@_0CL@OBKFGCKK@f?3?2dd?2vctools?2crt?2crtw32?2startup@ 00476cd4     LIBCMTD:stdargv.obj
 0002:00008d00       ??_C@_0CL@BJBFGFLH@f?3?2dd?2vctools?2crt?2crtw32?2startup@ 00476d00     LIBCMTD:stdenvp.obj
 0002:00008d30       ??_C@_1FG@MHBLOJIO@?$AAf?$AA?3?$AA?2?$AAd?$AAd?$AA?2?$AAv?$AAc?$AAt?$AAo?$AAo?$AAl?$AAs?$AA?2?$AAc?$AAr?$AAt?$AA?2?$AAc?$AAr?$AAt?$AAw?$AA3?$AA2?$AA?2?$AAs?$AAt?$AAa?$AAr?$AAt?$AAu?$AAp@ 00476d30     LIBCMTD:stdenvp.obj
 0002:00008d88       ??_C@_1BC@GHMCNHHL@?$AA_?$AAs?$AAe?$AAt?$AAe?$AAn?$AAv?$AAp?$AA?$AA@ 00476d88     LIBCMTD:stdenvp.obj
 0002:00008d9c       ??_C@_1DE@MMOGFGHF@?$AAs?$AAt?$AAr?$AAc?$AAp?$AAy?$AA_?$AAs?$AA?$CI?$AA?$CK?$AAe?$AAn?$AAv?$AA?0?$AA?5?$AAc?$AAc?$AAh?$AAa?$AAr?$AAs?$AA?0?$AA?5?$AAp?$AA?$CJ?$AA?$AA@ 00476d9c     LIBCMTD:stdenvp.obj
 0002:00008dd0       ??_C@_1DE@BCNCAIK@?$AA?$CI?$AA?$CC?$AAI?$AAn?$AAv?$AAa?$AAl?$AAi?$AAd?$AA?5?$AAe?$AAr?$AAr?$AAo?$AAr?$AA_?$AAm?$AAo?$AAd?$AAe?$AA?$CC?$AA?0?$AA?5?$AA0?$AA?$CJ?$AA?$AA@ 00476dd0     LIBCMTD:errmode.obj
 0002:00008e08       ??_C@_1FA@PBBGNIFD@?$AAf?$AA?3?$AA?2?$AAd?$AAd?$AA?2?$AAv?$AAc?$AAt?$AAo?$AAo?$AAl?$AAs?$AA?2?$AAc?$AAr?$AAt?$AA?2?$AAc?$AAr?$AAt?$AAw?$AA3?$AA2?$AA?2?$AAm?$AAi?$AAs?$AAc?$AA?2?$AAe?$AAr@ 00476e08     LIBCMTD:errmode.obj
 0002:00008e58       ??_C@_1CA@LFDHAMEM@?$AA_?$AAs?$AAe?$AAt?$AA_?$AAe?$AAr?$AAr?$AAo?$AAr?$AA_?$AAm?$AAo?$AAd?$AAe?$AA?$AA@ 00476e58     LIBCMTD:errmode.obj
 0002:00008e78       ??_C@_0CG@NNNNMKLF@f?3?2dd?2vctools?2crt?2crtw32?2misc?2a_@ 00476e78     LIBCMTD:a_env.obj
 0002:00008ea0       ??_C@_1HC@KFLBHHBC@?$AA?$CI?$AAf?$AAi?$AAl?$AAe?$AAd?$AAe?$AAs?$AA?5?$AA?$DO?$AA?$DN?$AA?5?$AA0?$AA?5?$AA?$CG?$AA?$CG?$AA?5?$AA?$CI?$AAu?$AAn?$AAs?$AAi?$AAg?$AAn?$AAe?$AAd?$AA?$CJ?$AAf?$AAi?$AAl?$AAe?$AAd@ 00476ea0     LIBCMTD:commit.obj
 0002:00008f18       ??_C@_1FA@HELGICMG@?$AAf?$AA?3?$AA?2?$AAd?$AAd?$AA?2?$AAv?$AAc?$AAt?$AAo?$AAo?$AAl?$AAs?$AA?2?$AAc?$AAr?$AAt?$AA?2?$AAc?$AAr?$AAt?$AAw?$AA3?$AA2?$AA?2?$AAl?$AAo?$AAw?$AAi?$AAo?$AA?2?$AAc@ 00476f18     LIBCMTD:commit.obj
 0002:00008f68       ??_C@_1BA@FLNMBBIM@?$AA_?$AAc?$AAo?$AAm?$AAm?$AAi?$AAt?$AA?$AA@ 00476f68     LIBCMTD:commit.obj
 0002:00008f78       ??_C@_1DG@LNNHNFHJ@?$AA?$CI?$AA_?$AAo?$AAs?$AAf?$AAi?$AAl?$AAe?$AA?$CI?$AAf?$AAi?$AAl?$AAe?$AAd?$AAe?$AAs?$AA?$CJ?$AA?5?$AA?$CG?$AA?5?$AAF?$AAO?$AAP?$AAE?$AAN?$AA?$CJ?$AA?$AA@ 00476f78     LIBCMTD:commit.obj
 0002:00008fb0       ??_C@_1EO@NLGPLDCN@?$AAf?$AA?3?$AA?2?$AAd?$AAd?$AA?2?$AAv?$AAc?$AAt?$AAo?$AAo?$AAl?$AAs?$AA?2?$AAc?$AAr?$AAt?$AA?2?$AAc?$AAr?$AAt?$AAw?$AA3?$AA2?$AA?2?$AAl?$AAo?$AAw?$AAi?$AAo?$AA?2?$AAw@ 00476fb0     LIBCMTD:write.obj
 0002:00009000       ??_C@_1O@KOFKDHPL@?$AA_?$AAw?$AAr?$AAi?$AAt?$AAe?$AA?$AA@ 00477000     LIBCMTD:write.obj
 0002:00009010       ??_C@_1BM@KFJLMBPG@?$AA?$CI?$AAb?$AAu?$AAf?$AA?5?$AA?$CB?$AA?$DN?$AA?5?$AAN?$AAU?$AAL?$AAL?$AA?$CJ?$AA?$AA@ 00477010     LIBCMTD:write.obj
 0002:0000902c       ??_C@_1BM@NCANHCIP@?$AA_?$AAw?$AAr?$AAi?$AAt?$AAe?$AA_?$AAn?$AAo?$AAl?$AAo?$AAc?$AAk?$AA?$AA@ 0047702c     LIBCMTD:write.obj
 0002:00009048       ??_C@_1CC@EEOLPHGO@?$AA?$CI?$AA?$CI?$AAc?$AAn?$AAt?$AA?5?$AA?$CG?$AA?5?$AA1?$AA?$CJ?$AA?5?$AA?$DN?$AA?$DN?$AA?5?$AA0?$AA?$CJ?$AA?$AA@ 00477048     LIBCMTD:write.obj
 0002:0000906c       ??_C@_1DI@CNMHHHLG@?$AAi?$AAs?$AAl?$AAe?$AAa?$AAd?$AAb?$AAy?$AAt?$AAe?$AA?$CI?$AA_?$AAd?$AAb?$AAc?$AAs?$AAB?$AAu?$AAf?$AAf?$AAe?$AAr?$AA?$CI?$AAf?$AAh?$AA?$CJ?$AA?$CJ?$AA?$AA@ 0047706c     LIBCMTD:write.obj
 0002:000090a8       ??_C@_1BJK@FEBNHLFF@?$AA?$CI?$AA?$CI?$AAp?$AAt?$AAl?$AAo?$AAc?$AAi?$AA?9?$AA?$DO?$AAl?$AAc?$AA_?$AAc?$AAa?$AAt?$AAe?$AAg?$AAo?$AAr?$AAy?$AA?$FL?$AAc?$AAa?$AAt?$AAe?$AAg?$AAo?$AAr?$AAy?$AA?$FN?$AA?4@ 004770a8     LIBCMTD:localref.obj
 0002:00009248       ??_C@_1FC@HINIIGNO@?$AAf?$AA?3?$AA?2?$AAd?$AAd?$AA?2?$AAv?$AAc?$AAt?$AAo?$AAo?$AAl?$AAs?$AA?2?$AAc?$AAr?$AAt?$AA?2?$AAc?$AAr?$AAt?$AAw?$AA3?$AA2?$AA?2?$AAm?$AAi?$AAs?$AAc?$AA?2?$AAl?$AAo@ 00477248     LIBCMTD:localref.obj
 0002:0000929c       ??_C@_1CI@JELMFMDH@?$AAc?$AA?5?$AA?$DO?$AA?$DN?$AA?5?$AA?9?$AA1?$AA?5?$AA?$CG?$AA?$CG?$AA?5?$AAc?$AA?5?$AA?$DM?$AA?$DN?$AA?5?$AA2?$AA5?$AA5?$AA?$AA@ 0047729c     LIBCMTD:isctype.obj
 0002:000092c8       ??_C@_1FG@IBFIOCOE@?$AAf?$AA?3?$AA?2?$AAd?$AAd?$AA?2?$AAv?$AAc?$AAt?$AAo?$AAo?$AAl?$AAs?$AA?2?$AAc?$AAr?$AAt?$AA?2?$AAc?$AAr?$AAt?$AAw?$AA3?$AA2?$AA?2?$AAc?$AAo?$AAn?$AAv?$AAe?$AAr?$AAt@ 004772c8     LIBCMTD:isctype.obj
 0002:00009320       ??_C@_1BO@KFIJIAEA@?$AAp?$AAB?$AAl?$AAo?$AAc?$AAk?$AA?5?$AA?$CB?$AA?$DN?$AA?5?$AAN?$AAU?$AAL?$AAL?$AA?$AA@ 00477320     LIBCMTD:expand.obj
 0002:00009340       ??_C@_1EO@BOMKIKJB@?$AAf?$AA?3?$AA?2?$AAd?$AAd?$AA?2?$AAv?$AAc?$AAt?$AAo?$AAo?$AAl?$AAs?$AA?2?$AAc?$AAr?$AAt?$AA?2?$AAc?$AAr?$AAt?$AAw?$AA3?$AA2?$AA?2?$AAh?$AAe?$AAa?$AAp?$AA?2?$AAe?$AAx@ 00477340     LIBCMTD:expand.obj
 0002:00009390       ??_C@_1BK@JMCGJOCC@?$AA_?$AAe?$AAx?$AAp?$AAa?$AAn?$AAd?$AA_?$AAb?$AAa?$AAs?$AAe?$AA?$AA@ 00477390     LIBCMTD:expand.obj
 0002:000093b8       ??_C@_03KHICJKCI@?4?4?4?$AA@ 004773b8     LIBCMTD:dbgrpt.obj
 0002:000093bc       ??_C@_1CG@GNMJDMIO@?$AA_?$AAC?$AAr?$AAt?$AAS?$AAe?$AAt?$AAR?$AAe?$AAp?$AAo?$AAr?$AAt?$AAH?$AAo?$AAo?$AAk?$AA2?$AA?$AA@ 004773bc     LIBCMTD:dbgrpt.obj
 0002:000093e4       ??_C@_1CI@IDOKFLAJ@?$AA_?$AA_?$AAc?$AAr?$AAt?$AAM?$AAe?$AAs?$AAs?$AAa?$AAg?$AAe?$AAW?$AAi?$AAn?$AAd?$AAo?$AAw?$AAA?$AA?$AA@ 004773e4     LIBCMTD:dbgrpt.obj
 0002:00009410       ??_C@_1GG@DLDHOIGE@?$AAs?$AAt?$AAr?$AAc?$AAp?$AAy?$AA_?$AAs?$AA?$CI?$AAs?$AAz?$AAE?$AAx?$AAe?$AAN?$AAa?$AAm?$AAe?$AA?0?$AA?5?$AA2?$AA6?$AA0?$AA?0?$AA?5?$AA?$CC?$AA?$DM?$AAp?$AAr?$AAo?$AAg?$AAr@ 00477410     LIBCMTD:dbgrpt.obj
 0002:00009478       ??_C@_0BH@DNAGHKFM@?$DMprogram?5name?5unknown?$DO?$AA@ 00477478     LIBCMTD:dbgrpt.obj
 0002:00009490       ??_C@_1LG@BEHAHJLI@?$AAD?$AAe?$AAb?$AAu?$AAg?$AA?5?$AA?$CF?$AAs?$AA?$CB?$AA?6?$AA?6?$AAP?$AAr?$AAo?$AAg?$AAr?$AAa?$AAm?$AA?3?$AA?5?$AA?$CF?$AAh?$AAs?$AA?$CF?$AAs?$AA?$CF?$AAs?$AA?$CF?$AAh?$AAs?$AA?$CF?$AAs@ 00477490     LIBCMTD:dbgrpt.obj
 0002:00009548       ??_C@_03KOEHGMDN@Sun?$AA@  00477548     LIBCMTD:nlsdata.obj
 0002:0000954c       ??_C@_03PDAGKDH@Mon?$AA@   0047754c     LIBCMTD:nlsdata.obj
 0002:00009550       ??_C@_03NAGEINEP@Tue?$AA@  00477550     LIBCMTD:nlsdata.obj
 0002:00009554       ??_C@_03MHOMLAJA@Wed?$AA@  00477554     LIBCMTD:nlsdata.obj
 0002:00009558       ??_C@_03IOFIKPDN@Thu?$AA@  00477558     LIBCMTD:nlsdata.obj
 0002:0000955c       ??_C@_03IDIOELNC@Fri?$AA@  0047755c     LIBCMTD:nlsdata.obj
 0002:00009560       ??_C@_03FEFJNEK@Sat?$AA@   00477560     LIBCMTD:nlsdata.obj
 0002:00009564       ??_C@_06OOPIFAJ@Sunday?$AA@ 00477564     LIBCMTD:nlsdata.obj
 0002:0000956c       ??_C@_06JLEDEDGH@Monday?$AA@ 0047756c     LIBCMTD:nlsdata.obj
 0002:00009574       ??_C@_07BAAGCFCM@Tuesday?$AA@ 00477574     LIBCMTD:nlsdata.obj
 0002:0000957c       ??_C@_09DLIGFAKA@Wednesday?$AA@ 0047757c     LIBCMTD:nlsdata.obj
 0002:00009588       ??_C@_08HACCIKIA@Thursday?$AA@ 00477588     LIBCMTD:nlsdata.obj
 0002:00009594       ??_C@_06JECMNKMI@Friday?$AA@ 00477594     LIBCMTD:nlsdata.obj
 0002:0000959c       ??_C@_08INBOOONO@Saturday?$AA@ 0047759c     LIBCMTD:nlsdata.obj
 0002:000095a8       ??_C@_03JIHJHPIE@Jan?$AA@  004775a8     LIBCMTD:nlsdata.obj
 0002:000095ac       ??_C@_03HJBDCHOM@Feb?$AA@  004775ac     LIBCMTD:nlsdata.obj
 0002:000095b0       ??_C@_03ODNJBKGA@Mar?$AA@  004775b0     LIBCMTD:nlsdata.obj
 0002:000095b4       ??_C@_03LEOLGMJP@Apr?$AA@  004775b4     LIBCMTD:nlsdata.obj
 0002:000095b8       ??_C@_03CNMDKL@May?$AA@    004775b8     LIBCMTD:nlsdata.obj
 0002:000095bc       ??_C@_03IDFGHECI@Jun?$AA@  004775bc     LIBCMTD:nlsdata.obj
 0002:000095c0       ??_C@_03LBGABGKK@Jul?$AA@  004775c0     LIBCMTD:nlsdata.obj
 0002:000095c4       ??_C@_03IFJFEIGA@Aug?$AA@  004775c4     LIBCMTD:nlsdata.obj
 0002:000095c8       ??_C@_03GGCAPAJC@Sep?$AA@  004775c8     LIBCMTD:nlsdata.obj
 0002:000095cc       ??_C@_03BMAOKBAD@Oct?$AA@  004775cc     LIBCMTD:nlsdata.obj
 0002:000095d0       ??_C@_03JPJOFNIA@Nov?$AA@  004775d0     LIBCMTD:nlsdata.obj
 0002:000095d4       ??_C@_03MKABNOCG@Dec?$AA@  004775d4     LIBCMTD:nlsdata.obj
 0002:000095d8       ??_C@_07CGJPFGJA@January?$AA@ 004775d8     LIBCMTD:nlsdata.obj
 0002:000095e0       ??_C@_08GNJGEPFN@February?$AA@ 004775e0     LIBCMTD:nlsdata.obj
 0002:000095ec       ??_C@_05HPCKOFNC@March?$AA@ 004775ec     LIBCMTD:nlsdata.obj
 0002:000095f4       ??_C@_05DMJDNLEJ@April?$AA@ 004775f4     LIBCMTD:nlsdata.obj
 0002:000095fc       ??_C@_04CNLMGBGM@June?$AA@ 004775fc     LIBCMTD:nlsdata.obj
 0002:00009604       ??_C@_04MIEPOIFP@July?$AA@ 00477604     LIBCMTD:nlsdata.obj
 0002:0000960c       ??_C@_06LBBHFDDG@August?$AA@ 0047760c     LIBCMTD:nlsdata.obj
 0002:00009614       ??_C@_09BHHEALKD@September?$AA@ 00477614     LIBCMTD:nlsdata.obj
 0002:00009620       ??_C@_07JJNFCEND@October?$AA@ 00477620     LIBCMTD:nlsdata.obj
 0002:00009628       ??_C@_08HCHEGEOA@November?$AA@ 00477628     LIBCMTD:nlsdata.obj
 0002:00009634       ??_C@_08EDHMEBNP@December?$AA@ 00477634     LIBCMTD:nlsdata.obj
 0002:00009640       ??_C@_02DEDBPAFC@AM?$AA@   00477640     LIBCMTD:nlsdata.obj
 0002:00009644       ??_C@_02CJNFDJBF@PM?$AA@   00477644     LIBCMTD:nlsdata.obj
 0002:00009648       ??_C@_08BPBNCDIB@MM?1dd?1yy?$AA@ 00477648     LIBCMTD:nlsdata.obj
 0002:00009654       ??_C@_0BE@CKGJFCPC@dddd?0?5MMMM?5dd?0?5yyyy?$AA@ 00477654     LIBCMTD:nlsdata.obj
 0002:00009668       ??_C@_08JCCMCCIL@HH?3mm?3ss?$AA@ 00477668     LIBCMTD:nlsdata.obj
 0002:00009674       ??_C@_17MBGCMIPB@?$AAS?$AAu?$AAn?$AA?$AA@ 00477674     LIBCMTD:nlsdata.obj
 0002:0000967c       ??_C@_17KBOMKBF@?$AAM?$AAo?$AAn?$AA?$AA@ 0047767c     LIBCMTD:nlsdata.obj
 0002:00009684       ??_C@_17BMKGEGOJ@?$AAT?$AAu?$AAe?$AA?$AA@ 00477684     LIBCMTD:nlsdata.obj
 0002:0000968c       ??_C@_17CJEDCEPE@?$AAW?$AAe?$AAd?$AA?$AA@ 0047768c     LIBCMTD:nlsdata.obj
 0002:00009694       ??_C@_17PDPHAADD@?$AAT?$AAh?$AAu?$AA?$AA@ 00477694     LIBCMTD:nlsdata.obj
 0002:0000969c       ??_C@_17HFOLPPLP@?$AAF?$AAr?$AAi?$AA?$AA@ 0047769c     LIBCMTD:nlsdata.obj
 0002:000096a4       ??_C@_17GGIBDPIH@?$AAS?$AAa?$AAt?$AA?$AA@ 004776a4     LIBCMTD:nlsdata.obj
 0002:000096ac       ??_C@_1O@IHNHDHPB@?$AAS?$AAu?$AAn?$AAd?$AAa?$AAy?$AA?$AA@ 004776ac     LIBCMTD:nlsdata.obj
 0002:000096bc       ??_C@_1O@MMNBFLIA@?$AAM?$AAo?$AAn?$AAd?$AAa?$AAy?$AA?$AA@ 004776bc     LIBCMTD:nlsdata.obj
 0002:000096cc       ??_C@_1BA@ENFBFFEK@?$AAT?$AAu?$AAe?$AAs?$AAd?$AAa?$AAy?$AA?$AA@ 004776cc     LIBCMTD:nlsdata.obj
 0002:000096dc       ??_C@_1BE@EBOGMDOH@?$AAW?$AAe?$AAd?$AAn?$AAe?$AAs?$AAd?$AAa?$AAy?$AA?$AA@ 004776dc     LIBCMTD:nlsdata.obj
 0002:000096f0       ??_C@_1BC@HHMNLIHE@?$AAT?$AAh?$AAu?$AAr?$AAs?$AAd?$AAa?$AAy?$AA?$AA@ 004776f0     LIBCMTD:nlsdata.obj
 0002:00009704       ??_C@_1O@PDICJHAG@?$AAF?$AAr?$AAi?$AAd?$AAa?$AAy?$AA?$AA@ 00477704     LIBCMTD:nlsdata.obj
 0002:00009714       ??_C@_1BC@ENMNNPAJ@?$AAS?$AAa?$AAt?$AAu?$AAr?$AAd?$AAa?$AAy?$AA?$AA@ 00477714     LIBCMTD:nlsdata.obj
 0002:00009728       ??_C@_17DKNBKCHM@?$AAJ?$AAa?$AAn?$AA?$AA@ 00477728     LIBCMTD:nlsdata.obj
 0002:00009730       ??_C@_17LMDJEKJN@?$AAF?$AAe?$AAb?$AA?$AA@ 00477730     LIBCMTD:nlsdata.obj
 0002:00009738       ??_C@_17CKNLEDEC@?$AAM?$AAa?$AAr?$AA?$AA@ 00477738     LIBCMTD:nlsdata.obj
 0002:00009740       ??_C@_17LFPOIHDD@?$AAA?$AAp?$AAr?$AA?$AA@ 00477740     LIBCMTD:nlsdata.obj
 0002:00009748       ??_C@_17PNNKMEED@?$AAM?$AAa?$AAy?$AA?$AA@ 00477748     LIBCMTD:nlsdata.obj
 0002:00009750       ??_C@_17KCJGOCPB@?$AAJ?$AAu?$AAn?$AA?$AA@ 00477750     LIBCMTD:nlsdata.obj
 0002:00009758       ??_C@_17IJPCKHK@?$AAJ?$AAu?$AAl?$AA?$AA@ 00477758     LIBCMTD:nlsdata.obj
 0002:00009760       ??_C@_17ICPELBCN@?$AAA?$AAu?$AAg?$AA?$AA@ 00477760     LIBCMTD:nlsdata.obj
 0002:00009768       ??_C@_17HCHCOKMG@?$AAS?$AAe?$AAp?$AA?$AA@ 00477768     LIBCMTD:nlsdata.obj
 0002:00009770       ??_C@_17FNLKOI@?$AAO?$AAc?$AAt?$AA?$AA@ 00477770     LIBCMTD:nlsdata.obj
 0002:00009778       ??_C@_17BBDMLCIG@?$AAN?$AAo?$AAv?$AA?$AA@ 00477778     LIBCMTD:nlsdata.obj
 0002:00009780       ??_C@_17EGKACKIF@?$AAD?$AAe?$AAc?$AA?$AA@ 00477780     LIBCMTD:nlsdata.obj
 0002:00009788       ??_C@_1BA@EFMEIEBA@?$AAJ?$AAa?$AAn?$AAu?$AAa?$AAr?$AAy?$AA?$AA@ 00477788     LIBCMTD:nlsdata.obj
 0002:00009798       ??_C@_1BC@JGDDFFAM@?$AAF?$AAe?$AAb?$AAr?$AAu?$AAa?$AAr?$AAy?$AA?$AA@ 00477798     LIBCMTD:nlsdata.obj
 0002:000097ac       ??_C@_1M@IKEENEDF@?$AAM?$AAa?$AAr?$AAc?$AAh?$AA?$AA@ 004777ac     LIBCMTD:nlsdata.obj
 0002:000097b8       ??_C@_1M@GJNLMHFD@?$AAA?$AAp?$AAr?$AAi?$AAl?$AA?$AA@ 004777b8     LIBCMTD:nlsdata.obj
 0002:000097c4       ??_C@_19EPFLPGAP@?$AAJ?$AAu?$AAn?$AAe?$AA?$AA@ 004777c4     LIBCMTD:nlsdata.obj
 0002:000097d0       ??_C@_19BIFMLPCD@?$AAJ?$AAu?$AAl?$AAy?$AA?$AA@ 004777d0     LIBCMTD:nlsdata.obj
 0002:000097dc       ??_C@_1O@PAHLKOAC@?$AAA?$AAu?$AAg?$AAu?$AAs?$AAt?$AA?$AA@ 004777dc     LIBCMTD:nlsdata.obj
 0002:000097ec       ??_C@_1BE@DKAAMBJL@?$AAS?$AAe?$AAp?$AAt?$AAe?$AAm?$AAb?$AAe?$AAr?$AA?$AA@ 004777ec     LIBCMTD:nlsdata.obj
 0002:00009800       ??_C@_1BA@EPANDLNG@?$AAO?$AAc?$AAt?$AAo?$AAb?$AAe?$AAr?$AA?$AA@ 00477800     LIBCMTD:nlsdata.obj
 0002:00009810       ??_C@_1BC@BGLIFPF@?$AAN?$AAo?$AAv?$AAe?$AAm?$AAb?$AAe?$AAr?$AA?$AA@ 00477810     LIBCMTD:nlsdata.obj
 0002:00009824       ??_C@_1BC@FEMKIFH@?$AAD?$AAe?$AAc?$AAe?$AAm?$AAb?$AAe?$AAr?$AA?$AA@ 00477824     LIBCMTD:nlsdata.obj
 0002:00009838       ??_C@_15ODEHAHHF@?$AAA?$AAM?$AA?$AA@ 00477838     LIBCMTD:nlsdata.obj
 0002:00009840       ??_C@_15CLMNNGEL@?$AAP?$AAM?$AA?$AA@ 00477840     LIBCMTD:nlsdata.obj
 0002:00009848       ??_C@_1BC@IEBCMHCM@?$AAM?$AAM?$AA?1?$AAd?$AAd?$AA?1?$AAy?$AAy?$AA?$AA@ 00477848     LIBCMTD:nlsdata.obj
 0002:0000985c       ??_C@_1CI@KNAKOEBC@?$AAd?$AAd?$AAd?$AAd?$AA?0?$AA?5?$AAM?$AAM?$AAM?$AAM?$AA?5?$AAd?$AAd?$AA?0?$AA?5?$AAy?$AAy?$AAy?$AAy?$AA?$AA@ 0047785c     LIBCMTD:nlsdata.obj
 0002:00009884       ??_C@_1BC@GDGBMEMK@?$AAH?$AAH?$AA?3?$AAm?$AAm?$AA?3?$AAs?$AAs?$AA?$AA@ 00477884     LIBCMTD:nlsdata.obj
 0002:00009898       ??_C@_1M@BMHNFIME@?$AAe?$AAn?$AA?9?$AAU?$AAS?$AA?$AA@ 00477898     LIBCMTD:nlsdata.obj
 0002:000098a4       ??_C@_1BI@GKKCBDMD@?$AAd?$AAs?$AAt?$AA?5?$AA?$CB?$AA?$DN?$AA?5?$AAN?$AAU?$AAL?$AAL?$AA?$AA@ 004778a4     LIBCMTD:memcpy_s.obj
 0002:000098c0       ??_C@_1FG@COJCEIPE@?$AAf?$AA?3?$AA?2?$AAd?$AAd?$AA?2?$AAv?$AAc?$AAt?$AAo?$AAo?$AAl?$AAs?$AA?2?$AAc?$AAr?$AAt?$AA?2?$AAc?$AAr?$AAt?$AAw?$AA3?$AA2?$AA?2?$AAs?$AAt?$AAr?$AAi?$AAn?$AAg?$AA?2@ 004778c0     LIBCMTD:memcpy_s.obj
 0002:00009918       ??_C@_1BC@GKHDJMGB@?$AAm?$AAe?$AAm?$AAc?$AAp?$AAy?$AA_?$AAs?$AA?$AA@ 00477918     LIBCMTD:memcpy_s.obj
 0002:0000992c       ??_C@_1BI@DCHLDCPP@?$AAs?$AAr?$AAc?$AA?5?$AA?$CB?$AA?$DN?$AA?5?$AAN?$AAU?$AAL?$AAL?$AA?$AA@ 0047792c     LIBCMTD:memcpy_s.obj
 0002:00009944       ??_C@_1CK@DDKKOLAN@?$AAs?$AAi?$AAz?$AAe?$AAI?$AAn?$AAB?$AAy?$AAt?$AAe?$AAs?$AA?5?$AA?$DO?$AA?$DN?$AA?5?$AAc?$AAo?$AAu?$AAn?$AAt?$AA?$AA@ 00477944     LIBCMTD:memcpy_s.obj
 0002:00009970       ??_C@_1FC@PFMLEHKI@?$AA?$CI?$AA?$CI?$AA_?$AAD?$AAs?$AAt?$AA?$CJ?$AA?$CJ?$AA?5?$AA?$CB?$AA?$DN?$AA?5?$AAN?$AAU?$AAL?$AAL?$AA?5?$AA?$CG?$AA?$CG?$AA?5?$AA?$CI?$AA?$CI?$AA_?$AAS?$AAi?$AAz?$AAe?$AAI?$AAn?$AAW?$AAo?$AAr@ 00477970     LIBCMTD:wcscpy_s.obj
 0002:000099c8       ??_C@_1FA@ILDLFIFE@?$AAf?$AA?3?$AA?2?$AAd?$AAd?$AA?2?$AAv?$AAc?$AAt?$AAo?$AAo?$AAl?$AAs?$AA?2?$AAc?$AAr?$AAt?$AA?2?$AAc?$AAr?$AAt?$AAw?$AA3?$AA2?$AA?2?$AAh?$AA?2?$AAt?$AAc?$AAs?$AAc?$AAp@ 004779c8     LIBCMTD:wcscpy_s.obj
 0002:00009a18       ??_C@_1BC@KIONAFPO@?$AAw?$AAc?$AAs?$AAc?$AAp?$AAy?$AA_?$AAs?$AA?$AA@ 00477a18     LIBCMTD:wcscpy_s.obj
 0002:00009a2c       ??_C@_1CG@OFBJMIGJ@?$AA?$CI?$AA?$CI?$AA?$CI?$AA_?$AAS?$AAr?$AAc?$AA?$CJ?$AA?$CJ?$AA?$CJ?$AA?5?$AA?$CB?$AA?$DN?$AA?5?$AAN?$AAU?$AAL?$AAL?$AA?$AA@ 00477a2c     LIBCMTD:wcscpy_s.obj
 0002:00009a54       ??_C@_1CI@HCPHDDLE@?$AAB?$AAu?$AAf?$AAf?$AAe?$AAr?$AA?5?$AAi?$AAs?$AA?5?$AAt?$AAo?$AAo?$AA?5?$AAs?$AAm?$AAa?$AAl?$AAl?$AA?$AA@ 00477a54     LIBCMTD:wcscpy_s.obj
 0002:00009a7c       ??_C@_1DM@MADKGDLO@?$AA?$CI?$AAL?$AA?$CC?$AAB?$AAu?$AAf?$AAf?$AAe?$AAr?$AA?5?$AAi?$AAs?$AA?5?$AAt?$AAo?$AAo?$AA?5?$AAs?$AAm?$AAa?$AAl?$AAl?$AA?$CC?$AA?5?$AA?$CG?$AA?$CG?$AA?5?$AA0?$AA?$CJ?$AA?$AA@ 00477a7c     LIBCMTD:wcscpy_s.obj
 0002:00009ab8       ??_C@_1FE@HMGHELF@?$AAf?$AA?3?$AA?2?$AAd?$AAd?$AA?2?$AAv?$AAc?$AAt?$AAo?$AAo?$AAl?$AAs?$AA?2?$AAc?$AAr?$AAt?$AA?2?$AAc?$AAr?$AAt?$AAw?$AA3?$AA2?$AA?2?$AAs?$AAt?$AAd?$AAi?$AAo?$AA?2?$AAs@ 00477ab8     LIBCMTD:swprintf.obj
 0002:00009b0c       ??_C@_1BE@BMIJMLDD@?$AA_?$AAs?$AAw?$AAp?$AAr?$AAi?$AAn?$AAt?$AAf?$AA?$AA@ 00477b0c     LIBCMTD:swprintf.obj
 0002:00009b20       ??_C@_1BG@GOEBHBDC@?$AAU?$AAS?$AAE?$AAR?$AA3?$AA2?$AA?4?$AAD?$AAL?$AAL?$AA?$AA@ 00477b20     LIBCMTD:crtmboxw.obj
 0002:00009b38       ??_C@_0M@DLDCCGNP@MessageBoxW?$AA@ 00477b38     LIBCMTD:crtmboxw.obj
 0002:00009b44       ??_C@_0BA@HNOPNCHB@GetActiveWindow?$AA@ 00477b44     LIBCMTD:crtmboxw.obj
 0002:00009b54       ??_C@_0BD@HHGDFDBJ@GetLastActivePopup?$AA@ 00477b54     LIBCMTD:crtmboxw.obj
 0002:00009b68       ??_C@_0BK@DEKFELLI@GetUserObjectInformationW?$AA@ 00477b68     LIBCMTD:crtmboxw.obj
 0002:00009b84       ??_C@_0BI@DFKBFLJE@GetProcessWindowStation?$AA@ 00477b84     LIBCMTD:crtmboxw.obj
 0002:00009ba0       ??_C@_1FA@IFFFOLDJ@?$AAn?$AAR?$AAp?$AAt?$AAT?$AAy?$AAp?$AAe?$AA?5?$AA?$DO?$AA?$DN?$AA?5?$AA0?$AA?5?$AA?$CG?$AA?$CG?$AA?5?$AAn?$AAR?$AAp?$AAt?$AAT?$AAy?$AAp?$AAe?$AA?5?$AA?$DM?$AA?5?$AA_?$AAC?$AAR?$AAT@ 00477ba0     LIBCMTD:dbgrptt.obj
 0002:00009bf0       ??_C@_1FA@PPLJBGMP@?$AAf?$AA?3?$AA?2?$AAd?$AAd?$AA?2?$AAv?$AAc?$AAt?$AAo?$AAo?$AAl?$AAs?$AA?2?$AAc?$AAr?$AAt?$AA?2?$AAc?$AAr?$AAt?$AAw?$AA3?$AA2?$AA?2?$AAm?$AAi?$AAs?$AAc?$AA?2?$AAd?$AAb@ 00477bf0     LIBCMTD:dbgrptt.obj
 0002:00009c40       ??_C@_1CE@FIHIECNJ@?$AA_?$AAC?$AAr?$AAt?$AAS?$AAe?$AAt?$AAR?$AAe?$AAp?$AAo?$AAr?$AAt?$AAM?$AAo?$AAd?$AAe?$AA?$AA@ 00477c40     LIBCMTD:dbgrptt.obj
 0002:00009c68       ??_C@_1NK@LOFHIHFC@?$AAf?$AAM?$AAo?$AAd?$AAe?$AA?5?$AA?$DN?$AA?$DN?$AA?5?$AA_?$AAC?$AAR?$AAT?$AAD?$AAB?$AAG?$AA_?$AAR?$AAE?$AAP?$AAO?$AAR?$AAT?$AA_?$AAM?$AAO?$AAD?$AAE?$AA?5?$AA?$HM?$AA?$HM?$AA?5@ 00477c68     LIBCMTD:dbgrptt.obj
 0002:00009d44       ??_C@_1CE@IKKEDCME@?$AA_?$AAC?$AAr?$AAt?$AAS?$AAe?$AAt?$AAR?$AAe?$AAp?$AAo?$AAr?$AAt?$AAF?$AAi?$AAl?$AAe?$AA?$AA@ 00477d44     LIBCMTD:dbgrptt.obj
 0002:00009d68       ??_C@_1CA@KHJHLKA@?$AA_?$AAV?$AAC?$AAr?$AAt?$AAD?$AAb?$AAg?$AAR?$AAe?$AAp?$AAo?$AAr?$AAt?$AAA?$AA?$AA@ 00477d68     LIBCMTD:dbgrptt.obj
 0002:00009d88       ??_C@_1FA@JPHJBHEM@?$AA_?$AAi?$AAt?$AAo?$AAa?$AA_?$AAs?$AA?$CI?$AAn?$AAL?$AAi?$AAn?$AAe?$AA?0?$AA?5?$AAs?$AAz?$AAL?$AAi?$AAn?$AAe?$AAM?$AAe?$AAs?$AAs?$AAa?$AAg?$AAe?$AA?0?$AA?5?$AA4?$AA0@ 00477d88     LIBCMTD:dbgrptt.obj
 0002:00009dd8       ??_C@_0CG@BNGLOCEO@Second?5Chance?5Assertion?5Failed?3?5@ 00477dd8     LIBCMTD:dbgrptt.obj
 0002:00009e00       ??_C@_0P@DFJNDPOP@?$DMfile?5unknown?$DO?$AA@ 00477e00     LIBCMTD:dbgrptt.obj
 0002:00009e10       ??_C@_07BHGABMGB@?0?5Line?5?$AA@ 00477e10     LIBCMTD:dbgrptt.obj
 0002:00009e18       ??_C@_1JI@GAALPGBM@?$AAs?$AAt?$AAr?$AAc?$AAp?$AAy?$AA_?$AAs?$AA?$CI?$AAs?$AAz?$AAU?$AAs?$AAe?$AAr?$AAM?$AAe?$AAs?$AAs?$AAa?$AAg?$AAe?$AA?0?$AA?5?$AA4?$AA0?$AA9?$AA6?$AA?0?$AA?5?$AA?$CC?$AA_@ 00477e18     LIBCMTD:dbgrptt.obj
 0002:00009eb0       ??_C@_0CL@EACFGMNB@_CrtDbgReport?3?5String?5too?5long?5o@ 00477eb0     LIBCMTD:dbgrptt.obj
 0002:00009ee0       ??_C@_1KK@GIGAEDMO@?$AAs?$AAt?$AAr?$AAc?$AAp?$AAy?$AA_?$AAs?$AA?$CI?$AAs?$AAz?$AAL?$AAi?$AAn?$AAe?$AAM?$AAe?$AAs?$AAs?$AAa?$AAg?$AAe?$AA?0?$AA?5?$AA4?$AA0?$AA9?$AA6?$AA?0?$AA?5?$AAs?$AAz@ 00477ee0     LIBCMTD:dbgrptt.obj
 0002:00009f8c       ??_C@_0BD@CAENFOHP@Assertion?5failed?3?5?$AA@ 00477f8c     LIBCMTD:dbgrptt.obj
 0002:00009fa0       ??_C@_0BC@LAIDCHCH@Assertion?5failed?$CB?$AA@ 00477fa0     LIBCMTD:dbgrptt.obj
 0002:00009fb8       ??_C@_1FK@NPGBPOFO@?$AAs?$AAt?$AAr?$AAc?$AAa?$AAt?$AA_?$AAs?$AA?$CI?$AAs?$AAz?$AAL?$AAi?$AAn?$AAe?$AAM?$AAe?$AAs?$AAs?$AAa?$AAg?$AAe?$AA?0?$AA?5?$AA4?$AA0?$AA9?$AA6?$AA?0?$AA?5?$AAs?$AAz@ 00477fb8     LIBCMTD:dbgrptt.obj
 0002:0000a018       ??_C@_1EI@CACDLAFK@?$AAs?$AAt?$AAr?$AAc?$AAa?$AAt?$AA_?$AAs?$AA?$CI?$AAs?$AAz?$AAL?$AAi?$AAn?$AAe?$AAM?$AAe?$AAs?$AAs?$AAa?$AAg?$AAe?$AA?0?$AA?5?$AA4?$AA0?$AA9?$AA6?$AA?0?$AA?5?$AA?$CC?$AA?2@ 00478018     LIBCMTD:dbgrptt.obj
 0002:0000a060       ??_C@_01LIIJDEN@?$AN?$AA@  00478060     LIBCMTD:dbgrptt.obj
 0002:0000a068       ??_C@_1EI@LDHJEDO@?$AAs?$AAt?$AAr?$AAc?$AAa?$AAt?$AA_?$AAs?$AA?$CI?$AAs?$AAz?$AAL?$AAi?$AAn?$AAe?$AAM?$AAe?$AAs?$AAs?$AAa?$AAg?$AAe?$AA?0?$AA?5?$AA4?$AA0?$AA9?$AA6?$AA?0?$AA?5?$AA?$CC?$AA?2@ 00478068     LIBCMTD:dbgrptt.obj
 0002:0000a0b0       ??_C@_0M@IPILFDFN@?$CFs?$CI?$CFd?$CJ?5?3?5?$CFs?$AA@ 004780b0     LIBCMTD:dbgrptt.obj
 0002:0000a0c0       ??_C@_1JG@CPKCIOEE@?$AAs?$AAt?$AAr?$AAc?$AAp?$AAy?$AA_?$AAs?$AA?$CI?$AAs?$AAz?$AAO?$AAu?$AAt?$AAM?$AAe?$AAs?$AAs?$AAa?$AAg?$AAe?$AA?0?$AA?5?$AA4?$AA0?$AA9?$AA6?$AA?0?$AA?5?$AA?$CC?$AA_?$AAC@ 004780c0     LIBCMTD:dbgrptt.obj
 0002:0000a158       ??_C@_1FI@IBIOIHEG@?$AAs?$AAt?$AAr?$AAc?$AAp?$AAy?$AA_?$AAs?$AA?$CI?$AAs?$AAz?$AAO?$AAu?$AAt?$AAM?$AAe?$AAs?$AAs?$AAa?$AAg?$AAe?$AA?0?$AA?5?$AA4?$AA0?$AA9?$AA6?$AA?0?$AA?5?$AAs?$AAz?$AAL@ 00478158     LIBCMTD:dbgrptt.obj
 0002:0000a1b0       ??_C@_1IM@OOKIFKOH@?$AAe?$AA?5?$AA?$DN?$AA?5?$AAm?$AAb?$AAs?$AAt?$AAo?$AAw?$AAc?$AAs?$AA_?$AAs?$AA?$CI?$AA?$CG?$AAr?$AAe?$AAt?$AA?0?$AA?5?$AAs?$AAz?$AAO?$AAu?$AAt?$AAM?$AAe?$AAs?$AAs?$AAa?$AAg@ 004781b0     LIBCMTD:dbgrptt.obj
 0002:0000a240       ??_C@_1MC@IGEECMDB@?$AAw?$AAc?$AAs?$AAc?$AAp?$AAy?$AA_?$AAs?$AA?$CI?$AAs?$AAz?$AAO?$AAu?$AAt?$AAM?$AAe?$AAs?$AAs?$AAa?$AAg?$AAe?$AA2?$AA?0?$AA?5?$AA4?$AA0?$AA9?$AA6?$AA?0?$AA?5?$AAL?$AA?$CC@ 00478240     LIBCMTD:dbgrptt.obj
 0002:0000a308       ??_C@_1HO@PJOFIKFE@?$AA_?$AAC?$AAr?$AAt?$AAD?$AAb?$AAg?$AAR?$AAe?$AAp?$AAo?$AAr?$AAt?$AA?3?$AA?5?$AAS?$AAt?$AAr?$AAi?$AAn?$AAg?$AA?5?$AAt?$AAo?$AAo?$AA?5?$AAl?$AAo?$AAn?$AAg?$AA?5?$AAo@ 00478308     LIBCMTD:dbgrptt.obj
 0002:0000a388       ??_C@_1CA@HPALHDOD@?$AA_?$AAV?$AAC?$AAr?$AAt?$AAD?$AAb?$AAg?$AAR?$AAe?$AAp?$AAo?$AAr?$AAt?$AAW?$AA?$AA@ 00478388     LIBCMTD:dbgrptt.obj
 0002:0000a3a8       ??_C@_1FA@CNLLOMHI@?$AA_?$AAi?$AAt?$AAo?$AAw?$AA_?$AAs?$AA?$CI?$AAn?$AAL?$AAi?$AAn?$AAe?$AA?0?$AA?5?$AAs?$AAz?$AAL?$AAi?$AAn?$AAe?$AAM?$AAe?$AAs?$AAs?$AAa?$AAg?$AAe?$AA?0?$AA?5?$AA4?$AA0@ 004783a8     LIBCMTD:dbgrptt.obj
 0002:0000a3f8       ??_C@_1EM@MJFLEDMB@?$AAS?$AAe?$AAc?$AAo?$AAn?$AAd?$AA?5?$AAC?$AAh?$AAa?$AAn?$AAc?$AAe?$AA?5?$AAA?$AAs?$AAs?$AAe?$AAr?$AAt?$AAi?$AAo?$AAn?$AA?5?$AAF?$AAa?$AAi?$AAl?$AAe?$AAd?$AA?3?$AA?5@ 004783f8     LIBCMTD:dbgrptt.obj
 0002:0000a444       ??_C@_1BO@OCHMLCAG@?$AA?$DM?$AAf?$AAi?$AAl?$AAe?$AA?5?$AAu?$AAn?$AAk?$AAn?$AAo?$AAw?$AAn?$AA?$DO?$AA?$AA@ 00478444     LIBCMTD:dbgrptt.obj
 0002:0000a464       ??_C@_1BA@ELMMDCFC@?$AA?0?$AA?5?$AAL?$AAi?$AAn?$AAe?$AA?5?$AA?$AA@ 00478464     LIBCMTD:dbgrptt.obj
 0002:0000a474       ??_C@_13LBAGMAIH@?$AA?6?$AA?$AA@ 00478474     LIBCMTD:dbgrptt.obj
 0002:0000a478       ??_C@_1JK@KHFABAEO@?$AAw?$AAc?$AAs?$AAc?$AAp?$AAy?$AA_?$AAs?$AA?$CI?$AAs?$AAz?$AAU?$AAs?$AAe?$AAr?$AAM?$AAe?$AAs?$AAs?$AAa?$AAg?$AAe?$AA?0?$AA?5?$AA4?$AA0?$AA9?$AA6?$AA?0?$AA?5?$AAL?$AA?$CC@ 00478478     LIBCMTD:dbgrptt.obj
 0002:0000a518       ??_C@_1KO@DGAHENCH@?$AAw?$AAc?$AAs?$AAc?$AAp?$AAy?$AA_?$AAs?$AA?$CI?$AAs?$AAz?$AAL?$AAi?$AAn?$AAe?$AAM?$AAe?$AAs?$AAs?$AAa?$AAg?$AAe?$AA?0?$AA?5?$AA4?$AA0?$AA9?$AA6?$AA?0?$AA?5?$AAs?$AAz@ 00478518     LIBCMTD:dbgrptt.obj
 0002:0000a5c8       ??_C@_1CG@FFFGGODN@?$AAA?$AAs?$AAs?$AAe?$AAr?$AAt?$AAi?$AAo?$AAn?$AA?5?$AAf?$AAa?$AAi?$AAl?$AAe?$AAd?$AA?3?$AA?5?$AA?$AA@ 004785c8     LIBCMTD:dbgrptt.obj
 0002:0000a5f0       ??_C@_1CE@OJBNHDMO@?$AAA?$AAs?$AAs?$AAe?$AAr?$AAt?$AAi?$AAo?$AAn?$AA?5?$AAf?$AAa?$AAi?$AAl?$AAe?$AAd?$AA?$CB?$AA?$AA@ 004785f0     LIBCMTD:dbgrptt.obj
 0002:0000a618       ??_C@_1FK@HPADHBBD@?$AAw?$AAc?$AAs?$AAc?$AAa?$AAt?$AA_?$AAs?$AA?$CI?$AAs?$AAz?$AAL?$AAi?$AAn?$AAe?$AAM?$AAe?$AAs?$AAs?$AAa?$AAg?$AAe?$AA?0?$AA?5?$AA4?$AA0?$AA9?$AA6?$AA?0?$AA?5?$AAs?$AAz@ 00478618     LIBCMTD:dbgrptt.obj
 0002:0000a678       ??_C@_1EK@NMDFGHMF@?$AAw?$AAc?$AAs?$AAc?$AAa?$AAt?$AA_?$AAs?$AA?$CI?$AAs?$AAz?$AAL?$AAi?$AAn?$AAe?$AAM?$AAe?$AAs?$AAs?$AAa?$AAg?$AAe?$AA?0?$AA?5?$AA4?$AA0?$AA9?$AA6?$AA?0?$AA?5?$AAL?$AA?$CC@ 00478678     LIBCMTD:dbgrptt.obj
 0002:0000a6c4       ??_C@_13CMNBPIDO@?$AA?$AN?$AA?$AA@ 004786c4     LIBCMTD:dbgrptt.obj
 0002:0000a6c8       ??_C@_1EK@PHCBEDKB@?$AAw?$AAc?$AAs?$AAc?$AAa?$AAt?$AA_?$AAs?$AA?$CI?$AAs?$AAz?$AAL?$AAi?$AAn?$AAe?$AAM?$AAe?$AAs?$AAs?$AAa?$AAg?$AAe?$AA?0?$AA?5?$AA4?$AA0?$AA9?$AA6?$AA?0?$AA?5?$AAL?$AA?$CC@ 004786c8     LIBCMTD:dbgrptt.obj
 0002:0000a714       ??_C@_1BI@JIDBEPIG@?$AA?$CF?$AAs?$AA?$CI?$AA?$CF?$AAd?$AA?$CJ?$AA?5?$AA?3?$AA?5?$AA?$CF?$AAs?$AA?$AA@ 00478714     LIBCMTD:dbgrptt.obj
 0002:0000a730       ??_C@_1FI@DBAIJPJE@?$AAw?$AAc?$AAs?$AAc?$AAp?$AAy?$AA_?$AAs?$AA?$CI?$AAs?$AAz?$AAO?$AAu?$AAt?$AAM?$AAe?$AAs?$AAs?$AAa?$AAg?$AAe?$AA?0?$AA?5?$AA4?$AA0?$AA9?$AA6?$AA?0?$AA?5?$AAs?$AAz?$AAL@ 00478730     LIBCMTD:dbgrptt.obj
 0002:0000a788       ??_C@_1JC@EOAPFDLN@?$AAw?$AAc?$AAs?$AAt?$AAo?$AAm?$AAb?$AAs?$AA_?$AAs?$AA?$CI?$AA?$CI?$AA?$CI?$AAv?$AAo?$AAi?$AAd?$AA?5?$AA?$CK?$AA?$CJ?$AA0?$AA?$CJ?$AA?0?$AA?5?$AAs?$AAz?$AAO?$AAu?$AAt?$AAM?$AAe?$AAs@ 00478788     LIBCMTD:dbgrptt.obj
 0002:0000a820       ??_C@_1MA@LBAMNNOB@?$AAs?$AAt?$AAr?$AAc?$AAp?$AAy?$AA_?$AAs?$AA?$CI?$AAs?$AAz?$AAO?$AAu?$AAt?$AAM?$AAe?$AAs?$AAs?$AAa?$AAg?$AAe?$AA2?$AA?0?$AA?5?$AA4?$AA0?$AA9?$AA6?$AA?0?$AA?5?$AA?$CC?$AA_@ 00478820     LIBCMTD:dbgrptt.obj
 0002:0000a8e0       ??_C@_0DP@GNPEPHJD@_CrtDbgReport?3?5String?5too?5long?5o@ 004788e0     LIBCMTD:dbgrptt.obj
 0002:0000a920       ??_C@_1IE@CPGKIAGP@?$AAw?$AAc?$AAs?$AAt?$AAo?$AAm?$AAb?$AAs?$AA_?$AAs?$AA?$CI?$AA?$CG?$AAr?$AAe?$AAt?$AA?0?$AA?5?$AAs?$AAz?$AAa?$AAO?$AAu?$AAt?$AAM?$AAe?$AAs?$AAs?$AAa?$AAg?$AAe?$AA?0?$AA?5@ 00478920     LIBCMTD:dbgrptt.obj
 0002:0000a9a4       ??_C@_1BO@DPAOGEII@?$AA?$CI?$AAp?$AAa?$AAt?$AAh?$AA?5?$AA?$CB?$AA?$DN?$AA?5?$AAN?$AAU?$AAL?$AAL?$AA?$CJ?$AA?$AA@ 004789a4     LIBCMTD:open.obj
 0002:0000a9c8       ??_C@_1EM@MNGNPLOA@?$AAf?$AA?3?$AA?2?$AAd?$AAd?$AA?2?$AAv?$AAc?$AAt?$AAo?$AAo?$AAl?$AAs?$AA?2?$AAc?$AAr?$AAt?$AA?2?$AAc?$AAr?$AAt?$AAw?$AA3?$AA2?$AA?2?$AAl?$AAo?$AAw?$AAi?$AAo?$AA?2?$AAo@ 004789c8     LIBCMTD:open.obj
 0002:0000aa14       ??_C@_1M@MFLJCMFJ@?$AA_?$AAo?$AAp?$AAe?$AAn?$AA?$AA@ 00478a14     LIBCMTD:open.obj
 0002:0000aa20       ??_C@_1BM@PGEEHLHE@?$AA?$CI?$AAp?$AAf?$AAh?$AA?5?$AA?$CB?$AA?$DN?$AA?5?$AAN?$AAU?$AAL?$AAL?$AA?$CJ?$AA?$AA@ 00478a20     LIBCMTD:open.obj
 0002:0000aa3c       ??_C@_1BM@IOBAMMHO@?$AA_?$AAs?$AAo?$AAp?$AAe?$AAn?$AA_?$AAh?$AAe?$AAl?$AAp?$AAe?$AAr?$AA?$AA@ 00478a3c     LIBCMTD:open.obj
 0002:0000aa58       ??_C@_1FG@NFINBJCM@?$AA?$CI?$AA?$CI?$AAp?$AAm?$AAo?$AAd?$AAe?$AA?5?$AA?$CG?$AA?5?$AA?$CI?$AA?$HO?$AA?$CI?$AA_?$AAS?$AA_?$AAI?$AAR?$AAE?$AAA?$AAD?$AA?5?$AA?$HM?$AA?5?$AA_?$AAS?$AA_?$AAI?$AAW?$AAR?$AAI?$AAT@ 00478a58     LIBCMTD:open.obj
 0002:0000aab0       ??_C@_1BG@MODEICJK@?$AAs?$AA1?$AA?5?$AA?$CB?$AA?$DN?$AA?5?$AAN?$AAU?$AAL?$AAL?$AA?$AA@ 00478ab0     LIBCMTD:mbsnbcmp.obj
 0002:0000aac8       ??_C@_1FK@HBIEJCLJ@?$AAf?$AA?3?$AA?2?$AAd?$AAd?$AA?2?$AAv?$AAc?$AAt?$AAo?$AAo?$AAl?$AAs?$AA?2?$AAc?$AAr?$AAt?$AA?2?$AAc?$AAr?$AAt?$AAw?$AA3?$AA2?$AA?2?$AAm?$AAb?$AAs?$AAt?$AAr?$AAi?$AAn@ 00478ac8     LIBCMTD:mbsnbcmp.obj
 0002:0000ab24       ??_C@_1BI@LPHOHGHI@?$AA_?$AAm?$AAb?$AAs?$AAn?$AAb?$AAc?$AAm?$AAp?$AA_?$AAl?$AA?$AA@ 00478b24     LIBCMTD:mbsnbcmp.obj
 0002:0000ab3c       ??_C@_1BG@GBJNMPFA@?$AAs?$AA2?$AA?5?$AA?$CB?$AA?$DN?$AA?5?$AAN?$AAU?$AAL?$AAL?$AA?$AA@ 00478b3c     LIBCMTD:mbsnbcmp.obj
 0002:0000ab58       ??_C@_1FK@GCMEGOJB@?$AAf?$AA?3?$AA?2?$AAd?$AAd?$AA?2?$AAv?$AAc?$AAt?$AAo?$AAo?$AAl?$AAs?$AA?2?$AAc?$AAr?$AAt?$AA?2?$AAc?$AAr?$AAt?$AAw?$AA3?$AA2?$AA?2?$AAm?$AAb?$AAs?$AAt?$AAr?$AAi?$AAn@ 00478b58     LIBCMTD:mbsnbicm.obj
 0002:0000abb4       ??_C@_1BK@GEJONGBG@?$AA_?$AAm?$AAb?$AAs?$AAn?$AAb?$AAi?$AAc?$AAm?$AAp?$AA_?$AAl?$AA?$AA@ 00478bb4     LIBCMTD:mbsnbicm.obj
 0002:0000abd0       ___lookuptable_s           00478bd0     LIBCMTD:outputs.obj
 0002:0000ac2c       ??_C@_1BI@COFBLHCG@?$AA_?$AAo?$AAu?$AAt?$AAp?$AAu?$AAt?$AA_?$AAs?$AA_?$AAl?$AA?$AA@ 00478c2c     LIBCMTD:outputs.obj
 0002:0000ac48       ??_C@_1EE@DMAIGNBG@?$AA?$CI?$AA?$CC?$AAI?$AAn?$AAc?$AAo?$AAr?$AAr?$AAe?$AAc?$AAt?$AA?5?$AAf?$AAo?$AAr?$AAm?$AAa?$AAt?$AA?5?$AAs?$AAp?$AAe?$AAc?$AAi?$AAf?$AAi?$AAe?$AAr?$AA?$CC?$AA?0?$AA?5?$AA0@ 00478c48     LIBCMTD:outputs.obj
 0002:0000ac90       ??_C@_1FK@LNCFKALM@?$AA?$CI?$AA?$CI?$AAs?$AAt?$AAa?$AAt?$AAe?$AA?5?$AA?$DN?$AA?$DN?$AA?5?$AAS?$AAT?$AA_?$AAN?$AAO?$AAR?$AAM?$AAA?$AAL?$AA?$CJ?$AA?5?$AA?$HM?$AA?$HM?$AA?5?$AA?$CI?$AAs?$AAt?$AAa?$AAt?$AAe?$AA?5@ 00478c90     LIBCMTD:outputs.obj
 0002:0000acec       ??_C@_1BI@KANOLAMF@?$AA_?$AAo?$AAu?$AAt?$AAp?$AAu?$AAt?$AA_?$AAp?$AA_?$AAl?$AA?$AA@ 00478cec     LIBCMTD:outputp.obj
 0002:0000ad08       ??_C@_1JC@PFJNKEIO@?$AA?$CI?$AA?$CI?$AAt?$AAy?$AAp?$AAe?$AA_?$AAp?$AAo?$AAs?$AA?5?$AA?$DO?$AA?$DN?$AA?5?$AA0?$AA?$CJ?$AA?5?$AA?$CG?$AA?$CG?$AA?5?$AA?$CI?$AA?$CK?$AAe?$AAn?$AAd?$AA_?$AAp?$AAo?$AAs?$AA?5?$AA?$DN?$AA?$DN@ 00478d08     LIBCMTD:outputp.obj
 0002:0000ada0       ??_C@_1JE@NMBHOLFI@?$AA?$CI?$AA?$CI?$AAw?$AAi?$AAd?$AAt?$AAh?$AA_?$AAp?$AAo?$AAs?$AA?5?$AA?$DO?$AA?$DN?$AA?5?$AA0?$AA?$CJ?$AA?5?$AA?$CG?$AA?$CG?$AA?5?$AA?$CI?$AA?$CK?$AAe?$AAn?$AAd?$AA_?$AAp?$AAo?$AAs?$AA?5?$AA?$DN@ 00478da0     LIBCMTD:outputp.obj
 0002:0000ae38       ??_C@_1II@PIPIMLPF@?$AA_?$AAt?$AAv?$AAa?$AAl?$AAi?$AAd?$AAa?$AAt?$AAe?$AA_?$AAp?$AAa?$AAr?$AAa?$AAm?$AA_?$AAr?$AAe?$AAu?$AAs?$AAe?$AA?$CI?$AA?$CG?$AAp?$AAo?$AAs?$AA_?$AAv?$AAa?$AAl?$AAu@ 00478e38     LIBCMTD:outputp.obj
 0002:0000aec0       ??_C@_1JG@JBJBOCFB@?$AA?$CI?$AA?$CI?$AAp?$AAr?$AAe?$AAc?$AAi?$AAs?$AA_?$AAp?$AAo?$AAs?$AA?5?$AA?$DO?$AA?$DN?$AA?5?$AA0?$AA?$CJ?$AA?5?$AA?$CG?$AA?$CG?$AA?5?$AA?$CI?$AA?$CK?$AAe?$AAn?$AAd?$AA_?$AAp?$AAo?$AAs?$AA?5@ 00478ec0     LIBCMTD:outputp.obj
 0002:0000af58       ??_C@_1IK@EIEPDKHJ@?$AA_?$AAt?$AAv?$AAa?$AAl?$AAi?$AAd?$AAa?$AAt?$AAe?$AA_?$AAp?$AAa?$AAr?$AAa?$AAm?$AA_?$AAr?$AAe?$AAu?$AAs?$AAe?$AA?$CI?$AA?$CG?$AAp?$AAo?$AAs?$AA_?$AAv?$AAa?$AAl?$AAu@ 00478f58     LIBCMTD:outputp.obj
 0002:0000afe8       ??_C@_1EM@BNPHBBIA@?$AA?$CI?$AA?$CI?$AAt?$AAy?$AAp?$AAe?$AA_?$AAp?$AAo?$AAs?$AA?$DO?$AA?$DN?$AA0?$AA?$CJ?$AA?5?$AA?$CG?$AA?$CG?$AA?5?$AA?$CI?$AAt?$AAy?$AAp?$AAe?$AA_?$AAp?$AAo?$AAs?$AA?$DM?$AA_?$AAA?$AAR?$AAG@ 00478fe8     LIBCMTD:outputp.obj
 0002:0000b038       ??_C@_1IK@MHEDJAMK@?$AA_?$AAt?$AAv?$AAa?$AAl?$AAi?$AAd?$AAa?$AAt?$AAe?$AA_?$AAp?$AAa?$AAr?$AAa?$AAm?$AA_?$AAr?$AAe?$AAu?$AAs?$AAe?$AA?$CI?$AA?$CG?$AAp?$AAo?$AAs?$AA_?$AAv?$AAa?$AAl?$AAu@ 00479038     LIBCMTD:outputp.obj
 0002:0000b0c8       ??_C@_1IG@FDCPLALG@?$AA_?$AAt?$AAv?$AAa?$AAl?$AAi?$AAd?$AAa?$AAt?$AAe?$AA_?$AAp?$AAa?$AAr?$AAa?$AAm?$AA_?$AAr?$AAe?$AAu?$AAs?$AAe?$AA?$CI?$AA?$CG?$AAp?$AAo?$AAs?$AA_?$AAv?$AAa?$AAl?$AAu@ 004790c8     LIBCMTD:outputp.obj
 0002:0000b150       ??_C@_1IG@HJIMKDHC@?$AA_?$AAt?$AAv?$AAa?$AAl?$AAi?$AAd?$AAa?$AAt?$AAe?$AA_?$AAp?$AAa?$AAr?$AAa?$AAm?$AA_?$AAr?$AAe?$AAu?$AAs?$AAe?$AA?$CI?$AA?$CG?$AAp?$AAo?$AAs?$AA_?$AAv?$AAa?$AAl?$AAu@ 00479150     LIBCMTD:outputp.obj
 0002:0000b1d8       ??_C@_1IM@DNGHAPLB@?$AA_?$AAt?$AAv?$AAa?$AAl?$AAi?$AAd?$AAa?$AAt?$AAe?$AA_?$AAp?$AAa?$AAr?$AAa?$AAm?$AA_?$AAr?$AAe?$AAu?$AAs?$AAe?$AA?$CI?$AA?$CG?$AAp?$AAo?$AAs?$AA_?$AAv?$AAa?$AAl?$AAu@ 004791d8     LIBCMTD:outputp.obj
 0002:0000b264       ??_C@_1DG@GOHGNKHE@?$AAp?$AAa?$AAs?$AAs?$AA?5?$AA?$DN?$AA?$DN?$AA?5?$AAF?$AAO?$AAR?$AAM?$AAA?$AAT?$AA_?$AAO?$AAU?$AAT?$AAP?$AAU?$AAT?$AA_?$AAP?$AAA?$AAS?$AAS?$AA?$AA@ 00479264     LIBCMTD:outputp.obj
 0002:0000b2a0       ??_C@_1IK@NBGDDCBN@?$AA_?$AAt?$AAv?$AAa?$AAl?$AAi?$AAd?$AAa?$AAt?$AAe?$AA_?$AAp?$AAa?$AAr?$AAa?$AAm?$AA_?$AAr?$AAe?$AAu?$AAs?$AAe?$AA?$CI?$AA?$CG?$AAp?$AAo?$AAs?$AA_?$AAv?$AAa?$AAl?$AAu@ 004792a0     LIBCMTD:outputp.obj
 0002:0000b330       ??_C@_1JC@OACKELNN@?$AA_?$AAt?$AAv?$AAa?$AAl?$AAi?$AAd?$AAa?$AAt?$AAe?$AA_?$AAp?$AAa?$AAr?$AAa?$AAm?$AA_?$AAr?$AAe?$AAu?$AAs?$AAe?$AA?$CI?$AA?$CG?$AAp?$AAo?$AAs?$AA_?$AAv?$AAa?$AAl?$AAu@ 00479330     LIBCMTD:outputp.obj
 0002:0000b3c8       ??_C@_1FK@BCPANIEK@?$AA?$CI?$AA?$CC?$AAM?$AAi?$AAs?$AAs?$AAi?$AAn?$AAg?$AA?5?$AAp?$AAo?$AAs?$AAi?$AAt?$AAi?$AAo?$AAn?$AA?5?$AAi?$AAn?$AA?5?$AAt?$AAh?$AAe?$AA?5?$AAf?$AAo?$AAr?$AAm?$AAa?$AAt@ 004793c8     LIBCMTD:outputp.obj
 0002:0000b428       ??_C@_1FA@NFCHPDNG@?$AAf?$AA?3?$AA?2?$AAd?$AAd?$AA?2?$AAv?$AAc?$AAt?$AAo?$AAo?$AAl?$AAs?$AA?2?$AAc?$AAr?$AAt?$AA?2?$AAc?$AAr?$AAt?$AAw?$AA3?$AA2?$AA?2?$AAl?$AAo?$AAw?$AAi?$AAo?$AA?2?$AAi@ 00479428     LIBCMTD:isatty.obj
 0002:0000b478       ??_C@_1BA@LEBDGIHM@?$AA_?$AAi?$AAs?$AAa?$AAt?$AAt?$AAy?$AA?$AA@ 00479478     LIBCMTD:isatty.obj
 0002:0000b488       ??_C@_1CO@HFMIILNF@?$AAs?$AAi?$AAz?$AAe?$AAI?$AAn?$AAB?$AAy?$AAt?$AAe?$AAs?$AA?5?$AA?$DM?$AA?$DN?$AA?5?$AAI?$AAN?$AAT?$AA_?$AAM?$AAA?$AAX?$AA?$AA@ 00479488     LIBCMTD:wctomb.obj
 0002:0000b4b8       ??_C@_1FE@GKMDCPPB@?$AAf?$AA?3?$AA?2?$AAd?$AAd?$AA?2?$AAv?$AAc?$AAt?$AAo?$AAo?$AAl?$AAs?$AA?2?$AAc?$AAr?$AAt?$AA?2?$AAc?$AAr?$AAt?$AAw?$AA3?$AA2?$AA?2?$AAc?$AAo?$AAn?$AAv?$AAe?$AAr?$AAt@ 004794b8     LIBCMTD:wctomb.obj
 0002:0000b50c       ??_C@_1BI@IEADNOHF@?$AA_?$AAw?$AAc?$AAt?$AAo?$AAm?$AAb?$AA_?$AAs?$AA_?$AAl?$AA?$AA@ 0047950c     LIBCMTD:wctomb.obj
 0002:0000b528       ??_C@_1FA@EDIAPAPE@?$AAf?$AA?3?$AA?2?$AAd?$AAd?$AA?2?$AAv?$AAc?$AAt?$AAo?$AAo?$AAl?$AAs?$AA?2?$AAc?$AAr?$AAt?$AA?2?$AAc?$AAr?$AAt?$AAw?$AA3?$AA2?$AA?2?$AAh?$AA?2?$AAt?$AAc?$AAs?$AAc?$AAa@ 00479528     LIBCMTD:wcscat_s.obj
 0002:0000b578       ??_C@_1BC@PLIEPKPJ@?$AAw?$AAc?$AAs?$AAc?$AAa?$AAt?$AA_?$AAs?$AA?$AA@ 00479578     LIBCMTD:wcscat_s.obj
 0002:0000b58c       ??_C@_1DM@FHLMIEG@?$AAS?$AAt?$AAr?$AAi?$AAn?$AAg?$AA?5?$AAi?$AAs?$AA?5?$AAn?$AAo?$AAt?$AA?5?$AAn?$AAu?$AAl?$AAl?$AA?5?$AAt?$AAe?$AAr?$AAm?$AAi?$AAn?$AAa?$AAt?$AAe?$AAd?$AA?$AA@ 0047958c     LIBCMTD:wcscat_s.obj
 0002:0000b5c8       ??_C@_1FA@MJKDNFFB@?$AA?$CI?$AAL?$AA?$CC?$AAS?$AAt?$AAr?$AAi?$AAn?$AAg?$AA?5?$AAi?$AAs?$AA?5?$AAn?$AAo?$AAt?$AA?5?$AAn?$AAu?$AAl?$AAl?$AA?5?$AAt?$AAe?$AAr?$AAm?$AAi?$AAn?$AAa?$AAt?$AAe?$AAd@ 004795c8     LIBCMTD:wcscat_s.obj
 0002:0000b618       ??_C@_1FC@LFLBLJJB@?$AAf?$AA?3?$AA?2?$AAd?$AAd?$AA?2?$AAv?$AAc?$AAt?$AAo?$AAo?$AAl?$AAs?$AA?2?$AAc?$AAr?$AAt?$AA?2?$AAc?$AAr?$AAt?$AAw?$AA3?$AA2?$AA?2?$AAh?$AA?2?$AAt?$AAc?$AAs?$AAn?$AAc@ 00479618     LIBCMTD:wcsncpy_s.obj
 0002:0000b66c       ??_C@_1BE@PMMBFFCC@?$AAw?$AAc?$AAs?$AAn?$AAc?$AAp?$AAy?$AA_?$AAs?$AA?$AA@ 0047966c     LIBCMTD:wcsncpy_s.obj
 0002:0000b680       ??_C@_1FC@NCPEPIBI@?$AA?$CI?$AA?$CI?$AA_?$AAD?$AAs?$AAt?$AA?$CJ?$AA?$CJ?$AA?5?$AA?$CB?$AA?$DN?$AA?5?$AAN?$AAU?$AAL?$AAL?$AA?5?$AA?$CG?$AA?$CG?$AA?5?$AA?$CI?$AA?$CI?$AA_?$AAS?$AAi?$AAz?$AAe?$AAI?$AAn?$AAB?$AAy?$AAt@ 00479680     LIBCMTD:strncpy_s.obj
 0002:0000b6d4       ??_C@_1BE@NDMJHJJG@?$AAs?$AAt?$AAr?$AAn?$AAc?$AAp?$AAy?$AA_?$AAs?$AA?$AA@ 004796d4     LIBCMTD:strncpy_s.obj
 0002:0000b6e8       ??_C@_1FE@KNPCCODH@?$AA?$CI?$AA?$CC?$AAC?$AAo?$AAr?$AAr?$AAu?$AAp?$AAt?$AAe?$AAd?$AA?5?$AAp?$AAo?$AAi?$AAn?$AAt?$AAe?$AAr?$AA?5?$AAp?$AAa?$AAs?$AAs?$AAe?$AAd?$AA?5?$AAt?$AAo?$AA?5?$AA_?$AAf@ 004796e8     LIBCMTD:a_loc.obj
 0002:0000b740       ??_C@_1EI@DKDOCKPJ@?$AAf?$AA?3?$AA?2?$AAd?$AAd?$AA?2?$AAv?$AAc?$AAt?$AAo?$AAo?$AAl?$AAs?$AA?2?$AAc?$AAr?$AAt?$AA?2?$AAc?$AAr?$AAt?$AAw?$AA3?$AA2?$AA?2?$AAh?$AA?2?$AAm?$AAa?$AAl?$AAl?$AAo@ 00479740     LIBCMTD:a_loc.obj
 0002:0000b788       ??_C@_15EDMHLDMO@?$AAc?$AAa?$AA?$AA@ 00479788     LIBCMTD:winapinls.obj
 0002:0000b790       ??_C@_1O@BPEAJADD@?$AAz?$AAh?$AA?9?$AAC?$AAH?$AAS?$AA?$AA@ 00479790     LIBCMTD:winapinls.obj
 0002:0000b7a0       ??_C@_15LJNHCMNK@?$AAc?$AAs?$AA?$AA@ 004797a0     LIBCMTD:winapinls.obj
 0002:0000b7a8       ??_C@_15FOMCIDHG@?$AAd?$AAa?$AA?$AA@ 004797a8     LIBCMTD:winapinls.obj
 0002:0000b7b0       ??_C@_15NBKABECB@?$AAd?$AAe?$AA?$AA@ 004797b0     LIBCMTD:winapinls.obj
 0002:0000b7b8       ??_C@_15GHPEIIAO@?$AAe?$AAl?$AA?$AA@ 004797b8     LIBCMTD:winapinls.obj
 0002:0000b7c0       ??_C@_15MNPNEAIF@?$AAe?$AAn?$AA?$AA@ 004797c0     LIBCMTD:winapinls.obj
 0002:0000b7c8       ??_C@_15GPIOMPMH@?$AAe?$AAs?$AA?$AA@ 004797c8     LIBCMTD:winapinls.obj
 0002:0000b7d0       ??_C@_15NGLOAKJC@?$AAf?$AAi?$AA?$AA@ 004797d0     LIBCMTD:winapinls.obj
 0002:0000b7d8       ??_C@_15FBKGNKAM@?$AAf?$AAr?$AA?$AA@ 004797d8     LIBCMTD:winapinls.obj
 0002:0000b7e0       ??_C@_15KGGCNEFK@?$AAh?$AAe?$AA?$AA@ 004797e0     LIBCMTD:winapinls.obj
 0002:0000b7e8       ??_C@_15PGHLIDMF@?$AAh?$AAu?$AA?$AA@ 004797e8     LIBCMTD:winapinls.obj
 0002:0000b7f0       ??_C@_15BIEMAPLM@?$AAi?$AAs?$AA?$AA@ 004797f0     LIBCMTD:winapinls.obj
 0002:0000b7f8       ??_C@_15IFJLDHAF@?$AAi?$AAt?$AA?$AA@ 004797f8     LIBCMTD:winapinls.obj
 0002:0000b800       ??_C@_15GEMIOCAG@?$AAj?$AAa?$AA?$AA@ 00479800     LIBCMTD:winapinls.obj
 0002:0000b808       ??_C@_15EPELEGJA@?$AAk?$AAo?$AA?$AA@ 00479808     LIBCMTD:winapinls.obj
 0002:0000b810       ??_C@_15NDDHIMN@?$AAn?$AAl?$AA?$AA@ 00479810     LIBCMTD:winapinls.obj
 0002:0000b818       ??_C@_15BPIGNHCD@?$AAn?$AAo?$AA?$AA@ 00479818     LIBCMTD:winapinls.obj
 0002:0000b820       ??_C@_15DEOPBLCG@?$AAp?$AAl?$AA?$AA@ 00479820     LIBCMTD:winapinls.obj
 0002:0000b828       ??_C@_15KBECGEFG@?$AAp?$AAt?$AA?$AA@ 00479828     LIBCMTD:winapinls.obj
 0002:0000b830       ??_C@_15GLJCBFMD@?$AAr?$AAo?$AA?$AA@ 00479830     LIBCMTD:winapinls.obj
 0002:0000b838       ??_C@_15FEDGKCDI@?$AAr?$AAu?$AA?$AA@ 00479838     LIBCMTD:winapinls.obj
 0002:0000b840       ??_C@_15GLKMLLHM@?$AAh?$AAr?$AA?$AA@ 00479840     LIBCMTD:winapinls.obj
 0002:0000b848       ??_C@_15CPKMFBDB@?$AAs?$AAk?$AA?$AA@ 00479848     LIBCMTD:winapinls.obj
 0002:0000b850       ??_C@_15BAAIOGMK@?$AAs?$AAq?$AA?$AA@ 00479850     LIBCMTD:winapinls.obj
 0002:0000b858       ??_C@_15INNPNOHD@?$AAs?$AAv?$AA?$AA@ 00479858     LIBCMTD:winapinls.obj
 0002:0000b860       ??_C@_15CABMMOGH@?$AAt?$AAh?$AA?$AA@ 00479860     LIBCMTD:winapinls.obj
 0002:0000b868       ??_C@_15BPLIHJJM@?$AAt?$AAr?$AA?$AA@ 00479868     LIBCMTD:winapinls.obj
 0002:0000b870       ??_C@_15NEOEKKDJ@?$AAu?$AAr?$AA?$AA@ 00479870     LIBCMTD:winapinls.obj
 0002:0000b878       ??_C@_15NFICGAJK@?$AAi?$AAd?$AA?$AA@ 00479878     LIBCMTD:winapinls.obj
 0002:0000b880       ??_C@_15PJPFLCCM@?$AAu?$AAk?$AA?$AA@ 00479880     LIBCMTD:winapinls.obj
 0002:0000b888       ??_C@_15HPJPHDM@?$AAb?$AAe?$AA?$AA@ 00479888     LIBCMTD:winapinls.obj
 0002:0000b890       ??_C@_15LCHLGJII@?$AAs?$AAl?$AA?$AA@ 00479890     LIBCMTD:winapinls.obj
 0002:0000b898       ??_C@_15PCFJPHHO@?$AAe?$AAt?$AA?$AA@ 00479898     LIBCMTD:winapinls.obj
 0002:0000b8a0       ??_C@_15HPFPGODN@?$AAl?$AAv?$AA?$AA@ 004798a0     LIBCMTD:winapinls.obj
 0002:0000b8a8       ??_C@_15NFFGKGLG@?$AAl?$AAt?$AA?$AA@ 004798a8     LIBCMTD:winapinls.obj
 0002:0000b8b0       ??_C@_15BDAKCCHN@?$AAf?$AAa?$AA?$AA@ 004798b0     LIBCMTD:winapinls.obj
 0002:0000b8b8       ??_C@_15NFGIAIAJ@?$AAv?$AAi?$AA?$AA@ 004798b8     LIBCMTD:winapinls.obj
 0002:0000b8c0       ??_C@_15LMKNDMHN@?$AAh?$AAy?$AA?$AA@ 004798c0     LIBCMTD:winapinls.obj
 0002:0000b8c8       ??_C@_15IJBHMCFL@?$AAa?$AAz?$AA?$AA@ 004798c8     LIBCMTD:winapinls.obj
 0002:0000b8d0       ??_C@_15EKOFJABL@?$AAe?$AAu?$AA?$AA@ 004798d0     LIBCMTD:winapinls.obj
 0002:0000b8d8       ??_C@_15BGHADCNK@?$AAm?$AAk?$AA?$AA@ 004798d8     LIBCMTD:winapinls.obj
 0002:0000b8e0       ??_C@_15JDNICKHM@?$AAa?$AAf?$AA?$AA@ 004798e0     LIBCMTD:winapinls.obj
 0002:0000b8e8       ??_C@_15KPJEDBKD@?$AAk?$AAa?$AA?$AA@ 004798e8     LIBCMTD:winapinls.obj
 0002:0000b8f0       ??_C@_15PDNFFFEO@?$AAf?$AAo?$AA?$AA@ 004798f0     LIBCMTD:winapinls.obj
 0002:0000b8f8       ??_C@_15OMLEGLOC@?$AAh?$AAi?$AA?$AA@ 004798f8     LIBCMTD:winapinls.obj
 0002:0000b900       ??_C@_15IDNNENKK@?$AAm?$AAs?$AA?$AA@ 00479900     LIBCMTD:winapinls.obj
 0002:0000b908       ??_C@_15MACJNBMH@?$AAk?$AAk?$AA?$AA@ 00479908     LIBCMTD:winapinls.obj
 0002:0000b910       ??_C@_15DKDJEOND@?$AAk?$AAy?$AA?$AA@ 00479910     LIBCMTD:winapinls.obj
 0002:0000b918       ??_C@_15DFGDLJBG@?$AAs?$AAw?$AA?$AA@ 00479918     LIBCMTD:winapinls.obj
 0002:0000b920       ??_C@_15BBFAICNG@?$AAu?$AAz?$AA?$AA@ 00479920     LIBCMTD:winapinls.obj
 0002:0000b928       ??_C@_15DKNDCGEA@?$AAt?$AAt?$AA?$AA@ 00479928     LIBCMTD:winapinls.obj
 0002:0000b930       ??_C@_15MGIFMDPL@?$AAp?$AAa?$AA?$AA@ 00479930     LIBCMTD:winapinls.obj
 0002:0000b938       ??_C@_15HCNDBBA@?$AAg?$AAu?$AA?$AA@ 00479938     LIBCMTD:winapinls.obj
 0002:0000b940       ??_C@_15FNBEIBON@?$AAt?$AAa?$AA?$AA@ 00479940     LIBCMTD:winapinls.obj
 0002:0000b948       ??_C@_15NCHGBGLK@?$AAt?$AAe?$AA?$AA@ 00479948     LIBCMTD:winapinls.obj
 0002:0000b950       ??_C@_15PHPHCBPF@?$AAk?$AAn?$AA?$AA@ 00479950     LIBCMTD:winapinls.obj
 0002:0000b958       ??_C@_15DLGBCKMP@?$AAm?$AAr?$AA?$AA@ 00479958     LIBCMTD:winapinls.obj
 0002:0000b960       ??_C@_15EABBLBFF@?$AAs?$AAa?$AA?$AA@ 00479960     LIBCMTD:winapinls.obj
 0002:0000b968       ??_C@_15CBKOMCOI@?$AAm?$AAn?$AA?$AA@ 00479968     LIBCMTD:winapinls.obj
 0002:0000b970       ??_C@_15CKDMCJAF@?$AAg?$AAl?$AA?$AA@ 00479970     LIBCMTD:winapinls.obj
 0002:0000b978       ??_C@_17CNJFBPG@?$AAk?$AAo?$AAk?$AA?$AA@ 00479978     LIBCMTD:winapinls.obj
 0002:0000b980       ??_C@_17FFBJICPL@?$AAs?$AAy?$AAr?$AA?$AA@ 00479980     LIBCMTD:winapinls.obj
 0002:0000b988       ??_C@_17KPNDCPAF@?$AAd?$AAi?$AAv?$AA?$AA@ 00479988     LIBCMTD:winapinls.obj
 0002:0000b990       ??_C@_1M@OKAHONE@?$AAa?$AAr?$AA?9?$AAS?$AAA?$AA?$AA@ 00479990     LIBCMTD:winapinls.obj
 0002:0000b99c       ??_C@_1M@FFFIGIGK@?$AAb?$AAg?$AA?9?$AAB?$AAG?$AA?$AA@ 0047999c     LIBCMTD:winapinls.obj
 0002:0000b9a8       ??_C@_1M@BJNKEDC@?$AAc?$AAa?$AA?9?$AAE?$AAS?$AA?$AA@ 004799a8     LIBCMTD:winapinls.obj
 0002:0000b9b4       ??_C@_1M@IJJHFJHA@?$AAc?$AAs?$AA?9?$AAC?$AAZ?$AA?$AA@ 004799b4     LIBCMTD:winapinls.obj
 0002:0000b9c0       ??_C@_1M@CLPEOBGI@?$AAd?$AAa?$AA?9?$AAD?$AAK?$AA?$AA@ 004799c0     LIBCMTD:winapinls.obj
 0002:0000b9cc       ??_C@_1M@MCMADGCB@?$AAd?$AAe?$AA?9?$AAD?$AAE?$AA?$AA@ 004799cc     LIBCMTD:winapinls.obj
 0002:0000b9d8       ??_C@_1M@OOCKEMAM@?$AAe?$AAl?$AA?9?$AAG?$AAR?$AA?$AA@ 004799d8     LIBCMTD:winapinls.obj
 0002:0000b9e4       ??_C@_1M@DDNJFGID@?$AAf?$AAi?$AA?9?$AAF?$AAI?$AA?$AA@ 004799e4     LIBCMTD:winapinls.obj
 0002:0000b9f0       ??_C@_1M@GLIPPMAC@?$AAf?$AAr?$AA?9?$AAF?$AAR?$AA?$AA@ 004799f0     LIBCMTD:winapinls.obj
 0002:0000b9fc       ??_C@_1M@GFMCHPE@?$AAh?$AAe?$AA?9?$AAI?$AAL?$AA?$AA@ 004799fc     LIBCMTD:winapinls.obj
 0002:0000ba08       ??_C@_1M@MHLPGNKM@?$AAh?$AAu?$AA?9?$AAH?$AAU?$AA?$AA@ 00479a08     LIBCMTD:winapinls.obj
 0002:0000ba14       ??_C@_1M@LPDDNNPN@?$AAi?$AAs?$AA?9?$AAI?$AAS?$AA?$AA@ 00479a14     LIBCMTD:winapinls.obj
 0002:0000ba20       ??_C@_1M@MADIPODN@?$AAi?$AAt?$AA?9?$AAI?$AAT?$AA?$AA@ 00479a20     LIBCMTD:winapinls.obj
 0002:0000ba2c       ??_C@_1M@IHBJJGG@?$AAn?$AAl?$AA?9?$AAN?$AAL?$AA?$AA@ 00479a2c     LIBCMTD:winapinls.obj
 0002:0000ba38       ??_C@_1M@EANAGDL@?$AAn?$AAb?$AA?9?$AAN?$AAO?$AA?$AA@ 00479a38     LIBCMTD:winapinls.obj
 0002:0000ba44       ??_C@_1M@NEIEMEGP@?$AAp?$AAl?$AA?9?$AAP?$AAL?$AA?$AA@ 00479a44     LIBCMTD:winapinls.obj
 0002:0000ba50       ??_C@_1M@BOCFIGEP@?$AAp?$AAt?$AA?9?$AAB?$AAR?$AA?$AA@ 00479a50     LIBCMTD:winapinls.obj
 0002:0000ba5c       ??_C@_1M@IMPFOPBG@?$AAr?$AAo?$AA?9?$AAR?$AAO?$AA?$AA@ 00479a5c     LIBCMTD:winapinls.obj
 0002:0000ba68       ??_C@_1M@IDNNEJMM@?$AAr?$AAu?$AA?9?$AAR?$AAU?$AA?$AA@ 00479a68     LIBCMTD:winapinls.obj
 0002:0000ba74       ??_C@_1M@LILEEOGM@?$AAh?$AAr?$AA?9?$AAH?$AAR?$AA?$AA@ 00479a74     LIBCMTD:winapinls.obj
 0002:0000ba80       ??_C@_1M@FKIFEHPB@?$AAs?$AAk?$AA?9?$AAS?$AAK?$AA?$AA@ 00479a80     LIBCMTD:winapinls.obj
 0002:0000ba8c       ??_C@_1M@LJMAMNPJ@?$AAs?$AAq?$AA?9?$AAA?$AAL?$AA?$AA@ 00479a8c     LIBCMTD:winapinls.obj
 0002:0000ba98       ??_C@_1M@GIAKDKJK@?$AAs?$AAv?$AA?9?$AAS?$AAE?$AA?$AA@ 00479a98     LIBCMTD:winapinls.obj
 0002:0000baa4       ??_C@_1M@MKJKIKCL@?$AAt?$AAh?$AA?9?$AAT?$AAH?$AA?$AA@ 00479aa4     LIBCMTD:winapinls.obj
 0002:0000bab0       ??_C@_1M@MFLCCMPB@?$AAt?$AAr?$AA?9?$AAT?$AAR?$AA?$AA@ 00479ab0     LIBCMTD:winapinls.obj
 0002:0000babc       ??_C@_1M@OIJHDKJN@?$AAu?$AAr?$AA?9?$AAP?$AAK?$AA?$AA@ 00479abc     LIBCMTD:winapinls.obj
 0002:0000bac8       ??_C@_1M@LHIPCIEK@?$AAi?$AAd?$AA?9?$AAI?$AAD?$AA?$AA@ 00479ac8     LIBCMTD:winapinls.obj
 0002:0000bad4       ??_C@_1M@MFMOBGI@?$AAu?$AAk?$AA?9?$AAU?$AAA?$AA?$AA@ 00479ad4     LIBCMTD:winapinls.obj
 0002:0000bae0       ??_C@_1M@OBGLJIPL@?$AAb?$AAe?$AA?9?$AAB?$AAY?$AA?$AA@ 00479ae0     LIBCMTD:winapinls.obj
 0002:0000baec       ??_C@_1M@BCFAJEAD@?$AAs?$AAl?$AA?9?$AAS?$AAI?$AA?$AA@ 00479aec     LIBCMTD:winapinls.obj
 0002:0000baf8       ??_C@_1M@FKFFEDDN@?$AAe?$AAt?$AA?9?$AAE?$AAE?$AA?$AA@ 00479af8     LIBCMTD:winapinls.obj
 0002:0000bb04       ??_C@_1M@KGKKAACI@?$AAl?$AAv?$AA?9?$AAL?$AAV?$AA?$AA@ 00479b04     LIBCMTD:winapinls.obj
 0002:0000bb10       ??_C@_1M@IFGBIJO@?$AAl?$AAt?$AA?9?$AAL?$AAT?$AA?$AA@ 00479b10     LIBCMTD:winapinls.obj
 0002:0000bb1c       ??_C@_1M@FGEAHEDM@?$AAf?$AAa?$AA?9?$AAI?$AAR?$AA?$AA@ 00479b1c     LIBCMTD:winapinls.obj
 0002:0000bb28       ??_C@_1M@KBMAIBFN@?$AAv?$AAi?$AA?9?$AAV?$AAN?$AA?$AA@ 00479b28     LIBCMTD:winapinls.obj
 0002:0000bb34       ??_C@_1M@GPCBKDJK@?$AAh?$AAy?$AA?9?$AAA?$AAM?$AA?$AA@ 00479b34     LIBCMTD:winapinls.obj
 0002:0000bb40       ??_C@_1BG@BECMDDJB@?$AAa?$AAz?$AA?9?$AAA?$AAZ?$AA?9?$AAL?$AAa?$AAt?$AAn?$AA?$AA@ 00479b40     LIBCMTD:winapinls.obj
 0002:0000bb58       ??_C@_1M@MAOFCAEA@?$AAe?$AAu?$AA?9?$AAE?$AAS?$AA?$AA@ 00479b58     LIBCMTD:winapinls.obj
 0002:0000bb64       ??_C@_1M@IGHABKPI@?$AAm?$AAk?$AA?9?$AAM?$AAK?$AA?$AA@ 00479b64     LIBCMTD:winapinls.obj
 0002:0000bb70       ??_C@_1M@IAIGNEJG@?$AAt?$AAn?$AA?9?$AAZ?$AAA?$AA?$AA@ 00479b70     LIBCMTD:winapinls.obj
 0002:0000bb7c       ??_C@_1M@IIJCOJFA@?$AAx?$AAh?$AA?9?$AAZ?$AAA?$AA?$AA@ 00479b7c     LIBCMTD:winapinls.obj
 0002:0000bb88       ??_C@_1M@LGPJHNJH@?$AAz?$AAu?$AA?9?$AAZ?$AAA?$AA?$AA@ 00479b88     LIBCMTD:winapinls.obj
 0002:0000bb94       ??_C@_1M@HOKAOIO@?$AAa?$AAf?$AA?9?$AAZ?$AAA?$AA?$AA@ 00479b94     LIBCMTD:winapinls.obj
 0002:0000bba0       ??_C@_1M@DPCLHLIE@?$AAk?$AAa?$AA?9?$AAG?$AAE?$AA?$AA@ 00479ba0     LIBCMTD:winapinls.obj
 0002:0000bbac       ??_C@_1M@BLKMHJBI@?$AAf?$AAo?$AA?9?$AAF?$AAO?$AA?$AA@ 00479bac     LIBCMTD:winapinls.obj
 0002:0000bbb8       ??_C@_1M@LGGJAPPB@?$AAh?$AAi?$AA?9?$AAI?$AAN?$AA?$AA@ 00479bb8     LIBCMTD:winapinls.obj
 0002:0000bbc4       ??_C@_1M@FIKPIHFE@?$AAm?$AAt?$AA?9?$AAM?$AAT?$AA?$AA@ 00479bc4     LIBCMTD:winapinls.obj
 0002:0000bbd0       ??_C@_1M@HEGGPBFA@?$AAs?$AAe?$AA?9?$AAN?$AAO?$AA?$AA@ 00479bd0     LIBCMTD:winapinls.obj
 0002:0000bbdc       ??_C@_1M@EIBJEEPA@?$AAm?$AAs?$AA?9?$AAM?$AAY?$AA?$AA@ 00479bdc     LIBCMTD:winapinls.obj
 0002:0000bbe8       ??_C@_1M@FHLBGMPP@?$AAk?$AAk?$AA?9?$AAK?$AAZ?$AA?$AA@ 00479be8     LIBCMTD:winapinls.obj
 0002:0000bbf4       ??_C@_1M@NGJJLCGI@?$AAk?$AAy?$AA?9?$AAK?$AAG?$AA?$AA@ 00479bf4     LIBCMTD:winapinls.obj
 0002:0000bc00       ??_C@_1M@GIENNBFC@?$AAs?$AAw?$AA?9?$AAK?$AAE?$AA?$AA@ 00479c00     LIBCMTD:winapinls.obj
 0002:0000bc0c       ??_C@_1BG@NDGMJIMJ@?$AAu?$AAz?$AA?9?$AAU?$AAZ?$AA?9?$AAL?$AAa?$AAt?$AAn?$AA?$AA@ 00479c0c     LIBCMTD:winapinls.obj
 0002:0000bc24       ??_C@_1M@IDCCIHBC@?$AAt?$AAt?$AA?9?$AAR?$AAU?$AA?$AA@ 00479c24     LIBCMTD:winapinls.obj
 0002:0000bc30       ??_C@_1M@LOICPMOJ@?$AAb?$AAn?$AA?9?$AAI?$AAN?$AA?$AA@ 00479c30     LIBCMTD:winapinls.obj
 0002:0000bc3c       ??_C@_1M@KPKKNEAH@?$AAp?$AAa?$AA?9?$AAI?$AAN?$AA?$AA@ 00479c3c     LIBCMTD:winapinls.obj
 0002:0000bc48       ??_C@_1M@PJGPPBOG@?$AAg?$AAu?$AA?9?$AAI?$AAN?$AA?$AA@ 00479c48     LIBCMTD:winapinls.obj
 0002:0000bc54       ??_C@_1M@KMKMOPHI@?$AAt?$AAa?$AA?9?$AAI?$AAN?$AA?$AA@ 00479c54     LIBCMTD:winapinls.obj
 0002:0000bc60       ??_C@_1M@KFEHEPAC@?$AAt?$AAe?$AA?9?$AAI?$AAN?$AA?$AA@ 00479c60     LIBCMTD:winapinls.obj
 0002:0000bc6c       ??_C@_1M@CDCLMGHI@?$AAk?$AAn?$AA?9?$AAI?$AAN?$AA?$AA@ 00479c6c     LIBCMTD:winapinls.obj
 0002:0000bc78       ??_C@_1M@MIODLDKF@?$AAm?$AAl?$AA?9?$AAI?$AAN?$AA?$AA@ 00479c78     LIBCMTD:winapinls.obj
 0002:0000bc84       ??_C@_1M@PBIEACPO@?$AAm?$AAr?$AA?9?$AAI?$AAN?$AA?$AA@ 00479c84     LIBCMTD:winapinls.obj
 0002:0000bc90       ??_C@_1M@NIDEAGPH@?$AAs?$AAa?$AA?9?$AAI?$AAN?$AA?$AA@ 00479c90     LIBCMTD:winapinls.obj
 0002:0000bc9c       ??_C@_1M@FHIHCBIO@?$AAm?$AAn?$AA?9?$AAM?$AAN?$AA?$AA@ 00479c9c     LIBCMTD:winapinls.obj
 0002:0000bca8       ??_C@_1M@JAIJPENP@?$AAc?$AAy?$AA?9?$AAG?$AAB?$AA?$AA@ 00479ca8     LIBCMTD:winapinls.obj
 0002:0000bcb4       ??_C@_1M@PHGFBEPN@?$AAg?$AAl?$AA?9?$AAE?$AAS?$AA?$AA@ 00479cb4     LIBCMTD:winapinls.obj
 0002:0000bcc0       ??_C@_1O@KPIPDNCP@?$AAk?$AAo?$AAk?$AA?9?$AAI?$AAN?$AA?$AA@ 00479cc0     LIBCMTD:winapinls.obj
 0002:0000bcd0       ??_C@_1O@KNHJLDJA@?$AAs?$AAy?$AAr?$AA?9?$AAS?$AAY?$AA?$AA@ 00479cd0     LIBCMTD:winapinls.obj
 0002:0000bce0       ??_C@_1O@MKEKBLAH@?$AAd?$AAi?$AAv?$AA?9?$AAM?$AAV?$AA?$AA@ 00479ce0     LIBCMTD:winapinls.obj
 0002:0000bcf0       ??_C@_1O@OHDCKDDF@?$AAq?$AAu?$AAz?$AA?9?$AAB?$AAO?$AA?$AA@ 00479cf0     LIBCMTD:winapinls.obj
 0002:0000bd00       ??_C@_1M@LEPJNLFD@?$AAn?$AAs?$AA?9?$AAZ?$AAA?$AA?$AA@ 00479d00     LIBCMTD:winapinls.obj
 0002:0000bd0c       ??_C@_1M@OMLEIIJB@?$AAm?$AAi?$AA?9?$AAN?$AAZ?$AA?$AA@ 00479d0c     LIBCMTD:winapinls.obj
 0002:0000bd18       ??_C@_1M@PMPEAILG@?$AAa?$AAr?$AA?9?$AAI?$AAQ?$AA?$AA@ 00479d18     LIBCMTD:winapinls.obj
 0002:0000bd24       ??_C@_1M@CNKPNOEE@?$AAd?$AAe?$AA?9?$AAC?$AAH?$AA?$AA@ 00479d24     LIBCMTD:winapinls.obj
 0002:0000bd30       ??_C@_1M@LKMGMLKO@?$AAe?$AAn?$AA?9?$AAG?$AAB?$AA?$AA@ 00479d30     LIBCMTD:winapinls.obj
 0002:0000bd3c       ??_C@_1M@PGKJFFGL@?$AAe?$AAs?$AA?9?$AAM?$AAX?$AA?$AA@ 00479d3c     LIBCMTD:winapinls.obj
 0002:0000bd48       ??_C@_1M@DNNANBDC@?$AAf?$AAr?$AA?9?$AAB?$AAE?$AA?$AA@ 00479d48     LIBCMTD:winapinls.obj
 0002:0000bd54       ??_C@_1M@HLGMDFHM@?$AAi?$AAt?$AA?9?$AAC?$AAH?$AA?$AA@ 00479d54     LIBCMTD:winapinls.obj
 0002:0000bd60       ??_C@_1M@CLLBGJH@?$AAn?$AAl?$AA?9?$AAB?$AAE?$AA?$AA@ 00479d60     LIBCMTD:winapinls.obj
 0002:0000bd6c       ??_C@_1M@BODBOGLF@?$AAn?$AAn?$AA?9?$AAN?$AAO?$AA?$AA@ 00479d6c     LIBCMTD:winapinls.obj
 0002:0000bd78       ??_C@_1M@HFFAHKAD@?$AAp?$AAt?$AA?9?$AAP?$AAT?$AA?$AA@ 00479d78     LIBCMTD:winapinls.obj
 0002:0000bd84       ??_C@_1BG@LNOAKHIE@?$AAs?$AAr?$AA?9?$AAS?$AAP?$AA?9?$AAL?$AAa?$AAt?$AAn?$AA?$AA@ 00479d84     LIBCMTD:winapinls.obj
 0002:0000bd9c       ??_C@_1M@HBMHBGAK@?$AAs?$AAv?$AA?9?$AAF?$AAI?$AA?$AA@ 00479d9c     LIBCMTD:winapinls.obj
 0002:0000bda8       ??_C@_1BG@DGCJGJBE@?$AAa?$AAz?$AA?9?$AAA?$AAZ?$AA?9?$AAC?$AAy?$AAr?$AAl?$AA?$AA@ 00479da8     LIBCMTD:winapinls.obj
 0002:0000bdc0       ??_C@_1M@KEJDAAHB@?$AAs?$AAe?$AA?9?$AAS?$AAE?$AA?$AA@ 00479dc0     LIBCMTD:winapinls.obj
 0002:0000bdcc       ??_C@_1M@HEIBJJAD@?$AAm?$AAs?$AA?9?$AAB?$AAN?$AA?$AA@ 00479dcc     LIBCMTD:winapinls.obj
 0002:0000bdd8       ??_C@_1BG@PBGJMCEM@?$AAu?$AAz?$AA?9?$AAU?$AAZ?$AA?9?$AAC?$AAy?$AAr?$AAl?$AA?$AA@ 00479dd8     LIBCMTD:winapinls.obj
 0002:0000bdf0       ??_C@_1O@LAOBCMDF@?$AAq?$AAu?$AAz?$AA?9?$AAE?$AAC?$AA?$AA@ 00479df0     LIBCMTD:winapinls.obj
 0002:0000be00       ??_C@_1M@POEEMAIO@?$AAa?$AAr?$AA?9?$AAE?$AAG?$AA?$AA@ 00479e00     LIBCMTD:winapinls.obj
 0002:0000be0c       ??_C@_1M@EFAKDEDL@?$AAz?$AAh?$AA?9?$AAH?$AAK?$AA?$AA@ 00479e0c     LIBCMTD:winapinls.obj
 0002:0000be18       ??_C@_1M@HKKIJHGI@?$AAd?$AAe?$AA?9?$AAA?$AAT?$AA?$AA@ 00479e18     LIBCMTD:winapinls.obj
 0002:0000be24       ??_C@_1M@KBFBEHJF@?$AAe?$AAn?$AA?9?$AAA?$AAU?$AA?$AA@ 00479e24     LIBCMTD:winapinls.obj
 0002:0000be30       ??_C@_1M@MNPLFAAH@?$AAe?$AAs?$AA?9?$AAE?$AAS?$AA?$AA@ 00479e30     LIBCMTD:winapinls.obj
 0002:0000be3c       ??_C@_1M@HJOOJFMA@?$AAf?$AAr?$AA?9?$AAC?$AAA?$AA?$AA@ 00479e3c     LIBCMTD:winapinls.obj
 0002:0000be48       ??_C@_1BG@JPOFPNAB@?$AAs?$AAr?$AA?9?$AAS?$AAP?$AA?9?$AAC?$AAy?$AAr?$AAl?$AA?$AA@ 00479e48     LIBCMTD:winapinls.obj
 0002:0000be60       ??_C@_1M@LNFOCMOB@?$AAs?$AAe?$AA?9?$AAF?$AAI?$AA?$AA@ 00479e60     LIBCMTD:winapinls.obj
 0002:0000be6c       ??_C@_1O@MGJBOAMB@?$AAq?$AAu?$AAz?$AA?9?$AAP?$AAE?$AA?$AA@ 00479e6c     LIBCMTD:winapinls.obj
 0002:0000be7c       ??_C@_1M@GJINLBOK@?$AAa?$AAr?$AA?9?$AAL?$AAY?$AA?$AA@ 00479e7c     LIBCMTD:winapinls.obj
 0002:0000be88       ??_C@_1M@GGMNHJNL@?$AAz?$AAh?$AA?9?$AAS?$AAG?$AA?$AA@ 00479e88     LIBCMTD:winapinls.obj
 0002:0000be94       ??_C@_1M@HOIKODND@?$AAd?$AAe?$AA?9?$AAL?$AAU?$AA?$AA@ 00479e94     LIBCMTD:winapinls.obj
 0002:0000bea0       ??_C@_1M@DDOCCGFG@?$AAe?$AAn?$AA?9?$AAC?$AAA?$AA?$AA@ 00479ea0     LIBCMTD:winapinls.obj
 0002:0000beac       ??_C@_1M@BNOEMJLF@?$AAe?$AAs?$AA?9?$AAG?$AAT?$AA?$AA@ 00479eac     LIBCMTD:winapinls.obj
 0002:0000beb8       ??_C@_1M@EOGNKEK@?$AAf?$AAr?$AA?9?$AAC?$AAH?$AA?$AA@ 00479eb8     LIBCMTD:winapinls.obj
 0002:0000bec4       ??_C@_1M@FLIDJFHL@?$AAh?$AAr?$AA?9?$AAB?$AAA?$AA?$AA@ 00479ec4     LIBCMTD:winapinls.obj
 0002:0000bed0       ??_C@_1O@FMCELNAJ@?$AAs?$AAm?$AAj?$AA?9?$AAN?$AAO?$AA?$AA@ 00479ed0     LIBCMTD:winapinls.obj
 0002:0000bee0       ??_C@_1M@JHGLJMGJ@?$AAa?$AAr?$AA?9?$AAD?$AAZ?$AA?$AA@ 00479ee0     LIBCMTD:winapinls.obj
 0002:0000beec       ??_C@_1M@JKKFDCNP@?$AAz?$AAh?$AA?9?$AAM?$AAO?$AA?$AA@ 00479eec     LIBCMTD:winapinls.obj
 0002:0000bef8       ??_C@_1M@GEEFALPE@?$AAd?$AAe?$AA?9?$AAL?$AAI?$AA?$AA@ 00479ef8     LIBCMTD:winapinls.obj
 0002:0000bf04       ??_C@_1M@IGEOFBG@?$AAe?$AAn?$AA?9?$AAN?$AAZ?$AA?$AA@ 00479f04     LIBCMTD:winapinls.obj
 0002:0000bf10       ??_C@_1M@KDBONEHP@?$AAe?$AAs?$AA?9?$AAC?$AAR?$AA?$AA@ 00479f10     LIBCMTD:winapinls.obj
 0002:0000bf1c       ??_C@_1M@FHMDOHNN@?$AAf?$AAr?$AA?9?$AAL?$AAU?$AA?$AA@ 00479f1c     LIBCMTD:winapinls.obj
 0002:0000bf28       ??_C@_1BG@NFKKMAFG@?$AAb?$AAs?$AA?9?$AAB?$AAA?$AA?9?$AAL?$AAa?$AAt?$AAn?$AA?$AA@ 00479f28     LIBCMTD:winapinls.obj
 0002:0000bf40       ??_C@_1O@IMNBEMCI@?$AAs?$AAm?$AAj?$AA?9?$AAS?$AAE?$AA?$AA@ 00479f40     LIBCMTD:winapinls.obj
 0002:0000bf50       ??_C@_1M@DHHMBNDP@?$AAa?$AAr?$AA?9?$AAM?$AAA?$AA?$AA@ 00479f50     LIBCMTD:winapinls.obj
 0002:0000bf5c       ??_C@_1M@BNBLJCGH@?$AAe?$AAn?$AA?9?$AAI?$AAE?$AA?$AA@ 00479f5c     LIBCMTD:winapinls.obj
 0002:0000bf68       ??_C@_1M@GEPAFMDL@?$AAe?$AAs?$AA?9?$AAP?$AAA?$AA?$AA@ 00479f68     LIBCMTD:winapinls.obj
 0002:0000bf74       ??_C@_1M@OJONDMDL@?$AAf?$AAr?$AA?9?$AAM?$AAC?$AA?$AA@ 00479f74     LIBCMTD:winapinls.obj
 0002:0000bf80       ??_C@_1BG@OBCNFJB@?$AAs?$AAr?$AA?9?$AAB?$AAA?$AA?9?$AAL?$AAa?$AAt?$AAn?$AA?$AA@ 00479f80     LIBCMTD:winapinls.obj
 0002:0000bf98       ??_C@_1O@KEMEEGPO@?$AAs?$AAm?$AAa?$AA?9?$AAN?$AAO?$AA?$AA@ 00479f98     LIBCMTD:winapinls.obj
 0002:0000bfa8       ??_C@_1M@ELMGFODK@?$AAa?$AAr?$AA?9?$AAT?$AAN?$AA?$AA@ 00479fa8     LIBCMTD:winapinls.obj
 0002:0000bfb4       ??_C@_1M@BHDLHFAF@?$AAe?$AAn?$AA?9?$AAZ?$AAA?$AA?$AA@ 00479fb4     LIBCMTD:winapinls.obj
 0002:0000bfc0       ??_C@_1M@BMGIGLIF@?$AAe?$AAs?$AA?9?$AAD?$AAO?$AA?$AA@ 00479fc0     LIBCMTD:winapinls.obj
 0002:0000bfcc       ??_C@_1BG@CMBHIPBE@?$AAs?$AAr?$AA?9?$AAB?$AAA?$AA?9?$AAC?$AAy?$AAr?$AAl?$AA?$AA@ 00479fcc     LIBCMTD:winapinls.obj
 0002:0000bfe4       ??_C@_1O@HEDBLHNP@?$AAs?$AAm?$AAa?$AA?9?$AAS?$AAE?$AA?$AA@ 00479fe4     LIBCMTD:winapinls.obj
 0002:0000bff4       ??_C@_1M@DAGCADIM@?$AAa?$AAr?$AA?9?$AAO?$AAM?$AA?$AA@ 00479ff4     LIBCMTD:winapinls.obj
 0002:0000c000       ??_C@_1M@FODLMICG@?$AAe?$AAn?$AA?9?$AAJ?$AAM?$AA?$AA@ 0047a000     LIBCMTD:winapinls.obj
 0002:0000c00c       ??_C@_1M@DNMLCIHB@?$AAe?$AAs?$AA?9?$AAV?$AAE?$AA?$AA@ 0047a00c     LIBCMTD:winapinls.obj
 0002:0000c018       ??_C@_1O@EOKHMKJK@?$AAs?$AAm?$AAs?$AA?9?$AAF?$AAI?$AA?$AA@ 0047a018     LIBCMTD:winapinls.obj
 0002:0000c028       ??_C@_1M@CAFJMKOF@?$AAa?$AAr?$AA?9?$AAY?$AAE?$AA?$AA@ 0047a028     LIBCMTD:winapinls.obj
 0002:0000c034       ??_C@_1M@CBFHIJLI@?$AAe?$AAn?$AA?9?$AAC?$AAB?$AA?$AA@ 0047a034     LIBCMTD:winapinls.obj
 0002:0000c040       ??_C@_1M@BGNFLDN@?$AAe?$AAs?$AA?9?$AAC?$AAO?$AA?$AA@ 0047a040     LIBCMTD:winapinls.obj
 0002:0000c04c       ??_C@_1O@JMPHMAMC@?$AAs?$AAm?$AAn?$AA?9?$AAF?$AAI?$AA?$AA@ 0047a04c     LIBCMTD:winapinls.obj
 0002:0000c05c       ??_C@_1M@JLANABKE@?$AAa?$AAr?$AA?9?$AAS?$AAY?$AA?$AA@ 0047a05c     LIBCMTD:winapinls.obj
 0002:0000c068       ??_C@_1M@HPKGCFGN@?$AAe?$AAn?$AA?9?$AAB?$AAZ?$AA?$AA@ 0047a068     LIBCMTD:winapinls.obj
 0002:0000c074       ??_C@_1M@OLJCMLGM@?$AAe?$AAs?$AA?9?$AAP?$AAE?$AA?$AA@ 0047a074     LIBCMTD:winapinls.obj
 0002:0000c080       ??_C@_1M@MKKGFKLE@?$AAa?$AAr?$AA?9?$AAJ?$AAO?$AA?$AA@ 0047a080     LIBCMTD:winapinls.obj
 0002:0000c08c       ??_C@_1M@EKPGLDNI@?$AAe?$AAn?$AA?9?$AAT?$AAT?$AA?$AA@ 0047a08c     LIBCMTD:winapinls.obj
 0002:0000c098       ??_C@_1M@OONGHFHE@?$AAe?$AAs?$AA?9?$AAA?$AAR?$AA?$AA@ 0047a098     LIBCMTD:winapinls.obj
 0002:0000c0a4       ??_C@_1M@OOJFGBHE@?$AAa?$AAr?$AA?9?$AAL?$AAB?$AA?$AA@ 0047a0a4     LIBCMTD:winapinls.obj
 0002:0000c0b0       ??_C@_1M@GCEJHNEG@?$AAe?$AAn?$AA?9?$AAZ?$AAW?$AA?$AA@ 0047a0b0     LIBCMTD:winapinls.obj
 0002:0000c0bc       ??_C@_1M@JNOCAHJI@?$AAe?$AAs?$AA?9?$AAE?$AAC?$AA?$AA@ 0047a0bc     LIBCMTD:winapinls.obj
 0002:0000c0c8       ??_C@_1M@JEFHPGGB@?$AAa?$AAr?$AA?9?$AAK?$AAW?$AA?$AA@ 0047a0c8     LIBCMTD:winapinls.obj
 0002:0000c0d4       ??_C@_1M@MLKIBJOJ@?$AAe?$AAn?$AA?9?$AAP?$AAH?$AA?$AA@ 0047a0d4     LIBCMTD:winapinls.obj
 0002:0000c0e0       ??_C@_1M@BDNIPEND@?$AAe?$AAs?$AA?9?$AAC?$AAL?$AA?$AA@ 0047a0e0     LIBCMTD:winapinls.obj
 0002:0000c0ec       ??_C@_1M@MPNMEKBD@?$AAa?$AAr?$AA?9?$AAA?$AAE?$AA?$AA@ 0047a0ec     LIBCMTD:winapinls.obj
 0002:0000c0f8       ??_C@_1M@KBJALCPI@?$AAe?$AAs?$AA?9?$AAU?$AAY?$AA?$AA@ 0047a0f8     LIBCMTD:winapinls.obj
 0002:0000c104       ??_C@_1M@LLCCOAGA@?$AAa?$AAr?$AA?9?$AAB?$AAH?$AA?$AA@ 0047a104     LIBCMTD:winapinls.obj
 0002:0000c110       ??_C@_1M@PBFNCDEL@?$AAe?$AAs?$AA?9?$AAP?$AAY?$AA?$AA@ 0047a110     LIBCMTD:winapinls.obj
 0002:0000c11c       ??_C@_1M@EDGINPNP@?$AAa?$AAr?$AA?9?$AAQ?$AAA?$AA?$AA@ 0047a11c     LIBCMTD:winapinls.obj
 0002:0000c128       ??_C@_1M@MKDBIIJI@?$AAe?$AAs?$AA?9?$AAB?$AAO?$AA?$AA@ 0047a128     LIBCMTD:winapinls.obj
 0002:0000c134       ??_C@_1M@CPKKEBLD@?$AAe?$AAs?$AA?9?$AAS?$AAV?$AA?$AA@ 0047a134     LIBCMTD:winapinls.obj
 0002:0000c140       ??_C@_1M@NDBGMMJL@?$AAe?$AAs?$AA?9?$AAH?$AAN?$AA?$AA@ 0047a140     LIBCMTD:winapinls.obj
 0002:0000c14c       ??_C@_1M@JIJIBHDP@?$AAe?$AAs?$AA?9?$AAN?$AAI?$AA?$AA@ 0047a14c     LIBCMTD:winapinls.obj
 0002:0000c158       ??_C@_1M@CGFMKEEK@?$AAe?$AAs?$AA?9?$AAP?$AAR?$AA?$AA@ 0047a158     LIBCMTD:winapinls.obj
 0002:0000c164       ??_C@_1O@ICJHKIIK@?$AAz?$AAh?$AA?9?$AAC?$AAH?$AAT?$AA?$AA@ 0047a164     LIBCMTD:winapinls.obj
 0002:0000c174       ??_C@_15CLNEJCE@?$AAs?$AAr?$AA?$AA@ 0047a174     LIBCMTD:winapinls.obj
 0002:0000c180       _LocaleNameToIndexTable    0047a180     LIBCMTD:winapinls.obj
 0002:0000c8a0       _LcidToLocaleNameTable     0047a8a0     LIBCMTD:winapinls.obj
 0002:0000cfc0       ??_C@_1M@KAHEKEIG@?$AAa?$AAf?$AA?9?$AAz?$AAa?$AA?$AA@ 0047afc0     LIBCMTD:winapinls.obj
 0002:0000cfcc       ??_C@_1M@GIECOABL@?$AAa?$AAr?$AA?9?$AAa?$AAe?$AA?$AA@ 0047afcc     LIBCMTD:winapinls.obj
 0002:0000cfd8       ??_C@_1M@BMLMEKGI@?$AAa?$AAr?$AA?9?$AAb?$AAh?$AA?$AA@ 0047afd8     LIBCMTD:winapinls.obj
 0002:0000cfe4       ??_C@_1M@DAPFDGGB@?$AAa?$AAr?$AA?9?$AAd?$AAz?$AA?$AA@ 0047afe4     LIBCMTD:winapinls.obj
 0002:0000cff0       ??_C@_1M@FJNKGKIG@?$AAa?$AAr?$AA?9?$AAe?$AAg?$AA?$AA@ 0047aff0     LIBCMTD:winapinls.obj
 0002:0000cffc       ??_C@_1M@FLGKKCLO@?$AAa?$AAr?$AA?9?$AAi?$AAq?$AA?$AA@ 0047affc     LIBCMTD:winapinls.obj
 0002:0000d008       ??_C@_1M@GNDIPALM@?$AAa?$AAr?$AA?9?$AAj?$AAo?$AA?$AA@ 0047b008     LIBCMTD:winapinls.obj
 0002:0000d014       ??_C@_1M@DDMJFMGJ@?$AAa?$AAr?$AA?9?$AAk?$AAw?$AA?$AA@ 0047b014     LIBCMTD:winapinls.obj
 0002:0000d020       ??_C@_1M@EJALMLHM@?$AAa?$AAr?$AA?9?$AAl?$AAb?$AA?$AA@ 0047b020     LIBCMTD:winapinls.obj
 0002:0000d02c       ??_C@_1M@MOBDBLOC@?$AAa?$AAr?$AA?9?$AAl?$AAy?$AA?$AA@ 0047b02c     LIBCMTD:winapinls.obj
 0002:0000d038       ??_C@_1M@JAOCLHDH@?$AAa?$AAr?$AA?9?$AAm?$AAa?$AA?$AA@ 0047b038     LIBCMTD:winapinls.obj
 0002:0000d044       ??_C@_1M@JHPMKJIE@?$AAa?$AAr?$AA?9?$AAo?$AAm?$AA?$AA@ 0047b044     LIBCMTD:winapinls.obj
 0002:0000d050       ??_C@_1M@OEPGHFNH@?$AAa?$AAr?$AA?9?$AAq?$AAa?$AA?$AA@ 0047b050     LIBCMTD:winapinls.obj
 0002:0000d05c       ??_C@_1M@KJDONENM@?$AAa?$AAr?$AA?9?$AAs?$AAa?$AA?$AA@ 0047b05c     LIBCMTD:winapinls.obj
 0002:0000d068       ??_C@_1M@DMJDKLKM@?$AAa?$AAr?$AA?9?$AAs?$AAy?$AA?$AA@ 0047b068     LIBCMTD:winapinls.obj
 0002:0000d074       ??_C@_1M@OMFIPEDC@?$AAa?$AAr?$AA?9?$AAt?$AAn?$AA?$AA@ 0047b074     LIBCMTD:winapinls.obj
 0002:0000d080       ??_C@_1M@IHMHGAON@?$AAa?$AAr?$AA?9?$AAy?$AAe?$AA?$AA@ 0047b080     LIBCMTD:winapinls.obj
 0002:0000d08c       ??_C@_1BG@KDCPGJGB@?$AAa?$AAz?$AA?9?$AAa?$AAz?$AA?9?$AAc?$AAy?$AAr?$AAl?$AA?$AA@ 0047b08c     LIBCMTD:winapinls.obj
 0002:0000d0a4       ??_C@_1BG@IBCKDDOE@?$AAa?$AAz?$AA?9?$AAa?$AAz?$AA?9?$AAl?$AAa?$AAt?$AAn?$AA?$AA@ 0047b0a4     LIBCMTD:winapinls.obj
 0002:0000d0bc       ??_C@_1M@EGPFDCPD@?$AAb?$AAe?$AA?9?$AAb?$AAy?$AA?$AA@ 0047b0bc     LIBCMTD:winapinls.obj
 0002:0000d0c8       ??_C@_1M@PCMGMCGC@?$AAb?$AAg?$AA?9?$AAb?$AAg?$AA?$AA@ 0047b0c8     LIBCMTD:winapinls.obj
 0002:0000d0d4       ??_C@_1M@BJBMFGOB@?$AAb?$AAn?$AA?9?$AAi?$AAn?$AA?$AA@ 0047b0d4     LIBCMTD:winapinls.obj
 0002:0000d0e0       ??_C@_1BG@EAKMMACD@?$AAb?$AAs?$AA?9?$AAb?$AAa?$AA?9?$AAl?$AAa?$AAt?$AAn?$AA?$AA@ 0047b0e0     LIBCMTD:winapinls.obj
 0002:0000d0f8       ??_C@_1M@KGADAODK@?$AAc?$AAa?$AA?9?$AAe?$AAs?$AA?$AA@ 0047b0f8     LIBCMTD:winapinls.obj
 0002:0000d104       ??_C@_1M@COAJPDHI@?$AAc?$AAs?$AA?9?$AAc?$AAz?$AA?$AA@ 0047b104     LIBCMTD:winapinls.obj
 0002:0000d110       ??_C@_1M@DHBHFONH@?$AAc?$AAy?$AA?9?$AAg?$AAb?$AA?$AA@ 0047b110     LIBCMTD:winapinls.obj
 0002:0000d11c       ??_C@_1M@IMGKELGA@?$AAd?$AAa?$AA?9?$AAd?$AAk?$AA?$AA@ 0047b11c     LIBCMTD:winapinls.obj
 0002:0000d128       ??_C@_1M@NNDGDNGA@?$AAd?$AAe?$AA?9?$AAa?$AAt?$AA?$AA@ 0047b128     LIBCMTD:winapinls.obj
 0002:0000d134       ??_C@_1M@IKDBHEEM@?$AAd?$AAe?$AA?9?$AAc?$AAh?$AA?$AA@ 0047b134     LIBCMTD:winapinls.obj
 0002:0000d140       ??_C@_1M@GFFOJMCJ@?$AAd?$AAe?$AA?9?$AAd?$AAe?$AA?$AA@ 0047b140     LIBCMTD:winapinls.obj
 0002:0000d14c       ??_C@_1M@MDNLKBPM@?$AAd?$AAe?$AA?9?$AAl?$AAi?$AA?$AA@ 0047b14c     LIBCMTD:winapinls.obj
 0002:0000d158       ??_C@_1M@NJBEEJNL@?$AAd?$AAe?$AA?9?$AAl?$AAu?$AA?$AA@ 0047b158     LIBCMTD:winapinls.obj
 0002:0000d164       ??_C@_1O@GNNELBAP@?$AAd?$AAi?$AAv?$AA?9?$AAm?$AAv?$AA?$AA@ 0047b164     LIBCMTD:winapinls.obj
 0002:0000d174       ??_C@_1M@EJLEOGAE@?$AAe?$AAl?$AA?9?$AAg?$AAr?$AA?$AA@ 0047b174     LIBCMTD:winapinls.obj
 0002:0000d180       ??_C@_1M@GMPONJN@?$AAe?$AAn?$AA?9?$AAa?$AAu?$AA?$AA@ 0047b180     LIBCMTD:winapinls.obj
 0002:0000d18c       ??_C@_1M@NIDIIPGF@?$AAe?$AAn?$AA?9?$AAb?$AAz?$AA?$AA@ 0047b18c     LIBCMTD:winapinls.obj
 0002:0000d198       ??_C@_1M@JEHMIMFO@?$AAe?$AAn?$AA?9?$AAc?$AAa?$AA?$AA@ 0047b198     LIBCMTD:winapinls.obj
 0002:0000d1a4       ??_C@_1M@IGMJCDLA@?$AAe?$AAn?$AA?9?$AAc?$AAb?$AA?$AA@ 0047b1a4     LIBCMTD:winapinls.obj
 0002:0000d1b0       ??_C@_1M@BNFIGBKG@?$AAe?$AAn?$AA?9?$AAg?$AAb?$AA?$AA@ 0047b1b0     LIBCMTD:winapinls.obj
 0002:0000d1bc       ??_C@_1M@LKIFDIGP@?$AAe?$AAn?$AA?9?$AAi?$AAe?$AA?$AA@ 0047b1bc     LIBCMTD:winapinls.obj
 0002:0000d1c8       ??_C@_1M@PJKFGCCO@?$AAe?$AAn?$AA?9?$AAj?$AAm?$AA?$AA@ 0047b1c8     LIBCMTD:winapinls.obj
 0002:0000d1d4       ??_C@_1M@KPPKEPBO@?$AAe?$AAn?$AA?9?$AAn?$AAz?$AA?$AA@ 0047b1d4     LIBCMTD:winapinls.obj
 0002:0000d1e0       ??_C@_1M@GMDGLDOB@?$AAe?$AAn?$AA?9?$AAp?$AAh?$AA?$AA@ 0047b1e0     LIBCMTD:winapinls.obj
 0002:0000d1ec       ??_C@_1M@ONGIBJNA@?$AAe?$AAn?$AA?9?$AAt?$AAt?$AA?$AA@ 0047b1ec     LIBCMTD:winapinls.obj
 0002:0000d1f8       ??_C@_1M@LLODPCMM@?$AAe?$AAn?$AA?9?$AAu?$AAs?$AA?$AA@ 0047b1f8     LIBCMTD:winapinls.obj
 0002:0000d204       ??_C@_1M@LAKFNPAN@?$AAe?$AAn?$AA?9?$AAz?$AAa?$AA?$AA@ 0047b204     LIBCMTD:winapinls.obj
 0002:0000d210       ??_C@_1M@MFNHNHEO@?$AAe?$AAn?$AA?9?$AAz?$AAw?$AA?$AA@ 0047b210     LIBCMTD:winapinls.obj
 0002:0000d21c       ??_C@_1M@EJEINPHM@?$AAe?$AAs?$AA?9?$AAa?$AAr?$AA?$AA@ 0047b21c     LIBCMTD:winapinls.obj
 0002:0000d228       ??_C@_1M@GNKPCCJA@?$AAe?$AAs?$AA?9?$AAb?$AAo?$AA?$AA@ 0047b228     LIBCMTD:winapinls.obj
 0002:0000d234       ??_C@_1M@LEEGFONL@?$AAe?$AAs?$AA?9?$AAc?$AAl?$AA?$AA@ 0047b234     LIBCMTD:winapinls.obj
 0002:0000d240       ??_C@_1M@KGPDPBDF@?$AAe?$AAs?$AA?9?$AAc?$AAo?$AA?$AA@ 0047b240     LIBCMTD:winapinls.obj
 0002:0000d24c       ??_C@_1M@EIAHOHH@?$AAe?$AAs?$AA?9?$AAc?$AAr?$AA?$AA@ 0047b24c     LIBCMTD:winapinls.obj
 0002:0000d258       ??_C@_1M@LLPGMBIN@?$AAe?$AAs?$AA?9?$AAd?$AAo?$AA?$AA@ 0047b258     LIBCMTD:winapinls.obj
 0002:0000d264       ??_C@_1M@DKHMKNJA@?$AAe?$AAs?$AA?9?$AAe?$AAc?$AA?$AA@ 0047b264     LIBCMTD:winapinls.obj
 0002:0000d270       ??_C@_1M@GKGFPKAP@?$AAe?$AAs?$AA?9?$AAe?$AAs?$AA?$AA@ 0047b270     LIBCMTD:winapinls.obj
 0002:0000d27c       ??_C@_1M@LKHKGDLN@?$AAe?$AAs?$AA?9?$AAg?$AAt?$AA?$AA@ 0047b27c     LIBCMTD:winapinls.obj
 0002:0000d288       ??_C@_1M@HEIIGGJD@?$AAe?$AAs?$AA?9?$AAh?$AAn?$AA?$AA@ 0047b288     LIBCMTD:winapinls.obj
 0002:0000d294       ??_C@_1M@FBDHPPGD@?$AAe?$AAs?$AA?9?$AAm?$AAx?$AA?$AA@ 0047b294     LIBCMTD:winapinls.obj
 0002:0000d2a0       ??_C@_1M@DPAGLNDH@?$AAe?$AAs?$AA?9?$AAn?$AAi?$AA?$AA@ 0047b2a0     LIBCMTD:winapinls.obj
 0002:0000d2ac       ??_C@_1M@MDGOPGDD@?$AAe?$AAs?$AA?9?$AAp?$AAa?$AA?$AA@ 0047b2ac     LIBCMTD:winapinls.obj
 0002:0000d2b8       ??_C@_1M@EMAMGBGE@?$AAe?$AAs?$AA?9?$AAp?$AAe?$AA?$AA@ 0047b2b8     LIBCMTD:winapinls.obj
 0002:0000d2c4       ??_C@_1M@IBMCAOEC@?$AAe?$AAs?$AA?9?$AAp?$AAr?$AA?$AA@ 0047b2c4     LIBCMTD:winapinls.obj
 0002:0000d2d0       ??_C@_1M@FGMDIJED@?$AAe?$AAs?$AA?9?$AAp?$AAy?$AA?$AA@ 0047b2d0     LIBCMTD:winapinls.obj
 0002:0000d2dc       ??_C@_1M@IIDEOLLL@?$AAe?$AAs?$AA?9?$AAs?$AAv?$AA?$AA@ 0047b2dc     LIBCMTD:winapinls.obj
 0002:0000d2e8       ??_C@_1M@GAOBIPA@?$AAe?$AAs?$AA?9?$AAu?$AAy?$AA?$AA@ 0047b2e8     LIBCMTD:winapinls.obj
 0002:0000d2f4       ??_C@_1M@JKFFICHJ@?$AAe?$AAs?$AA?9?$AAv?$AAe?$AA?$AA@ 0047b2f4     LIBCMTD:winapinls.obj
 0002:0000d300       ??_C@_1M@PNMLOJDF@?$AAe?$AAt?$AA?9?$AAe?$AAe?$AA?$AA@ 0047b300     LIBCMTD:winapinls.obj
 0002:0000d30c       ??_C@_1M@GHHLIKEI@?$AAe?$AAu?$AA?9?$AAe?$AAs?$AA?$AA@ 0047b30c     LIBCMTD:winapinls.obj
 0002:0000d318       ??_C@_1M@PBNONODE@?$AAf?$AAa?$AA?9?$AAi?$AAr?$AA?$AA@ 0047b318     LIBCMTD:winapinls.obj
 0002:0000d324       ??_C@_1M@JEEHPMIL@?$AAf?$AAi?$AA?9?$AAf?$AAi?$AA?$AA@ 0047b324     LIBCMTD:winapinls.obj
 0002:0000d330       ??_C@_1M@LMDCNDBA@?$AAf?$AAo?$AA?9?$AAf?$AAo?$AA?$AA@ 0047b330     LIBCMTD:winapinls.obj
 0002:0000d33c       ??_C@_1M@JKEOHLDK@?$AAf?$AAr?$AA?9?$AAb?$AAe?$AA?$AA@ 0047b33c     LIBCMTD:winapinls.obj
 0002:0000d348       ??_C@_1M@NOHADPMI@?$AAf?$AAr?$AA?9?$AAc?$AAa?$AA?$AA@ 0047b348     LIBCMTD:winapinls.obj
 0002:0000d354       ??_C@_1M@KDHIHAEC@?$AAf?$AAr?$AA?9?$AAc?$AAh?$AA?$AA@ 0047b354     LIBCMTD:winapinls.obj
 0002:0000d360       ??_C@_1M@MMBBFGAK@?$AAf?$AAr?$AA?9?$AAf?$AAr?$AA?$AA@ 0047b360     LIBCMTD:winapinls.obj
 0002:0000d36c       ??_C@_1M@PAFNENNF@?$AAf?$AAr?$AA?9?$AAl?$AAu?$AA?$AA@ 0047b36c     LIBCMTD:winapinls.obj
 0002:0000d378       ??_C@_1M@EOHDJGDD@?$AAf?$AAr?$AA?9?$AAm?$AAc?$AA?$AA@ 0047b378     LIBCMTD:winapinls.obj
 0002:0000d384       ??_C@_1M@FAPLLOPF@?$AAg?$AAl?$AA?9?$AAe?$AAs?$AA?$AA@ 0047b384     LIBCMTD:winapinls.obj
 0002:0000d390       ??_C@_1M@FOPBFLOO@?$AAg?$AAu?$AA?9?$AAi?$AAn?$AA?$AA@ 0047b390     LIBCMTD:winapinls.obj
 0002:0000d39c       ??_C@_1M@KBMCINPM@?$AAh?$AAe?$AA?9?$AAi?$AAl?$AA?$AA@ 0047b39c     LIBCMTD:winapinls.obj
 0002:0000d3a8       ??_C@_1M@BBPHKFPJ@?$AAh?$AAi?$AA?9?$AAi?$AAn?$AA?$AA@ 0047b3a8     LIBCMTD:winapinls.obj
 0002:0000d3b4       ??_C@_1M@PMBNDPHD@?$AAh?$AAr?$AA?9?$AAb?$AAa?$AA?$AA@ 0047b3b4     LIBCMTD:winapinls.obj
 0002:0000d3c0       ??_C@_1M@BPCKOEGE@?$AAh?$AAr?$AA?9?$AAh?$AAr?$AA?$AA@ 0047b3c0     LIBCMTD:winapinls.obj
 0002:0000d3cc       ??_C@_1M@GACBMHKE@?$AAh?$AAu?$AA?9?$AAh?$AAu?$AA?$AA@ 0047b3cc     LIBCMTD:winapinls.obj
 0002:0000d3d8       ??_C@_1M@MILPAJJC@?$AAh?$AAy?$AA?9?$AAa?$AAm?$AA?$AA@ 0047b3d8     LIBCMTD:winapinls.obj
 0002:0000d3e4       ??_C@_1M@BABBICEC@?$AAi?$AAd?$AA?9?$AAi?$AAd?$AA?$AA@ 0047b3e4     LIBCMTD:winapinls.obj
 0002:0000d3f0       ??_C@_1M@BIKNHHPF@?$AAi?$AAs?$AA?9?$AAi?$AAs?$AA?$AA@ 0047b3f0     LIBCMTD:winapinls.obj
 0002:0000d3fc       ??_C@_1M@NMPCJPHE@?$AAi?$AAt?$AA?9?$AAc?$AAh?$AA?$AA@ 0047b3fc     LIBCMTD:winapinls.obj
 0002:0000d408       ??_C@_1M@GHKGFEDF@?$AAi?$AAt?$AA?9?$AAi?$AAt?$AA?$AA@ 0047b408     LIBCMTD:winapinls.obj
 0002:0000d414       ??_C@_1M@NIEJCJJA@?$AAj?$AAa?$AA?9?$AAj?$AAp?$AA?$AA@ 0047b414     LIBCMTD:winapinls.obj
 0002:0000d420       ??_C@_1M@JILFNBIM@?$AAk?$AAa?$AA?9?$AAg?$AAe?$AA?$AA@ 0047b420     LIBCMTD:winapinls.obj
 0002:0000d42c       ??_C@_1M@PACPMGPH@?$AAk?$AAk?$AA?9?$AAk?$AAz?$AA?$AA@ 0047b42c     LIBCMTD:winapinls.obj
 0002:0000d438       ??_C@_1M@IELFGMHA@?$AAk?$AAn?$AA?9?$AAi?$AAn?$AA?$AA@ 0047b438     LIBCMTD:winapinls.obj
 0002:0000d444       ??_C@_1O@IBBJHCH@?$AAk?$AAo?$AAk?$AA?9?$AAi?$AAn?$AA?$AA@ 0047b444     LIBCMTD:winapinls.obj
 0002:0000d454       ??_C@_1M@DMHAEOGC@?$AAk?$AAo?$AA?9?$AAk?$AAr?$AA?$AA@ 0047b454     LIBCMTD:winapinls.obj
 0002:0000d460       ??_C@_1M@HBAHBIGA@?$AAk?$AAy?$AA?9?$AAk?$AAg?$AA?$AA@ 0047b460     LIBCMTD:winapinls.obj
 0002:0000d46c       ??_C@_1M@KPMILCJG@?$AAl?$AAt?$AA?9?$AAl?$AAt?$AA?$AA@ 0047b46c     LIBCMTD:winapinls.obj
 0002:0000d478       ??_C@_1M@BDEKKCA@?$AAl?$AAv?$AA?9?$AAl?$AAv?$AA?$AA@ 0047b478     LIBCMTD:winapinls.obj
 0002:0000d484       ??_C@_1M@ELCKCCJJ@?$AAm?$AAi?$AA?9?$AAn?$AAz?$AA?$AA@ 0047b484     LIBCMTD:winapinls.obj
 0002:0000d490       ??_C@_1M@CBOOLAPA@?$AAm?$AAk?$AA?9?$AAm?$AAk?$AA?$AA@ 0047b490     LIBCMTD:winapinls.obj
 0002:0000d49c       ??_C@_1M@GPHNBJKN@?$AAm?$AAl?$AA?9?$AAi?$AAn?$AA?$AA@ 0047b49c     LIBCMTD:winapinls.obj
 0002:0000d4a8       ??_C@_1M@PABJILIG@?$AAm?$AAn?$AA?9?$AAm?$AAn?$AA?$AA@ 0047b4a8     LIBCMTD:winapinls.obj
 0002:0000d4b4       ??_C@_1M@FGBKKIPG@?$AAm?$AAr?$AA?9?$AAi?$AAn?$AA?$AA@ 0047b4b4     LIBCMTD:winapinls.obj
 0002:0000d4c0       ??_C@_1M@NDBPDDAL@?$AAm?$AAs?$AA?9?$AAb?$AAn?$AA?$AA@ 0047b4c0     LIBCMTD:winapinls.obj
 0002:0000d4cc       ??_C@_1M@OPIHOOPI@?$AAm?$AAs?$AA?9?$AAm?$AAy?$AA?$AA@ 0047b4cc     LIBCMTD:winapinls.obj
 0002:0000d4d8       ??_C@_1M@PPDBCNFM@?$AAm?$AAt?$AA?9?$AAm?$AAt?$AA?$AA@ 0047b4d8     LIBCMTD:winapinls.obj
 0002:0000d4e4       ??_C@_1M@KDJDKMDD@?$AAn?$AAb?$AA?9?$AAn?$AAo?$AA?$AA@ 0047b4e4     LIBCMTD:winapinls.obj
 0002:0000d4f0       ??_C@_1M@KFCFLMJP@?$AAn?$AAl?$AA?9?$AAb?$AAe?$AA?$AA@ 0047b4f0     LIBCMTD:winapinls.obj
 0002:0000d4fc       ??_C@_1M@KPOPDDGO@?$AAn?$AAl?$AA?9?$AAn?$AAl?$AA?$AA@ 0047b4fc     LIBCMTD:winapinls.obj
 0002:0000d508       ??_C@_1M@LJKPEMLN@?$AAn?$AAn?$AA?9?$AAn?$AAo?$AA?$AA@ 0047b508     LIBCMTD:winapinls.obj
 0002:0000d514       ??_C@_1M@BDGHHBFL@?$AAn?$AAs?$AA?9?$AAz?$AAa?$AA?$AA@ 0047b514     LIBCMTD:winapinls.obj
 0002:0000d520       ??_C@_1M@IDEHOAP@?$AAp?$AAa?$AA?9?$AAi?$AAn?$AA?$AA@ 0047b520     LIBCMTD:winapinls.obj
 0002:0000d52c       ??_C@_1M@HDBKGOGH@?$AAp?$AAl?$AA?9?$AAp?$AAl?$AA?$AA@ 0047b52c     LIBCMTD:winapinls.obj
 0002:0000d538       ??_C@_1M@LJLLCMEH@?$AAp?$AAt?$AA?9?$AAb?$AAr?$AA?$AA@ 0047b538     LIBCMTD:winapinls.obj
 0002:0000d544       ??_C@_1M@NCMONAAL@?$AAp?$AAt?$AA?9?$AAp?$AAt?$AA?$AA@ 0047b544     LIBCMTD:winapinls.obj
 0002:0000d550       ??_C@_1O@EAKMAJDN@?$AAq?$AAu?$AAz?$AA?9?$AAb?$AAo?$AA?$AA@ 0047b550     LIBCMTD:winapinls.obj
 0002:0000d560       ??_C@_1O@BHHPIGDN@?$AAq?$AAu?$AAz?$AA?9?$AAe?$AAc?$AA?$AA@ 0047b560     LIBCMTD:winapinls.obj
 0002:0000d570       ??_C@_1O@GBAPEKMJ@?$AAq?$AAu?$AAz?$AA?9?$AAp?$AAe?$AA?$AA@ 0047b570     LIBCMTD:winapinls.obj
 0002:0000d580       ??_C@_1M@CLGLEFBO@?$AAr?$AAo?$AA?9?$AAr?$AAo?$AA?$AA@ 0047b580     LIBCMTD:winapinls.obj
 0002:0000d58c       ??_C@_1M@CEEDODME@?$AAr?$AAu?$AA?9?$AAr?$AAu?$AA?$AA@ 0047b58c     LIBCMTD:winapinls.obj
 0002:0000d598       ??_C@_1M@HPKKKMPP@?$AAs?$AAa?$AA?9?$AAi?$AAn?$AA?$AA@ 0047b598     LIBCMTD:winapinls.obj
 0002:0000d5a4       ??_C@_1M@BKMAIGOJ@?$AAs?$AAe?$AA?9?$AAf?$AAi?$AA?$AA@ 0047b5a4     LIBCMTD:winapinls.obj
 0002:0000d5b0       ??_C@_1M@NDPIFLFI@?$AAs?$AAe?$AA?9?$AAn?$AAo?$AA?$AA@ 0047b5b0     LIBCMTD:winapinls.obj
 0002:0000d5bc       ??_C@_1M@DANKKHJ@?$AAs?$AAe?$AA?9?$AAs?$AAe?$AA?$AA@ 0047b5bc     LIBCMTD:winapinls.obj
 0002:0000d5c8       ??_C@_1M@PNBLONPJ@?$AAs?$AAk?$AA?9?$AAs?$AAk?$AA?$AA@ 0047b5c8     LIBCMTD:winapinls.obj
 0002:0000d5d4       ??_C@_1M@LFMODOAL@?$AAs?$AAl?$AA?9?$AAs?$AAi?$AA?$AA@ 0047b5d4     LIBCMTD:winapinls.obj
 0002:0000d5e0       ??_C@_1O@DFKOMPG@?$AAs?$AAm?$AAa?$AA?9?$AAn?$AAo?$AA?$AA@ 0047b5e0     LIBCMTD:winapinls.obj
 0002:0000d5f0       ??_C@_1O@NDKPBNNH@?$AAs?$AAm?$AAa?$AA?9?$AAs?$AAe?$AA?$AA@ 0047b5f0     LIBCMTD:winapinls.obj
 0002:0000d600       ??_C@_1O@PLLKBHAB@?$AAs?$AAm?$AAj?$AA?9?$AAn?$AAo?$AA?$AA@ 0047b600     LIBCMTD:winapinls.obj
 0002:0000d610       ??_C@_1O@CLEPOGCA@?$AAs?$AAm?$AAj?$AA?9?$AAs?$AAe?$AA?$AA@ 0047b610     LIBCMTD:winapinls.obj
 0002:0000d620       ??_C@_1O@DLGJGKMK@?$AAs?$AAm?$AAn?$AA?9?$AAf?$AAi?$AA?$AA@ 0047b620     LIBCMTD:winapinls.obj
 0002:0000d630       ??_C@_1O@OJDJGAJC@?$AAs?$AAm?$AAs?$AA?9?$AAf?$AAi?$AA?$AA@ 0047b630     LIBCMTD:winapinls.obj
 0002:0000d640       ??_C@_1M@BOFOGHPB@?$AAs?$AAq?$AA?9?$AAa?$AAl?$AA?$AA@ 0047b640     LIBCMTD:winapinls.obj
 0002:0000d64c       ??_C@_1BG@LJBBIPGB@?$AAs?$AAr?$AA?9?$AAb?$AAa?$AA?9?$AAc?$AAy?$AAr?$AAl?$AA?$AA@ 0047b64c     LIBCMTD:winapinls.obj
 0002:0000d664       ??_C@_1BG@JLBENFOE@?$AAs?$AAr?$AA?9?$AAb?$AAa?$AA?9?$AAl?$AAa?$AAt?$AAn?$AA?$AA@ 0047b664     LIBCMTD:winapinls.obj
 0002:0000d67c       ??_C@_1BG@KODPNHE@?$AAs?$AAr?$AA?9?$AAs?$AAp?$AA?9?$AAc?$AAy?$AAr?$AAl?$AA?$AA@ 0047b67c     LIBCMTD:winapinls.obj
 0002:0000d694       ??_C@_1BG@CIOGKHPB@?$AAs?$AAr?$AA?9?$AAs?$AAp?$AA?9?$AAl?$AAa?$AAt?$AAn?$AA?$AA@ 0047b694     LIBCMTD:winapinls.obj
 0002:0000d6ac       ??_C@_1M@NGFJLMAC@?$AAs?$AAv?$AA?9?$AAf?$AAi?$AA?$AA@ 0047b6ac     LIBCMTD:winapinls.obj
 0002:0000d6b8       ??_C@_1M@MPJEJAJC@?$AAs?$AAv?$AA?9?$AAs?$AAe?$AA?$AA@ 0047b6b8     LIBCMTD:winapinls.obj
 0002:0000d6c4       ??_C@_1M@MPNDHLFK@?$AAs?$AAw?$AA?9?$AAk?$AAe?$AA?$AA@ 0047b6c4     LIBCMTD:winapinls.obj
 0002:0000d6d0       ??_C@_1O@KOHBJJI@?$AAs?$AAy?$AAr?$AA?9?$AAs?$AAy?$AA?$AA@ 0047b6d0     LIBCMTD:winapinls.obj
 0002:0000d6e0       ??_C@_1M@LDCEFHA@?$AAt?$AAa?$AA?9?$AAi?$AAn?$AA?$AA@ 0047b6e0     LIBCMTD:winapinls.obj
 0002:0000d6ec       ??_C@_1M@CNJOFAK@?$AAt?$AAe?$AA?9?$AAi?$AAn?$AA?$AA@ 0047b6ec     LIBCMTD:winapinls.obj
 0002:0000d6f8       ??_C@_1M@GNAECACD@?$AAt?$AAh?$AA?9?$AAt?$AAh?$AA?$AA@ 0047b6f8     LIBCMTD:winapinls.obj
 0002:0000d704       ??_C@_1M@CHBIHOJO@?$AAt?$AAn?$AA?9?$AAz?$AAa?$AA?$AA@ 0047b704     LIBCMTD:winapinls.obj
 0002:0000d710       ??_C@_1M@GCCMIGPJ@?$AAt?$AAr?$AA?9?$AAt?$AAr?$AA?$AA@ 0047b710     LIBCMTD:winapinls.obj
 0002:0000d71c       ??_C@_1M@CELMCNBK@?$AAt?$AAt?$AA?9?$AAr?$AAu?$AA?$AA@ 0047b71c     LIBCMTD:winapinls.obj
 0002:0000d728       ??_C@_1M@KLMCELGA@?$AAu?$AAk?$AA?9?$AAu?$AAa?$AA?$AA@ 0047b728     LIBCMTD:winapinls.obj
 0002:0000d734       ??_C@_1M@EPAJJAJF@?$AAu?$AAr?$AA?9?$AAp?$AAk?$AA?$AA@ 0047b734     LIBCMTD:winapinls.obj
 0002:0000d740       ??_C@_1BG@GEGPMCDJ@?$AAu?$AAz?$AA?9?$AAu?$AAz?$AA?9?$AAc?$AAy?$AAr?$AAl?$AA?$AA@ 0047b740     LIBCMTD:winapinls.obj
 0002:0000d758       ??_C@_1BG@EGGKJILM@?$AAu?$AAz?$AA?9?$AAu?$AAz?$AA?9?$AAl?$AAa?$AAt?$AAn?$AA?$AA@ 0047b758     LIBCMTD:winapinls.obj
 0002:0000d770       ??_C@_1M@GFOCLFF@?$AAv?$AAi?$AA?9?$AAv?$AAn?$AA?$AA@ 0047b770     LIBCMTD:winapinls.obj
 0002:0000d77c       ??_C@_1M@CPAMEDFI@?$AAx?$AAh?$AA?9?$AAz?$AAa?$AA?$AA@ 0047b77c     LIBCMTD:winapinls.obj
 0002:0000d788       ??_C@_1O@EBKIFIGN@?$AAz?$AAh?$AA?9?$AAc?$AAh?$AAs?$AA?$AA@ 0047b788     LIBCMTD:winapinls.obj
 0002:0000d798       ??_C@_1O@NMHPGANE@?$AAz?$AAh?$AA?9?$AAc?$AAh?$AAt?$AA?$AA@ 0047b798     LIBCMTD:winapinls.obj
 0002:0000d7a8       ??_C@_1M@LPINJOMC@?$AAz?$AAh?$AA?9?$AAc?$AAn?$AA?$AA@ 0047b7a8     LIBCMTD:winapinls.obj
 0002:0000d7b4       ??_C@_1M@OCJEJODD@?$AAz?$AAh?$AA?9?$AAh?$AAk?$AA?$AA@ 0047b7b4     LIBCMTD:winapinls.obj
 0002:0000d7c0       ??_C@_1M@DNDLJINH@?$AAz?$AAh?$AA?9?$AAm?$AAo?$AA?$AA@ 0047b7c0     LIBCMTD:winapinls.obj
 0002:0000d7cc       ??_C@_1M@MBFDNDND@?$AAz?$AAh?$AA?9?$AAs?$AAg?$AA?$AA@ 0047b7cc     LIBCMTD:winapinls.obj
 0002:0000d7d8       ??_C@_1M@IMEPLEPE@?$AAz?$AAh?$AA?9?$AAt?$AAw?$AA?$AA@ 0047b7d8     LIBCMTD:winapinls.obj
 0002:0000d7e4       ??_C@_1M@BBGHNHJP@?$AAz?$AAu?$AA?9?$AAz?$AAa?$AA?$AA@ 0047b7e4     LIBCMTD:winapinls.obj
 0002:0000d7f0       ??_C@_15EMKDOKLE@?$AAa?$AAr?$AA?$AA@ 0047b7f0     LIBCMTD:winapinls.obj
 0002:0000d7f8       ??_C@_15KNPADPLH@?$AAb?$AAg?$AA?$AA@ 0047b7f8     LIBCMTD:winapinls.obj
 0002:0000d800       ??_C@_1FE@HAPBHJIC@?$AAf?$AA?3?$AA?2?$AAd?$AAd?$AA?2?$AAv?$AAc?$AAt?$AAo?$AAo?$AAl?$AAs?$AA?2?$AAc?$AAr?$AAt?$AA?2?$AAc?$AAr?$AAt?$AAw?$AA3?$AA2?$AA?2?$AAm?$AAi?$AAs?$AAc?$AA?2?$AAw?$AAi@ 0047b800     LIBCMTD:winapinls.obj
 0002:0000d854       ??_C@_1DO@MBHJDOGM@?$AA_?$AA_?$AAc?$AAr?$AAt?$AAD?$AAo?$AAw?$AAn?$AAl?$AAe?$AAv?$AAe?$AAl?$AAL?$AAC?$AAI?$AAD?$AAT?$AAo?$AAL?$AAo?$AAc?$AAa?$AAl?$AAe?$AAN?$AAa?$AAm?$AAe?$AA?$AA@ 0047b854     LIBCMTD:winapinls.obj
 0002:0000d898       ??_C@_1FO@LFACCMJH@?$AAw?$AAc?$AAs?$AAc?$AAp?$AAy?$AA_?$AAs?$AA?$CI?$AAo?$AAu?$AAt?$AAL?$AAo?$AAc?$AAa?$AAl?$AAe?$AAN?$AAa?$AAm?$AAe?$AA?0?$AA?5?$AAc?$AAc?$AAh?$AAL?$AAo?$AAc?$AAa?$AAl@ 0047b898     LIBCMTD:winapinls.obj
 0002:0000d8f8       ??_C@_1FE@DNGHOFOC@?$AAf?$AA?3?$AA?2?$AAd?$AAd?$AA?2?$AAv?$AAc?$AAt?$AAo?$AAo?$AAl?$AAs?$AA?2?$AAc?$AAr?$AAt?$AA?2?$AAc?$AAr?$AAt?$AAw?$AA3?$AA2?$AA?2?$AAc?$AAo?$AAn?$AAv?$AAe?$AAr?$AAt@ 0047b8f8     LIBCMTD:strtod.obj
 0002:0000d94c       ??_C@_1BE@KFBKGHJC@?$AA_?$AAs?$AAt?$AAr?$AAt?$AAo?$AAd?$AA_?$AAl?$AA?$AA@ 0047b94c     LIBCMTD:strtod.obj
 0002:0000d960       ___lc_category             0047b960     LIBCMTD:wsetloca.obj
 0002:0000d9a8       ??_C@_1O@GIFLHMA@?$AAL?$AAC?$AA_?$AAA?$AAL?$AAL?$AA?$AA@ 0047b9a8     LIBCMTD:wsetloca.obj
 0002:0000d9b8       ??_C@_1BG@PPOMIBNJ@?$AAL?$AAC?$AA_?$AAC?$AAO?$AAL?$AAL?$AAA?$AAT?$AAE?$AA?$AA@ 0047b9b8     LIBCMTD:wsetloca.obj
 0002:0000d9d0       ??_C@_1BC@FFJGAPJM@?$AAL?$AAC?$AA_?$AAC?$AAT?$AAY?$AAP?$AAE?$AA?$AA@ 0047b9d0     LIBCMTD:wsetloca.obj
 0002:0000d9e4       ??_C@_1BI@PCKFNJFB@?$AAL?$AAC?$AA_?$AAM?$AAO?$AAN?$AAE?$AAT?$AAA?$AAR?$AAY?$AA?$AA@ 0047b9e4     LIBCMTD:wsetloca.obj
 0002:0000d9fc       ??_C@_1BG@ENIEDKID@?$AAL?$AAC?$AA_?$AAN?$AAU?$AAM?$AAE?$AAR?$AAI?$AAC?$AA?$AA@ 0047b9fc     LIBCMTD:wsetloca.obj
 0002:0000da14       ??_C@_1BA@HAAOMIIG@?$AAL?$AAC?$AA_?$AAT?$AAI?$AAM?$AAE?$AA?$AA@ 0047ba14     LIBCMTD:wsetloca.obj
 0002:0000daa8       ??_C@_1GA@LDEGDKD@?$AA?$CI?$AA?$CC?$AAI?$AAn?$AAv?$AAa?$AAl?$AAi?$AAd?$AA?5?$AAp?$AAa?$AAr?$AAa?$AAm?$AAe?$AAt?$AAe?$AAr?$AA?5?$AAf?$AAo?$AAr?$AA?5?$AA_?$AAc?$AAo?$AAn?$AAf?$AAi?$AAg?$AAt@ 0047baa8     LIBCMTD:wsetloca.obj
 0002:0000db08       ??_C@_1FC@GFIKBLFA@?$AAf?$AA?3?$AA?2?$AAd?$AAd?$AA?2?$AAv?$AAc?$AAt?$AAo?$AAo?$AAl?$AAs?$AA?2?$AAc?$AAr?$AAt?$AA?2?$AAc?$AAr?$AAt?$AAw?$AA3?$AA2?$AA?2?$AAm?$AAi?$AAs?$AAc?$AA?2?$AAw?$AAs@ 0047bb08     LIBCMTD:wsetloca.obj
 0002:0000db5c       ??_C@_1CI@FGIONOJM@?$AA_?$AAc?$AAo?$AAn?$AAf?$AAi?$AAg?$AAt?$AAh?$AAr?$AAe?$AAa?$AAd?$AAl?$AAo?$AAc?$AAa?$AAl?$AAe?$AA?$AA@ 0047bb5c     LIBCMTD:wsetloca.obj
 0002:0000db84       ??_C@_0CJ@MIILEBP@f?3?2dd?2vctools?2crt?2crtw32?2misc?2ws@ 0047bb84     LIBCMTD:wsetloca.obj
 0002:0000dbb0       ??_C@_1FG@OHLFEKMC@?$AAL?$AAC?$AA_?$AAM?$AAI?$AAN?$AA?5?$AA?$DM?$AA?$DN?$AA?5?$AA_?$AAc?$AAa?$AAt?$AAe?$AAg?$AAo?$AAr?$AAy?$AA?5?$AA?$CG?$AA?$CG?$AA?5?$AA_?$AAc?$AAa?$AAt?$AAe?$AAg?$AAo?$AAr?$AAy@ 0047bbb0     LIBCMTD:wsetloca.obj
 0002:0000dc08       ??_C@_1BI@KJNPAEHL@?$AA_?$AAw?$AAs?$AAe?$AAt?$AAl?$AAo?$AAc?$AAa?$AAl?$AAe?$AA?$AA@ 0047bc08     LIBCMTD:wsetloca.obj
 0002:0000dc20       ??_C@_15NBPDDFIP@?$AA?$DN?$AA?$DL?$AA?$AA@ 0047bc20     LIBCMTD:wsetloca.obj
 0002:0000dc28       ??_C@_13PJJBFPED@?$AA?$DL?$AA?$AA@ 0047bc28     LIBCMTD:wsetloca.obj
 0002:0000dc2c       ??_C@_1CG@DKJCBBPP@?$AA_?$AAw?$AAs?$AAe?$AAt?$AAl?$AAo?$AAc?$AAa?$AAl?$AAe?$AA_?$AAn?$AAo?$AAl?$AAo?$AAc?$AAk?$AA?$AA@ 0047bc2c     LIBCMTD:wsetloca.obj
 0002:0000dc58       ??_C@_1IA@DGCOPCLP@?$AAw?$AAc?$AAs?$AAn?$AAc?$AAp?$AAy?$AA_?$AAs?$AA?$CI?$AAl?$AAc?$AAt?$AAe?$AAm?$AAp?$AA?0?$AA?5?$AA?$CI?$AAs?$AAi?$AAz?$AAe?$AAo?$AAf?$AA?$CI?$AAl?$AAc?$AAt?$AAe?$AAm?$AAp@ 0047bc58     LIBCMTD:wsetloca.obj
 0002:0000dcd8       ??_C@_1CI@ODOPEMNJ@?$AA_?$AAw?$AAs?$AAe?$AAt?$AAl?$AAo?$AAc?$AAa?$AAl?$AAe?$AA_?$AAs?$AAe?$AAt?$AA_?$AAc?$AAa?$AAt?$AA?$AA@ 0047bcd8     LIBCMTD:wsetloca.obj
 0002:0000dd00       ??_C@_1EM@MHOCNIAA@?$AAw?$AAc?$AAs?$AAc?$AAp?$AAy?$AA_?$AAs?$AA?$CI?$AAp?$AAc?$AAh?$AA_?$AAc?$AAa?$AAt?$AA_?$AAl?$AAo?$AAc?$AAa?$AAl?$AAe?$AA?0?$AA?5?$AAc?$AAc?$AAh?$AA?0?$AA?5?$AAl?$AAc@ 0047bd00     LIBCMTD:wsetloca.obj
 0002:0000dd4c       ??_C@_13NMPKAAJP@?$AA?$DN?$AA?$AA@ 0047bd4c     LIBCMTD:wsetloca.obj
 0002:0000dd50       ??_C@_1CI@LKOPFFBD@?$AA_?$AAw?$AAs?$AAe?$AAt?$AAl?$AAo?$AAc?$AAa?$AAl?$AAe?$AA_?$AAg?$AAe?$AAt?$AA_?$AAa?$AAl?$AAl?$AA?$AA@ 0047bd50     LIBCMTD:wsetloca.obj
 0002:0000dd78       ??_C@_1DC@HMLJMODP@?$AAw?$AAc?$AAs?$AAc?$AAa?$AAt?$AA_?$AAs?$AA?$CI?$AAp?$AAc?$AAh?$AA?0?$AA?5?$AAc?$AAc?$AAh?$AA?0?$AA?5?$AAL?$AA?$CC?$AA?$DL?$AA?$CC?$AA?$CJ?$AA?$AA@ 0047bd78     LIBCMTD:wsetloca.obj
 0002:0000ddac       ??_C@_1BM@OIIBLEFG@?$AA_?$AAe?$AAx?$AAp?$AAa?$AAn?$AAd?$AAl?$AAo?$AAc?$AAa?$AAl?$AAe?$AA?$AA@ 0047bdac     LIBCMTD:wsetloca.obj
 0002:0000ddc8       ??_C@_1BFG@FHLOBJGM@?$AAw?$AAc?$AAs?$AAn?$AAc?$AAp?$AAy?$AA_?$AAs?$AA?$CI?$AAl?$AAo?$AAc?$AAa?$AAl?$AAe?$AAN?$AAa?$AAm?$AAe?$AAO?$AAu?$AAt?$AAp?$AAu?$AAt?$AA?0?$AA?5?$AAl?$AAo?$AAc?$AAa@ 0047bdc8     LIBCMTD:wsetloca.obj
 0002:0000df20       ??_C@_1EI@OCINLCHN@?$AAw?$AAc?$AAs?$AAc?$AAp?$AAy?$AA_?$AAs?$AA?$CI?$AAo?$AAu?$AAt?$AAp?$AAu?$AAt?$AA?0?$AA?5?$AAs?$AAi?$AAz?$AAe?$AAI?$AAn?$AAC?$AAh?$AAa?$AAr?$AAs?$AA?0?$AA?5?$AAL?$AA?$CC@ 0047bf20     LIBCMTD:wsetloca.obj
 0002:0000df68       ??_C@_13FHBKNHDA@?$AAC?$AA?$AA@ 0047bf68     LIBCMTD:wsetloca.obj
 0002:0000df70       ??_C@_1MO@NNCNEOAP@?$AAw?$AAc?$AAs?$AAn?$AAc?$AAp?$AAy?$AA_?$AAs?$AA?$CI?$AAl?$AAo?$AAc?$AAa?$AAl?$AAe?$AAN?$AAa?$AAm?$AAe?$AAO?$AAu?$AAt?$AAp?$AAu?$AAt?$AA?0?$AA?5?$AAl?$AAo?$AAc?$AAa@ 0047bf70     LIBCMTD:wsetloca.obj
 0002:0000e040       ??_C@_1IG@MKDIEKFD@?$AAw?$AAc?$AAs?$AAn?$AAc?$AAp?$AAy?$AA_?$AAs?$AA?$CI?$AAc?$AAa?$AAc?$AAh?$AAe?$AAo?$AAu?$AAt?$AA?0?$AA?5?$AAc?$AAa?$AAc?$AAh?$AAe?$AAo?$AAu?$AAt?$AAL?$AAe?$AAn?$AA?0@ 0047c040     LIBCMTD:wsetloca.obj
 0002:0000e0c8       ??_C@_1KK@KMIFPBBC@?$AAw?$AAc?$AAs?$AAn?$AAc?$AAp?$AAy?$AA_?$AAs?$AA?$CI?$AAl?$AAo?$AAc?$AAa?$AAl?$AAe?$AAN?$AAa?$AAm?$AAe?$AAO?$AAu?$AAt?$AAp?$AAu?$AAt?$AA?0?$AA?5?$AAl?$AAo?$AAc?$AAa@ 0047c0c8     LIBCMTD:wsetloca.obj
 0002:0000e178       ??_C@_1BEK@OJDMMIMP@?$AAw?$AAc?$AAs?$AAn?$AAc?$AAp?$AAy?$AA_?$AAs?$AA?$CI?$AA_?$AAp?$AAs?$AAe?$AAt?$AAl?$AAo?$AAc?$AA_?$AAd?$AAa?$AAt?$AAa?$AA?9?$AA?$DO?$AA_?$AAc?$AAa?$AAc?$AAh?$AAe?$AAL@ 0047c178     LIBCMTD:wsetloca.obj
 0002:0000e2c8       ??_C@_1BGG@FCLLNAOE@?$AAw?$AAc?$AAs?$AAn?$AAc?$AAp?$AAy?$AA_?$AAs?$AA?$CI?$AA_?$AAp?$AAs?$AAe?$AAt?$AAl?$AAo?$AAc?$AA_?$AAd?$AAa?$AAt?$AAa?$AA?9?$AA?$DO?$AA_?$AAc?$AAa?$AAc?$AAh?$AAe?$AAL@ 0047c2c8     LIBCMTD:wsetloca.obj
 0002:0000e430       ??_C@_1IC@FCCDBGLL@?$AAw?$AAc?$AAs?$AAn?$AAc?$AAp?$AAy?$AA_?$AAs?$AA?$CI?$AAc?$AAa?$AAc?$AAh?$AAe?$AAi?$AAn?$AA?0?$AA?5?$AAc?$AAa?$AAc?$AAh?$AAe?$AAi?$AAn?$AAL?$AAe?$AAn?$AA?0?$AA?5?$AAe@ 0047c430     LIBCMTD:wsetloca.obj
 0002:0000e4b8       ??_C@_1FA@HOOAAHFF@?$AAw?$AAc?$AAs?$AAc?$AAp?$AAy?$AA_?$AAs?$AA?$CI?$AAo?$AAu?$AAt?$AAp?$AAu?$AAt?$AA?0?$AA?5?$AAs?$AAi?$AAz?$AAe?$AAI?$AAn?$AAC?$AAh?$AAa?$AAr?$AAs?$AA?0?$AA?5?$AAc?$AAa@ 0047c4b8     LIBCMTD:wsetloca.obj
 0002:0000e508       ??_C@_1BC@LEOKFFML@?$AA_?$AAw?$AAc?$AAs?$AAc?$AAa?$AAt?$AAs?$AA?$AA@ 0047c508     LIBCMTD:wsetloca.obj
 0002:0000e520       ??_C@_1BII@IONPPCCF@?$AAw?$AAc?$AAs?$AAc?$AAa?$AAt?$AA_?$AAs?$AA?$CI?$AAo?$AAu?$AAt?$AAs?$AAt?$AAr?$AA?0?$AA?5?$AAn?$AAu?$AAm?$AAb?$AAe?$AAr?$AAO?$AAf?$AAE?$AAl?$AAe?$AAm?$AAe?$AAn?$AAt@ 0047c520     LIBCMTD:wsetloca.obj
 0002:0000e6a8       ??_C@_1BK@GNCHCGCN@?$AA_?$AA_?$AAl?$AAc?$AA_?$AAw?$AAc?$AAs?$AAt?$AAo?$AAl?$AAc?$AA?$AA@ 0047c6a8     LIBCMTD:wsetloca.obj
 0002:0000e6c8       ??_C@_1NI@NELJHJBO@?$AAw?$AAc?$AAs?$AAn?$AAc?$AAp?$AAy?$AA_?$AAs?$AA?$CI?$AAn?$AAa?$AAm?$AAe?$AAs?$AA?9?$AA?$DO?$AAs?$AAz?$AAC?$AAo?$AAd?$AAe?$AAP?$AAa?$AAg?$AAe?$AA?0?$AA?5?$AA?$CI?$AAs?$AAi@ 0047c6c8     LIBCMTD:wsetloca.obj
 0002:0000e7a0       ??_C@_17MBJJLFDM@?$AA_?$AA?4?$AA?0?$AA?$AA@ 0047c7a0     LIBCMTD:wsetloca.obj
 0002:0000e7a8       ??_C@_1MO@PBGOIBFL@?$AAw?$AAc?$AAs?$AAn?$AAc?$AAp?$AAy?$AA_?$AAs?$AA?$CI?$AAn?$AAa?$AAm?$AAe?$AAs?$AA?9?$AA?$DO?$AAs?$AAz?$AAL?$AAa?$AAn?$AAg?$AAu?$AAa?$AAg?$AAe?$AA?0?$AA?5?$AA?$CI?$AAs?$AAi@ 0047c7a8     LIBCMTD:wsetloca.obj
 0002:0000e878       ??_C@_1MI@CLMFNAAJ@?$AAw?$AAc?$AAs?$AAn?$AAc?$AAp?$AAy?$AA_?$AAs?$AA?$CI?$AAn?$AAa?$AAm?$AAe?$AAs?$AA?9?$AA?$DO?$AAs?$AAz?$AAC?$AAo?$AAu?$AAn?$AAt?$AAr?$AAy?$AA?0?$AA?5?$AA?$CI?$AAs?$AAi?$AAz@ 0047c878     LIBCMTD:wsetloca.obj
 0002:0000e940       ??_C@_1MO@NBFBMKCB@?$AAw?$AAc?$AAs?$AAn?$AAc?$AAp?$AAy?$AA_?$AAs?$AA?$CI?$AAn?$AAa?$AAm?$AAe?$AAs?$AA?9?$AA?$DO?$AAs?$AAz?$AAC?$AAo?$AAd?$AAe?$AAP?$AAa?$AAg?$AAe?$AA?0?$AA?5?$AA?$CI?$AAs?$AAi@ 0047c940     LIBCMTD:wsetloca.obj
 0002:0000ea10       ??_C@_1BK@HEBMGPEK@?$AA_?$AA_?$AAl?$AAc?$AA_?$AAl?$AAc?$AAt?$AAo?$AAw?$AAc?$AAs?$AA?$AA@ 0047ca10     LIBCMTD:wsetloca.obj
 0002:0000ea30       ??_C@_1GM@FOFMGOEK@?$AAw?$AAc?$AAs?$AAc?$AAp?$AAy?$AA_?$AAs?$AA?$CI?$AAl?$AAo?$AAc?$AAa?$AAl?$AAe?$AA?0?$AA?5?$AAn?$AAu?$AAm?$AAb?$AAe?$AAr?$AAO?$AAf?$AAE?$AAl?$AAe?$AAm?$AAe?$AAn?$AAt@ 0047ca30     LIBCMTD:wsetloca.obj
 0002:0000ea9c       ??_C@_13ENNFDPBH@?$AA_?$AA?$AA@ 0047ca9c     LIBCMTD:wsetloca.obj
 0002:0000eaa0       ??_C@_13JOFGPIOO@?$AA?4?$AA?$AA@ 0047caa0     LIBCMTD:wsetloca.obj
 0002:0000eaa4       ??_C@_1CG@HCGEAFEA@?$AA_?$AA_?$AAc?$AAo?$AAp?$AAy?$AA_?$AAl?$AAo?$AAc?$AAa?$AAl?$AAe?$AA_?$AAn?$AAa?$AAm?$AAe?$AA?$AA@ 0047caa4     LIBCMTD:wsetloca.obj
 0002:0000ead0       ??_C@_1GI@HBNMCKGD@?$AAw?$AAc?$AAs?$AAn?$AAc?$AAp?$AAy?$AA_?$AAs?$AA?$CI?$AAl?$AAo?$AAc?$AAa?$AAl?$AAe?$AAN?$AAa?$AAm?$AAe?$AAC?$AAo?$AAp?$AAy?$AA?0?$AA?5?$AAc?$AAc?$AAh?$AA?$CL?$AA1?$AA?0@ 0047cad0     LIBCMTD:wsetloca.obj
 0002:0000eb78       ?LocalIdBitWidth@CrossScopeId@CodeViewInfo@@2IB 0047cb78     LIBCMTD:pdblkup.obj
 0002:0000eb7c       ?IdScopeBitWidth@CrossScopeId@CodeViewInfo@@2IB 0047cb7c     LIBCMTD:pdblkup.obj
 0002:0000eb80       ?StartCrossScopeId@CrossScopeId@CodeViewInfo@@2IB 0047cb80     LIBCMTD:pdblkup.obj
 0002:0000eb84       ?LocalIdMask@CrossScopeId@CodeViewInfo@@2IB 0047cb84     LIBCMTD:pdblkup.obj
 0002:0000eb88       ?ScopeIdMask@CrossScopeId@CodeViewInfo@@2IB 0047cb88     LIBCMTD:pdblkup.obj
 0002:0000eb8c       ?MaxLocalId@CrossScopeId@CodeViewInfo@@2IB 0047cb8c     LIBCMTD:pdblkup.obj
 0002:0000eb90       ?MaxScopeId@CrossScopeId@CodeViewInfo@@2IB 0047cb90     LIBCMTD:pdblkup.obj
 0002:0000eb94       ??_C@_0O@COHOBMLB@RegOpenKeyExW?$AA@ 0047cb94     LIBCMTD:pdblkup.obj
 0002:0000eba4       ??_C@_0BB@GLNAEDBD@RegQueryValueExW?$AA@ 0047cba4     LIBCMTD:pdblkup.obj
 0002:0000ebb8       ??_C@_0M@HLOHPNFA@RegCloseKey?$AA@ 0047cbb8     LIBCMTD:pdblkup.obj
 0002:0000ebc8       ??_C@_1FM@EGIBBNPP@?$AAS?$AAO?$AAF?$AAT?$AAW?$AAA?$AAR?$AAE?$AA?2?$AAM?$AAi?$AAc?$AAr?$AAo?$AAs?$AAo?$AAf?$AAt?$AA?2?$AAV?$AAi?$AAs?$AAu?$AAa?$AAl?$AAS?$AAt?$AAu?$AAd?$AAi?$AAo?$AA?2@ 0047cbc8     LIBCMTD:pdblkup.obj
 0002:0000ec24       ??_C@_1BG@EABPBLLF@?$AAP?$AAr?$AAo?$AAd?$AAu?$AAc?$AAt?$AAD?$AAi?$AAr?$AA?$AA@ 0047cc24     LIBCMTD:pdblkup.obj
 0002:0000ec58       ??_C@_1BC@EOIMGOME@?$AAM?$AAS?$AAP?$AAD?$AAB?$AA1?$AA2?$AA0?$AA?$AA@ 0047cc58     LIBCMTD:pdblkup.obj
 0002:0000ec6c       ??_C@_0BB@KCIACLNC@PDBOpenValidate5?$AA@ 0047cc6c     LIBCMTD:pdblkup.obj
 0002:0000ec80       ??_C@_01KDCPPGHE@r?$AA@    0047cc80     LIBCMTD:pdblkup.obj
 0002:0000ec84       ??_C@_1BC@CFJEPFGF@?$AAs?$AAt?$AAr?$AAc?$AAp?$AAy?$AA_?$AAs?$AA?$AA@ 0047cc84     LIBCMTD:strcpy_s.obj
 0002:0000ec98       ??_C@_1FI@JBLIKEIM@?$AAf?$AA?3?$AA?2?$AAd?$AAd?$AA?2?$AAv?$AAc?$AAt?$AAo?$AAo?$AAl?$AAs?$AA?2?$AAc?$AAr?$AAt?$AA?2?$AAc?$AAr?$AAt?$AAw?$AA3?$AA2?$AA?2?$AAc?$AAo?$AAn?$AAv?$AAe?$AAr?$AAt@ 0047cc98     LIBCMTD:_fptostr.obj
 0002:0000ecf0       ??_C@_1BC@OPALLEB@?$AA_?$AAf?$AAp?$AAt?$AAo?$AAs?$AAt?$AAr?$AA?$AA@ 0047ccf0     LIBCMTD:_fptostr.obj
 0002:0000ed08       ??_C@_1GM@CEDLGDDI@?$AAs?$AAi?$AAz?$AAe?$AAI?$AAn?$AAB?$AAy?$AAt?$AAe?$AAs?$AA?5?$AA?$DO?$AA?5?$AA?$CI?$AAs?$AAi?$AAz?$AAe?$AA_?$AAt?$AA?$CJ?$AA?$CI?$AA?$CI?$AAd?$AAi?$AAg?$AAi?$AAt?$AAs?$AA?5?$AA?$DO@ 0047cd08     LIBCMTD:_fptostr.obj
 0002:0000ed74       ??_C@_1BK@CLIEHFDF@?$AAp?$AAf?$AAl?$AAt?$AA?5?$AA?$CB?$AA?$DN?$AA?5?$AAN?$AAU?$AAL?$AAL?$AA?$AA@ 0047cd74     LIBCMTD:_fptostr.obj
 0002:0000ed90       ??_C@_1EK@LJBJCHGA@?$AAf?$AA?3?$AA?2?$AAd?$AAd?$AA?2?$AAv?$AAc?$AAt?$AAo?$AAo?$AAl?$AAs?$AA?2?$AAc?$AAr?$AAt?$AA?2?$AAf?$AAp?$AAw?$AA3?$AA2?$AA?2?$AAc?$AAo?$AAn?$AAv?$AA?2?$AAc?$AAf?$AAo@ 0047cd90     LIBCMTD:cfout.obj
 0002:0000eddc       ??_C@_1BC@BPMMEHLK@?$AA_?$AAf?$AAl?$AAt?$AAo?$AAu?$AAt?$AA2?$AA?$AA@ 0047cddc     LIBCMTD:cfout.obj
 0002:0000edf0       ??_C@_1FK@KODCOBKF@?$AAs?$AAt?$AAr?$AAc?$AAp?$AAy?$AA_?$AAs?$AA?$CI?$AAr?$AAe?$AAs?$AAu?$AAl?$AAt?$AAs?$AAt?$AAr?$AA?0?$AA?5?$AAr?$AAe?$AAs?$AAu?$AAl?$AAt?$AAs?$AAi?$AAz?$AAe?$AA?0?$AA?5@ 0047cdf0     LIBCMTD:cfout.obj
 0002:0000ee50       ??_C@_1EM@EGEEBJLG@?$AA?$CI?$AAo?$AAp?$AAt?$AAi?$AAo?$AAn?$AAs?$AA?5?$AA?$CG?$AA?5?$AA?$HO?$AA_?$AAT?$AAW?$AAO?$AA_?$AAD?$AAI?$AAG?$AAI?$AAT?$AA_?$AAE?$AAX?$AAP?$AAO?$AAN?$AAE?$AAN?$AAT?$AA?$CJ@ 0047ce50     LIBCMTD:outputformat.obj
 0002:0000eea0       ??_C@_1FM@FBHCILLE@?$AAf?$AA?3?$AA?2?$AAd?$AAd?$AA?2?$AAv?$AAc?$AAt?$AAo?$AAo?$AAl?$AAs?$AA?2?$AAc?$AAr?$AAt?$AA?2?$AAc?$AAr?$AAt?$AAw?$AA3?$AA2?$AA?2?$AAs?$AAt?$AAd?$AAi?$AAo?$AA?2?$AAo@ 0047cea0     LIBCMTD:outputformat.obj
 0002:0000eefc       ??_C@_1CG@EBJECAJM@?$AA_?$AAs?$AAe?$AAt?$AA_?$AAo?$AAu?$AAt?$AAp?$AAu?$AAt?$AA_?$AAf?$AAo?$AAr?$AAm?$AAa?$AAt?$AA?$AA@ 0047cefc     LIBCMTD:outputformat.obj
 0002:0000ef24       ??_C@_1DG@JNDMIEJL@?$AA?$CI?$AA?$CC?$AAI?$AAn?$AAv?$AAa?$AAl?$AAi?$AAd?$AA?5?$AAi?$AAn?$AAp?$AAu?$AAt?$AA?5?$AAv?$AAa?$AAl?$AAu?$AAe?$AA?$CC?$AA?0?$AA?5?$AA0?$AA?$CJ?$AA?$AA@ 0047cf24     LIBCMTD:contrlfp.obj
 0002:0000ef60       ??_C@_1FA@IJLDLDMO@?$AAf?$AA?3?$AA?2?$AAd?$AAd?$AA?2?$AAv?$AAc?$AAt?$AAo?$AAo?$AAl?$AAs?$AA?2?$AAc?$AAr?$AAt?$AA?2?$AAf?$AAp?$AAw?$AA3?$AA2?$AA?2?$AAt?$AAr?$AAa?$AAn?$AA?2?$AAc?$AAo?$AAn@ 0047cf60     LIBCMTD:contrlfp.obj
 0002:0000efb0       ??_C@_1BK@CDOALEA@?$AA_?$AAc?$AAo?$AAn?$AAt?$AAr?$AAo?$AAl?$AAf?$AAp?$AA_?$AAs?$AA?$AA@ 0047cfb0     LIBCMTD:contrlfp.obj
 0002:0000efcc       ??_C@_0CJ@IGOJMKM@f?3?2dd?2vctools?2crt?2crtw32?2lowio?2o@ 0047cfcc     LIBCMTD:osfinfo.obj
 0002:0000eff8       ??_C@_1FC@BEKMGBFL@?$AAf?$AA?3?$AA?2?$AAd?$AAd?$AA?2?$AAv?$AAc?$AAt?$AAo?$AAo?$AAl?$AAs?$AA?2?$AAc?$AAr?$AAt?$AA?2?$AAc?$AAr?$AAt?$AAw?$AA3?$AA2?$AA?2?$AAl?$AAo?$AAw?$AAi?$AAo?$AA?2?$AAo@ 0047cff8     LIBCMTD:osfinfo.obj
 0002:0000f04c       ??_C@_1BO@EMBOBGKE@?$AA_?$AAg?$AAe?$AAt?$AA_?$AAo?$AAs?$AAf?$AAh?$AAa?$AAn?$AAd?$AAl?$AAe?$AA?$AA@ 0047d04c     LIBCMTD:osfinfo.obj
 0002:0000f070       ??_C@_1EM@BALFJBIJ@?$AAf?$AA?3?$AA?2?$AAd?$AAd?$AA?2?$AAv?$AAc?$AAt?$AAo?$AAo?$AAl?$AAs?$AA?2?$AAc?$AAr?$AAt?$AA?2?$AAc?$AAr?$AAt?$AAw?$AA3?$AA2?$AA?2?$AAl?$AAo?$AAw?$AAi?$AAo?$AA?2?$AAr@ 0047d070     LIBCMTD:read.obj
 0002:0000f0bc       ??_C@_1M@NHJOLLDM@?$AA_?$AAr?$AAe?$AAa?$AAd?$AA?$AA@ 0047d0bc     LIBCMTD:read.obj
 0002:0000f0c8       ??_C@_1CC@HBLPFNKH@?$AA?$CI?$AAc?$AAn?$AAt?$AA?5?$AA?$DM?$AA?$DN?$AA?5?$AAI?$AAN?$AAT?$AA_?$AAM?$AAA?$AAX?$AA?$CJ?$AA?$AA@ 0047d0c8     LIBCMTD:read.obj
 0002:0000f0ec       ??_C@_1BK@JJBHNDKJ@?$AA_?$AAr?$AAe?$AAa?$AAd?$AA_?$AAn?$AAo?$AAl?$AAo?$AAc?$AAk?$AA?$AA@ 0047d0ec     LIBCMTD:read.obj
 0002:0000f108       ??_C@_1CG@OHLJHGGK@?$AA?$CI?$AAi?$AAn?$AAp?$AAu?$AAt?$AAb?$AAu?$AAf?$AA?5?$AA?$CB?$AA?$DN?$AA?5?$AAN?$AAU?$AAL?$AAL?$AA?$CJ?$AA?$AA@ 0047d108     LIBCMTD:read.obj
 0002:0000f130       ??_C@_0CG@JHNDLPLJ@f?3?2dd?2vctools?2crt?2crtw32?2lowio?2r@ 0047d130     LIBCMTD:read.obj
 0002:0000f158       ??_C@_1FC@LGKDBMCL@?$AAf?$AA?3?$AA?2?$AAd?$AAd?$AA?2?$AAv?$AAc?$AAt?$AAo?$AAo?$AAl?$AAs?$AA?2?$AAc?$AAr?$AAt?$AA?2?$AAc?$AAr?$AAt?$AAw?$AA3?$AA2?$AA?2?$AAs?$AAt?$AAd?$AAi?$AAo?$AA?2?$AA_@ 0047d158     LIBCMTD:_getbuf.obj
 0002:0000f1ac       ??_C@_0CJ@NMDFOMAF@f?3?2dd?2vctools?2crt?2crtw32?2stdio?2_@ 0047d1ac     LIBCMTD:_getbuf.obj
 0002:0000f1d8       ??_C@_1FA@DLIHGOGB@?$AAf?$AA?3?$AA?2?$AAd?$AAd?$AA?2?$AAv?$AAc?$AAt?$AAo?$AAo?$AAl?$AAs?$AA?2?$AAc?$AAr?$AAt?$AA?2?$AAc?$AAr?$AAt?$AAw?$AA3?$AA2?$AA?2?$AAs?$AAt?$AAd?$AAi?$AAo?$AA?2?$AAu@ 0047d1d8     LIBCMTD:ungetc.obj
 0002:0000f228       ??_C@_1O@JDPLECOK@?$AAu?$AAn?$AAg?$AAe?$AAt?$AAc?$AA?$AA@ 0047d228     LIBCMTD:ungetc.obj
 0002:0000f238       ??_C@_1FK@GNHGKPOM@?$AAf?$AA?3?$AA?2?$AAd?$AAd?$AA?2?$AAv?$AAc?$AAt?$AAo?$AAo?$AAl?$AAs?$AA?2?$AAc?$AAr?$AAt?$AA?2?$AAc?$AAr?$AAt?$AAw?$AA3?$AA2?$AA?2?$AAh?$AA?2?$AAu?$AAn?$AAg?$AAe?$AAt@ 0047d238     LIBCMTD:ungetc.obj
 0002:0000f294       ??_C@_1BO@OLMLKKEA@?$AA_?$AAu?$AAn?$AAg?$AAe?$AAt?$AAc?$AA_?$AAn?$AAo?$AAl?$AAo?$AAc?$AAk?$AA?$AA@ 0047d294     LIBCMTD:ungetc.obj
 0002:0000f2b8       ??_C@_1NC@EINCOKCO@?$AA_?$AAl?$AAo?$AAc?$AA_?$AAu?$AAp?$AAd?$AAa?$AAt?$AAe?$AA?4?$AAG?$AAe?$AAt?$AAL?$AAo?$AAc?$AAa?$AAl?$AAe?$AAT?$AA?$CI?$AA?$CJ?$AA?9?$AA?$DO?$AAl?$AAo?$AAc?$AAi?$AAn?$AAf@ 0047d2b8     LIBCMTD:mbtowc.obj
 0002:0000f390       ??_C@_1FE@EKLDGEI@?$AAf?$AA?3?$AA?2?$AAd?$AAd?$AA?2?$AAv?$AAc?$AAt?$AAo?$AAo?$AAl?$AAs?$AA?2?$AAc?$AAr?$AAt?$AA?2?$AAc?$AAr?$AAt?$AAw?$AA3?$AA2?$AA?2?$AAc?$AAo?$AAn?$AAv?$AAe?$AAr?$AAt@ 0047d390     LIBCMTD:mbtowc.obj
 0002:0000f3e8       ??_C@_1FE@NDDOFCDF@?$AAf?$AA?3?$AA?2?$AAd?$AAd?$AA?2?$AAv?$AAc?$AAt?$AAo?$AAo?$AAl?$AAs?$AA?2?$AAc?$AAr?$AAt?$AA?2?$AAc?$AAr?$AAt?$AAw?$AA3?$AA2?$AA?2?$AAl?$AAo?$AAw?$AAi?$AAo?$AA?2?$AAl@ 0047d3e8     LIBCMTD:lseeki64.obj
 0002:0000f43c       ??_C@_1BE@KHFBJMNM@?$AA_?$AAl?$AAs?$AAe?$AAe?$AAk?$AAi?$AA6?$AA4?$AA?$AA@ 0047d43c     LIBCMTD:lseeki64.obj
 0002:0000f450       ??_C@_1BC@HGPNAKGC@?$AAs?$AAt?$AAr?$AAc?$AAa?$AAt?$AA_?$AAs?$AA?$AA@ 0047d450     LIBCMTD:strcat_s.obj
 0002:0000f464       ??_C@_1CI@LKKPAGOE@?$AA?$CI?$AA?$CC?$AAi?$AAn?$AAv?$AAa?$AAl?$AAi?$AAd?$AA?5?$AAm?$AAo?$AAd?$AAe?$AA?$CC?$AA?0?$AA?5?$AA0?$AA?$CJ?$AA?$AA@ 0047d464     LIBCMTD:dospawn.obj
 0002:0000f490       ??_C@_1FA@PJILOMOG@?$AAf?$AA?3?$AA?2?$AAd?$AAd?$AA?2?$AAv?$AAc?$AAt?$AAo?$AAo?$AAl?$AAs?$AA?2?$AAc?$AAr?$AAt?$AA?2?$AAc?$AAr?$AAt?$AAw?$AA3?$AA2?$AA?2?$AAe?$AAx?$AAe?$AAc?$AA?2?$AAd?$AAo@ 0047d490     LIBCMTD:dospawn.obj
 0002:0000f4e0       ??_C@_1BC@LJIOIJIN@?$AA_?$AAd?$AAo?$AAs?$AAp?$AAa?$AAw?$AAn?$AA?$AA@ 0047d4e0     LIBCMTD:dospawn.obj
 0002:0000f4f4       ??_C@_0CI@CCEBAEHH@f?3?2dd?2vctools?2crt?2crtw32?2exec?2do@ 0047d4f4     LIBCMTD:dospawn.obj
 0002:0000f51c       ??_C@_0L@NKOGAPMJ@SystemRoot?$AA@ 0047d51c     LIBCMTD:cenvarg.obj
 0002:0000f528       ??_C@_0CI@GEDFEEKK@f?3?2dd?2vctools?2crt?2crtw32?2exec?2ce@ 0047d528     LIBCMTD:cenvarg.obj
 0002:0000f550       ??_C@_1FA@OEIDGIOE@?$AAf?$AA?3?$AA?2?$AAd?$AAd?$AA?2?$AAv?$AAc?$AAt?$AAo?$AAo?$AAl?$AAs?$AA?2?$AAc?$AAr?$AAt?$AA?2?$AAc?$AAr?$AAt?$AAw?$AA3?$AA2?$AA?2?$AAe?$AAx?$AAe?$AAc?$AA?2?$AAc?$AAe@ 0047d550     LIBCMTD:cenvarg.obj
 0002:0000f5a0       ??_C@_1BC@CECMOJAP@?$AA_?$AAc?$AAe?$AAn?$AAv?$AAa?$AAr?$AAg?$AA?$AA@ 0047d5a0     LIBCMTD:cenvarg.obj
 0002:0000f5b8       ??_C@_1MK@IPOCIHON@?$AA_?$AAd?$AAu?$AAp?$AAe?$AAn?$AAv?$AA_?$AAs?$AA_?$AAd?$AAb?$AAg?$AA?$CI?$AA?$CG?$AAe?$AAn?$AAv?$AAb?$AAu?$AAf?$AA?0?$AA?5?$AA?$CI?$AA?$CI?$AAv?$AAo?$AAi?$AAd?$AA?5?$AA?$CK?$AA?$CJ@ 0047d5b8     LIBCMTD:cenvarg.obj
 0002:0000f688       ??_C@_1GA@DPBIEIFG@?$AAs?$AAt?$AAr?$AAc?$AAp?$AAy?$AA_?$AAs?$AA?$CI?$AAc?$AAp?$AAt?$AAr?$AA?0?$AA?5?$AAa?$AAr?$AAg?$AA_?$AAl?$AAe?$AAn?$AA?5?$AA?9?$AA?5?$AA?$CI?$AAc?$AAp?$AAt?$AAr?$AA?5?$AA?9@ 0047d688     LIBCMTD:cenvarg.obj
 0002:0000f6e8       ??_C@_1GA@IPGEADAE@?$AAs?$AAt?$AAr?$AAc?$AAp?$AAy?$AA_?$AAs?$AA?$CI?$AAc?$AAp?$AAt?$AAr?$AA?0?$AA?5?$AAe?$AAn?$AAv?$AA_?$AAl?$AAe?$AAn?$AA?5?$AA?9?$AA?5?$AA?$CI?$AAc?$AAp?$AAt?$AAr?$AA?5?$AA?9@ 0047d6e8     LIBCMTD:cenvarg.obj
 0002:0000f748       ??_C@_1EA@IKKOENFK@?$AAs?$AAt?$AAr?$AAc?$AAp?$AAy?$AA_?$AAs?$AA?$CI?$AAc?$AAp?$AAt?$AAr?$AA?0?$AA?5?$AAe?$AAn?$AAv?$AAs?$AAi?$AAz?$AAe?$AA?0?$AA?5?$AAe?$AAn?$AAv?$AAp?$AAf?$AAx?$AA?$CJ?$AA?$AA@ 0047d748     LIBCMTD:cenvarg.obj
 0002:0000f788       ??_C@_1DK@EIJJPLHB@?$AAs?$AAt?$AAr?$AAc?$AAa?$AAt?$AA_?$AAs?$AA?$CI?$AAc?$AAp?$AAt?$AAr?$AA?0?$AA?5?$AAe?$AAn?$AAv?$AAs?$AAi?$AAz?$AAe?$AA?0?$AA?5?$AA?$CC?$AA?$DN?$AA?$CC?$AA?$CJ?$AA?$AA@ 0047d788     LIBCMTD:cenvarg.obj
 0002:0000f7c4       ??_C@_01NEMOKFLO@?$DN?$AA@ 0047d7c4     LIBCMTD:cenvarg.obj
 0002:0000f7c8       ??_C@_1EA@HHLGCDJE@?$AAs?$AAt?$AAr?$AAc?$AAa?$AAt?$AA_?$AAs?$AA?$CI?$AAc?$AAp?$AAt?$AAr?$AA?0?$AA?5?$AAe?$AAn?$AAv?$AAs?$AAi?$AAz?$AAe?$AA?0?$AA?5?$AAe?$AAn?$AAv?$AAb?$AAu?$AAf?$AA?$CJ?$AA?$AA@ 0047d7c8     LIBCMTD:cenvarg.obj
 0002:0000f808       ??_C@_1BO@JIBAMMGI@?$AAs?$AAt?$AAr?$AAi?$AAn?$AAg?$AA?5?$AA?$CB?$AA?$DN?$AA?5?$AAN?$AAU?$AAL?$AAL?$AA?$AA@ 0047d808     LIBCMTD:mbschr.obj
 0002:0000f828       ??_C@_1FG@DJMLHKLH@?$AAf?$AA?3?$AA?2?$AAd?$AAd?$AA?2?$AAv?$AAc?$AAt?$AAo?$AAo?$AAl?$AAs?$AA?2?$AAc?$AAr?$AAt?$AA?2?$AAc?$AAr?$AAt?$AAw?$AA3?$AA2?$AA?2?$AAm?$AAb?$AAs?$AAt?$AAr?$AAi?$AAn@ 0047d828     LIBCMTD:mbschr.obj
 0002:0000f880       ??_C@_1BE@JKKFLIKJ@?$AA_?$AAm?$AAb?$AAs?$AAc?$AAh?$AAr?$AA_?$AAl?$AA?$AA@ 0047d880     LIBCMTD:mbschr.obj
 0002:0000f898       ??_C@_1FI@DJCLFGHF@?$AAf?$AA?3?$AA?2?$AAd?$AAd?$AA?2?$AAv?$AAc?$AAt?$AAo?$AAo?$AAl?$AAs?$AA?2?$AAc?$AAr?$AAt?$AA?2?$AAc?$AAr?$AAt?$AAw?$AA3?$AA2?$AA?2?$AAm?$AAb?$AAs?$AAt?$AAr?$AAi?$AAn@ 0047d898     LIBCMTD:mbsrchr.obj
 0002:0000f8f0       ??_C@_1BG@JBLBIELB@?$AA_?$AAm?$AAb?$AAs?$AAr?$AAc?$AAh?$AAr?$AA_?$AAl?$AA?$AA@ 0047d8f0     LIBCMTD:mbsrchr.obj
 0002:0000f908       ??_C@_1EM@MKIAKJ@?$AAf?$AA?3?$AA?2?$AAd?$AAd?$AA?2?$AAv?$AAc?$AAt?$AAo?$AAo?$AAl?$AAs?$AA?2?$AAc?$AAr?$AAt?$AA?2?$AAc?$AAr?$AAt?$AAw?$AA3?$AA2?$AA?2?$AAd?$AAo?$AAs?$AA?2?$AAa?$AAc?$AAc@ 0047d908     LIBCMTD:waccess.obj
 0002:0000f954       ??_C@_1BG@CFNNCJOE@?$AA_?$AAw?$AAa?$AAc?$AAc?$AAe?$AAs?$AAs?$AA_?$AAs?$AA?$AA@ 0047d954     LIBCMTD:waccess.obj
 0002:0000f96c       ??_C@_1CM@DCGCAFIP@?$AA?$CI?$AA?$CI?$AAa?$AAm?$AAo?$AAd?$AAe?$AA?5?$AA?$CG?$AA?5?$AA?$CI?$AA?$HO?$AA6?$AA?$CJ?$AA?$CJ?$AA?5?$AA?$DN?$AA?$DN?$AA?5?$AA0?$AA?$CJ?$AA?$AA@ 0047d96c     LIBCMTD:waccess.obj
 0002:0000f998       ??_C@_0CJ@NMHEPMFE@f?3?2dd?2vctools?2crt?2crtw32?2misc?2wt@ 0047d998     LIBCMTD:wtombenv.obj
 0002:0000f9c8       ??_C@_1FK@CAOBGJOM@?$AAf?$AA?3?$AA?2?$AAd?$AAd?$AA?2?$AAv?$AAc?$AAt?$AAo?$AAo?$AAl?$AAs?$AA?2?$AAc?$AAr?$AAt?$AA?2?$AAc?$AAr?$AAt?$AAw?$AA3?$AA2?$AA?2?$AAm?$AAb?$AAs?$AAt?$AAr?$AAi?$AAn@ 0047d9c8     LIBCMTD:mbsnbico.obj
 0002:0000fa24       ??_C@_1BM@FKNNDAHH@?$AA_?$AAm?$AAb?$AAs?$AAn?$AAb?$AAi?$AAc?$AAo?$AAl?$AAl?$AA_?$AAl?$AA?$AA@ 0047da24     LIBCMTD:mbsnbico.obj
 0002:0000fa40       ??_C@_1BK@CMPKHPEC@?$AAn?$AA?5?$AA?$DM?$AA?$DN?$AA?5?$AAI?$AAN?$AAT?$AA_?$AAM?$AAA?$AAX?$AA?$AA@ 0047da40     LIBCMTD:mbsnbico.obj
 0002:0000fa5c       ??_C@_0CI@NOHEOGNG@f?3?2dd?2vctools?2crt?2crtw32?2misc?2in@ 0047da5c     LIBCMTD:initmon.obj
 0002:0000fa84       ??_C@_1DM@GKAPAMDO@?$AAp?$AAl?$AAo?$AAc?$AAi?$AA?9?$AA?$DO?$AAl?$AAc?$AAo?$AAn?$AAv?$AA_?$AAm?$AAo?$AAn?$AA_?$AAr?$AAe?$AAf?$AAc?$AAo?$AAu?$AAn?$AAt?$AA?5?$AA?$DO?$AA?5?$AA0?$AA?$AA@ 0047da84     LIBCMTD:initmon.obj
 0002:0000fac0       ??_C@_1FA@CNNDGPJL@?$AAf?$AA?3?$AA?2?$AAd?$AAd?$AA?2?$AAv?$AAc?$AAt?$AAo?$AAo?$AAl?$AAs?$AA?2?$AAc?$AAr?$AAt?$AA?2?$AAc?$AAr?$AAt?$AAw?$AA3?$AA2?$AA?2?$AAm?$AAi?$AAs?$AAc?$AA?2?$AAi?$AAn@ 0047dac0     LIBCMTD:initmon.obj
 0002:0000fb10       ??_C@_0CI@GAAFLELF@f?3?2dd?2vctools?2crt?2crtw32?2misc?2in@ 0047db10     LIBCMTD:initnum.obj
 0002:0000fb38       ??_C@_1DM@IFKAINNE@?$AAp?$AAl?$AAo?$AAc?$AAi?$AA?9?$AA?$DO?$AAl?$AAc?$AAo?$AAn?$AAv?$AA_?$AAn?$AAu?$AAm?$AA_?$AAr?$AAe?$AAf?$AAc?$AAo?$AAu?$AAn?$AAt?$AA?5?$AA?$DO?$AA?5?$AA0?$AA?$AA@ 0047db38     LIBCMTD:initnum.obj
 0002:0000fb78       ??_C@_1FA@OEEOKLKJ@?$AAf?$AA?3?$AA?2?$AAd?$AAd?$AA?2?$AAv?$AAc?$AAt?$AAo?$AAo?$AAl?$AAs?$AA?2?$AAc?$AAr?$AAt?$AA?2?$AAc?$AAr?$AAt?$AAw?$AA3?$AA2?$AA?2?$AAm?$AAi?$AAs?$AAc?$AA?2?$AAi?$AAn@ 0047db78     LIBCMTD:initnum.obj
 0002:0000fbc8       ??_C@_0CJ@HGFGLKBM@f?3?2dd?2vctools?2crt?2crtw32?2misc?2in@ 0047dbc8     LIBCMTD:inittime.obj
 0002:0000fbf8       ??_C@_1EE@FDHCFDHN@?$AAp?$AAl?$AAo?$AAc?$AAi?$AA?9?$AA?$DO?$AAl?$AAc?$AA_?$AAt?$AAi?$AAm?$AAe?$AA_?$AAc?$AAu?$AAr?$AAr?$AA?9?$AA?$DO?$AAr?$AAe?$AAf?$AAc?$AAo?$AAu?$AAn?$AAt?$AA?5?$AA?$DO?$AA?5@ 0047dbf8     LIBCMTD:inittime.obj
 0002:0000fc40       ??_C@_1FC@GNPEEAOA@?$AAf?$AA?3?$AA?2?$AAd?$AAd?$AA?2?$AAv?$AAc?$AAt?$AAo?$AAo?$AAl?$AAs?$AA?2?$AAc?$AAr?$AAt?$AA?2?$AAc?$AAr?$AAt?$AAw?$AA3?$AA2?$AA?2?$AAm?$AAi?$AAs?$AAc?$AA?2?$AAi?$AAn@ 0047dc40     LIBCMTD:inittime.obj
 0002:0000fc98       ___newctype                0047dc98     LIBCMTD:ctype.obj
 0002:0000ff98       __wctype                   0047df98     LIBCMTD:ctype.obj
 0002:000101a0       ___newclmap                0047e1a0     LIBCMTD:ctype.obj
 0002:00010320       ___newcumap                0047e320     LIBCMTD:ctype.obj
 0002:000104a0       ??_C@_1FE@DHCMIOFC@?$AAf?$AA?3?$AA?2?$AAd?$AAd?$AA?2?$AAv?$AAc?$AAt?$AAo?$AAo?$AAl?$AAs?$AA?2?$AAc?$AAr?$AAt?$AA?2?$AAc?$AAr?$AAt?$AAw?$AA3?$AA2?$AA?2?$AAs?$AAt?$AAd?$AAi?$AAo?$AA?2?$AAv@ 0047e4a0     LIBCMTD:vswprint.obj
 0002:000104f4       ??_C@_1BK@EPLNBKAK@?$AA_?$AAv?$AAs?$AAw?$AAp?$AAr?$AAi?$AAn?$AAt?$AAf?$AA_?$AAl?$AA?$AA@ 0047e4f4     LIBCMTD:vswprint.obj
 0002:00010510       ??_C@_1CG@IMMIEPNA@?$AA_?$AAv?$AAs?$AAc?$AAw?$AAp?$AAr?$AAi?$AAn?$AAt?$AAf?$AA_?$AAh?$AAe?$AAl?$AAp?$AAe?$AAr?$AA?$AA@ 0047e510     LIBCMTD:vswprint.obj
 0002:00010538       ??_C@_1CE@IGKFIJFD@?$AA_?$AAv?$AAs?$AAw?$AAp?$AAr?$AAi?$AAn?$AAt?$AAf?$AA_?$AAh?$AAe?$AAl?$AAp?$AAe?$AAr?$AA?$AA@ 0047e538     LIBCMTD:vswprnc.obj
 0002:0001055c       ??_C@_1BO@OALHJLCI@?$AA_?$AAv?$AAs?$AAw?$AAp?$AAr?$AAi?$AAn?$AAt?$AAf?$AA_?$AAs?$AA_?$AAl?$AA?$AA@ 0047e55c     LIBCMTD:vswprnc.obj
 0002:00010580       ??_C@_1EE@MPCHJFGP@?$AAs?$AAt?$AAr?$AAi?$AAn?$AAg?$AA?5?$AA?$CB?$AA?$DN?$AA?5?$AAN?$AAU?$AAL?$AAL?$AA?5?$AA?$CG?$AA?$CG?$AA?5?$AAs?$AAi?$AAz?$AAe?$AAI?$AAn?$AAW?$AAo?$AAr?$AAd?$AAs?$AA?5?$AA?$DO?$AA?5@ 0047e580     LIBCMTD:vswprnc.obj
 0002:000105c4       ??_C@_1CA@BKFKMJFF@?$AA_?$AAv?$AAs?$AAn?$AAw?$AAp?$AAr?$AAi?$AAn?$AAt?$AAf?$AA_?$AAs?$AA_?$AAl?$AA?$AA@ 0047e5c4     LIBCMTD:vswprnc.obj
 0002:000105e4       ??_C@_1BG@BBCDFOMA@?$AA_?$AAw?$AAo?$AAu?$AAt?$AAp?$AAu?$AAt?$AA_?$AAl?$AA?$AA@ 0047e5e4     LIBCMTD:woutput.obj
 0002:00010600       ??_C@_1FA@LEFFAILN@?$AAf?$AA?3?$AA?2?$AAd?$AAd?$AA?2?$AAv?$AAc?$AAt?$AAo?$AAo?$AAl?$AAs?$AA?2?$AAc?$AAr?$AAt?$AA?2?$AAc?$AAr?$AAt?$AAw?$AA3?$AA2?$AA?2?$AAc?$AAo?$AAn?$AAv?$AAe?$AAr?$AAt@ 0047e600     LIBCMTD:xtoas.obj
 0002:00010650       ??_C@_1O@GIMBNLEI@?$AAx?$AAt?$AAo?$AAa?$AA_?$AAs?$AA?$AA@ 0047e650     LIBCMTD:xtoas.obj
 0002:00010660       ??_C@_1CC@JNJFIMGE@?$AAs?$AAi?$AAz?$AAe?$AAI?$AAn?$AAT?$AAC?$AAh?$AAa?$AAr?$AAs?$AA?5?$AA?$DO?$AA?5?$AA0?$AA?$AA@ 0047e660     LIBCMTD:xtoas.obj
 0002:00010688       ??_C@_1FA@MKGGAGEI@?$AAs?$AAi?$AAz?$AAe?$AAI?$AAn?$AAT?$AAC?$AAh?$AAa?$AAr?$AAs?$AA?5?$AA?$DO?$AA?5?$AA?$CI?$AAs?$AAi?$AAz?$AAe?$AA_?$AAt?$AA?$CJ?$AA?$CI?$AAi?$AAs?$AA_?$AAn?$AAe?$AAg?$AA?5?$AA?$DP@ 0047e688     LIBCMTD:xtoas.obj
 0002:000106d8       ??_C@_1DE@PCJGDBBD@?$AA2?$AA?5?$AA?$DM?$AA?$DN?$AA?5?$AAr?$AAa?$AAd?$AAi?$AAx?$AA?5?$AA?$CG?$AA?$CG?$AA?5?$AAr?$AAa?$AAd?$AAi?$AAx?$AA?5?$AA?$DM?$AA?$DN?$AA?5?$AA3?$AA6?$AA?$AA@ 0047e6d8     LIBCMTD:xtoas.obj
 0002:0001070c       ??_C@_1CM@HABGDNLJ@?$AAl?$AAe?$AAn?$AAg?$AAt?$AAh?$AA?5?$AA?$DM?$AA?5?$AAs?$AAi?$AAz?$AAe?$AAI?$AAn?$AAT?$AAC?$AAh?$AAa?$AAr?$AAs?$AA?$AA@ 0047e70c     LIBCMTD:xtoas.obj
 0002:00010738       ??_C@_1BC@MJJNBNFN@?$AAx?$AA6?$AA4?$AAt?$AAo?$AAa?$AA_?$AAs?$AA?$AA@ 0047e738     LIBCMTD:xtoas.obj
 0002:0001074c       ??_C@_1BE@EEKACIGI@?$AAs?$AA?5?$AA?$CB?$AA?$DN?$AA?5?$AAN?$AAU?$AAL?$AAL?$AA?$AA@ 0047e74c     LIBCMTD:mbstowcs.obj
 0002:00010760       ??_C@_1FI@DADFCCMF@?$AAf?$AA?3?$AA?2?$AAd?$AAd?$AA?2?$AAv?$AAc?$AAt?$AAo?$AAo?$AAl?$AAs?$AA?2?$AAc?$AAr?$AAt?$AA?2?$AAc?$AAr?$AAt?$AAw?$AA3?$AA2?$AA?2?$AAc?$AAo?$AAn?$AAv?$AAe?$AAr?$AAt@ 0047e760     LIBCMTD:mbstowcs.obj
 0002:000107b8       ??_C@_1CG@JEHFHLNG@?$AA_?$AAm?$AAb?$AAs?$AAt?$AAo?$AAw?$AAc?$AAs?$AA_?$AAl?$AA_?$AAh?$AAe?$AAl?$AAp?$AAe?$AAr?$AA?$AA@ 0047e7b8     LIBCMTD:mbstowcs.obj
 0002:000107e0       ??_C@_1JA@JKDFMOPO@?$AA?$CI?$AAp?$AAw?$AAc?$AAs?$AA?5?$AA?$DN?$AA?$DN?$AA?5?$AAN?$AAU?$AAL?$AAL?$AA?5?$AA?$CG?$AA?$CG?$AA?5?$AAs?$AAi?$AAz?$AAe?$AAI?$AAn?$AAW?$AAo?$AAr?$AAd?$AAs?$AA?5?$AA?$DN?$AA?$DN?$AA?5@ 0047e7e0     LIBCMTD:mbstowcs.obj
 0002:00010870       ??_C@_1BM@PHENIGHD@?$AA_?$AAm?$AAb?$AAs?$AAt?$AAo?$AAw?$AAc?$AAs?$AA_?$AAs?$AA_?$AAl?$AA?$AA@ 0047e870     LIBCMTD:mbstowcs.obj
 0002:0001088c       ??_C@_1CM@LLECFMFH@?$AAb?$AAu?$AAf?$AAf?$AAe?$AAr?$AAS?$AAi?$AAz?$AAe?$AA?5?$AA?$DM?$AA?$DN?$AA?5?$AAI?$AAN?$AAT?$AA_?$AAM?$AAA?$AAX?$AA?$AA@ 0047e88c     LIBCMTD:mbstowcs.obj
 0002:000108b8       ??_C@_1CO@JNPEPJAL@?$AAr?$AAe?$AAt?$AAs?$AAi?$AAz?$AAe?$AA?5?$AA?$DM?$AA?$DN?$AA?5?$AAs?$AAi?$AAz?$AAe?$AAI?$AAn?$AAW?$AAo?$AAr?$AAd?$AAs?$AA?$AA@ 0047e8b8     LIBCMTD:mbstowcs.obj
 0002:000108e8       ??_C@_1BK@OIBENBPM@?$AAp?$AAw?$AAc?$AAs?$AA?5?$AA?$CB?$AA?$DN?$AA?5?$AAN?$AAU?$AAL?$AAL?$AA?$AA@ 0047e8e8     LIBCMTD:wcstombs.obj
 0002:00010908       ??_C@_1FI@GCFLNCOB@?$AAf?$AA?3?$AA?2?$AAd?$AAd?$AA?2?$AAv?$AAc?$AAt?$AAo?$AAo?$AAl?$AAs?$AA?2?$AAc?$AAr?$AAt?$AA?2?$AAc?$AAr?$AAt?$AAw?$AA3?$AA2?$AA?2?$AAc?$AAo?$AAn?$AAv?$AAe?$AAr?$AAt@ 0047e908     LIBCMTD:wcstombs.obj
 0002:00010960       ??_C@_1CG@LLJCAOHF@?$AA_?$AAw?$AAc?$AAs?$AAt?$AAo?$AAm?$AAb?$AAs?$AA_?$AAl?$AA_?$AAh?$AAe?$AAl?$AAp?$AAe?$AAr?$AA?$AA@ 0047e960     LIBCMTD:wcstombs.obj
 0002:00010988       ??_C@_1IM@MFGKHGBP@?$AA?$CI?$AAd?$AAs?$AAt?$AA?5?$AA?$CB?$AA?$DN?$AA?5?$AAN?$AAU?$AAL?$AAL?$AA?5?$AA?$CG?$AA?$CG?$AA?5?$AAs?$AAi?$AAz?$AAe?$AAI?$AAn?$AAB?$AAy?$AAt?$AAe?$AAs?$AA?5?$AA?$DO?$AA?5?$AA0?$AA?$CJ@ 0047e988     LIBCMTD:wcstombs.obj
 0002:00010a14       ??_C@_1BM@BDMCLLDL@?$AA_?$AAw?$AAc?$AAs?$AAt?$AAo?$AAm?$AAb?$AAs?$AA_?$AAs?$AA_?$AAl?$AA?$AA@ 0047ea14     LIBCMTD:wcstombs.obj
 0002:00010a30       ??_C@_1CM@KEOGBFLI@?$AAs?$AAi?$AAz?$AAe?$AAI?$AAn?$AAB?$AAy?$AAt?$AAe?$AAs?$AA?5?$AA?$DO?$AA?5?$AAr?$AAe?$AAt?$AAs?$AAi?$AAz?$AAe?$AA?$AA@ 0047ea30     LIBCMTD:wcstombs.obj
 0002:00010a5c       ??_C@_1O@NCBFODOE@?$AAx?$AAt?$AAo?$AAw?$AA_?$AAs?$AA?$AA@ 0047ea5c     LIBCMTD:xtows.obj
 0002:00010a6c       ??_C@_1BC@HDEJCFPB@?$AAx?$AA6?$AA4?$AAt?$AAo?$AAw?$AA_?$AAs?$AA?$AA@ 0047ea6c     LIBCMTD:xtows.obj
 0002:00010a80       ??_C@_1O@HFEBJM@?$AA_?$AAw?$AAo?$AAp?$AAe?$AAn?$AA?$AA@ 0047ea80     LIBCMTD:wopen.obj
 0002:00010a90       ??_C@_1BO@NAANLDBI@?$AA_?$AAw?$AAs?$AAo?$AAp?$AAe?$AAn?$AA_?$AAh?$AAe?$AAl?$AAp?$AAe?$AAr?$AA?$AA@ 0047ea90     LIBCMTD:wopen.obj
 0002:00010ab0       ??_C@_0M@HHGEPIBF@CreateFile2?$AA@ 0047eab0     LIBCMTD:wopen.obj
 0002:00010abc       ??_C@_1BO@JMCLMIEA@?$AA_?$AAw?$AAs?$AAo?$AAp?$AAe?$AAn?$AA_?$AAn?$AAo?$AAl?$AAo?$AAc?$AAk?$AA?$AA@ 0047eabc     LIBCMTD:wopen.obj
 0002:00010adc       ??_C@_1CG@ICBEBDJJ@?$AA_?$AAg?$AAe?$AAt?$AA_?$AAf?$AAm?$AAo?$AAd?$AAe?$AA?$CI?$AA?$CG?$AAf?$AAm?$AAo?$AAd?$AAe?$AA?$CJ?$AA?$AA@ 0047eadc     LIBCMTD:wopen.obj
 0002:00010b04       ??_C@_1DI@DGKIFCCE@?$AA?$CI?$AA?5?$AA?$CC?$AAI?$AAn?$AAv?$AAa?$AAl?$AAi?$AAd?$AA?5?$AAo?$AAp?$AAe?$AAn?$AA?5?$AAf?$AAl?$AAa?$AAg?$AA?$CC?$AA?5?$AA?0?$AA?5?$AA0?$AA?5?$AA?$CJ?$AA?$AA@ 0047eb04     LIBCMTD:wopen.obj
 0002:00010b3c       ??_C@_1DO@PJLMOANO@?$AA?$CI?$AA?5?$AA?$CC?$AAI?$AAn?$AAv?$AAa?$AAl?$AAi?$AAd?$AA?5?$AAs?$AAh?$AAa?$AAr?$AAi?$AAn?$AAg?$AA?5?$AAf?$AAl?$AAa?$AAg?$AA?$CC?$AA?5?$AA?0?$AA?5?$AA0?$AA?5?$AA?$CJ?$AA?$AA@ 0047eb3c     LIBCMTD:wopen.obj
 0002:00010b80       ??_C@_1HM@GJANBLHJ@?$AA?$CI?$AAo?$AAf?$AAl?$AAa?$AAg?$AA?5?$AA?$CG?$AA?5?$AA?$CI?$AA_?$AAO?$AA_?$AAT?$AAE?$AAX?$AAT?$AA?5?$AA?$HM?$AA?5?$AA_?$AAO?$AA_?$AAW?$AAT?$AAE?$AAX?$AAT?$AA?5?$AA?$HM?$AA?5?$AA_@ 0047eb80     LIBCMTD:wopen.obj
 0002:00010bfc       ??_C@_1CM@IDLMKMPG@?$AA0?$AA?5?$AA?$CG?$AA?$CG?$AA?5?$AA?$CC?$AAI?$AAn?$AAt?$AAe?$AAr?$AAn?$AAa?$AAl?$AA?5?$AAE?$AAr?$AAr?$AAo?$AAr?$AA?$CC?$AA?$AA@ 0047ebfc     LIBCMTD:wopen.obj
 0002:00010c28       ??_C@_1IA@IENOJNJF@?$AA0?$AA?5?$AA?$CG?$AA?$CG?$AA?5?$AA?$CC?$AAO?$AAn?$AAl?$AAy?$AA?5?$AAU?$AAT?$AAF?$AA?9?$AA1?$AA6?$AA?5?$AAl?$AAi?$AAt?$AAt?$AAl?$AAe?$AA?5?$AAe?$AAn?$AAd?$AAi?$AAa?$AAn?$AA?5@ 0047ec28     LIBCMTD:wopen.obj
 0002:00010ca8       ??_C@_1FG@NEKCMHCI@?$AAf?$AA?3?$AA?2?$AAd?$AAd?$AA?2?$AAv?$AAc?$AAt?$AAo?$AAo?$AAl?$AAs?$AA?2?$AAc?$AAr?$AAt?$AA?2?$AAc?$AAr?$AAt?$AAw?$AA3?$AA2?$AA?2?$AAs?$AAt?$AAr?$AAi?$AAn?$AAg?$AA?2@ 0047eca8     LIBCMTD:strnicmp.obj
 0002:00010d00       ??_C@_1BI@BJLEPLEF@?$AA_?$AAs?$AAt?$AAr?$AAn?$AAi?$AAc?$AAm?$AAp?$AA_?$AAl?$AA?$AA@ 0047ed00     LIBCMTD:strnicmp.obj
 0002:00010d18       ??_C@_1CC@JLPHKJPH@?$AAc?$AAo?$AAu?$AAn?$AAt?$AA?5?$AA?$DM?$AA?$DN?$AA?5?$AAI?$AAN?$AAT?$AA_?$AAM?$AAA?$AAX?$AA?$AA@ 0047ed18     LIBCMTD:strnicmp.obj
 0002:00010d3c       ??_C@_1BE@BHJDFFNA@?$AA_?$AAs?$AAt?$AAr?$AAn?$AAi?$AAc?$AAm?$AAp?$AA?$AA@ 0047ed3c     LIBCMTD:strnicmp.obj
 0002:00010d50       ??_C@_0CJ@JJMAJPPG@f?3?2dd?2vctools?2crt?2crtw32?2misc?2in@ 0047ed50     LIBCMTD:initctyp.obj
 0002:00010d80       ??_C@_1FC@OGCCCEID@?$AAf?$AA?3?$AA?2?$AAd?$AAd?$AA?2?$AAv?$AAc?$AAt?$AAo?$AAo?$AAl?$AAs?$AA?2?$AAc?$AAr?$AAt?$AA?2?$AAc?$AAr?$AAt?$AAw?$AA3?$AA2?$AA?2?$AAm?$AAi?$AAs?$AAc?$AA?2?$AAi?$AAn@ 0047ed80     LIBCMTD:initctyp.obj
 0002:00010dd4       ??_C@_1DG@NMBGBDM@?$AAp?$AAl?$AAo?$AAc?$AAi?$AA?9?$AA?$DO?$AAc?$AAt?$AAy?$AAp?$AAe?$AA1?$AA_?$AAr?$AAe?$AAf?$AAc?$AAo?$AAu?$AAn?$AAt?$AA?5?$AA?$DO?$AA?5?$AA0?$AA?$AA@ 0047edd4     LIBCMTD:initctyp.obj
 0002:00010e0c       __pDestructExceptionObject 0047ee0c     LIBCMTD:frame.obj
 0002:00010e10       ?value@?$integral_constant@_N$0A@@std@@2_NB 0047ee10     LIBCMTD:frame.obj
 0002:00010e11       ?value@?$integral_constant@_N$00@std@@2_NB 0047ee11     LIBCMTD:frame.obj
 0002:00010e18       ??_7bad_exception@std@@6B@ 0047ee18     LIBCMTD:frame.obj
 0002:00010e20       ??_C@_0O@DPKOEFFH@bad?5exception?$AA@ 0047ee20     LIBCMTD:frame.obj
 0002:00010e30       ??_C@_1CA@MBDBOHIB@?$AA_?$AAL?$AAo?$AAc?$AAa?$AAl?$AAe?$AA?5?$AA?$CB?$AA?$DN?$AA?5?$AAN?$AAU?$AAL?$AAL?$AA?$AA@ 0047ee30     LIBCMTD:strgtold.obj
 0002:00010e50       ??_C@_1FO@OFJNJPKB@?$AAf?$AA?3?$AA?2?$AAd?$AAd?$AA?2?$AAv?$AAc?$AAt?$AAo?$AAo?$AAl?$AAs?$AA?2?$AAc?$AAr?$AAt?$AA?2?$AAf?$AAp?$AAw?$AA3?$AA2?$AA?2?$AAi?$AAn?$AAc?$AAl?$AAu?$AAd?$AAe?$AA?2@ 0047ee50     LIBCMTD:strgtold.obj
 0002:00010eb0       ??_C@_1BO@IHLJHOPI@?$AA_?$AA_?$AAs?$AAt?$AAr?$AAg?$AAt?$AAo?$AAl?$AAd?$AA1?$AA2?$AA_?$AAl?$AA?$AA@ 0047eeb0     LIBCMTD:strgtold.obj
 0002:00010ed0       ___rg_language             0047eed0     LIBCMTD:getqloc.obj
 0002:000111dc       ??_C@_1BC@LLOKLNP@?$AAa?$AAm?$AAe?$AAr?$AAi?$AAc?$AAa?$AAn?$AA?$AA@ 0047f1dc     LIBCMTD:getqloc.obj
 0002:000111f0       ??_C@_1CC@HEIGCDGG@?$AAa?$AAm?$AAe?$AAr?$AAi?$AAc?$AAa?$AAn?$AA?5?$AAe?$AAn?$AAg?$AAl?$AAi?$AAs?$AAh?$AA?$AA@ 0047f1f0     LIBCMTD:getqloc.obj
 0002:00011214       ??_C@_1CC@IHCNOMIN@?$AAa?$AAm?$AAe?$AAr?$AAi?$AAc?$AAa?$AAn?$AA?9?$AAe?$AAn?$AAg?$AAl?$AAi?$AAs?$AAh?$AA?$AA@ 0047f214     LIBCMTD:getqloc.obj
 0002:00011238       ??_C@_1BG@GKAGPCGG@?$AAa?$AAu?$AAs?$AAt?$AAr?$AAa?$AAl?$AAi?$AAa?$AAn?$AA?$AA@ 0047f238     LIBCMTD:getqloc.obj
 0002:00011250       ??_C@_1BA@GMENCENF@?$AAb?$AAe?$AAl?$AAg?$AAi?$AAa?$AAn?$AA?$AA@ 0047f250     LIBCMTD:getqloc.obj
 0002:00011260       ??_C@_1BC@PJMIIAAN@?$AAc?$AAa?$AAn?$AAa?$AAd?$AAi?$AAa?$AAn?$AA?$AA@ 0047f260     LIBCMTD:getqloc.obj
 0002:00011274       ??_C@_17NOIMNFBF@?$AAc?$AAh?$AAh?$AA?$AA@ 0047f274     LIBCMTD:getqloc.obj
 0002:0001127c       ??_C@_17GGDALCHA@?$AAc?$AAh?$AAi?$AA?$AA@ 0047f27c     LIBCMTD:getqloc.obj
 0002:00011284       ??_C@_1BA@NPNJKIBL@?$AAc?$AAh?$AAi?$AAn?$AAe?$AAs?$AAe?$AA?$AA@ 0047f284     LIBCMTD:getqloc.obj
 0002:00011294       ??_C@_1CC@DINBAMMJ@?$AAc?$AAh?$AAi?$AAn?$AAe?$AAs?$AAe?$AA?9?$AAh?$AAo?$AAn?$AAg?$AAk?$AAo?$AAn?$AAg?$AA?$AA@ 0047f294     LIBCMTD:getqloc.obj
 0002:000112b8       ??_C@_1CG@IOBJPACO@?$AAc?$AAh?$AAi?$AAn?$AAe?$AAs?$AAe?$AA?9?$AAs?$AAi?$AAm?$AAp?$AAl?$AAi?$AAf?$AAi?$AAe?$AAd?$AA?$AA@ 0047f2b8     LIBCMTD:getqloc.obj
 0002:000112e0       ??_C@_1CE@GAJNDCKG@?$AAc?$AAh?$AAi?$AAn?$AAe?$AAs?$AAe?$AA?9?$AAs?$AAi?$AAn?$AAg?$AAa?$AAp?$AAo?$AAr?$AAe?$AA?$AA@ 0047f2e0     LIBCMTD:getqloc.obj
 0002:00011304       ??_C@_1CI@PAJPIOOD@?$AAc?$AAh?$AAi?$AAn?$AAe?$AAs?$AAe?$AA?9?$AAt?$AAr?$AAa?$AAd?$AAi?$AAt?$AAi?$AAo?$AAn?$AAa?$AAl?$AA?$AA@ 0047f304     LIBCMTD:getqloc.obj
 0002:0001132c       ??_C@_1BM@NILJBMMD@?$AAd?$AAu?$AAt?$AAc?$AAh?$AA?9?$AAb?$AAe?$AAl?$AAg?$AAi?$AAa?$AAn?$AA?$AA@ 0047f32c     LIBCMTD:getqloc.obj
 0002:00011348       ??_C@_1CC@OOJPJNEJ@?$AAe?$AAn?$AAg?$AAl?$AAi?$AAs?$AAh?$AA?9?$AAa?$AAm?$AAe?$AAr?$AAi?$AAc?$AAa?$AAn?$AA?$AA@ 0047f348     LIBCMTD:getqloc.obj
 0002:0001136c       ??_C@_1BI@IOLFEEM@?$AAe?$AAn?$AAg?$AAl?$AAi?$AAs?$AAh?$AA?9?$AAa?$AAu?$AAs?$AA?$AA@ 0047f36c     LIBCMTD:getqloc.obj
 0002:00011384       ??_C@_1BO@HFFNLENJ@?$AAe?$AAn?$AAg?$AAl?$AAi?$AAs?$AAh?$AA?9?$AAb?$AAe?$AAl?$AAi?$AAz?$AAe?$AA?$AA@ 0047f384     LIBCMTD:getqloc.obj
 0002:000113a4       ??_C@_1BI@HAPKJMPO@?$AAe?$AAn?$AAg?$AAl?$AAi?$AAs?$AAh?$AA?9?$AAc?$AAa?$AAn?$AA?$AA@ 0047f3a4     LIBCMTD:getqloc.obj
 0002:000113bc       ??_C@_1CE@HLNDMIOJ@?$AAe?$AAn?$AAg?$AAl?$AAi?$AAs?$AAh?$AA?9?$AAc?$AAa?$AAr?$AAi?$AAb?$AAb?$AAe?$AAa?$AAn?$AA?$AA@ 0047f3bc     LIBCMTD:getqloc.obj
 0002:000113e0       ??_C@_1BI@LDHJHHAC@?$AAe?$AAn?$AAg?$AAl?$AAi?$AAs?$AAh?$AA?9?$AAi?$AAr?$AAe?$AA?$AA@ 0047f3e0     LIBCMTD:getqloc.obj
 0002:000113f8       ??_C@_1CA@NJMMCFOC@?$AAe?$AAn?$AAg?$AAl?$AAi?$AAs?$AAh?$AA?9?$AAj?$AAa?$AAm?$AAa?$AAi?$AAc?$AAa?$AA?$AA@ 0047f3f8     LIBCMTD:getqloc.obj
 0002:00011418       ??_C@_1BG@BHJEBBGG@?$AAe?$AAn?$AAg?$AAl?$AAi?$AAs?$AAh?$AA?9?$AAn?$AAz?$AA?$AA@ 0047f418     LIBCMTD:getqloc.obj
 0002:00011430       ??_C@_1CK@FGOEJJCO@?$AAe?$AAn?$AAg?$AAl?$AAi?$AAs?$AAh?$AA?9?$AAs?$AAo?$AAu?$AAt?$AAh?$AA?5?$AAa?$AAf?$AAr?$AAi?$AAc?$AAa?$AA?$AA@ 0047f430     LIBCMTD:getqloc.obj
 0002:0001145c       ??_C@_1DE@PDBJPCJ@?$AAe?$AAn?$AAg?$AAl?$AAi?$AAs?$AAh?$AA?9?$AAt?$AAr?$AAi?$AAn?$AAi?$AAd?$AAa?$AAd?$AA?5?$AAy?$AA?5?$AAt?$AAo?$AAb?$AAa?$AAg?$AAo?$AA?$AA@ 0047f45c     LIBCMTD:getqloc.obj
 0002:00011490       ??_C@_1BG@JGCANDME@?$AAe?$AAn?$AAg?$AAl?$AAi?$AAs?$AAh?$AA?9?$AAu?$AAk?$AA?$AA@ 0047f490     LIBCMTD:getqloc.obj
 0002:000114a8       ??_C@_1BG@DINKMLE@?$AAe?$AAn?$AAg?$AAl?$AAi?$AAs?$AAh?$AA?9?$AAu?$AAs?$AA?$AA@ 0047f4a8     LIBCMTD:getqloc.obj
 0002:000114c0       ??_C@_1BI@NMFDBHJE@?$AAe?$AAn?$AAg?$AAl?$AAi?$AAs?$AAh?$AA?9?$AAu?$AAs?$AAa?$AA?$AA@ 0047f4c0     LIBCMTD:getqloc.obj
 0002:000114d8       ??_C@_1BO@OIHKJKII@?$AAf?$AAr?$AAe?$AAn?$AAc?$AAh?$AA?9?$AAb?$AAe?$AAl?$AAg?$AAi?$AAa?$AAn?$AA?$AA@ 0047f4d8     LIBCMTD:getqloc.obj
 0002:000114f8       ??_C@_1CA@NKAELJKI@?$AAf?$AAr?$AAe?$AAn?$AAc?$AAh?$AA?9?$AAc?$AAa?$AAn?$AAa?$AAd?$AAi?$AAa?$AAn?$AA?$AA@ 0047f4f8     LIBCMTD:getqloc.obj
 0002:00011518       ??_C@_1CE@MGKCNLGN@?$AAf?$AAr?$AAe?$AAn?$AAc?$AAh?$AA?9?$AAl?$AAu?$AAx?$AAe?$AAm?$AAb?$AAo?$AAu?$AAr?$AAg?$AA?$AA@ 0047f518     LIBCMTD:getqloc.obj
 0002:0001153c       ??_C@_1BK@CEGEAILM@?$AAf?$AAr?$AAe?$AAn?$AAc?$AAh?$AA?9?$AAs?$AAw?$AAi?$AAs?$AAs?$AA?$AA@ 0047f53c     LIBCMTD:getqloc.obj
 0002:00011558       ??_C@_1CA@PAFKEOCC@?$AAg?$AAe?$AAr?$AAm?$AAa?$AAn?$AA?9?$AAa?$AAu?$AAs?$AAt?$AAr?$AAi?$AAa?$AAn?$AA?$AA@ 0047f558     LIBCMTD:getqloc.obj
 0002:00011578       ??_C@_1CI@HCFHGOFD@?$AAg?$AAe?$AAr?$AAm?$AAa?$AAn?$AA?9?$AAl?$AAi?$AAc?$AAh?$AAt?$AAe?$AAn?$AAs?$AAt?$AAe?$AAi?$AAn?$AA?$AA@ 0047f578     LIBCMTD:getqloc.obj
 0002:000115a0       ??_C@_1CE@FEDDNPDG@?$AAg?$AAe?$AAr?$AAm?$AAa?$AAn?$AA?9?$AAl?$AAu?$AAx?$AAe?$AAm?$AAb?$AAo?$AAu?$AAr?$AAg?$AA?$AA@ 0047f5a0     LIBCMTD:getqloc.obj
 0002:000115c4       ??_C@_1BK@LIMINNMN@?$AAg?$AAe?$AAr?$AAm?$AAa?$AAn?$AA?9?$AAs?$AAw?$AAi?$AAs?$AAs?$AA?$AA@ 0047f5c4     LIBCMTD:getqloc.obj
 0002:000115e0       ??_C@_1BM@LGMDBEPD@?$AAi?$AAr?$AAi?$AAs?$AAh?$AA?9?$AAe?$AAn?$AAg?$AAl?$AAi?$AAs?$AAh?$AA?$AA@ 0047f5e0     LIBCMTD:getqloc.obj
 0002:000115fc       ??_C@_1BM@NNCFBAEE@?$AAi?$AAt?$AAa?$AAl?$AAi?$AAa?$AAn?$AA?9?$AAs?$AAw?$AAi?$AAs?$AAs?$AA?$AA@ 0047f5fc     LIBCMTD:getqloc.obj
 0002:00011618       ??_C@_1BE@FEDJNPIB@?$AAn?$AAo?$AAr?$AAw?$AAe?$AAg?$AAi?$AAa?$AAn?$AA?$AA@ 0047f618     LIBCMTD:getqloc.obj
 0002:0001162c       ??_C@_1CC@CILKDEIE@?$AAn?$AAo?$AAr?$AAw?$AAe?$AAg?$AAi?$AAa?$AAn?$AA?9?$AAb?$AAo?$AAk?$AAm?$AAa?$AAl?$AA?$AA@ 0047f62c     LIBCMTD:getqloc.obj
 0002:00011650       ??_C@_1CE@DHMMHEPL@?$AAn?$AAo?$AAr?$AAw?$AAe?$AAg?$AAi?$AAa?$AAn?$AA?9?$AAn?$AAy?$AAn?$AAo?$AAr?$AAs?$AAk?$AA?$AA@ 0047f650     LIBCMTD:getqloc.obj
 0002:00011674       ??_C@_1CK@OPNMHECD@?$AAp?$AAo?$AAr?$AAt?$AAu?$AAg?$AAu?$AAe?$AAs?$AAe?$AA?9?$AAb?$AAr?$AAa?$AAz?$AAi?$AAl?$AAi?$AAa?$AAn?$AA?$AA@ 0047f674     LIBCMTD:getqloc.obj
 0002:000116a0       ??_C@_1CE@KEEHCDB@?$AAs?$AAp?$AAa?$AAn?$AAi?$AAs?$AAh?$AA?9?$AAa?$AAr?$AAg?$AAe?$AAn?$AAt?$AAi?$AAn?$AAa?$AA?$AA@ 0047f6a0     LIBCMTD:getqloc.obj
 0002:000116c4       ??_C@_1CA@GIAOLHJD@?$AAs?$AAp?$AAa?$AAn?$AAi?$AAs?$AAh?$AA?9?$AAb?$AAo?$AAl?$AAi?$AAv?$AAi?$AAa?$AA?$AA@ 0047f6c4     LIBCMTD:getqloc.obj
 0002:000116e4       ??_C@_1BM@OJNDFNPD@?$AAs?$AAp?$AAa?$AAn?$AAi?$AAs?$AAh?$AA?9?$AAc?$AAh?$AAi?$AAl?$AAe?$AA?$AA@ 0047f6e4     LIBCMTD:getqloc.obj
 0002:00011700       ??_C@_1CC@OCOLPALL@?$AAs?$AAp?$AAa?$AAn?$AAi?$AAs?$AAh?$AA?9?$AAc?$AAo?$AAl?$AAo?$AAm?$AAb?$AAi?$AAa?$AA?$AA@ 0047f700     LIBCMTD:getqloc.obj
 0002:00011724       ??_C@_1CG@BPOFMKBB@?$AAs?$AAp?$AAa?$AAn?$AAi?$AAs?$AAh?$AA?9?$AAc?$AAo?$AAs?$AAt?$AAa?$AA?5?$AAr?$AAi?$AAc?$AAa?$AA?$AA@ 0047f724     LIBCMTD:getqloc.obj
 0002:0001174c       ??_C@_1DG@IGOBAPBB@?$AAs?$AAp?$AAa?$AAn?$AAi?$AAs?$AAh?$AA?9?$AAd?$AAo?$AAm?$AAi?$AAn?$AAi?$AAc?$AAa?$AAn?$AA?5?$AAr?$AAe?$AAp?$AAu?$AAb?$AAl?$AAi?$AAc?$AA?$AA@ 0047f74c     LIBCMTD:getqloc.obj
 0002:00011784       ??_C@_1CA@JHAPGEGI@?$AAs?$AAp?$AAa?$AAn?$AAi?$AAs?$AAh?$AA?9?$AAe?$AAc?$AAu?$AAa?$AAd?$AAo?$AAr?$AA?$AA@ 0047f784     LIBCMTD:getqloc.obj
 0002:000117a4       ??_C@_1CI@LAPALJPP@?$AAs?$AAp?$AAa?$AAn?$AAi?$AAs?$AAh?$AA?9?$AAe?$AAl?$AA?5?$AAs?$AAa?$AAl?$AAv?$AAa?$AAd?$AAo?$AAr?$AA?$AA@ 0047f7a4     LIBCMTD:getqloc.obj
 0002:000117cc       ??_C@_1CE@PDGBOFOM@?$AAs?$AAp?$AAa?$AAn?$AAi?$AAs?$AAh?$AA?9?$AAg?$AAu?$AAa?$AAt?$AAe?$AAm?$AAa?$AAl?$AAa?$AA?$AA@ 0047f7cc     LIBCMTD:getqloc.obj
 0002:000117f0       ??_C@_1CC@NBEBAODI@?$AAs?$AAp?$AAa?$AAn?$AAi?$AAs?$AAh?$AA?9?$AAh?$AAo?$AAn?$AAd?$AAu?$AAr?$AAa?$AAs?$AA?$AA@ 0047f7f0     LIBCMTD:getqloc.obj
 0002:00011814       ??_C@_1CA@LLKGHBMF@?$AAs?$AAp?$AAa?$AAn?$AAi?$AAs?$AAh?$AA?9?$AAm?$AAe?$AAx?$AAi?$AAc?$AAa?$AAn?$AA?$AA@ 0047f814     LIBCMTD:getqloc.obj
 0002:00011834       ??_C@_1BO@LKNDOIGD@?$AAs?$AAp?$AAa?$AAn?$AAi?$AAs?$AAh?$AA?9?$AAm?$AAo?$AAd?$AAe?$AAr?$AAn?$AA?$AA@ 0047f834     LIBCMTD:getqloc.obj
 0002:00011854       ??_C@_1CE@NMDMOEEB@?$AAs?$AAp?$AAa?$AAn?$AAi?$AAs?$AAh?$AA?9?$AAn?$AAi?$AAc?$AAa?$AAr?$AAa?$AAg?$AAu?$AAa?$AA?$AA@ 0047f854     LIBCMTD:getqloc.obj
 0002:00011878       ??_C@_1BO@LLCBEJGB@?$AAs?$AAp?$AAa?$AAn?$AAi?$AAs?$AAh?$AA?9?$AAp?$AAa?$AAn?$AAa?$AAm?$AAa?$AA?$AA@ 0047f878     LIBCMTD:getqloc.obj
 0002:00011898       ??_C@_1CC@FKPGGIHO@?$AAs?$AAp?$AAa?$AAn?$AAi?$AAs?$AAh?$AA?9?$AAp?$AAa?$AAr?$AAa?$AAg?$AAu?$AAa?$AAy?$AA?$AA@ 0047f898     LIBCMTD:getqloc.obj
 0002:000118bc       ??_C@_1BK@CDEIHOOP@?$AAs?$AAp?$AAa?$AAn?$AAi?$AAs?$AAh?$AA?9?$AAp?$AAe?$AAr?$AAu?$AA?$AA@ 0047f8bc     LIBCMTD:getqloc.obj
 0002:000118d8       ??_C@_1CI@GAHAKKGP@?$AAs?$AAp?$AAa?$AAn?$AAi?$AAs?$AAh?$AA?9?$AAp?$AAu?$AAe?$AAr?$AAt?$AAo?$AA?5?$AAr?$AAi?$AAc?$AAo?$AA?$AA@ 0047f8d8     LIBCMTD:getqloc.obj
 0002:00011900       ??_C@_1CA@NKJBCAGP@?$AAs?$AAp?$AAa?$AAn?$AAi?$AAs?$AAh?$AA?9?$AAu?$AAr?$AAu?$AAg?$AAu?$AAa?$AAy?$AA?$AA@ 0047f900     LIBCMTD:getqloc.obj
 0002:00011920       ??_C@_1CE@ODILCONM@?$AAs?$AAp?$AAa?$AAn?$AAi?$AAs?$AAh?$AA?9?$AAv?$AAe?$AAn?$AAe?$AAz?$AAu?$AAe?$AAl?$AAa?$AA?$AA@ 0047f920     LIBCMTD:getqloc.obj
 0002:00011944       ??_C@_1CA@OBNMCGFO@?$AAs?$AAw?$AAe?$AAd?$AAi?$AAs?$AAh?$AA?9?$AAf?$AAi?$AAn?$AAl?$AAa?$AAn?$AAd?$AA?$AA@ 0047f944     LIBCMTD:getqloc.obj
 0002:00011964       ??_C@_1M@PIPDDPPI@?$AAs?$AAw?$AAi?$AAs?$AAs?$AA?$AA@ 0047f964     LIBCMTD:getqloc.obj
 0002:00011970       ??_C@_15GMFIMNFM@?$AAu?$AAs?$AA?$AA@ 0047f970     LIBCMTD:getqloc.obj
 0002:00011978       ??_C@_17HAEBFAGL@?$AAu?$AAs?$AAa?$AA?$AA@ 0047f978     LIBCMTD:getqloc.obj
 0002:00011980       ___rg_country              0047f980     LIBCMTD:getqloc.obj
 0002:00011a94       ??_C@_1BA@DPFJEPHB@?$AAa?$AAm?$AAe?$AAr?$AAi?$AAc?$AAa?$AA?$AA@ 0047fa94     LIBCMTD:getqloc.obj
 0002:00011aa4       ??_C@_1BA@ELOGGFK@?$AAb?$AAr?$AAi?$AAt?$AAa?$AAi?$AAn?$AA?$AA@ 0047faa4     LIBCMTD:getqloc.obj
 0002:00011ab4       ??_C@_1M@GHBGIGDA@?$AAc?$AAh?$AAi?$AAn?$AAa?$AA?$AA@ 0047fab4     LIBCMTD:getqloc.obj
 0002:00011ac0       ??_C@_1M@NCHEJOPO@?$AAc?$AAz?$AAe?$AAc?$AAh?$AA?$AA@ 0047fac0     LIBCMTD:getqloc.obj
 0002:00011acc       ??_C@_1BA@BKPAPBLA@?$AAe?$AAn?$AAg?$AAl?$AAa?$AAn?$AAd?$AA?$AA@ 0047facc     LIBCMTD:getqloc.obj
 0002:00011adc       ??_C@_1BM@HKBCKIPC@?$AAg?$AAr?$AAe?$AAa?$AAt?$AA?5?$AAb?$AAr?$AAi?$AAt?$AAa?$AAi?$AAn?$AA?$AA@ 0047fadc     LIBCMTD:getqloc.obj
 0002:00011af8       ??_C@_1BA@PPCHPGJB@?$AAh?$AAo?$AAl?$AAl?$AAa?$AAn?$AAd?$AA?$AA@ 0047faf8     LIBCMTD:getqloc.obj
 0002:00011b08       ??_C@_1BE@JBMPEGDG@?$AAh?$AAo?$AAn?$AAg?$AA?9?$AAk?$AAo?$AAn?$AAg?$AA?$AA@ 0047fb08     LIBCMTD:getqloc.obj
 0002:00011b1c       ??_C@_1BI@KOELBBPJ@?$AAn?$AAe?$AAw?$AA?9?$AAz?$AAe?$AAa?$AAl?$AAa?$AAn?$AAd?$AA?$AA@ 0047fb1c     LIBCMTD:getqloc.obj
 0002:00011b34       ??_C@_15HIEBHAIO@?$AAn?$AAz?$AA?$AA@ 0047fb34     LIBCMTD:getqloc.obj
 0002:00011b3c       ??_C@_1BC@CHBCPFPI@?$AAp?$AAr?$AA?5?$AAc?$AAh?$AAi?$AAn?$AAa?$AA?$AA@ 0047fb3c     LIBCMTD:getqloc.obj
 0002:00011b50       ??_C@_1BC@JAOIIFKD@?$AAp?$AAr?$AA?9?$AAc?$AAh?$AAi?$AAn?$AAa?$AA?$AA@ 0047fb50     LIBCMTD:getqloc.obj
 0002:00011b64       ??_C@_1BI@BEHPPHKC@?$AAp?$AAu?$AAe?$AAr?$AAt?$AAo?$AA?9?$AAr?$AAi?$AAc?$AAo?$AA?$AA@ 0047fb64     LIBCMTD:getqloc.obj
 0002:00011b7c       ??_C@_1O@PAEOFKDI@?$AAs?$AAl?$AAo?$AAv?$AAa?$AAk?$AA?$AA@ 0047fb7c     LIBCMTD:getqloc.obj
 0002:00011b8c       ??_C@_1BK@FIHMCKAM@?$AAs?$AAo?$AAu?$AAt?$AAh?$AA?5?$AAa?$AAf?$AAr?$AAi?$AAc?$AAa?$AA?$AA@ 0047fb8c     LIBCMTD:getqloc.obj
 0002:00011ba8       ??_C@_1BI@NAEOODKB@?$AAs?$AAo?$AAu?$AAt?$AAh?$AA?5?$AAk?$AAo?$AAr?$AAe?$AAa?$AA?$AA@ 0047fba8     LIBCMTD:getqloc.obj
 0002:00011bc0       ??_C@_1BK@FBDGGIFF@?$AAs?$AAo?$AAu?$AAt?$AAh?$AA?9?$AAa?$AAf?$AAr?$AAi?$AAc?$AAa?$AA?$AA@ 0047fbc0     LIBCMTD:getqloc.obj
 0002:00011bdc       ??_C@_1BI@GHLEJDPK@?$AAs?$AAo?$AAu?$AAt?$AAh?$AA?9?$AAk?$AAo?$AAr?$AAe?$AAa?$AA?$AA@ 0047fbdc     LIBCMTD:getqloc.obj
 0002:00011bf4       ??_C@_1CE@PLHLOMJF@?$AAt?$AAr?$AAi?$AAn?$AAi?$AAd?$AAa?$AAd?$AA?5?$AA?$CG?$AA?5?$AAt?$AAo?$AAb?$AAa?$AAg?$AAo?$AA?$AA@ 0047fbf4     LIBCMTD:getqloc.obj
 0002:00011c18       ??_C@_1BO@MODIMHHI@?$AAu?$AAn?$AAi?$AAt?$AAe?$AAd?$AA?9?$AAk?$AAi?$AAn?$AAg?$AAd?$AAo?$AAm?$AA?$AA@ 0047fc18     LIBCMTD:getqloc.obj
 0002:00011c38       ??_C@_1BM@FFHJONBJ@?$AAu?$AAn?$AAi?$AAt?$AAe?$AAd?$AA?9?$AAs?$AAt?$AAa?$AAt?$AAe?$AAs?$AA?$AA@ 0047fc38     LIBCMTD:getqloc.obj
 0002:00011c54       ___rg_language_count       0047fc54     LIBCMTD:getqloc.obj
 0002:00011c58       ___rg_country_count        0047fc58     LIBCMTD:getqloc.obj
 0002:00011c60       ??_C@_1FA@KCJCBMIG@?$AAf?$AA?3?$AA?2?$AAd?$AAd?$AA?2?$AAv?$AAc?$AAt?$AAo?$AAo?$AAl?$AAs?$AA?2?$AAc?$AAr?$AAt?$AA?2?$AAc?$AAr?$AAt?$AAw?$AA3?$AA2?$AA?2?$AAm?$AAi?$AAs?$AAc?$AA?2?$AAg?$AAe@ 0047fc60     LIBCMTD:getqloc.obj
 0002:00011cb0       ??_C@_1CO@NJACLALJ@?$AA_?$AA_?$AAg?$AAe?$AAt?$AA_?$AAq?$AAu?$AAa?$AAl?$AAi?$AAf?$AAi?$AAe?$AAd?$AA_?$AAl?$AAo?$AAc?$AAa?$AAl?$AAe?$AA?$AA@ 0047fcb0     LIBCMTD:getqloc.obj
 0002:00011ce0       ??_C@_1BGM@FCCPEFDE@?$AAw?$AAc?$AAs?$AAn?$AAc?$AAp?$AAy?$AA_?$AAs?$AA?$CI?$AAl?$AAp?$AAO?$AAu?$AAt?$AAS?$AAt?$AAr?$AA?9?$AA?$DO?$AAs?$AAz?$AAL?$AAo?$AAc?$AAa?$AAl?$AAe?$AAN?$AAa?$AAm?$AAe@ 0047fce0     LIBCMTD:getqloc.obj
 0002:00011e4c       ??_C@_1CM@OGEMFJNJ@?$AAL?$AAa?$AAn?$AAg?$AAC?$AAo?$AAu?$AAn?$AAt?$AAr?$AAy?$AAE?$AAn?$AAu?$AAm?$AAP?$AAr?$AAo?$AAc?$AAE?$AAx?$AA?$AA@ 0047fe4c     LIBCMTD:getqloc.obj
 0002:00011e78       ??_C@_1BFO@LLJKJAIC@?$AAw?$AAc?$AAs?$AAn?$AAc?$AAp?$AAy?$AA_?$AAs?$AA?$CI?$AA_?$AAp?$AAs?$AAe?$AAt?$AAl?$AAo?$AAc?$AA_?$AAd?$AAa?$AAt?$AAa?$AA?9?$AA?$DO?$AA_?$AAc?$AAa?$AAc?$AAh?$AAe?$AAL@ 0047fe78     LIBCMTD:getqloc.obj
 0002:00011fd8       ??_C@_1CG@PGLLICHO@?$AAL?$AAa?$AAn?$AAg?$AAu?$AAa?$AAg?$AAe?$AAE?$AAn?$AAu?$AAm?$AAP?$AAr?$AAo?$AAc?$AAE?$AAx?$AA?$AA@ 0047ffd8     LIBCMTD:getqloc.obj
 0002:00012000       ??_C@_1DC@CPKFANGP@?$AAG?$AAe?$AAt?$AAL?$AAo?$AAc?$AAa?$AAl?$AAe?$AAN?$AAa?$AAm?$AAe?$AAF?$AAr?$AAo?$AAm?$AAD?$AAe?$AAf?$AAa?$AAu?$AAl?$AAt?$AA?$AA@ 00480000     LIBCMTD:getqloc.obj
 0002:00012038       ??_C@_1BEO@EJBNGKHB@?$AAw?$AAc?$AAs?$AAn?$AAc?$AAp?$AAy?$AA_?$AAs?$AA?$CI?$AA_?$AAp?$AAs?$AAe?$AAt?$AAl?$AAo?$AAc?$AA_?$AAd?$AAa?$AAt?$AAa?$AA?9?$AA?$DO?$AA_?$AAc?$AAa?$AAc?$AAh?$AAe?$AAL@ 00480038     LIBCMTD:getqloc.obj
 0002:00012188       ??_C@_17DNCLJFIF@?$AAA?$AAC?$AAP?$AA?$AA@ 00480188     LIBCMTD:getqloc.obj
 0002:00012190       ??_C@_17CIKBIHLH@?$AAO?$AAC?$AAP?$AA?$AA@ 00480190     LIBCMTD:getqloc.obj
 0002:00012198       ___rglangidNotDefault      00480198     LIBCMTD:getqloc_downlevel.obj
 0002:000121b0       ??_C@_1FG@DIHJFNHH@?$AAf?$AA?3?$AA?2?$AAd?$AAd?$AA?2?$AAv?$AAc?$AAt?$AAo?$AAo?$AAl?$AAs?$AA?2?$AAc?$AAr?$AAt?$AA?2?$AAc?$AAr?$AAt?$AAw?$AA3?$AA2?$AA?2?$AAh?$AA?2?$AAt?$AAm?$AAa?$AAk?$AAe@ 004801b0     LIBCMTD:wmakepath_s.obj
 0002:00012208       ??_C@_1BK@KHBCJPCH@?$AA_?$AAw?$AAm?$AAa?$AAk?$AAe?$AAp?$AAa?$AAt?$AAh?$AA_?$AAs?$AA?$AA@ 00480208     LIBCMTD:wmakepath_s.obj
 0002:00012224       ??_C@_1CI@MLPLHPBP@?$AA?$CI?$AA?$CI?$AA?$CI?$AA_?$AAP?$AAa?$AAt?$AAh?$AA?$CJ?$AA?$CJ?$AA?$CJ?$AA?5?$AA?$CB?$AA?$DN?$AA?5?$AAN?$AAU?$AAL?$AAL?$AA?$AA@ 00480224     LIBCMTD:wsplitpath_s.obj
 0002:00012250       ??_C@_1FI@NIGODNLP@?$AAf?$AA?3?$AA?2?$AAd?$AAd?$AA?2?$AAv?$AAc?$AAt?$AAo?$AAo?$AAl?$AAs?$AA?2?$AAc?$AAr?$AAt?$AA?2?$AAc?$AAr?$AAt?$AAw?$AA3?$AA2?$AA?2?$AAh?$AA?2?$AAt?$AAs?$AAp?$AAl?$AAi@ 00480250     LIBCMTD:wsplitpath_s.obj
 0002:000122a8       ??_C@_1BM@OEAFIBCF@?$AA_?$AAw?$AAs?$AAp?$AAl?$AAi?$AAt?$AAp?$AAa?$AAt?$AAh?$AA_?$AAs?$AA?$AA@ 004802a8     LIBCMTD:wsplitpath_s.obj
 0002:000122c4       ??_C@_1DE@MLEJGPLF@?$AA?$CI?$AAL?$AA?$CC?$AAI?$AAn?$AAv?$AAa?$AAl?$AAi?$AAd?$AA?5?$AAp?$AAa?$AAr?$AAa?$AAm?$AAe?$AAt?$AAe?$AAr?$AA?$CC?$AA?0?$AA?5?$AA0?$AA?$CJ?$AA?$AA@ 004802c4     LIBCMTD:wsplitpath_s.obj
 0002:000122f8       ??_C@_1EO@IKHIJFCK@?$AAf?$AA?3?$AA?2?$AAd?$AAd?$AA?2?$AAv?$AAc?$AAt?$AAo?$AAo?$AAl?$AAs?$AA?2?$AAc?$AAr?$AAt?$AA?2?$AAf?$AAp?$AAw?$AA3?$AA2?$AA?2?$AAc?$AAo?$AAn?$AAv?$AA?2?$AAx?$AA1?$AA0@ 004802f8     LIBCMTD:x10fout.obj
 0002:00012348       ??_C@_1BI@ELMAAFLN@?$AA$?$AAI?$AA1?$AA0?$AA_?$AAO?$AAU?$AAT?$AAP?$AAU?$AAT?$AA?$AA@ 00480348     LIBCMTD:x10fout.obj
 0002:00012360       ??_C@_1EG@CDDBFNOB@?$AAs?$AAt?$AAr?$AAc?$AAp?$AAy?$AA_?$AAs?$AA?$CI?$AAf?$AAo?$AAs?$AA?9?$AA?$DO?$AAm?$AAa?$AAn?$AA?0?$AA?5?$AA2?$AA1?$AA?$CL?$AA1?$AA?0?$AA?5?$AA?$CC?$AA1?$AA?$CD?$AAS?$AAN?$AAA?$AAN@ 00480360     LIBCMTD:x10fout.obj
 0002:000123a8       ??_C@_06PGGFOGJG@1?$CDSNAN?$AA@ 004803a8     LIBCMTD:x10fout.obj
 0002:000123b0       ??_C@_1EE@MADEBIHF@?$AAs?$AAt?$AAr?$AAc?$AAp?$AAy?$AA_?$AAs?$AA?$CI?$AAf?$AAo?$AAs?$AA?9?$AA?$DO?$AAm?$AAa?$AAn?$AA?0?$AA?5?$AA2?$AA1?$AA?$CL?$AA1?$AA?0?$AA?5?$AA?$CC?$AA1?$AA?$CD?$AAI?$AAN?$AAD?$AA?$CC@ 004803b0     LIBCMTD:x10fout.obj
 0002:000123f4       ??_C@_05PHHOCPM@1?$CDIND?$AA@ 004803f4     LIBCMTD:x10fout.obj
 0002:00012400       ??_C@_1EE@ICBBBPAI@?$AAs?$AAt?$AAr?$AAc?$AAp?$AAy?$AA_?$AAs?$AA?$CI?$AAf?$AAo?$AAs?$AA?9?$AA?$DO?$AAm?$AAa?$AAn?$AA?0?$AA?5?$AA2?$AA1?$AA?$CL?$AA1?$AA?0?$AA?5?$AA?$CC?$AA1?$AA?$CD?$AAI?$AAN?$AAF?$AA?$CC@ 00480400     LIBCMTD:x10fout.obj
 0002:00012444       ??_C@_05DNEBIAHO@1?$CDINF?$AA@ 00480444     LIBCMTD:x10fout.obj
 0002:00012450       ??_C@_1EG@MCFPJJEM@?$AAs?$AAt?$AAr?$AAc?$AAp?$AAy?$AA_?$AAs?$AA?$CI?$AAf?$AAo?$AAs?$AA?9?$AA?$DO?$AAm?$AAa?$AAn?$AA?0?$AA?5?$AA2?$AA1?$AA?$CL?$AA1?$AA?0?$AA?5?$AA?$CC?$AA1?$AA?$CD?$AAQ?$AAN?$AAA?$AAN@ 00480450     LIBCMTD:x10fout.obj
 0002:00012498       ??_C@_06IMKFLFPG@1?$CDQNAN?$AA@ 00480498     LIBCMTD:x10fout.obj
 0002:000124a0       ?commonFlags@?1??_control87@@9@9 004804a0     LIBCMTD:ieee87.obj
 0002:000124a8       ??_C@_1FG@DINMPAPJ@?$AAf?$AA?3?$AA?2?$AAd?$AAd?$AA?2?$AAv?$AAc?$AAt?$AAo?$AAo?$AAl?$AAs?$AA?2?$AAc?$AAr?$AAt?$AA?2?$AAf?$AAp?$AAw?$AA3?$AA2?$AA?2?$AAt?$AAr?$AAa?$AAn?$AA?2?$AAi?$AA3?$AA8@ 004804a8     LIBCMTD:ieee87.obj
 0002:00012500       ??_C@_1BO@OFDNCLL@?$AA_?$AAs?$AAe?$AAt?$AA_?$AAc?$AAo?$AAn?$AAt?$AAr?$AAo?$AAl?$AAf?$AAp?$AA?$AA@ 00480500     LIBCMTD:ieee87.obj
 0002:00012520       ??_C@_1GO@OKJGOMCB@?$AA_?$AAc?$AAo?$AAn?$AAt?$AAr?$AAo?$AAl?$AAf?$AAp?$AA_?$AAs?$AA?$CI?$AA?$CI?$AA?$CI?$AAv?$AAo?$AAi?$AAd?$AA?5?$AA?$CK?$AA?$CJ?$AA0?$AA?$CJ?$AA?0?$AA?5?$AAn?$AAe?$AAw?$AAc?$AAt?$AAr@ 00480520     LIBCMTD:ieee87.obj
 0002:00012590       ??_C@_1FK@DOLMKJFE@?$AAf?$AA?3?$AA?2?$AAd?$AAd?$AA?2?$AAv?$AAc?$AAt?$AAo?$AAo?$AAl?$AAs?$AA?2?$AAc?$AAr?$AAt?$AA?2?$AAc?$AAr?$AAt?$AAw?$AA3?$AA2?$AA?2?$AAm?$AAb?$AAs?$AAt?$AAr?$AAi?$AAn@ 00480590     LIBCMTD:mbsnicmp.obj
 0002:000125ec       ??_C@_1BI@PAEGENJF@?$AA_?$AAm?$AAb?$AAs?$AAn?$AAi?$AAc?$AAm?$AAp?$AA_?$AAl?$AA?$AA@ 004805ec     LIBCMTD:mbsnicmp.obj
 0002:00012604       ??_C@_1CA@LMBEKBDN@?$AAp?$AAo?$AAp?$AAt?$AAi?$AAo?$AAn?$AA?5?$AA?$CB?$AA?$DN?$AA?5?$AAN?$AAU?$AAL?$AAL?$AA?$AA@ 00480604     LIBCMTD:setenv.obj
 0002:00012628       ??_C@_1EO@LLEMHCMB@?$AAf?$AA?3?$AA?2?$AAd?$AAd?$AA?2?$AAv?$AAc?$AAt?$AAo?$AAo?$AAl?$AAs?$AA?2?$AAc?$AAr?$AAt?$AA?2?$AAc?$AAr?$AAt?$AAw?$AA3?$AA2?$AA?2?$AAm?$AAi?$AAs?$AAc?$AA?2?$AAs?$AAe@ 00480628     LIBCMTD:setenv.obj
 0002:00012678       ??_C@_1BI@CDAFOAAL@?$AA_?$AA_?$AAc?$AAr?$AAt?$AAs?$AAe?$AAt?$AAe?$AAn?$AAv?$AA?$AA@ 00480678     LIBCMTD:setenv.obj
 0002:00012690       ??_C@_1DE@EEHFNNGH@?$AAe?$AAq?$AAu?$AAa?$AAl?$AA?5?$AA?9?$AA?5?$AAo?$AAp?$AAt?$AAi?$AAo?$AAn?$AA?5?$AA?$DM?$AA?5?$AA_?$AAM?$AAA?$AAX?$AA_?$AAE?$AAN?$AAV?$AA?$AA@ 00480690     LIBCMTD:setenv.obj
 0002:000126c8       ??_C@_1FC@EEJIEIDF@?$AA_?$AAt?$AAc?$AAs?$AAn?$AAl?$AAe?$AAn?$AA?$CI?$AAe?$AAq?$AAu?$AAa?$AAl?$AA?5?$AA?$CL?$AA?5?$AA1?$AA?0?$AA?5?$AA_?$AAM?$AAA?$AAX?$AA_?$AAE?$AAN?$AAV?$AA?$CJ?$AA?5?$AA?$DM?$AA?5@ 004806c8     LIBCMTD:setenv.obj
 0002:0001271c       ??_C@_0CH@OODIAFML@f?3?2dd?2vctools?2crt?2crtw32?2misc?2se@ 0048071c     LIBCMTD:setenv.obj
 0002:00012748       ??_C@_1EI@GHDNAPMG@?$AA?$CI?$AA?$CC?$AAC?$AAR?$AAT?$AA?5?$AAL?$AAo?$AAg?$AAi?$AAc?$AA?5?$AAe?$AAr?$AAr?$AAo?$AAr?$AA?5?$AAd?$AAu?$AAr?$AAi?$AAn?$AAg?$AA?5?$AAs?$AAe?$AAt?$AAe?$AAn?$AAv?$AA?$CC@ 00480748     LIBCMTD:setenv.obj
 0002:00012790       ??_C@_1FG@OKIAKKPK@?$AAs?$AAt?$AAr?$AAc?$AAp?$AAy?$AA_?$AAs?$AA?$CI?$AAn?$AAa?$AAm?$AAe?$AA?0?$AA?5?$AAs?$AAt?$AAr?$AAl?$AAe?$AAn?$AA?$CI?$AAo?$AAp?$AAt?$AAi?$AAo?$AAn?$AA?$CJ?$AA?5?$AA?$CL?$AA?5@ 00480790     LIBCMTD:setenv.obj
 0002:000127e8       ??_C@_1BK@ECKIJLPM@?$AAc?$AAo?$AAp?$AAy?$AA_?$AAe?$AAn?$AAv?$AAi?$AAr?$AAo?$AAn?$AA?$AA@ 004807e8     LIBCMTD:setenv.obj
 0002:00012808       ??_C@_1FK@DNFLNPD@?$AAs?$AAt?$AAr?$AAc?$AAp?$AAy?$AA_?$AAs?$AA?$CI?$AA?$CK?$AAn?$AAe?$AAw?$AAe?$AAn?$AAv?$AAp?$AAt?$AAr?$AA?0?$AA?5?$AAe?$AAn?$AAv?$AAp?$AAt?$AAr?$AAS?$AAi?$AAz?$AAe?$AA?0@ 00480808     LIBCMTD:setenv.obj
 0002:00012864       ??_C@_1CC@ICKKAGJA@?$AA_?$AAs?$AAt?$AAr?$AAi?$AAn?$AAg?$AA1?$AA?5?$AA?$CB?$AA?$DN?$AA?5?$AAN?$AAU?$AAL?$AAL?$AA?$AA@ 00480864     LIBCMTD:strnicol.obj
 0002:00012888       ??_C@_1FG@PLEDDDHB@?$AAf?$AA?3?$AA?2?$AAd?$AAd?$AA?2?$AAv?$AAc?$AAt?$AAo?$AAo?$AAl?$AAs?$AA?2?$AAc?$AAr?$AAt?$AA?2?$AAc?$AAr?$AAt?$AAw?$AA3?$AA2?$AA?2?$AAs?$AAt?$AAr?$AAi?$AAn?$AAg?$AA?2@ 00480888     LIBCMTD:strnicol.obj
 0002:000128e0       ??_C@_1BK@IOJEBPLP@?$AA_?$AAs?$AAt?$AAr?$AAn?$AAi?$AAc?$AAo?$AAl?$AAl?$AA_?$AAl?$AA?$AA@ 004808e0     LIBCMTD:strnicol.obj
 0002:000128fc       ??_C@_1CC@CNADELFK@?$AA_?$AAs?$AAt?$AAr?$AAi?$AAn?$AAg?$AA2?$AA?5?$AA?$CB?$AA?$DN?$AA?5?$AAN?$AAU?$AAL?$AAL?$AA?$AA@ 004808fc     LIBCMTD:strnicol.obj
 0002:00012920       ??_C@_1HK@ELDMAMK@?$AAc?$AAc?$AAh?$AAC?$AAo?$AAu?$AAn?$AAt?$AA1?$AA?$DN?$AA?$DN?$AA0?$AA?5?$AA?$CG?$AA?$CG?$AA?5?$AAc?$AAc?$AAh?$AAC?$AAo?$AAu?$AAn?$AAt?$AA2?$AA?$DN?$AA?$DN?$AA1?$AA?5?$AA?$HM?$AA?$HM?$AA?5@ 00480920     LIBCMTD:a_cmp.obj
 0002:000129a0       ??_C@_1EM@FKHOBKLM@?$AAf?$AA?3?$AA?2?$AAd?$AAd?$AA?2?$AAv?$AAc?$AAt?$AAo?$AAo?$AAl?$AAs?$AA?2?$AAc?$AAr?$AAt?$AA?2?$AAc?$AAr?$AAt?$AAw?$AA3?$AA2?$AA?2?$AAm?$AAi?$AAs?$AAc?$AA?2?$AAa?$AA_@ 004809a0     LIBCMTD:a_cmp.obj
 0002:000129ec       ??_C@_1BA@BALFACEM@?$AAC?$AAO?$AAN?$AAO?$AAU?$AAT?$AA$?$AA?$AA@ 004809ec     LIBCMTD:initcon.obj
 0002:000129fc       ??_C@_1BK@GDEKGMNC@?$AA_?$AAw?$AAo?$AAu?$AAt?$AAp?$AAu?$AAt?$AA_?$AAp?$AA_?$AAl?$AA?$AA@ 004809fc     LIBCMTD:woutputp.obj
 0002:00012a18       ??_C@_1BK@ONMFGLDB@?$AA_?$AAw?$AAo?$AAu?$AAt?$AAp?$AAu?$AAt?$AA_?$AAs?$AA_?$AAl?$AA?$AA@ 00480a18     LIBCMTD:woutputs.obj
 0002:00012a38       ??_C@_1FA@MCFBMFHP@?$AAf?$AA?3?$AA?2?$AAd?$AAd?$AA?2?$AAv?$AAc?$AAt?$AAo?$AAo?$AAl?$AAs?$AA?2?$AAc?$AAr?$AAt?$AA?2?$AAc?$AAr?$AAt?$AAw?$AA3?$AA2?$AA?2?$AAs?$AAt?$AAd?$AAi?$AAo?$AA?2?$AAf@ 00480a38     LIBCMTD:fputwc.obj
 0002:00012a88       ??_C@_1O@HJNPHHHB@?$AAf?$AAp?$AAu?$AAt?$AAw?$AAc?$AA?$AA@ 00480a88     LIBCMTD:fputwc.obj
 0002:00012a98       ??_C@_1FA@FLOICDHO@?$AAf?$AA?3?$AA?2?$AAd?$AAd?$AA?2?$AAv?$AAc?$AAt?$AAo?$AAo?$AAl?$AAs?$AA?2?$AAc?$AAr?$AAt?$AA?2?$AAc?$AAr?$AAt?$AAw?$AA3?$AA2?$AA?2?$AAl?$AAo?$AAw?$AAi?$AAo?$AA?2?$AAc@ 00480a98     LIBCMTD:chsize.obj
 0002:00012ae8       ??_C@_1BE@MAFDNGED@?$AA_?$AAc?$AAh?$AAs?$AAi?$AAz?$AAe?$AA_?$AAs?$AA?$AA@ 00480ae8     LIBCMTD:chsize.obj
 0002:00012afc       ??_C@_1BI@GALBKMKE@?$AA?$CI?$AAs?$AAi?$AAz?$AAe?$AA?5?$AA?$DO?$AA?$DN?$AA?5?$AA0?$AA?$CJ?$AA?$AA@ 00480afc     LIBCMTD:chsize.obj
 0002:00012b18       ??_C@_1OA@HGPJIFPM@?$AA?$CI?$AA?$CI?$AAm?$AAo?$AAd?$AAe?$AA?5?$AA?$DN?$AA?$DN?$AA?5?$AA_?$AAO?$AA_?$AAT?$AAE?$AAX?$AAT?$AA?$CJ?$AA?5?$AA?$HM?$AA?$HM?$AA?5?$AA?$CI?$AAm?$AAo?$AAd?$AAe?$AA?5?$AA?$DN?$AA?$DN?$AA?5?$AA_@ 00480b18     LIBCMTD:setmode.obj
 0002:00012bf8       ??_C@_1FC@HBDIADHE@?$AAf?$AA?3?$AA?2?$AAd?$AAd?$AA?2?$AAv?$AAc?$AAt?$AAo?$AAo?$AAl?$AAs?$AA?2?$AAc?$AAr?$AAt?$AA?2?$AAc?$AAr?$AAt?$AAw?$AA3?$AA2?$AA?2?$AAl?$AAo?$AAw?$AAi?$AAo?$AA?2?$AAs@ 00480bf8     LIBCMTD:setmode.obj
 0002:00012c4c       ??_C@_1BC@JBGGJDCM@?$AA_?$AAs?$AAe?$AAt?$AAm?$AAo?$AAd?$AAe?$AA?$AA@ 00480c4c     LIBCMTD:setmode.obj
 0002:00012c60       ??_C@_1IC@NDCJMLB@?$AA?$CI?$AA?$CI?$AAm?$AAo?$AAd?$AAe?$AA?5?$AA?$DN?$AA?$DN?$AA?5?$AA_?$AAO?$AA_?$AAT?$AAE?$AAX?$AAT?$AA?$CJ?$AA?5?$AA?$HM?$AA?$HM?$AA?5?$AA?$CI?$AAm?$AAo?$AAd?$AAe?$AA?5?$AA?$DN?$AA?$DN?$AA?5?$AA_@ 00480c60     LIBCMTD:setmode.obj
 0002:00012ce4       ??_C@_1BG@IEEHLOCL@?$AA_?$AAs?$AAe?$AAt?$AA_?$AAf?$AAm?$AAo?$AAd?$AAe?$AA?$AA@ 00480ce4     LIBCMTD:setmode.obj
 0002:00012cfc       ??_C@_1CA@GPIGPPFN@?$AA?$CI?$AAp?$AAM?$AAo?$AAd?$AAe?$AA?5?$AA?$CB?$AA?$DN?$AA?5?$AAN?$AAU?$AAL?$AAL?$AA?$CJ?$AA?$AA@ 00480cfc     LIBCMTD:setmode.obj
 0002:00012d1c       ??_C@_1BG@CKGMPOFH@?$AA_?$AAg?$AAe?$AAt?$AA_?$AAf?$AAm?$AAo?$AAd?$AAe?$AA?$AA@ 00480d1c     LIBCMTD:setmode.obj
 0002:00012d38       ??_C@_1FC@BHNGAOAE@?$AAf?$AA?3?$AA?2?$AAd?$AAd?$AA?2?$AAv?$AAc?$AAt?$AAo?$AAo?$AAl?$AAs?$AA?2?$AAc?$AAr?$AAt?$AA?2?$AAc?$AAr?$AAt?$AAw?$AA3?$AA2?$AA?2?$AAm?$AAi?$AAs?$AAc?$AA?2?$AAd?$AAb@ 00480d38     LIBCMTD:dbgdel.obj
 0002:00012d90       ??_7type_info@@6B@         00480d90     LIBCMTD:typinfo.obj
 0002:00012d98       ??_7exception@std@@6B@     00480d98     LIBCMTD:stdexcpt.obj
 0002:00012da0       ??_C@_0BC@EOODALEL@Unknown?5exception?$AA@ 00480da0     LIBCMTD:stdexcpt.obj
 0002:00012db8       ??_7bad_cast@std@@6B@      00480db8     LIBCMTD:stdexcpt.obj
 0002:00012dc4       ??_7bad_typeid@std@@6B@    00480dc4     LIBCMTD:stdexcpt.obj
 0002:00012dd0       ??_7__non_rtti_object@std@@6B@ 00480dd0     LIBCMTD:stdexcpt.obj
 0002:00012df8       ??_C@_1FE@NDFDLJMJ@?$AAf?$AA?3?$AA?2?$AAd?$AAd?$AA?2?$AAv?$AAc?$AAt?$AAo?$AAo?$AAl?$AAs?$AA?2?$AAc?$AAr?$AAt?$AA?2?$AAc?$AAr?$AAt?$AAw?$AA3?$AA2?$AA?2?$AAs?$AAt?$AAr?$AAi?$AAn?$AAg?$AA?2@ 00480df8     LIBCMTD:wcsicmp.obj
 0002:00012e4c       ??_C@_1BG@EELGPCPD@?$AA_?$AAw?$AAc?$AAs?$AAi?$AAc?$AAm?$AAp?$AA_?$AAl?$AA?$AA@ 00480e4c     LIBCMTD:wcsicmp.obj
 0002:00012e64       ??_C@_1BC@NHIBDOMC@?$AA_?$AAw?$AAc?$AAs?$AAi?$AAc?$AAm?$AAp?$AA?$AA@ 00480e64     LIBCMTD:wcsicmp.obj
 0002:00012e78       ??_C@_1BM@CBACDFHA@?$AAf?$AAi?$AAr?$AAs?$AAt?$AA?5?$AA?$CB?$AA?$DN?$AA?5?$AAN?$AAU?$AAL?$AAL?$AA?$AA@ 00480e78     LIBCMTD:wcsnicmp.obj
 0002:00012e98       ??_C@_1FG@GGNDOPHP@?$AAf?$AA?3?$AA?2?$AAd?$AAd?$AA?2?$AAv?$AAc?$AAt?$AAo?$AAo?$AAl?$AAs?$AA?2?$AAc?$AAr?$AAt?$AA?2?$AAc?$AAr?$AAt?$AAw?$AA3?$AA2?$AA?2?$AAs?$AAt?$AAr?$AAi?$AAn?$AAg?$AA?2@ 00480e98     LIBCMTD:wcsnicmp.obj
 0002:00012ef0       ??_C@_1BI@KLMFNDBC@?$AA_?$AAw?$AAc?$AAs?$AAn?$AAi?$AAc?$AAm?$AAp?$AA_?$AAl?$AA?$AA@ 00480ef0     LIBCMTD:wcsnicmp.obj
 0002:00012f08       ??_C@_1BK@LKBOPAFJ@?$AAl?$AAa?$AAs?$AAt?$AA?5?$AA?$CB?$AA?$DN?$AA?5?$AAN?$AAU?$AAL?$AAL?$AA?$AA@ 00480f08     LIBCMTD:wcsnicmp.obj
 0002:00012f24       ??_C@_1BE@JKOKKFEL@?$AA_?$AAw?$AAc?$AAs?$AAn?$AAi?$AAc?$AAm?$AAp?$AA?$AA@ 00480f24     LIBCMTD:wcsnicmp.obj
 0002:00012f38       ??_C@_1FE@GDPLAOMM@?$AAf?$AA?3?$AA?2?$AAd?$AAd?$AA?2?$AAv?$AAc?$AAt?$AAo?$AAo?$AAl?$AAs?$AA?2?$AAc?$AAr?$AAt?$AA?2?$AAc?$AAr?$AAt?$AAw?$AA3?$AA2?$AA?2?$AAc?$AAo?$AAn?$AAv?$AAe?$AAr?$AAt@ 00480f38     LIBCMTD:wcstol.obj
 0002:00012f8c       ??_C@_1BA@PCFLFGNC@?$AAw?$AAc?$AAs?$AAt?$AAo?$AAx?$AAl?$AA?$AA@ 00480f8c     LIBCMTD:wcstol.obj
 0002:00012f9c       ??_C@_1CK@GELGGBDK@?$AAp?$AAN?$AAo?$AAd?$AAe?$AA?9?$AA?$DO?$AA_?$AAN?$AAe?$AAx?$AAt?$AA?5?$AA?$CB?$AA?$DN?$AA?5?$AAN?$AAU?$AAL?$AAL?$AA?$AA@ 00480f9c     LIBCMTD:typname.obj
 0002:00012fc8       ??_C@_1FA@KAJOMDBA@?$AAf?$AA?3?$AA?2?$AAd?$AAd?$AA?2?$AAv?$AAc?$AAt?$AAo?$AAo?$AAl?$AAs?$AA?2?$AAc?$AAr?$AAt?$AA?2?$AAc?$AAr?$AAt?$AAw?$AA3?$AA2?$AA?2?$AAe?$AAh?$AA?2?$AAt?$AAy?$AAp?$AAn@ 00480fc8     LIBCMTD:typname.obj
 0002:00013018       ??_C@_1CM@OOICDMK@?$AAt?$AAy?$AAp?$AAe?$AA_?$AAi?$AAn?$AAf?$AAo?$AA?3?$AA?3?$AA_?$AAN?$AAa?$AAm?$AAe?$AA_?$AAb?$AAa?$AAs?$AAe?$AA?$AA@ 00481018     LIBCMTD:typname.obj
 0002:00013048       ??_C@_1JK@NAFNEPGC@?$AAs?$AAt?$AAr?$AAc?$AAp?$AAy?$AA_?$AAs?$AA?5?$AA?$CI?$AA?$CI?$AAc?$AAh?$AAa?$AAr?$AA?5?$AA?$CK?$AA?$CJ?$AA?$CI?$AA?$CI?$AAt?$AAy?$AAp?$AAe?$AA_?$AAi?$AAn?$AAf?$AAo?$AA?5?$AA?$CK?$AA?$CJ@ 00481048     LIBCMTD:typname.obj
 0002:000130e4       ??_C@_1DO@OJJLFJPE@?$AAt?$AAy?$AAp?$AAe?$AA_?$AAi?$AAn?$AAf?$AAo?$AA?3?$AA?3?$AA_?$AAN?$AAa?$AAm?$AAe?$AA_?$AAb?$AAa?$AAs?$AAe?$AA_?$AAi?$AAn?$AAt?$AAe?$AAr?$AAn?$AAa?$AAl?$AA?$AA@ 004810e4     LIBCMTD:typname.obj
 0002:00013128       ??_C@_1GI@EAJKJPED@?$AAs?$AAt?$AAr?$AAc?$AAp?$AAy?$AA_?$AAs?$AA?5?$AA?$CI?$AAp?$AAT?$AAm?$AAp?$AAT?$AAy?$AAp?$AAe?$AAN?$AAa?$AAm?$AAe?$AA?0?$AA?5?$AAl?$AAe?$AAn?$AA?$CL?$AA2?$AA?0?$AA?5?$AA?$CI@ 00481128     LIBCMTD:typname.obj
 0002:00013190       ??_C@_1FE@IEEFCKDG@?$AAf?$AA?3?$AA?2?$AAd?$AAd?$AA?2?$AAv?$AAc?$AAt?$AAo?$AAo?$AAl?$AAs?$AA?2?$AAc?$AAr?$AAt?$AA?2?$AAc?$AAr?$AAt?$AAw?$AA3?$AA2?$AA?2?$AAc?$AAo?$AAn?$AAv?$AAe?$AAr?$AAt@ 00481190     LIBCMTD:wcstoq.obj
 0002:000131e4       ??_C@_1BA@FACINJJA@?$AAw?$AAc?$AAs?$AAt?$AAo?$AAx?$AAq?$AA?$AA@ 004811e4     LIBCMTD:wcstoq.obj
 0002:000131f4       ??_C@_0CK@CEJCOKEF@f?3?2dd?2vctools?2crt?2crtw32?2convert@ 004811f4     LIBCMTD:wcstoq.obj
 0002:000133ac       ??_C@_08EHJDFFNH@__based?$CI?$AA@ 004813ac     LIBCMTD:undname.obj
 0002:000133b8       ??_C@_07KOLFKCDI@__cdecl?$AA@ 004813b8     LIBCMTD:undname.obj
 0002:000133c0       ??_C@_08GHMPAG@__pascal?$AA@ 004813c0     LIBCMTD:undname.obj
 0002:000133cc       ??_C@_09IFJBGAPI@__stdcall?$AA@ 004813cc     LIBCMTD:undname.obj
 0002:000133d8       ??_C@_0L@NPHFGOKO@__thiscall?$AA@ 004813d8     LIBCMTD:undname.obj
 0002:000133e4       ??_C@_0L@JMKHOMEK@__fastcall?$AA@ 004813e4     LIBCMTD:undname.obj
 0002:000133f0       ??_C@_0N@BCKKPABJ@__vectorcall?$AA@ 004813f0     LIBCMTD:undname.obj
 0002:00013400       ??_C@_09HIJEGCPM@__clrcall?$AA@ 00481400     LIBCMTD:undname.obj
 0002:0001340c       ??_C@_06GHPCKEAG@__eabi?$AA@ 0048140c     LIBCMTD:undname.obj
 0002:00013414       ??_C@_07JOMMBBKO@__ptr64?$AA@ 00481414     LIBCMTD:undname.obj
 0002:0001341c       ??_C@_0L@PILCLIHE@__restrict?$AA@ 0048141c     LIBCMTD:undname.obj
 0002:00013428       ??_C@_0M@GFIIJFMG@__unaligned?$AA@ 00481428     LIBCMTD:undname.obj
 0002:00013434       ??_C@_09DHDLOLLB@restrict?$CI?$AA@ 00481434     LIBCMTD:undname.obj
 0002:00013440       ??_C@_04NIHEBCM@?5new?$AA@ 00481440     LIBCMTD:undname.obj
 0002:00013448       ??_C@_07FPCDHGMM@?5delete?$AA@ 00481448     LIBCMTD:undname.obj
 0002:00013450       ??_C@_02GPIOPFAK@?$DO?$DO?$AA@ 00481450     LIBCMTD:undname.obj
 0002:00013454       ??_C@_02FODMEDOG@?$DM?$DM?$AA@ 00481454     LIBCMTD:undname.obj
 0002:00013458       ??_C@_01DCLJPIOD@?$CB?$AA@ 00481458     LIBCMTD:undname.obj
 0002:0001345c       ??_C@_02EGOFBIJA@?$DN?$DN?$AA@ 0048145c     LIBCMTD:undname.obj
 0002:00013460       ??_C@_02FDNJECIE@?$CB?$DN?$AA@ 00481460     LIBCMTD:undname.obj
 0002:00013464       ??_C@_02GPECMEKF@?$FL?$FN?$AA@ 00481464     LIBCMTD:undname.obj
 0002:00013468       ??_C@_08LHJFAFGD@operator?$AA@ 00481468     LIBCMTD:undname.obj
 0002:00013474       ??_C@_02HBOOOICD@?9?$DO?$AA@ 00481474     LIBCMTD:undname.obj
 0002:00013478       ??_C@_01NBENCBCI@?$CK?$AA@ 00481478     LIBCMTD:undname.obj
 0002:0001347c       ??_C@_02ECNGHCIF@?$CL?$CL?$AA@ 0048147c     LIBCMTD:undname.obj
 0002:00013480       ??_C@_02BAABKJLB@?9?9?$AA@ 00481480     LIBCMTD:undname.obj
 0002:00013484       ??_C@_01JOAMLHOP@?9?$AA@   00481484     LIBCMTD:undname.obj
 0002:00013488       ??_C@_01MIFGBAGJ@?$CL?$AA@ 00481488     LIBCMTD:undname.obj
 0002:0001348c       ??_C@_01HNPIGOCE@?$CG?$AA@ 0048148c     LIBCMTD:undname.obj
 0002:00013490       ??_C@_03MNHNFDLC@?9?$DO?$CK?$AA@ 00481490     LIBCMTD:undname.obj
 0002:00013494       ??_C@_01KMDKNFGN@?1?$AA@   00481494     LIBCMTD:undname.obj
 0002:00013498       ??_C@_01FGNFDNOH@?$CF?$AA@ 00481498     LIBCMTD:undname.obj
 0002:0001349c       ??_C@_01MNNFJEPP@?$DM?$AA@ 0048149c     LIBCMTD:undname.obj
 0002:000134a0       ??_C@_02EHCHHCKH@?$DM?$DN?$AA@ 004814a0     LIBCMTD:undname.obj
 0002:000134a4       ??_C@_01PPODPGHN@?$DO?$AA@ 004814a4     LIBCMTD:undname.obj
 0002:000134a8       ??_C@_02EEKDKGMJ@?$DO?$DN?$AA@ 004814a8     LIBCMTD:undname.obj
 0002:000134ac       ??_C@_01IHBHIGKO@?0?$AA@   004814ac     LIBCMTD:undname.obj
 0002:000134b0       ??_C@_02HCKGKOFO@?$CI?$CJ?$AA@ 004814b0     LIBCMTD:undname.obj
 0002:000134b4       ??_C@_01PJKLJHI@?$HO?$AA@  004814b4     LIBCMTD:undname.obj
 0002:000134b8       ??_C@_01JKBOJNNK@?$FO?$AA@ 004814b8     LIBCMTD:undname.obj
 0002:000134bc       ??_C@_01DNKMNLPK@?$HM?$AA@ 004814bc     LIBCMTD:undname.obj
 0002:000134c0       ??_C@_02PPKAJPJL@?$CG?$CG?$AA@ 004814c0     LIBCMTD:undname.obj
 0002:000134c4       ??_C@_02NONPIBCD@?$HM?$HM?$AA@ 004814c4     LIBCMTD:undname.obj
 0002:000134c8       ??_C@_02FPIMKNGF@?$CK?$DN?$AA@ 004814c8     LIBCMTD:undname.obj
 0002:000134cc       ??_C@_02FOEOMHFC@?$CL?$DN?$AA@ 004814cc     LIBCMTD:undname.obj
 0002:000134d0       ??_C@_02FKMDLLOA@?9?$DN?$AA@ 004814d0     LIBCMTD:undname.obj
 0002:000134d4       ??_C@_02FJEHGPIO@?1?$DN?$AA@ 004814d4     LIBCMTD:undname.obj
 0002:000134d8       ??_C@_02FENAOKFI@?$CF?$DN?$AA@ 004814d8     LIBCMTD:undname.obj
 0002:000134dc       ??_C@_03IKFCCPFF@?$DO?$DO?$DN?$AA@ 004814dc     LIBCMTD:undname.obj
 0002:000134e0       ??_C@_03CDNPDDLA@?$DM?$DM?$DN?$AA@ 004814e0     LIBCMTD:undname.obj
 0002:000134e4       ??_C@_02FGJGFEAB@?$CG?$DN?$AA@ 004814e4     LIBCMTD:undname.obj
 0002:000134e8       ??_C@_02DHLNPPGH@?$HM?$DN?$AA@ 004814e8     LIBCMTD:undname.obj
 0002:000134ec       ??_C@_02MHEGNOJ@?$FO?$DN?$AA@ 004814ec     LIBCMTD:undname.obj
 0002:000134f0       ??_C@_09IFPLHPGF@?$GAvftable?8?$AA@ 004814f0     LIBCMTD:undname.obj
 0002:000134fc       ??_C@_09BLBHBJP@?$GAvbtable?8?$AA@ 004814fc     LIBCMTD:undname.obj
 0002:00013508       ??_C@_07FEEIOKP@?$GAvcall?8?$AA@ 00481508     LIBCMTD:undname.obj
 0002:00013510       ??_C@_08LLFFHHDJ@?$GAtypeof?8?$AA@ 00481510     LIBCMTD:undname.obj
 0002:0001351c       ??_C@_0BF@KDPPACIK@?$GAlocal?5static?5guard?8?$AA@ 0048151c     LIBCMTD:undname.obj
 0002:00013534       ??_C@_08OBABFOLI@?$GAstring?8?$AA@ 00481534     LIBCMTD:undname.obj
 0002:00013540       ??_C@_0BD@JDLKDPAB@?$GAvbase?5destructor?8?$AA@ 00481540     LIBCMTD:undname.obj
 0002:00013554       ??_C@_0BN@DEGPLNFK@?$GAvector?5deleting?5destructor?8?$AA@ 00481554     LIBCMTD:undname.obj
 0002:00013574       ??_C@_0BO@OBMKPJIG@?$GAdefault?5constructor?5closure?8?$AA@ 00481574     LIBCMTD:undname.obj
 0002:00013594       ??_C@_0BN@IMDCHIKM@?$GAscalar?5deleting?5destructor?8?$AA@ 00481594     LIBCMTD:undname.obj
 0002:000135b4       ??_C@_0BO@PFGOCPJJ@?$GAvector?5constructor?5iterator?8?$AA@ 004815b4     LIBCMTD:undname.obj
 0002:000135d4       ??_C@_0BN@LFPFMEDL@?$GAvector?5destructor?5iterator?8?$AA@ 004815d4     LIBCMTD:undname.obj
 0002:000135f4       ??_C@_0CE@IKBNEHA@?$GAvector?5vbase?5constructor?5iterat@ 004815f4     LIBCMTD:undname.obj
 0002:00013618       ??_C@_0BL@NILFHHPC@?$GAvirtual?5displacement?5map?8?$AA@ 00481618     LIBCMTD:undname.obj
 0002:00013634       ??_C@_0CB@JONCMFFK@?$GAeh?5vector?5constructor?5iterator?8@ 00481634     LIBCMTD:undname.obj
 0002:00013658       ??_C@_0CA@GCEOPDGL@?$GAeh?5vector?5destructor?5iterator?8?$AA@ 00481658     LIBCMTD:undname.obj
 0002:00013678       ??_C@_0CH@OOJPLCPH@?$GAeh?5vector?5vbase?5constructor?5ite@ 00481678     LIBCMTD:undname.obj
 0002:000136a0       ??_C@_0BL@LLKPOHJI@?$GAcopy?5constructor?5closure?8?$AA@ 004816a0     LIBCMTD:undname.obj
 0002:000136bc       ??_C@_0BA@KBCDOMBN@?$GAudt?5returning?8?$AA@ 004816bc     LIBCMTD:undname.obj
 0002:000136cc       ??_C@_03KLGMFNMG@?$GAEH?$AA@ 004816cc     LIBCMTD:undname.obj
 0002:000136d0       ??_C@_05KHLCHHI@?$GARTTI?$AA@ 004816d0     LIBCMTD:undname.obj
 0002:000136d8       ??_C@_0BA@KKLDJDLB@?$GAlocal?5vftable?8?$AA@ 004816d8     LIBCMTD:undname.obj
 0002:000136e8       ??_C@_0CE@IIHCMGGL@?$GAlocal?5vftable?5constructor?5closu@ 004816e8     LIBCMTD:undname.obj
 0002:0001370c       ??_C@_06FHBGPFGH@?5new?$FL?$FN?$AA@ 0048170c     LIBCMTD:undname.obj
 0002:00013714       ??_C@_09LBNFPBCA@?5delete?$FL?$FN?$AA@ 00481714     LIBCMTD:undname.obj
 0002:00013720       ??_C@_0P@HJKNJFNN@?$GAomni?5callsig?8?$AA@ 00481720     LIBCMTD:undname.obj
 0002:00013730       ??_C@_0BL@CNOONJFP@?$GAplacement?5delete?5closure?8?$AA@ 00481730     LIBCMTD:undname.obj
 0002:0001374c       ??_C@_0BN@CKNJLHMB@?$GAplacement?5delete?$FL?$FN?5closure?8?$AA@ 0048174c     LIBCMTD:undname.obj
 0002:0001376c       ??_C@_0CG@CFDHKGGD@?$GAmanaged?5vector?5constructor?5iter@ 0048176c     LIBCMTD:undname.obj
 0002:00013794       ??_C@_0CF@IMGKMJNO@?$GAmanaged?5vector?5destructor?5itera@ 00481794     LIBCMTD:undname.obj
 0002:000137bc       ??_C@_0CG@HLDDJMAG@?$GAeh?5vector?5copy?5constructor?5iter@ 004817bc     LIBCMTD:undname.obj
 0002:000137e4       ??_C@_0CM@FCBBDIGB@?$GAeh?5vector?5vbase?5copy?5constructo@ 004817e4     LIBCMTD:undname.obj
 0002:00013810       ??_C@_0BL@CLIPGLGB@?$GAdynamic?5initializer?5for?5?8?$AA@ 00481810     LIBCMTD:undname.obj
 0002:0001382c       ??_C@_0CB@PDBIFEP@?$GAdynamic?5atexit?5destructor?5for?5?8@ 0048182c     LIBCMTD:undname.obj
 0002:00013850       ??_C@_0CD@CGAJBKEJ@?$GAvector?5copy?5constructor?5iterato@ 00481850     LIBCMTD:undname.obj
 0002:00013874       ??_C@_0CJ@GJELGAMM@?$GAvector?5vbase?5copy?5constructor?5i@ 00481874     LIBCMTD:undname.obj
 0002:000138a0       ??_C@_0CL@FGIJHLCE@?$GAmanaged?5vector?5copy?5constructor@ 004818a0     LIBCMTD:undname.obj
 0002:000138cc       ??_C@_0BM@PMGGMLDN@?$GAlocal?5static?5thread?5guard?8?$AA@ 004818cc     LIBCMTD:undname.obj
 0002:000138e8       ??_C@_0BC@DAFEJGAK@?5Type?5Descriptor?8?$AA@ 004818e8     LIBCMTD:undname.obj
 0002:000138fc       ??_C@_0BM@LDKODKLH@?5Base?5Class?5Descriptor?5at?5?$CI?$AA@ 004818fc     LIBCMTD:undname.obj
 0002:00013918       ??_C@_0BD@LGICGFMM@?5Base?5Class?5Array?8?$AA@ 00481918     LIBCMTD:undname.obj
 0002:0001392c       ??_C@_0BN@MECKDCOJ@?5Class?5Hierarchy?5Descriptor?8?$AA@ 0048192c     LIBCMTD:undname.obj
 0002:0001394c       ??_C@_0BK@CFCOFLF@?5Complete?5Object?5Locator?8?$AA@ 0048194c     LIBCMTD:undname.obj
 0002:00013968       ??_C@_04HEJADOOB@CV?3?5?$AA@ 00481968     LIBCMTD:undname.obj
 0002:00013970       ??_C@_02MOLJINC@?3?3?$AA@  00481970     LIBCMTD:undname.obj
 0002:00013974       ??_C@_0BE@JAEOCHPE@template?9parameter?9?$AA@ 00481974     LIBCMTD:undname.obj
 0002:00013988       ??_C@_0O@KHGCOMHP@generic?9type?9?$AA@ 00481988     LIBCMTD:undname.obj
 0002:00013998       ??_C@_01NLNLIGKH@?$GA?$AA@ 00481998     LIBCMTD:undname.obj
 0002:0001399c       ??_C@_01GEODFPGF@?8?$AA@   0048199c     LIBCMTD:undname.obj
 0002:000139a0       ??_C@_0BG@JNJLAMPM@?$GAanonymous?5namespace?8?$AA@ 004819a0     LIBCMTD:undname.obj
 0002:000139b8       ??_C@_02OHHJMEON@?8?8?$AA@ 004819b8     LIBCMTD:undname.obj
 0002:000139bc       ??_C@_0BN@IBLMMFAP@?$GAnon?9type?9template?9parameter?$AA@ 004819bc     LIBCMTD:undname.obj
 0002:000139dc       ??_C@_04GKJNKENE@void?$AA@ 004819dc     LIBCMTD:undname.obj
 0002:000139e4       ??_C@_0BE@EODMJLIF@?$GAtemplate?9parameter?$AA@ 004819e4     LIBCMTD:undname.obj
 0002:000139f8       ??_C@_04HIBGFPH@NULL?$AA@  004819f8     LIBCMTD:undname.obj
 0002:00013a00       ??_C@_03OPGICMGF@?$HN?8?5?$AA@ 00481a00     LIBCMTD:undname.obj
 0002:00013a04       ??_C@_02IGFCGPIL@?$HN?8?$AA@ 00481a04     LIBCMTD:undname.obj
 0002:00013a08       ??_C@_01CLKCMJKC@?5?$AA@   00481a08     LIBCMTD:undname.obj
 0002:00013a0c       ??_C@_0N@CBHHHENL@?$GAvtordispex?$HL?$AA@ 00481a0c     LIBCMTD:undname.obj
 0002:00013a1c       ??_C@_0L@GHPFDFH@?$GAvtordisp?$HL?$AA@ 00481a1c     LIBCMTD:undname.obj
 0002:00013a28       ??_C@_0L@HNGCOGAE@?$GAadjustor?$HL?$AA@ 00481a28     LIBCMTD:undname.obj
 0002:00013a34       ??_C@_0CB@KJDOOODE@?$GAlocal?5static?5destructor?5helper?8@ 00481a34     LIBCMTD:undname.obj
 0002:00013a58       ??_C@_0DB@ILEFOCIJ@?$GAtemplate?5static?5data?5member?5con@ 00481a58     LIBCMTD:undname.obj
 0002:00013a8c       ??_C@_0DA@HGFJFBBE@?$GAtemplate?5static?5data?5member?5des@ 00481a8c     LIBCMTD:undname.obj
 0002:00013abc       ??_C@_07PGOEDBHP@static?5?$AA@ 00481abc     LIBCMTD:undname.obj
 0002:00013ac4       ??_C@_08NIEOINHE@virtual?5?$AA@ 00481ac4     LIBCMTD:undname.obj
 0002:00013ad0       ??_C@_09LAPHOOG@private?3?5?$AA@ 00481ad0     LIBCMTD:undname.obj
 0002:00013adc       ??_C@_0M@GAIFPFIP@protected?3?5?$AA@ 00481adc     LIBCMTD:undname.obj
 0002:00013ae8       ??_C@_08GPDDCMKI@public?3?5?$AA@ 00481ae8     LIBCMTD:undname.obj
 0002:00013af4       ??_C@_08KJLFOPNE@?$FLthunk?$FN?3?$AA@ 00481af4     LIBCMTD:undname.obj
 0002:00013b00       ??_C@_0M@DHNBOJMP@extern?5?$CCC?$CC?5?$AA@ 00481b00     LIBCMTD:undname.obj
 0002:00013b0c       ??_C@_02KCKGHPCA@?$CJ?5?$AA@ 00481b0c     LIBCMTD:undname.obj
 0002:00013b10       ??_C@_05CIHEBHNO@char?5?$AA@ 00481b10     LIBCMTD:undname.obj
 0002:00013b18       ??_C@_06EHJMALKF@short?5?$AA@ 00481b18     LIBCMTD:undname.obj
 0002:00013b20       ??_C@_04LAHKHJMA@int?5?$AA@ 00481b20     LIBCMTD:undname.obj
 0002:00013b28       ??_C@_05CJIMAING@long?5?$AA@ 00481b28     LIBCMTD:undname.obj
 0002:00013b30       ??_C@_09EBBEKKIH@unsigned?5?$AA@ 00481b30     LIBCMTD:undname.obj
 0002:00013b3c       ??_C@_05BEFAKPML@void?5?$AA@ 00481b3c     LIBCMTD:undname.obj
 0002:00013b44       ??_C@_08PABEKFH@volatile?$AA@ 00481b44     LIBCMTD:undname.obj
 0002:00013b50       ??_C@_0P@GCOCNKDM@std?3?3nullptr_t?$AA@ 00481b50     LIBCMTD:undname.obj
 0002:00013b60       ??_C@_0L@EGPHHEKN@?$DMellipsis?$DO?$AA@ 00481b60     LIBCMTD:undname.obj
 0002:00013b6c       ??_C@_04EENFHACM@?0?4?4?4?$AA@ 00481b6c     LIBCMTD:undname.obj
 0002:00013b74       ??_C@_0M@ELJOJFFH@?0?$DMellipsis?$DO?$AA@ 00481b74     LIBCMTD:undname.obj
 0002:00013b80       ??_C@_07HDJPLPEK@?5throw?$CI?$AA@ 00481b80     LIBCMTD:undname.obj
 0002:00013b88       ??_C@_03PBJBJNON@cpu?$AA@  00481b88     LIBCMTD:undname.obj
 0002:00013b8c       ??_C@_03DCBBJBAA@amp?$AA@  00481b8c     LIBCMTD:undname.obj
 0002:00013b90       ??_C@_02KEGNLNML@?0?5?$AA@ 00481b90     LIBCMTD:undname.obj
 0002:00013b94       ??_C@_04ENMBGAPA@char?$AA@ 00481b94     LIBCMTD:undname.obj
 0002:00013b9c       ??_C@_05BFKKPKCG@short?$AA@ 00481b9c     LIBCMTD:undname.obj
 0002:00013ba4       ??_C@_03JBIPMCLC@int?$AA@  00481ba4     LIBCMTD:undname.obj
 0002:00013ba8       ??_C@_04GOKPGOLB@long?$AA@ 00481ba8     LIBCMTD:undname.obj
 0002:00013bb0       ??_C@_05KNFBNCOH@float?$AA@ 00481bb0     LIBCMTD:undname.obj
 0002:00013bb8       ??_C@_06BNJCAIGJ@double?$AA@ 00481bb8     LIBCMTD:undname.obj
 0002:00013bc0       ??_C@_04DDKJGDCM@bool?$AA@ 00481bc0     LIBCMTD:undname.obj
 0002:00013bc8       ??_C@_06EBGKOKIG@__int8?$AA@ 00481bc8     LIBCMTD:undname.obj
 0002:00013bd0       ??_C@_07ICFHOGAF@__int16?$AA@ 00481bd0     LIBCMTD:undname.obj
 0002:00013bd8       ??_C@_07OFLPPHGP@__int32?$AA@ 00481bd8     LIBCMTD:undname.obj
 0002:00013be0       ??_C@_07LFCOJCAC@__int64?$AA@ 00481be0     LIBCMTD:undname.obj
 0002:00013be8       ??_C@_08GAHOLHEO@__int128?$AA@ 00481be8     LIBCMTD:undname.obj
 0002:00013bf4       ??_C@_09EEKGDCPH@?$DMunknown?$DO?$AA@ 00481bf4     LIBCMTD:undname.obj
 0002:00013c00       ??_C@_07CLGGIAMF@wchar_t?$AA@ 00481c00     LIBCMTD:undname.obj
 0002:00013c08       ??_C@_06GCICPBLB@__w64?5?$AA@ 00481c08     LIBCMTD:undname.obj
 0002:00013c10       ??_C@_07NFANNNEC@UNKNOWN?$AA@ 00481c10     LIBCMTD:undname.obj
 0002:00013c18       ??_C@_07EDHNAJHC@signed?5?$AA@ 00481c18     LIBCMTD:undname.obj
 0002:00013c20       ??_C@_05BNCCCJPP@const?$AA@ 00481c20     LIBCMTD:undname.obj
 0002:00013c28       ??_C@_09EFNPDFFP@?5volatile?$AA@ 00481c28     LIBCMTD:undname.obj
 0002:00013c34       ??_C@_0P@GCIFDJCJ@?$GAunknown?5ecsu?8?$AA@ 00481c34     LIBCMTD:undname.obj
 0002:00013c44       ??_C@_06MOJHIBMG@union?5?$AA@ 00481c44     LIBCMTD:undname.obj
 0002:00013c4c       ??_C@_07DIBCDNGL@struct?5?$AA@ 00481c4c     LIBCMTD:undname.obj
 0002:00013c54       ??_C@_06LJBABKPM@class?5?$AA@ 00481c54     LIBCMTD:undname.obj
 0002:00013c5c       ??_C@_08KOFANOFK@coclass?5?$AA@ 00481c5c     LIBCMTD:undname.obj
 0002:00013c68       ??_C@_0N@DLIEFKNA@cointerface?5?$AA@ 00481c68     LIBCMTD:undname.obj
 0002:00013c78       ??_C@_05LJGMCFOG@enum?5?$AA@ 00481c78     LIBCMTD:undname.obj
 0002:00013c80       ??_C@_09GAIEOBLP@volatile?5?$AA@ 00481c80     LIBCMTD:undname.obj
 0002:00013c8c       ??_C@_06LIJLOJAG@const?5?$AA@ 00481c8c     LIBCMTD:undname.obj
 0002:00013c94       ??_C@_0M@EALIELKG@cli?3?3array?$DM?$AA@ 00481c94     LIBCMTD:undname.obj
 0002:00013ca0       ??_C@_0O@GKABPPIF@cli?3?3pin_ptr?$DM?$AA@ 00481ca0     LIBCMTD:undname.obj
 0002:00013cb0       ??_C@_02GOGNNPBN@?$CJ?$FL?$AA@ 00481cb0     LIBCMTD:undname.obj
 0002:00013cb4       ??_C@_06EEGAIFAK@?$HLflat?$HN?$AA@ 00481cb4     LIBCMTD:undname.obj
 0002:00013cbc       ??_C@_05JIBOFOHK@?$HLfor?5?$AA@ 00481cbc     LIBCMTD:undname.obj
 0002:00013cc4       ??_C@_02MDINNEEG@s?5?$AA@  00481cc4     LIBCMTD:undname.obj
 0002:00013ccc       ??_7DNameNode@@6B@         00481ccc     LIBCMTD:undname.obj
 0002:00013cdc       ??_7charNode@@6B@          00481cdc     LIBCMTD:undname.obj
 0002:00013cec       ??_7pcharNode@@6B@         00481cec     LIBCMTD:undname.obj
 0002:00013cfc       ??_7pDNameNode@@6B@        00481cfc     LIBCMTD:undname.obj
 0002:00013d0c       ??_7DNameStatusNode@@6B@   00481d0c     LIBCMTD:undname.obj
 0002:00013d1c       ??_7pairNode@@6B@          00481d1c     LIBCMTD:undname.obj
 0002:00013d28       ??_C@_04OKOHEJBO@?5?$DP?$DP?5?$AA@ 00481d28     LIBCMTD:undname.obj
 0002:00013d30       ??_C@_1FE@LABOBFHJ@?$AAf?$AA?3?$AA?2?$AAd?$AAd?$AA?2?$AAv?$AAc?$AAt?$AAo?$AAo?$AAl?$AAs?$AA?2?$AAc?$AAr?$AAt?$AA?2?$AAc?$AAr?$AAt?$AAw?$AA3?$AA2?$AA?2?$AAc?$AAo?$AAn?$AAv?$AAe?$AAr?$AAt@ 00481d30     LIBCMTD:wcstod.obj
 0002:00013d84       ??_C@_1BE@CIGDJHAJ@?$AA_?$AAw?$AAc?$AAs?$AAt?$AAo?$AAd?$AA_?$AAl?$AA?$AA@ 00481d84     LIBCMTD:wcstod.obj
 0002:00013d98       ??_C@_1CA@JGBKKNCE@?$AA_?$AA_?$AAw?$AAs?$AAt?$AAr?$AAg?$AAt?$AAo?$AAl?$AAd?$AA1?$AA2?$AA_?$AAl?$AA?$AA@ 00481d98     LIBCMTD:wstrgtold.obj
 0002:00013db8       ??_C@_1FE@PMFLJFHN@?$AAf?$AA?3?$AA?2?$AAd?$AAd?$AA?2?$AAv?$AAc?$AAt?$AAo?$AAo?$AAl?$AAs?$AA?2?$AAc?$AAr?$AAt?$AA?2?$AAc?$AAr?$AAt?$AAw?$AA3?$AA2?$AA?2?$AAs?$AAt?$AAr?$AAi?$AAn?$AAg?$AA?2@ 00481db8     LIBCMTD:stricmp.obj
 0002:00013e0c       ??_C@_1BG@GLLONOEH@?$AA_?$AAs?$AAt?$AAr?$AAi?$AAc?$AAm?$AAp?$AA_?$AAl?$AA?$AA@ 00481e0c     LIBCMTD:stricmp.obj
 0002:00013e24       ??_C@_1BC@JLGKKIIG@?$AA_?$AAs?$AAt?$AAr?$AAi?$AAc?$AAm?$AAp?$AA?$AA@ 00481e24     LIBCMTD:stricmp.obj
 0002:00013e38       ??_C@_1FC@OHPAEKHB@?$AAf?$AA?3?$AA?2?$AAd?$AAd?$AA?2?$AAv?$AAc?$AAt?$AAo?$AAo?$AAl?$AAs?$AA?2?$AAc?$AAr?$AAt?$AA?2?$AAc?$AAr?$AAt?$AAw?$AA3?$AA2?$AA?2?$AAs?$AAt?$AAr?$AAi?$AAn?$AAg?$AA?2@ 00481e38     LIBCMTD:strdup.obj
 0002:00013e8c       ??_C@_1BI@CBNECNIC@?$AA_?$AAs?$AAt?$AAr?$AAd?$AAu?$AAp?$AA_?$AAd?$AAb?$AAg?$AA?$AA@ 00481e8c     LIBCMTD:strdup.obj
 0002:00013ea4       ??_C@_1DO@MOGEFOMO@?$AAs?$AAt?$AAr?$AAc?$AAp?$AAy?$AA_?$AAs?$AA?$CI?$AAm?$AAe?$AAm?$AAo?$AAr?$AAy?$AA?0?$AA?5?$AAs?$AAi?$AAz?$AAe?$AA?0?$AA?5?$AAs?$AAt?$AAr?$AAi?$AAn?$AAg?$AA?$CJ?$AA?$AA@ 00481ea4     LIBCMTD:strdup.obj
 0002:00013ee8       __load_config_used         00481ee8     LIBCMTD:loadcfg.obj
 0002:00013fec       ??_R4bad_exception@std@@6B@ 00481fec     LIBCMTD:frame.obj
 0002:00014000       ??_R3bad_exception@std@@8  00482000     LIBCMTD:frame.obj
 0002:00014010       ??_R2bad_exception@std@@8  00482010     LIBCMTD:frame.obj
 0002:0001401c       ??_R1A@?0A@EA@bad_exception@std@@8 0048201c     LIBCMTD:frame.obj
 0002:00014038       ??_R1A@?0A@EA@exception@std@@8 00482038     LIBCMTD:frame.obj
 0002:00014054       ??_R3exception@std@@8      00482054     LIBCMTD:frame.obj
 0002:00014064       ??_R2exception@std@@8      00482064     LIBCMTD:frame.obj
 0002:0001406c       ??_R4type_info@@6B@        0048206c     LIBCMTD:typinfo.obj
 0002:00014080       ??_R3type_info@@8          00482080     LIBCMTD:typinfo.obj
 0002:00014090       ??_R2type_info@@8          00482090     LIBCMTD:typinfo.obj
 0002:00014098       ??_R1A@?0A@EA@type_info@@8 00482098     LIBCMTD:typinfo.obj
 0002:000140b4       ??_R4exception@std@@6B@    004820b4     LIBCMTD:stdexcpt.obj
 0002:000140c8       ??_R4bad_cast@std@@6B@     004820c8     LIBCMTD:stdexcpt.obj
 0002:000140dc       ??_R3bad_cast@std@@8       004820dc     LIBCMTD:stdexcpt.obj
 0002:000140ec       ??_R2bad_cast@std@@8       004820ec     LIBCMTD:stdexcpt.obj
 0002:000140f8       ??_R1A@?0A@EA@bad_cast@std@@8 004820f8     LIBCMTD:stdexcpt.obj
 0002:00014114       ??_R4bad_typeid@std@@6B@   00482114     LIBCMTD:stdexcpt.obj
 0002:00014128       ??_R3bad_typeid@std@@8     00482128     LIBCMTD:stdexcpt.obj
 0002:00014138       ??_R2bad_typeid@std@@8     00482138     LIBCMTD:stdexcpt.obj
 0002:00014144       ??_R1A@?0A@EA@bad_typeid@std@@8 00482144     LIBCMTD:stdexcpt.obj
 0002:00014160       ??_R4__non_rtti_object@std@@6B@ 00482160     LIBCMTD:stdexcpt.obj
 0002:00014174       ??_R3__non_rtti_object@std@@8 00482174     LIBCMTD:stdexcpt.obj
 0002:00014184       ??_R2__non_rtti_object@std@@8 00482184     LIBCMTD:stdexcpt.obj
 0002:00014194       ??_R1A@?0A@EA@__non_rtti_object@std@@8 00482194     LIBCMTD:stdexcpt.obj
 0002:000141b0       ??_R4DNameNode@@6B@        004821b0     LIBCMTD:undname.obj
 0002:000141c4       ??_R3DNameNode@@8          004821c4     LIBCMTD:undname.obj
 0002:000141d4       ??_R2DNameNode@@8          004821d4     LIBCMTD:undname.obj
 0002:000141dc       ??_R1A@?0A@EA@DNameNode@@8 004821dc     LIBCMTD:undname.obj
 0002:000141f8       ??_R4charNode@@6B@         004821f8     LIBCMTD:undname.obj
 0002:0001420c       ??_R3charNode@@8           0048220c     LIBCMTD:undname.obj
 0002:0001421c       ??_R2charNode@@8           0048221c     LIBCMTD:undname.obj
 0002:00014228       ??_R1A@?0A@EA@charNode@@8  00482228     LIBCMTD:undname.obj
 0002:00014244       ??_R4pcharNode@@6B@        00482244     LIBCMTD:undname.obj
 0002:00014258       ??_R3pcharNode@@8          00482258     LIBCMTD:undname.obj
 0002:00014268       ??_R2pcharNode@@8          00482268     LIBCMTD:undname.obj
 0002:00014274       ??_R1A@?0A@EA@pcharNode@@8 00482274     LIBCMTD:undname.obj
 0002:00014290       ??_R4pDNameNode@@6B@       00482290     LIBCMTD:undname.obj
 0002:000142a4       ??_R3pDNameNode@@8         004822a4     LIBCMTD:undname.obj
 0002:000142b4       ??_R2pDNameNode@@8         004822b4     LIBCMTD:undname.obj
 0002:000142c0       ??_R1A@?0A@EA@pDNameNode@@8 004822c0     LIBCMTD:undname.obj
 0002:000142dc       ??_R4DNameStatusNode@@6B@  004822dc     LIBCMTD:undname.obj
 0002:000142f0       ??_R3DNameStatusNode@@8    004822f0     LIBCMTD:undname.obj
 0002:00014300       ??_R2DNameStatusNode@@8    00482300     LIBCMTD:undname.obj
 0002:0001430c       ??_R1A@?0A@EA@DNameStatusNode@@8 0048230c     LIBCMTD:undname.obj
 0002:00014328       ??_R4pairNode@@6B@         00482328     LIBCMTD:undname.obj
 0002:0001433c       ??_R3pairNode@@8           0048233c     LIBCMTD:undname.obj
 0002:0001434c       ??_R2pairNode@@8           0048234c     LIBCMTD:undname.obj
 0002:00014358       ??_R1A@?0A@EA@pairNode@@8  00482358     LIBCMTD:undname.obj
 0002:00014374       ___rtc_iaa                 00482374     LIBCMTD:initsect.obj
 0002:00014384       ___rtc_izz                 00482384     LIBCMTD:initsect.obj
 0002:00014388       ___rtc_taa                 00482388     LIBCMTD:initsect.obj
 0002:00014398       ___rtc_tzz                 00482398     LIBCMTD:initsect.obj
 0002:00014ec4       __TI2?AVbad_exception@std@@ 00482ec4     LIBCMTD:frame.obj
 0002:00014ed4       __CTA2?AVbad_exception@std@@ 00482ed4     LIBCMTD:frame.obj
 0002:00014ee0       __CT??_R0?AVbad_exception@std@@@8??0bad_exception@std@@QAE@ABV01@@Z12 00482ee0     LIBCMTD:frame.obj
 0002:00014efc       __CT??_R0?AVexception@std@@@8??0exception@std@@QAE@ABV01@@Z12 00482efc     LIBCMTD:frame.obj
 0002:000150c8       __IMPORT_DESCRIPTOR_KERNEL32 004830c8     kernel32:KERNEL32.dll
 0002:000150dc       __NULL_IMPORT_DESCRIPTOR   004830dc     kernel32:KERNEL32.dll
 0003:00000000       ?shadowtexture@@3PBDB      00484000     ac3dload.obj
 0003:00000008       ?smooth_angle@@3NA         00484008     ac3dload.obj
 0003:00000010       ?verbTab@@3PAUverbaction@@A 00484010     ac3dload.obj
 0003:00000088       ?far_dist@@3HA             00484088     mainaccc.obj
 0003:00000090       __iob                      00484090     LIBCMTD:_file.obj
 0003:00000318       __fltused                  00484318     LIBCMTD:fpinit.obj
 0003:0000031c       __ldused                   0048431c     LIBCMTD:fpinit.obj
 0003:00000330       ___security_cookie         00484330     LIBCMTD:gs_cookie.obj
 0003:00000334       ___security_cookie_complement 00484334     LIBCMTD:gs_cookie.obj
 0003:00000458       __crtBreakAlloc            00484458     LIBCMTD:dbgheap.obj
 0003:0000045c       ___crtDebugFillThreshold   0048445c     LIBCMTD:dbgheap.obj
 0003:00000460       __crtDbgFlag               00484460     LIBCMTD:dbgheap.obj
 0003:000005e0       ___nullstring              004845e0     LIBCMTD:output.obj
 0003:000005e4       ___wnullstring             004845e4     LIBCMTD:output.obj
 0003:000005e8       ___badioinfo               004845e8     LIBCMTD:ioinit.obj
 0003:0000062c       __cfltcvt_tab              0048462c     LIBCMTD:cmiscdat.obj
 0003:00000658       __mbctype                  00484658     LIBCMTD:mbctype.obj
 0003:00000760       __mbcasemap                00484760     LIBCMTD:mbctype.obj
 0003:00000860       ___initialmbcinfo          00484860     LIBCMTD:mbctype.obj
 0003:00000a84       ___ptmbcinfo               00484a84     LIBCMTD:mbctype.obj
 0003:00000c60       __d_inf                    00484c60     LIBCMTD:util.obj
 0003:00000c68       __d_ind                    00484c68     LIBCMTD:util.obj
 0003:00000c70       __d_max                    00484c70     LIBCMTD:util.obj
 0003:00000c78       __d_min                    00484c78     LIBCMTD:util.obj
 0003:00000c80       __d_mzero                  00484c80     LIBCMTD:util.obj
 0003:00000cb0       ?_RTC_ErrorLevels@@3PAHA   00484cb0     LIBCMTD:error.obj
 0003:00000cc4       __pfnAllocHook             00484cc4     LIBCMTD:dbghook.obj
 0003:00000cd8       ___isa_enabled             00484cd8     LIBCMTD:cpu_disp.obj
 0003:00000ce0       ___flsindex                00484ce0     LIBCMTD:tidtable.obj
 0003:00000ce8       ___mb_cur_max              00484ce8     LIBCMTD:nlsdata.obj
 0003:00000cec       ___wclocalestr             00484cec     LIBCMTD:nlsdata.obj
 0003:00000cf0       ___lc_time_c               00484cf0     LIBCMTD:nlsdata.obj
 0003:00000e54       ___ptlocinfo               00484e54     LIBCMTD:nlsdata.obj
 0003:00000e58       ___initiallocinfo          00484e58     LIBCMTD:nlsdata.obj
 0003:00000f10       ___initiallocalestructinfo 00484f10     LIBCMTD:nlsdata.obj
 0003:00000f18       ___globallocalestatus      00484f18     LIBCMTD:glstatus.obj
 0003:00000f1c       __CrtDbgMode               00484f1c     LIBCMTD:dbgrptt.obj
 0003:00000f28       __CrtDbgFile               00484f28     LIBCMTD:dbgrptt.obj
 0003:00000f34       __crtAssertBusy            00484f34     LIBCMTD:dbgrptt.obj
 0003:00000f40       __NLG_Destination          00484f40     LIBCMTD:exsup.obj
 0003:00000f50       ___abort_behavior          00484f50     LIBCMTD:abort.obj
 0003:00000f64       __matherr_flag             00484f64     LIBCMTD:matherr.obj
 0003:00000f70       __lookuptrailbytes         00484f70     LIBCMTD:read.obj
 0003:00001070       __p_overlay                00485070     LIBCMTD:dospawn.obj
 0003:00001078       ___lconv                   00485078     LIBCMTD:lconv.obj
 0003:0000107c       ___lconv_static_decimal    0048507c     LIBCMTD:lconv.obj
 0003:00001080       ___lconv_c                 00485080     LIBCMTD:lconv.obj
 0003:000010d0       ___lconv_static_W_decimal  004850d0     LIBCMTD:lconv.obj
 0003:000010d4       __pctype                   004850d4     LIBCMTD:ctype.obj
 0003:000010d8       __pwctype                  004850d8     LIBCMTD:ctype.obj
 0003:000010e0       __HUGE                     004850e0     LIBCMTD:huge.obj
 0003:00001118       __confh                    00485118     LIBCMTD:initcon.obj
 0003:00001120       __pow10pos                 00485120     LIBCMTD:constpow.obj
 0003:00001280       __pow10neg                 00485280     LIBCMTD:constpow.obj
 0003:000013dc       ??_R0?AVbad_exception@std@@@8 004853dc     LIBCMTD:frame.obj
 0003:000013fc       ??_R0?AVexception@std@@@8  004853fc     LIBCMTD:frame.obj
 0003:00001418       ??_R0?AVtype_info@@@8      00485418     LIBCMTD:typinfo.obj
 0003:00001430       ??_R0?AVbad_cast@std@@@8   00485430     LIBCMTD:stdexcpt.obj
 0003:0000144c       ??_R0?AVbad_typeid@std@@@8 0048544c     LIBCMTD:stdexcpt.obj
 0003:0000146c       ??_R0?AV__non_rtti_object@std@@@8 0048546c     LIBCMTD:stdexcpt.obj
 0003:00001490       ??_R0?AVDNameNode@@@8      00485490     LIBCMTD:undname.obj
 0003:000014a8       ??_R0?AVcharNode@@@8       004854a8     LIBCMTD:undname.obj
 0003:000014c0       ??_R0?AVpcharNode@@@8      004854c0     LIBCMTD:undname.obj
 0003:000014d8       ??_R0?AVpDNameNode@@@8     004854d8     LIBCMTD:undname.obj
 0003:000014f4       ??_R0?AVDNameStatusNode@@@8 004854f4     LIBCMTD:undname.obj
 0003:00001514       ??_R0?AVpairNode@@@8       00485514     LIBCMTD:undname.obj
 0003:00001540       ?ob@@3PAU0@A               00485540     ac3dload.obj
 0003:00237bc0       ?root_material@@3PAUmat@@A 006bbbc0     ac3dload.obj
 0003:00237bc4       ?refs@@3HA                 006bbbc4     ac3dload.obj
 0003:00237bc8       ?tmpPoint@@3PAUpoint@@A    006bbbc8     ac3dload.obj
 0003:00481ac8       ?tmpva@@3PAUtcoord@@A      00905ac8     ac3dload.obj
 0003:0078eec8       ?tmptexa@@3PANA            00c12ec8     ac3dload.obj
 0003:009158c8       ?tmpsurf@@3PAHA            00d998c8     ac3dload.obj
 0003:00977348       ?ofile@@3PAU_iobuf@@A      00dfb348     ac3dload.obj
 0003:0097734c       ?numob@@3HA                00dfb34c     ac3dload.obj
 0003:00977350       ?nummaterial@@3HA          00dfb350     ac3dload.obj
 0003:00977354       ?numvertex@@3HA            00dfb354     ac3dload.obj
 0003:00977358       ?numvertFound@@3HA         00dfb358     ac3dload.obj
 0003:0097735c       ?numrefsFound@@3HA         00dfb35c     ac3dload.obj
 0003:00977360       ?attrSurf@@3HA             00dfb360     ac3dload.obj
 0003:00977364       ?attrMat@@3HA              00dfb364     ac3dload.obj
 0003:00977368       ?numrefs@@3HA              00dfb368     ac3dload.obj
 0003:0097736c       ?numrefstotal@@3HA         00dfb36c     ac3dload.obj
 0003:00977370       ?tmpname@@3PADA            00dfb370     ac3dload.obj
 0003:00977470       ?tmpIndice@@3HA            00dfb470     ac3dload.obj
 0003:00977474       ?tmpIndice2@@3HA           00dfb474     ac3dload.obj
 0003:00977478       ?tmpIndice3@@3HA           00dfb478     ac3dload.obj
 0003:0097747c       ?vert@@3HA                 00dfb47c     ac3dload.obj
 0003:00977480       ?numvertice@@3HA           00dfb480     ac3dload.obj
 0003:00977484       ?texnum@@3HA               00dfb484     ac3dload.obj
 0003:00977488       ?tex@@3PAY0BAA@DA          00dfb488     ac3dload.obj
 0003:00987488       ?root_ob@@3PAUob@@A        00e0b488     ac3dload.obj
 0003:0098748c       ?InputFileName@@3PADA      00e0b48c     mainaccc.obj
 0003:00987490       ?OutputFileName@@3PADA     00e0b490     mainaccc.obj
 0003:00987494       ?fileL0@@3PADA             00e0b494     mainaccc.obj
 0003:00987498       ?fileL1@@3PADA             00e0b498     mainaccc.obj
 0003:0098749c       ?fileL2@@3PADA             00e0b49c     mainaccc.obj
 0003:009874a0       ?fileL3@@3PADA             00e0b4a0     mainaccc.obj
 0003:009874a4       ?d1@@3HA                   00e0b4a4     mainaccc.obj
 0003:009874a8       ?d2@@3HA                   00e0b4a8     mainaccc.obj
 0003:009874ac       ?d3@@3HA                   00e0b4ac     mainaccc.obj
 0003:009874b0       ?useStrip@@3HA             00e0b4b0     mainaccc.obj
 0003:009874b4       ?extendedStrips@@3HA       00e0b4b4     mainaccc.obj
 0003:009874b8       ?extendedTriangles@@3HA    00e0b4b8     mainaccc.obj
 0003:009874bc       ?extendedEnvCoord@@3HA     00e0b4bc     mainaccc.obj
 0003:009874c0       ?notexturesplit@@3HA       00e0b4c0     mainaccc.obj
 0003:009874c4       ?isobjectacar@@3HA         00e0b4c4     mainaccc.obj
 0003:009874c8       ?normalMapping@@3HA        00e0b4c8     mainaccc.obj
 0003:009874cc       ?OrderString@@3PADA        00e0b4cc     mainaccc.obj
 0003:009874d0       ?collapseObject@@3HA       00e0b4d0     mainaccc.obj
 0003:009874d4       ?typeConvertion@@3HA       00e0b4d4     mainaccc.obj
 0003:009874d8       ?distSplit@@3HA            00e0b4d8     mainaccc.obj
 0003:009874dc       __cflush                   00e0b4dc     LIBCMTD:_file.obj
 0003:009874e4       __umaskval                 00e0b4e4     LIBCMTD:crt0dat.obj
 0003:009874e8       __exitflag                 00e0b4e8     LIBCMTD:crt0dat.obj
 0003:009874ec       __C_Termination_Done       00e0b4ec     LIBCMTD:crt0dat.obj
 0003:009874f0       ___winitenv                00e0b4f0     LIBCMTD:crt0dat.obj
 0003:009874f4       ___initenv                 00e0b4f4     LIBCMTD:crt0dat.obj
 0003:009874f8       ___argc                    00e0b4f8     LIBCMTD:crt0dat.obj
 0003:009874fc       ___argv                    00e0b4fc     LIBCMTD:crt0dat.obj
 0003:00987500       ___wargv                   00e0b500     LIBCMTD:crt0dat.obj
 0003:00987504       __environ                  00e0b504     LIBCMTD:crt0dat.obj
 0003:00987508       __wenviron                 00e0b508     LIBCMTD:crt0dat.obj
 0003:0098750c       __pgmptr                   00e0b50c     LIBCMTD:crt0dat.obj
 0003:00987510       __wpgmptr                  00e0b510     LIBCMTD:crt0dat.obj
 0003:00987514       __C_Exit_Done              00e0b514     LIBCMTD:crt0dat.obj
 0003:0098751c       ___fastflag                00e0b51c     LIBCMTD:fpinit.obj
 0003:00987840       __aenvptr                  00e0b840     LIBCMTD:crt0.obj
 0003:00987844       __wenvptr                  00e0b844     LIBCMTD:crt0.obj
 0003:009879b0       ___crtDebugCheckCount      00e0b9b0     LIBCMTD:dbgheap.obj
 0003:009879b8       ?_pfnDumpClient@@3P6AXPAXI@ZA 00e0b9b8     LIBCMTD:dbgheap.obj
 0003:009879d4       ___pInvalidArgHandler      00e0b9d4     LIBCMTD:invarg.obj
 0003:009879d8       __stdbuf                   00e0b9d8     LIBCMTD:_sftbuf.obj
 0003:009879e0       ___pioinfo                 00e0b9e0     LIBCMTD:ioinit.obj
 0003:00987ae0       ___app_type                00e0bae0     LIBCMTD:crt0msg.obj
 0003:00988110       ?__pInconsistency@@3P6AXXZA 00e0c110     LIBCMTD:hooks.obj
 0003:00988114       ?_pnhHeap@@3P6AHI@ZA       00e0c114     LIBCMTD:handler.obj
 0003:00988118       ___pPurecall               00e0c118     LIBCMTD:inithelp.obj
 0003:00988134       ___mbcodepage              00e0c134     LIBCMTD:mbctype.obj
 0003:00988138       ___ismbcodepage            00e0c138     LIBCMTD:mbctype.obj
 0003:0098813c       ___mbulinfo                00e0c13c     LIBCMTD:mbctype.obj
 0003:00988148       ___mblocalename            00e0c148     LIBCMTD:mbctype.obj
 0003:00988150       __newmode                  00e0c150     LIBCMTD:_newmode.obj
 0003:00988154       ?wsprintffp@@3P6AHPADPBDZZA 00e0c154     LIBCMTD:error.obj
 0003:00988160       ___isa_available           00e0c160     LIBCMTD:cpu_disp.obj
 0003:00988164       ___favor                   00e0c164     LIBCMTD:cpu_disp.obj
 0003:00988168       __crtheap                  00e0c168     LIBCMTD:heapinit.obj
 0003:00988278       ___error_mode              00e0c278     LIBCMTD:errmode.obj
 0003:00988290       __commode                  00e0c290     LIBCMTD:ncommode.obj
 0003:00988298       ___locale_changed          00e0c298     LIBCMTD:wsetloca.obj
 0003:009882a4       __outputformat             00e0c2a4     LIBCMTD:outputformat.obj
 0003:009882a8       ___lconv_static_null       00e0c2a8     LIBCMTD:lconv.obj
 0003:009882ac       ___lconv_static_W_null     00e0c2ac     LIBCMTD:lconv.obj
 0003:009882b0       ?g_OutOfMemoryExceptionCallback@@3P6GPAXXZA 00e0c2b0     LIBCMTD:frame.obj
 0003:009882b4       __fmode                    00e0c2b4     LIBCMTD:txtmode.obj
 0003:009882c0       ?pArgList@UnDecorator@@0PAVReplicator@@A 00e0c2c0     LIBCMTD:undname.obj
 0003:009882c4       ?pZNameList@UnDecorator@@0PAVReplicator@@A 00e0c2c4     LIBCMTD:undname.obj
 0003:009882c8       ?pTemplateArgList@UnDecorator@@0PAVReplicator@@A 00e0c2c8     LIBCMTD:undname.obj
 0003:009882cc       ?gName@UnDecorator@@0PBDB  00e0c2cc     LIBCMTD:undname.obj
 0003:009882d0       ?name@UnDecorator@@0PBDB   00e0c2d0     LIBCMTD:undname.obj
 0003:009882d4       ?outputString@UnDecorator@@0PADA 00e0c2d4     LIBCMTD:undname.obj
 0003:009882d8       ?maxStringLength@UnDecorator@@0HA 00e0c2d8     LIBCMTD:undname.obj
 0003:009882dc       ?disableFlags@UnDecorator@@0KA 00e0c2dc     LIBCMTD:undname.obj
 0003:009882e0       ?fExplicitTemplateParams@UnDecorator@@0_NA 00e0c2e0     LIBCMTD:undname.obj
 0003:009882e1       ?fGetTemplateArgumentList@UnDecorator@@0_NA 00e0c2e1     LIBCMTD:undname.obj
 0003:009882e4       ?m_pGetParameter@UnDecorator@@0P6APADJ@ZA 00e0c2e4     LIBCMTD:undname.obj
 0003:00988350       ?nodes@?1??make@DNameStatusNode@@SAPAV2@W4DNameStatus@@@Z@4PAV2@A 00e0c350     LIBCMTD:undname.obj
 0003:00988380       ??_B?1??make@DNameStatusNode@@SAPAV1@W4DNameStatus@@@Z@51 00e0c380     LIBCMTD:undname.obj
 0003:00988384       ___unguarded_readlc_active 00e0c384     <common>
 0003:00988388       ___setlc_active            00e0c388     <common>
 0003:0098838c       __pReportHookListW         00e0c38c     <common>
 0003:00988390       __pReportHookList          00e0c390     <common>
 0003:00988394       __pfnReportHook            00e0c394     <common>
 0003:00988398       ___use_sse2_mathfcns       00e0c398     <common>
 0003:0098839c       __debugger_hook_dummy      00e0c39c     <common>
 0003:009883a0       _encodedKERNEL32Functions  00e0c3a0     <common>
 0003:00988424       __nhandle                  00e0c424     <common>
 0003:00988428       __acmdln                   00e0c428     <common>
 0003:0098842c       ___dyn_tls_init_callback   00e0c42c     <common>
 0003:00988430       ___onexitend               00e0c430     <common>
 0003:00988434       ___onexitbegin             00e0c434     <common>
 0003:00988438       ___mbctype_initialized     00e0c438     <common>
 0003:0098843c       ___env_initialized         00e0c43c     <common>
 0003:00988440       __bufin                    00e0c440     <common>
 0003:00989440       ___piob                    00e0d440     <common>
 0003:00989444       __nstream                  00e0d444     <common>

 entry point at        0001:00015610

 Static symbols

 0000:ff5f2000       .debug$S                   00400000     kernel32:KERNEL32.dll
 0000:ff5f2000       .debug$S                   00400000     kernel32:KERNEL32.dll
 0000:ff5f2000       .debug$S                   00400000     kernel32:KERNEL32.dll
 0000:ff5f2000       .debug$S                   00400000     kernel32:KERNEL32.dll
 0000:ff5f2000       .debug$S                   00400000     kernel32:KERNEL32.dll
 0000:ff5f2000       .debug$S                   00400000     kernel32:KERNEL32.dll
 0000:ff5f2000       .debug$S                   00400000     kernel32:KERNEL32.dll
 0000:ff5f2000       .debug$S                   00400000     kernel32:KERNEL32.dll
 0000:ff5f2000       .debug$S                   00400000     kernel32:KERNEL32.dll
 0000:ff5f2000       .debug$S                   00400000     kernel32:KERNEL32.dll
 0000:ff5f2000       .debug$S                   00400000     kernel32:KERNEL32.dll
 0000:ff5f2000       .debug$S                   00400000     kernel32:KERNEL32.dll
 0000:ff5f2000       .debug$S                   00400000     kernel32:KERNEL32.dll
 0000:ff5f2000       .debug$S                   00400000     kernel32:KERNEL32.dll
 0000:ff5f2000       .debug$S                   00400000     kernel32:KERNEL32.dll
 0000:ff5f2000       .debug$S                   00400000     kernel32:KERNEL32.dll
 0000:ff5f2000       .debug$S                   00400000     kernel32:KERNEL32.dll
 0000:ff5f2000       .debug$S                   00400000     kernel32:KERNEL32.dll
 0000:ff5f2000       .debug$S                   00400000     kernel32:KERNEL32.dll
 0000:ff5f2000       .debug$S                   00400000     kernel32:KERNEL32.dll
 0000:ff5f2000       .debug$S                   00400000     kernel32:KERNEL32.dll
 0000:ff5f2000       .debug$S                   00400000     kernel32:KERNEL32.dll
 0000:ff5f2000       .debug$S                   00400000     kernel32:KERNEL32.dll
 0000:ff5f2000       .debug$S                   00400000     kernel32:KERNEL32.dll
 0000:ff5f2000       .debug$S                   00400000     kernel32:KERNEL32.dll
 0000:ff5f2000       .debug$S                   00400000     kernel32:KERNEL32.dll
 0000:ff5f2000       .debug$S                   00400000     kernel32:KERNEL32.dll
 0000:ff5f2000       .debug$S                   00400000     kernel32:KERNEL32.dll
 0000:ff5f2000       .debug$S                   00400000     kernel32:KERNEL32.dll
 0000:ff5f2000       .debug$S                   00400000     kernel32:KERNEL32.dll
 0000:ff5f2000       .debug$S                   00400000     kernel32:KERNEL32.dll
 0000:ff5f2000       .debug$S                   00400000     kernel32:KERNEL32.dll
 0000:ff5f2000       .debug$S                   00400000     kernel32:KERNEL32.dll
 0000:ff5f2000       .debug$S                   00400000     kernel32:KERNEL32.dll
 0000:ff5f2000       .debug$S                   00400000     kernel32:KERNEL32.dll
 0000:ff5f2000       .debug$S                   00400000     kernel32:KERNEL32.dll
 0000:ff5f2000       .debug$S                   00400000     kernel32:KERNEL32.dll
 0000:ff5f2000       .debug$S                   00400000     kernel32:KERNEL32.dll
 0000:ff5f2000       .debug$S                   00400000     kernel32:KERNEL32.dll
 0000:ff5f2000       .debug$S                   00400000     kernel32:KERNEL32.dll
 0000:ff5f2000       .debug$S                   00400000     kernel32:KERNEL32.dll
 0000:ff5f2000       .debug$S                   00400000     kernel32:KERNEL32.dll
 0000:ff5f2000       .debug$S                   00400000     kernel32:KERNEL32.dll
 0000:ff5f2000       .debug$S                   00400000     kernel32:KERNEL32.dll
 0000:ff5f2000       .debug$S                   00400000     kernel32:KERNEL32.dll
 0000:ff5f2000       .debug$S                   00400000     kernel32:KERNEL32.dll
 0000:ff5f2000       .debug$S                   00400000     kernel32:KERNEL32.dll
 0000:ff5f2000       .debug$S                   00400000     kernel32:KERNEL32.dll
 0000:ff5f2000       .debug$S                   00400000     kernel32:KERNEL32.dll
 0000:ff5f2000       .debug$S                   00400000     kernel32:KERNEL32.dll
 0000:ff5f2000       .debug$S                   00400000     kernel32:KERNEL32.dll
 0000:ff5f2000       .debug$S                   00400000     kernel32:KERNEL32.dll
 0000:ff5f2000       .debug$S                   00400000     kernel32:KERNEL32.dll
 0000:ff5f2000       .debug$S                   00400000     kernel32:KERNEL32.dll
 0000:ff5f2000       .debug$S                   00400000     kernel32:KERNEL32.dll
 0000:ff5f2000       .debug$S                   00400000     kernel32:KERNEL32.dll
 0000:ff5f2000       .debug$S                   00400000     kernel32:KERNEL32.dll
 0000:ff5f2000       .debug$S                   00400000     kernel32:KERNEL32.dll
 0000:ff5f2000       .debug$S                   00400000     kernel32:KERNEL32.dll
 0000:ff5f2000       .debug$S                   00400000     kernel32:KERNEL32.dll
 0000:ff5f2000       .debug$S                   00400000     kernel32:KERNEL32.dll
 0000:ff5f2000       .debug$S                   00400000     kernel32:KERNEL32.dll
 0000:ff5f2000       .debug$S                   00400000     kernel32:KERNEL32.dll
 0000:ff5f2000       .debug$S                   00400000     kernel32:KERNEL32.dll
 0000:ff5f2000       .debug$S                   00400000     kernel32:KERNEL32.dll
 0000:ff5f2000       .debug$S                   00400000     kernel32:KERNEL32.dll
 0000:ff5f2000       .debug$S                   00400000     kernel32:KERNEL32.dll
 0000:ff5f2000       .debug$S                   00400000     kernel32:KERNEL32.dll
 0000:ff5f2000       .debug$S                   00400000     kernel32:KERNEL32.dll
 0000:ff5f2000       .debug$S                   00400000     kernel32:KERNEL32.dll
 0000:ff5f2000       .debug$S                   00400000     kernel32:KERNEL32.dll
 0000:ff5f2000       .debug$S                   00400000     kernel32:KERNEL32.dll
 0000:ff5f2000       .debug$S                   00400000     kernel32:KERNEL32.dll
 0000:ff5f2000       .debug$S                   00400000     kernel32:KERNEL32.dll
 0000:ff5f2000       .debug$S                   00400000     kernel32:KERNEL32.dll
 0000:ff5f2000       .debug$S                   00400000     kernel32:KERNEL32.dll
 0000:ff5f2000       .debug$S                   00400000     kernel32:KERNEL32.dll
 0000:ff5f2000       .debug$S                   00400000     kernel32:KERNEL32.dll
 0000:ff5f2000       .debug$S                   00400000     kernel32:KERNEL32.dll
 0000:ff5f2000       .debug$S                   00400000     kernel32:KERNEL32.dll
 0000:ff5f2000       .debug$S                   00400000     kernel32:KERNEL32.dll
 0000:ff5f2000       .debug$S                   00400000     kernel32:KERNEL32.dll
 0000:ff5f2000       .debug$S                   00400000     kernel32:KERNEL32.dll
 0000:ff5f2000       .debug$S                   00400000     kernel32:KERNEL32.dll
 0000:ff5f2000       .debug$S                   00400000     kernel32:KERNEL32.dll
 0000:ff5f2000       .debug$S                   00400000     kernel32:KERNEL32.dll
 0000:ff5f2000       .debug$S                   00400000     kernel32:KERNEL32.dll
 0000:ff5f2000       .debug$S                   00400000     kernel32:KERNEL32.dll
 0000:ff5f2000       .debug$S                   00400000     kernel32:KERNEL32.dll
 0000:ff5f2000       .debug$S                   00400000     kernel32:KERNEL32.dll
 0000:ff5f2000       .debug$S                   00400000     kernel32:KERNEL32.dll
 0001:00002270       $LN27                      00403270     ac3dload.obj
 0001:00002278       $LN26                      00403278     ac3dload.obj
 0001:00002284       $LN25                      00403284     ac3dload.obj
 0001:00003370       $LN55                      00404370     ac3dload.obj
 0001:00003378       $LN54                      00404378     ac3dload.obj
 0001:0000339c       $LN53                      0040439c     ac3dload.obj
 0001:000033a2       $LN52                      004043a2     ac3dload.obj
 0001:000033a8       $LN51                      004043a8     ac3dload.obj
 0001:000037cc       $LN35                      004047cc     ac3dload.obj
 0001:000037d4       $LN34                      004047d4     ac3dload.obj
 0001:000037e0       $LN33                      004047e0     ac3dload.obj
 0001:00003b1c       $LN12                      00404b1c     ac3dload.obj
 0001:00003b24       $LN11                      00404b24     ac3dload.obj
 0001:00003b30       $LN10                      00404b30     ac3dload.obj
 0001:00003f74       $LN19                      00404f74     ac3dload.obj
 0001:00003f7c       $LN18                      00404f7c     ac3dload.obj
 0001:00003f88       $LN17                      00404f88     ac3dload.obj
 0001:00004720       $LN80                      00405720     ac3dload.obj
 0001:00004728       $LN79                      00405728     ac3dload.obj
 0001:00004734       $LN78                      00405734     ac3dload.obj
 0001:00004b64       $LN14                      00405b64     ac3dload.obj
 0001:00004b6c       $LN13                      00405b6c     ac3dload.obj
 0001:00004b78       $LN12                      00405b78     ac3dload.obj
 0001:00006224       $LN6                       00407224     ac3dload.obj
 0001:0000622c       $LN5                       0040722c     ac3dload.obj
 0001:00006238       $LN4                       00407238     ac3dload.obj
 0001:000063f4       $LN6                       004073f4     ac3dload.obj
 0001:000063fc       $LN5                       004073fc     ac3dload.obj
 0001:00006408       $LN4                       00407408     ac3dload.obj
 0001:00006c84       $LN34                      00407c84     ac3dload.obj
 0001:00006c8c       $LN33                      00407c8c     ac3dload.obj
 0001:00006c98       $LN32                      00407c98     ac3dload.obj
 0001:00006fe0       $LN20                      00407fe0     ac3dload.obj
 0001:00006fe8       $LN19                      00407fe8     ac3dload.obj
 0001:00007000       $LN18                      00408000     ac3dload.obj
 0001:00007006       $LN17                      00408006     ac3dload.obj
 0001:0000726c       $LN9                       0040826c     ac3dload.obj
 0001:00007274       $LN8                       00408274     ac3dload.obj
 0001:00007280       $LN7                       00408280     ac3dload.obj
 0001:0000840c       $LN105                     0040940c     ac3dload.obj
 0001:00008414       $LN104                     00409414     ac3dload.obj
 0001:0000842c       $LN103                     0040942c     ac3dload.obj
 0001:00008434       $LN102                     00409434     ac3dload.obj
 0001:000091c0       $LN100                     0040a1c0     ac3dload.obj
 0001:000091c8       $LN99                      0040a1c8     ac3dload.obj
 0001:000091e0       $LN98                      0040a1e0     ac3dload.obj
 0001:000091e6       $LN97                      0040a1e6     ac3dload.obj
 0001:00009cac       $LN80                      0040acac     ac3dload.obj
 0001:00009cb4       $LN79                      0040acb4     ac3dload.obj
 0001:00009cc0       $LN78                      0040acc0     ac3dload.obj
 0001:0000a4b4       $LN67                      0040b4b4     ac3dload.obj
 0001:0000a4bc       $LN66                      0040b4bc     ac3dload.obj
 0001:0000a4c8       $LN65                      0040b4c8     ac3dload.obj
 0001:0000b558       $LN79                      0040c558     ac3dload.obj
 0001:0000b560       $LN78                      0040c560     ac3dload.obj
 0001:0000b584       $LN77                      0040c584     ac3dload.obj
 0001:0000b58c       $LN76                      0040c58c     ac3dload.obj
 0001:0000b595       $LN75                      0040c595     ac3dload.obj
 0001:0000b59c       $LN81                      0040c59c     ac3dload.obj
 0001:0000b5ac       $LN73                      0040c5ac     ac3dload.obj
 0001:0000b600       $LN82                      0040c600     ac3dload.obj
 0001:0000b610       $LN74                      0040c610     ac3dload.obj
 0001:0000ce24       $LN21                      0040de24     ac3dload.obj
 0001:0000ce2c       $LN20                      0040de2c     ac3dload.obj
 0001:0000ce38       $LN19                      0040de38     ac3dload.obj
 0001:0000f5b8       $LN43                      004105b8     ac3dload.obj
 0001:0000f5c0       $LN42                      004105c0     ac3dload.obj
 0001:0000f5d8       $LN41                      004105d8     ac3dload.obj
 0001:0000f5df       $LN40                      004105df     ac3dload.obj
 0001:00011860       __initterm                 00412860 f   LIBCMTD:crt0dat.obj
 0001:000118f0       _doexit                    004128f0 f   LIBCMTD:crt0dat.obj
 0001:00011c30       $$000000                   00412c30     LIBCMTD:strcmp.obj
 0001:00011dc0       $$000000                   00412dc0     LIBCMTD:sqrt.obj
 0001:00013630       _vscan_fn                  00414630 f   LIBCMTD:sscanf.obj
 0001:00014030       $$000000                   00415030     LIBCMTD:memcpy.obj
 0001:00014280       LeadUpVec                  00415280     LIBCMTD:memcpy.obj
 0001:000142fc       UnwindUpVec                004152fc     LIBCMTD:memcpy.obj
 0001:00014368       TrailUpVec                 00415368     LIBCMTD:memcpy.obj
 0001:0001440c       LeadDownVec                0041540c     LIBCMTD:memcpy.obj
 0001:00014498       UnwindDownVec              00415498     LIBCMTD:memcpy.obj
 0001:00014504       TrailDownVec               00415504     LIBCMTD:memcpy.obj
 0001:00014680       $$000000                   00415680     LIBCMTD:memset.obj
 0001:00014710       $$000000                   00415710     LIBCMTD:strcat.obj
 0001:00014810       $$000000                   00415810     LIBCMTD:strlen.obj
 0001:000148a0       $$000000                   004158a0     LIBCMTD:strncmp.obj
 0001:00014920       $$000000                   00415920     LIBCMTD:strstr.obj
 0001:00014b90       $$000000                   00415b90     LIBCMTD:cos.obj
 0001:00015380       $$000000                   00416380     LIBCMTD:chkstk.obj
 0001:000153b0       ___tmainCRTStartup         004163b0 f   LIBCMTD:crt0.obj
 0001:00015550       _check_managed_app         00416550 f   LIBCMTD:crt0.obj
 0001:000155e0       _fast_error_exit           004165e0 f   LIBCMTD:crt0.obj
 0001:00015930       _flsall                    00416930 f   LIBCMTD:fflush.obj
 0001:00015ee0       ?_CrtMemDumpAllObjectsSince_stat@@YAXPBU_CrtMemState@@PAUlocaleinfo_struct@@@Z 00416ee0 f   LIBCMTD:dbgheap.obj
 0001:000161f0       ?__crtIsBadReadPtr@@YAHPBXI@Z 004171f0 f   LIBCMTD:dbgheap.obj
 0001:00016320       _CheckBytes                00417320 f   LIBCMTD:dbgheap.obj
 0001:000167b4       $LN51                      004177b4     LIBCMTD:dbgheap.obj
 0001:00018640       __heap_alloc_dbg_impl      00419640 f   LIBCMTD:dbgheap.obj
 0001:00018ce0       __nh_malloc_dbg_impl       00419ce0 f   LIBCMTD:dbgheap.obj
 0001:00018d60       __printMemBlockData        00419d60 f   LIBCMTD:dbgheap.obj
 0001:00019090       _realloc_help              0041a090 f   LIBCMTD:dbgheap.obj
 0001:0001ac14       $LN92                      0041bc14     LIBCMTD:_open.obj
 0001:0001ac48       $LN91                      0041bc48     LIBCMTD:_open.obj
 0001:0001af30       _ValidateLocalCookies      0041bf30 f   LIBCMTD:chandler4.obj
 0001:0001b150       $$000000                   0041c150     LIBCMTD:exsup4.obj
 0001:0001b1e0       __unwind_handler4          0041c1e0 f   LIBCMTD:exsup4.obj
 0001:0001cea0       $LN171                     0041dea0     LIBCMTD:output.obj
 0001:0001cec0       $LN172                     0041dec0     LIBCMTD:output.obj
 0001:0001ced8       $LN167                     0041ded8     LIBCMTD:output.obj
 0001:0001ceec       $LN173                     0041deec     LIBCMTD:output.obj
 0001:0001cf00       $LN168                     0041df00     LIBCMTD:output.obj
 0001:0001cf30       $LN174                     0041df30     LIBCMTD:output.obj
 0001:0001cf6c       $LN169                     0041df6c     LIBCMTD:output.obj
 0001:0001d010       _write_char                0041e010 f   LIBCMTD:output.obj
 0001:0001d0b0       _write_multi_char          0041e0b0 f   LIBCMTD:output.obj
 0001:0001d0f0       _write_string              0041e0f0 f   LIBCMTD:output.obj
 0001:0001d990       ___IsPackagedAppHelper     0041e990 f   LIBCMTD:winapisupp.obj
 0001:0001ec00       __onexit_nolock            0041fc00 f   LIBCMTD:onexit.obj
 0001:0001f380       _ctrlevent_capture@4       00420380 f   LIBCMTD:winsig.obj
 0001:0001f77c       $LN41                      0042077c     LIBCMTD:winsig.obj
 0001:0001f794       $LN39                      00420794     LIBCMTD:winsig.obj
 0001:0001f7b0       _siglookup                 004207b0 f   LIBCMTD:winsig.obj
 0001:0001fb74       $LN49                      00420b74     LIBCMTD:winsig.obj
 0001:0001fb88       $LN46                      00420b88     LIBCMTD:winsig.obj
 0001:0001fba0       $LN50                      00420ba0     LIBCMTD:winsig.obj
 0001:0001fba8       $LN47                      00420ba8     LIBCMTD:winsig.obj
 0001:0001fe60       ?CPtoLocaleName@@YAPB_WH@Z 00420e60 f   LIBCMTD:mbctype.obj
 0001:0001fed4       $LN10                      00420ed4     LIBCMTD:mbctype.obj
 0001:0001fee8       $LN9                       00420ee8     LIBCMTD:mbctype.obj
 0001:0001ff00       ?getSystemCP@@YAHH@Z       00420f00 f   LIBCMTD:mbctype.obj
 0001:00020010       ?setSBCS@@YAXPAUthreadmbcinfostruct@@@Z 00421010 f   LIBCMTD:mbctype.obj
 0001:000200f0       ?setSBUpLow@@YAXPAUthreadmbcinfostruct@@@Z 004210f0 f   LIBCMTD:mbctype.obj
 0001:00020c00       ?strtoxq@@YA_KPAUlocaleinfo_struct@@PBDPAPBDHH@Z 00421c00 f   LIBCMTD:strtoq.obj
 0001:000213b0       ?strtoxl@@YAKPAUlocaleinfo_struct@@PBDPAPBDHH@Z 004223b0 f   LIBCMTD:strtol.obj
 0001:00021c10       __get_fname                00422c10 f   LIBCMTD:fpexcept.obj
 0001:000225d4       $LN55                      004235d4     LIBCMTD:fpexcept.obj
 0001:00022c70       $$000000                   00423c70     LIBCMTD:87disp.obj
 0001:00022e40       $$000000                   00423e40     LIBCMTD:genexcep.obj
 0001:00022ea0       $$000000                   00423ea0     LIBCMTD:common.obj
 0001:00023030       ?DebuggerProbe@@YAHK@Z     00424030 f   LIBCMTD:error.obj
 0001:000230d0       ?DebuggerRuntime@@YAHKHPAXPB_W@Z 004240d0 f   LIBCMTD:error.obj
 0001:00023450       ?_getMemBlockDataString@@YAXPAD00I@Z 00424450 f   LIBCMTD:error.obj
 0001:000234c0       ?_strlen_priv@@YAIPBD@Z    004244c0 f   LIBCMTD:error.obj
 0001:000234e0       ?failwithmessage@@YAXPAXHHPBD@Z 004244e0 f   LIBCMTD:error.obj
 0001:000242c0       __cftoe2_l                 004252c0 f   LIBCMTD:cvt.obj
 0001:00024920       __cftof2_l                 00425920 f   LIBCMTD:cvt.obj
 0001:00025340       __shift                    00426340 f   LIBCMTD:cvt.obj
 0001:00025a10       ___check_float_string      00426a10 f   LIBCMTD:input.obj
 0001:00025b10       __hextodec                 00426b10 f   LIBCMTD:input.obj
 0001:00025b50       __inc                      00426b50 f   LIBCMTD:input.obj
 0001:000277f8       $LN253                     004287f8     LIBCMTD:input.obj
 0001:00027818       $LN251                     00428818     LIBCMTD:input.obj
 0001:00027868       $LN254                     00428868     LIBCMTD:input.obj
 0001:00027890       $LN252                     00428890     LIBCMTD:input.obj
 0001:000278b0       __un_inc                   004288b0 f   LIBCMTD:input.obj
 0001:000278d0       __whiteout                 004288d0 f   LIBCMTD:input.obj
 0001:00027910       ___check_float_string      00428910 f   LIBCMTD:inputs.obj
 0001:00027a10       __hextodec                 00428a10 f   LIBCMTD:inputs.obj
 0001:00027a50       __inc                      00428a50 f   LIBCMTD:inputs.obj
 0001:00029b74       $LN282                     0042ab74     LIBCMTD:inputs.obj
 0001:00029b94       $LN280                     0042ab94     LIBCMTD:inputs.obj
 0001:00029be4       $LN283                     0042abe4     LIBCMTD:inputs.obj
 0001:00029c0c       $LN281                     0042ac0c     LIBCMTD:inputs.obj
 0001:00029c30       __un_inc                   0042ac30 f   LIBCMTD:inputs.obj
 0001:00029c50       __whiteout                 0042ac50 f   LIBCMTD:inputs.obj
 0001:0002b780       _comexecmd                 0042c780 f   LIBCMTD:spawnve.obj
 0001:0002bf90       __dupenv_s_helper          0042cf90 f   LIBCMTD:getenv.obj
 0001:0002c290       __getenv_s_helper          0042d290 f   LIBCMTD:getenv.obj
 0001:0002c9f0       $$000000                   0042d9f0     LIBCMTD:strchr.obj
 0001:0002cb90       $$000000                   0042db90     LIBCMTD:cos_pentium4.obj
 0001:0002d2e0       _xcptlookup                0042e2e0 f   LIBCMTD:winxfltr.obj
 0001:0002da80       _parse_cmdline             0042ea80 f   LIBCMTD:stdargv.obj
 0001:00030030       __is_LFH_enabled           00431030 f   LIBCMTD:expand.obj
 0001:00033910       $$000000                   00434910     LIBCMTD:exsup.obj
 0001:00033930       __unwind_handler           00434930 f   LIBCMTD:exsup.obj
 0001:00035158       $LN180                     00436158     LIBCMTD:outputs.obj
 0001:00035178       $LN181                     00436178     LIBCMTD:outputs.obj
 0001:00035190       $LN176                     00436190     LIBCMTD:outputs.obj
 0001:000351a4       $LN182                     004361a4     LIBCMTD:outputs.obj
 0001:000351b8       $LN177                     004361b8     LIBCMTD:outputs.obj
 0001:000351e8       $LN183                     004361e8     LIBCMTD:outputs.obj
 0001:00035224       $LN178                     00436224     LIBCMTD:outputs.obj
 0001:00035260       _write_char                00436260 f   LIBCMTD:outputs.obj
 0001:00035300       _write_multi_char          00436300 f   LIBCMTD:outputs.obj
 0001:00035340       _write_string              00436340 f   LIBCMTD:outputs.obj
 0001:000390d4       $LN424                     0043a0d4     LIBCMTD:outputp.obj
 0001:000390f4       $LN425                     0043a0f4     LIBCMTD:outputp.obj
 0001:0003910c       $LN420                     0043a10c     LIBCMTD:outputp.obj
 0001:00039120       $LN426                     0043a120     LIBCMTD:outputp.obj
 0001:00039134       $LN421                     0043a134     LIBCMTD:outputp.obj
 0001:00039164       $LN427                     0043a164     LIBCMTD:outputp.obj
 0001:000391a0       $LN422                     0043a1a0     LIBCMTD:outputp.obj
 0001:000391d8       $LN428                     0043a1d8     LIBCMTD:outputp.obj
 0001:00039510       _write_char                0043a510 f   LIBCMTD:outputp.obj
 0001:000395b0       _write_multi_char          0043a5b0 f   LIBCMTD:outputp.obj
 0001:000395f0       _write_string              0043a5f0 f   LIBCMTD:outputp.obj
 0001:0003a070       $$000000                   0043b070     LIBCMTD:ulldiv.obj
 0001:0003a0e0       $$000000                   0043b0e0     LIBCMTD:ullrem.obj
 0001:0003ae70       ?__crtGetLocaleInfoA_stat@@YAHPAUlocaleinfo_struct@@PB_WKPADH@Z 0043be70 f   LIBCMTD:a_loc.obj
 0001:0003b330       ___crtEnumLocalesProc@4    0043c330 f   LIBCMTD:winapinls.obj
 0001:0003b6d0       ?__crtLCMapStringA_stat@@YAHPAUlocaleinfo_struct@@PB_WKPBDHPADHHH@Z 0043c6d0 f   LIBCMTD:a_map.obj
 0001:0003b9b0       ?strncnt@@YAHPBDH@Z        0043c9b0 f   LIBCMTD:a_map.obj
 0001:0003ba60       ?__crtGetStringTypeA_stat@@YAHPAUlocaleinfo_struct@@KPBDHPAGHH@Z 0043ca60 f   LIBCMTD:a_str.obj
 0001:0003bbf0       ?CatchGuardHandler@@YA?AW4_EXCEPTION_DISPOSITION@@PAUEHExceptionRecord@@PAUCatchGuardRN@@PAX2@Z 0043cbf0 f   LIBCMTD:_trnsctrl_.obj
 0001:0003bc40       ?TranslatorGuardHandler@@YA?AW4_EXCEPTION_DISPOSITION@@PAUEHExceptionRecord@@PAUTranslatorGuardRN@@PAX2@Z 0043cc40 f   LIBCMTD:_trnsctrl_.obj
 0001:0003c720       $$000000                   0043d720     LIBCMTD:llmul.obj
 0001:0003cce8       $LN16                      0043dce8     LIBCMTD:wsetloca.obj
 0001:0003cd00       __copytlocinfo_nolock      0043dd00 f   LIBCMTD:wsetloca.obj
 0001:0003d9c0       __wsetlocale_get_all       0043e9c0 f   LIBCMTD:wsetloca.obj
 0001:0003dd80       __wsetlocale_nolock        0043ed80 f   LIBCMTD:wsetloca.obj
 0001:0003e1d0       __wsetlocale_set_cat       0043f1d0 f   LIBCMTD:wsetloca.obj
 0001:0003e7b0       _sync_legacy_variables_lk  0043f7b0 f   LIBCMTD:wsetloca.obj
 0001:0003e9d4       $LN19                      0043f9d4     LIBCMTD:87except.obj
 0001:0003ea00       ?GetPdbDll@@YAPAUHINSTANCE__@@XZ 0043fa00 f   LIBCMTD:pdblkup.obj
 0001:0003eb40       ?GetPdbDllFromInstallPath@@YAPAUHINSTANCE__@@XZ 0043fb40 f   LIBCMTD:pdblkup.obj
 0001:0003ed70       ?GetPdbDllPathFromFilePath@@YAHPB_WPA_WI@Z 0043fd70 f   LIBCMTD:pdblkup.obj
 0001:00040090       $$000000                   00441090     LIBCMTD:memmove.obj
 0001:000402e0       LeadUpVec                  004412e0     LIBCMTD:memmove.obj
 0001:0004035c       UnwindUpVec                0044135c     LIBCMTD:memmove.obj
 0001:000403c8       TrailUpVec                 004413c8     LIBCMTD:memmove.obj
 0001:0004046c       LeadDownVec                0044146c     LIBCMTD:memmove.obj
 0001:000404f8       UnwindDownVec              004414f8     LIBCMTD:memmove.obj
 0001:00040564       TrailDownVec               00441564     LIBCMTD:memmove.obj
 0001:000406e0       $$000000                   004416e0     LIBCMTD:strrchr.obj
 0001:00040d50       $$000000                   00441d50     LIBCMTD:lldiv.obj
 0001:00040e00       $$000000                   00441e00     LIBCMTD:llrem.obj
 0001:00040ec0       $$000000                   00441ec0     LIBCMTD:llshl.obj
 0001:00040ee0       $$000000                   00441ee0     LIBCMTD:ullshr.obj
 0001:00044058       $LN43                      00445058     LIBCMTD:dospawn.obj
 0001:00045150       ?x_ismbbtype_l@@YAHPAUlocaleinfo_struct@@IHH@Z 00446150 f   LIBCMTD:ismbbyte.obj
 0001:00045db0       _fix_grouping              00446db0 f   LIBCMTD:initmon.obj
 0001:00046230       _fix_grouping              00447230 f   LIBCMTD:initnum.obj
 0001:00046cf0       __get_lc_time              00447cf0 f   LIBCMTD:inittime.obj
 0001:00049e40       $LN160                     0044ae40     LIBCMTD:woutput.obj
 0001:00049e60       $LN161                     0044ae60     LIBCMTD:woutput.obj
 0001:00049e78       $LN156                     0044ae78     LIBCMTD:woutput.obj
 0001:00049e8c       $LN162                     0044ae8c     LIBCMTD:woutput.obj
 0001:00049ea0       $LN157                     0044aea0     LIBCMTD:woutput.obj
 0001:00049ed0       $LN163                     0044aed0     LIBCMTD:woutput.obj
 0001:00049f0c       $LN158                     0044af0c     LIBCMTD:woutput.obj
 0001:00049f50       _write_char                0044af50 f   LIBCMTD:woutput.obj
 0001:00049fb0       _write_multi_char          0044afb0 f   LIBCMTD:woutput.obj
 0001:00049ff0       _write_string              0044aff0 f   LIBCMTD:woutput.obj
 0001:0004a0b0       @x64toa_s@24               0044b0b0 f   LIBCMTD:xtoas.obj
 0001:0004a610       _xtoa_s@20                 0044b610 f   LIBCMTD:xtoas.obj
 0001:0004b1e0       ?wcsncnt@@YAIPB_WI@Z       0044c1e0 f   LIBCMTD:wcstombs.obj
 0001:0004bb20       @x64tow_s@24               0044cb20 f   LIBCMTD:xtows.obj
 0001:0004c090       _xtow_s@20                 0044d090 f   LIBCMTD:xtows.obj
 0001:0004c490       ___createFile              0044d490 f   LIBCMTD:wopen.obj
 0001:0004d9ac       $LN137                     0044e9ac     LIBCMTD:wopen.obj
 0001:0004d9c4       $LN136                     0044e9c4     LIBCMTD:wopen.obj
 0001:0004da38       $LN138                     0044ea38     LIBCMTD:wopen.obj
 0001:0004da4c       $LN139                     0044ea4c     LIBCMTD:wopen.obj
 0001:0004e780       $$000000                   0044f780     LIBCMTD:lowhelpr.obj
 0001:0004e9a0       ?CallCatchBlock@@YAPAXPAUEHExceptionRecord@@PAUEHRegistrationNode@@PAU_CONTEXT@@PBU_s_FuncInfo@@PAXHK@Z 0044f9a0 f   LIBCMTD:frame.obj
 0001:0004ec30       ?CallUnexpected@@YAXPBU_s_ESTypeList@@@Z 0044fc30 f   LIBCMTD:frame.obj
 0001:0004ec7a       __catch$?CallUnexpected@@YAXPBU_s_ESTypeList@@@Z$0 0044fc7a f   LIBCMTD:frame.obj
 0001:0004ecc0       ?CatchIt@@YAXPAUEHExceptionRecord@@PAUEHRegistrationNode@@PAU_CONTEXT@@PAXPBU_s_FuncInfo@@PBU_s_HandlerType@@PBU_s_CatchableType@@PBU_s_TryBlockMapEntry@@H1E@Z 0044fcc0 f   LIBCMTD:frame.obj
 0001:0004ed80       ?ExFilterRethrow@@YAHPAU_EXCEPTION_POINTERS@@@Z 0044fd80 f   LIBCMTD:frame.obj
 0001:0004edf0       ?FindHandler@@YAXPAUEHExceptionRecord@@PAUEHRegistrationNode@@PAU_CONTEXT@@PAXPBU_s_FuncInfo@@EH1@Z 0044fdf0 f   LIBCMTD:frame.obj
 0001:0004f2c0       ?FindHandlerForForeignException@@YAXPAUEHExceptionRecord@@PAUEHRegistrationNode@@PAU_CONTEXT@@PAXPBU_s_FuncInfo@@HH1@Z 004502c0 f   LIBCMTD:frame.obj
 0001:0004f450       ?IsInExceptionSpec@@YAEPAUEHExceptionRecord@@PBU_s_ESTypeList@@@Z 00450450 f   LIBCMTD:frame.obj
 0001:0004f510       ?Is_bad_exception_allowed@@YAEPBU_s_ESTypeList@@@Z 00450510 f   LIBCMTD:frame.obj
 0001:00051e68       $LN137                     00452e68     LIBCMTD:strgtold.obj
 0001:00051e98       $LN138                     00452e98     LIBCMTD:strgtold.obj
 0001:00051ea8       $LN134                     00452ea8     LIBCMTD:strgtold.obj
 0001:00051ee4       $LN139                     00452ee4     LIBCMTD:strgtold.obj
 0001:00051ef0       $LN135                     00452ef0     LIBCMTD:strgtold.obj
 0001:00051f2c       $LN140                     00452f2c     LIBCMTD:strgtold.obj
 0001:00051f38       $LN136                     00452f38     LIBCMTD:strgtold.obj
 0001:00051f90       _cmpBYTE                   00452f90 f   LIBCMTD:memcmp.obj
 0001:00051fc0       _cmpDWORD                  00452fc0 f   LIBCMTD:memcmp.obj
 0001:00052090       _cmpResult                 00453090 f   LIBCMTD:memcmp.obj
 0001:000520c0       _cmpWORD                   004530c0 f   LIBCMTD:memcmp.obj
 0001:000522e4       $LN22                      004532e4     LIBCMTD:memcmp.obj
 0001:00052300       _unaligned_memcmp          00453300 f   LIBCMTD:memcmp.obj
 0001:00052984       $LN79                      00453984     LIBCMTD:memcmp.obj
 0001:00052ba0       _GetLocaleNameFromDefault  00453ba0 f   LIBCMTD:getqloc.obj
 0001:00052c40       _GetLocaleNameFromLangCountry 00453c40 f   LIBCMTD:getqloc.obj
 0001:00052d20       _GetLocaleNameFromLanguage 00453d20 f   LIBCMTD:getqloc.obj
 0001:00052db0       _GetPrimaryLen             00453db0 f   LIBCMTD:getqloc.obj
 0001:00052e30       _LangCountryEnumProcEx@12  00453e30 f   LIBCMTD:getqloc.obj
 0001:00053390       _LanguageEnumProcEx@12     00454390 f   LIBCMTD:getqloc.obj
 0001:000534d0       _ProcessCodePage           004544d0 f   LIBCMTD:getqloc.obj
 0001:00053580       _TestDefaultCountry        00454580 f   LIBCMTD:getqloc.obj
 0001:000535e0       _TestDefaultLanguage       004545e0 f   LIBCMTD:getqloc.obj
 0001:00053630       _TranslateName             00454630 f   LIBCMTD:getqloc.obj
 0001:00053990       _CountryEnumProc@4         00454990 f   LIBCMTD:getqloc_downlevel.obj
 0001:00053ad0       _GetLcidFromCountry        00454ad0 f   LIBCMTD:getqloc_downlevel.obj
 0001:00053b40       _GetLcidFromDefault        00454b40 f   LIBCMTD:getqloc_downlevel.obj
 0001:00053b80       _GetLcidFromLangCountry    00454b80 f   LIBCMTD:getqloc_downlevel.obj
 0001:00053c60       _GetLcidFromLanguage       00454c60 f   LIBCMTD:getqloc_downlevel.obj
 0001:00053cf0       _GetPrimaryLen             00454cf0 f   LIBCMTD:getqloc_downlevel.obj
 0001:00053d60       _LangCountryEnumProc@4     00454d60 f   LIBCMTD:getqloc_downlevel.obj
 0001:00054200       _LanguageEnumProc@4        00455200 f   LIBCMTD:getqloc_downlevel.obj
 0001:000543e0       _LcidFromHexString         004553e0 f   LIBCMTD:getqloc_downlevel.obj
 0001:00054470       _ProcessCodePage           00455470 f   LIBCMTD:getqloc_downlevel.obj
 0001:00054520       _TestDefaultCountry        00455520 f   LIBCMTD:getqloc_downlevel.obj
 0001:00054570       _TestDefaultLanguage       00455570 f   LIBCMTD:getqloc_downlevel.obj
 0001:00054600       _TranslateName             00455600 f   LIBCMTD:getqloc_downlevel.obj
 0001:00055a30       ___abstract_cw_sse2        00456a30 f   LIBCMTD:ieee87.obj
 0001:00055b80       ___abstract_sw_sse2        00456b80 f   LIBCMTD:ieee87.obj
 0001:00055c10       ___clearfp_sse2            00456c10 f   LIBCMTD:ieee87.obj
 0001:00055ce0       ___control87_sse2          00456ce0 f   LIBCMTD:ieee87.obj
 0001:00055d60       ___fpreset_sse2            00456d60 f   LIBCMTD:ieee87.obj
 0001:00055d80       ___hw_cw_sse2              00456d80 f   LIBCMTD:ieee87.obj
 0001:00055ed0       ___statusfp_sse2           00456ed0 f   LIBCMTD:ieee87.obj
 0001:00055ef0       __abstract_cw              00456ef0 f   LIBCMTD:ieee87.obj
 0001:00056040       __abstract_sw              00457040 f   LIBCMTD:ieee87.obj
 0001:00056240       __hw_cw                    00457240 f   LIBCMTD:ieee87.obj
 0001:00056ec0       _copy_environ              00457ec0 f   LIBCMTD:setenv.obj
 0001:00056ff0       _findenv                   00457ff0 f   LIBCMTD:setenv.obj
 0001:00057360       ?__crtCompareStringA_stat@@YAHPAUlocaleinfo_struct@@PB_WKPBDH2HH@Z 00458360 f   LIBCMTD:a_cmp.obj
 0001:00057780       ?strncnt@@YAHPBDH@Z        00458780 f   LIBCMTD:a_cmp.obj
 0001:0005b3ec       $LN398                     0045c3ec     LIBCMTD:woutputp.obj
 0001:0005b40c       $LN399                     0045c40c     LIBCMTD:woutputp.obj
 0001:0005b424       $LN394                     0045c424     LIBCMTD:woutputp.obj
 0001:0005b438       $LN400                     0045c438     LIBCMTD:woutputp.obj
 0001:0005b44c       $LN395                     0045c44c     LIBCMTD:woutputp.obj
 0001:0005b47c       $LN401                     0045c47c     LIBCMTD:woutputp.obj
 0001:0005b4b8       $LN396                     0045c4b8     LIBCMTD:woutputp.obj
 0001:0005b4f0       $LN402                     0045c4f0     LIBCMTD:woutputp.obj
 0001:0005b510       _write_char                0045c510 f   LIBCMTD:woutputp.obj
 0001:0005b570       _write_multi_char          0045c570 f   LIBCMTD:woutputp.obj
 0001:0005b5b0       _write_string              0045c5b0 f   LIBCMTD:woutputp.obj
 0001:0005cb58       $LN169                     0045db58     LIBCMTD:woutputs.obj
 0001:0005cb78       $LN170                     0045db78     LIBCMTD:woutputs.obj
 0001:0005cb90       $LN165                     0045db90     LIBCMTD:woutputs.obj
 0001:0005cba4       $LN171                     0045dba4     LIBCMTD:woutputs.obj
 0001:0005cbb8       $LN166                     0045dbb8     LIBCMTD:woutputs.obj
 0001:0005cbe8       $LN172                     0045dbe8     LIBCMTD:woutputs.obj
 0001:0005cc24       $LN167                     0045dc24     LIBCMTD:woutputs.obj
 0001:0005cc60       _write_char                0045dc60 f   LIBCMTD:woutputs.obj
 0001:0005ccc0       _write_multi_char          0045dcc0 f   LIBCMTD:woutputs.obj
 0001:0005cd00       _write_string              0045dd00 f   LIBCMTD:woutputs.obj
 0001:0005de20       $$000000                   0045ee20     LIBCMTD:_strnicm.obj
 0001:0005f300       ?wcstoxl@@YAKPB_WPAPB_WHH@Z 00460300 f   LIBCMTD:wcstol.obj
 0001:000600b0       ?wcstoxq@@YA_KPAUlocaleinfo_struct@@PB_WPAPB_WHH@Z 004610b0 f   LIBCMTD:wcstoq.obj
 0001:000653fc       $LN57                      004663fc     LIBCMTD:undname.obj
 0001:00065428       $LN53                      00466428     LIBCMTD:undname.obj
 0001:00065448       $LN58                      00466448     LIBCMTD:undname.obj
 0001:0006547c       $LN54                      0046647c     LIBCMTD:undname.obj
 0001:000654d8       $LN59                      004664d8     LIBCMTD:undname.obj
 0001:000654e8       $LN55                      004664e8     LIBCMTD:undname.obj
 0001:00065508       $LN60                      00466508     LIBCMTD:undname.obj
 0001:00065510       $LN56                      00466510     LIBCMTD:undname.obj
 0001:00065698       $LN19                      00466698     LIBCMTD:undname.obj
 0001:000656bc       $LN18                      004666bc     LIBCMTD:undname.obj
 0001:00066730       $LN16                      00467730     LIBCMTD:undname.obj
 0001:00066750       $LN15                      00467750     LIBCMTD:undname.obj
 0001:000668e4       $LN17                      004678e4     LIBCMTD:undname.obj
 0001:00066904       $LN18                      00467904     LIBCMTD:undname.obj
 0001:0006690c       $LN16                      0046790c     LIBCMTD:undname.obj
 0001:00067c74       $LN62                      00468c74     LIBCMTD:undname.obj
 0001:00067c90       $LN59                      00468c90     LIBCMTD:undname.obj
 0001:00067cf0       $LN63                      00468cf0     LIBCMTD:undname.obj
 0001:00067d24       $LN60                      00468d24     LIBCMTD:undname.obj
 0001:00067d84       $LN64                      00468d84     LIBCMTD:undname.obj
 0001:00067d98       $LN65                      00468d98     LIBCMTD:undname.obj
 0001:00067da0       $LN61                      00468da0     LIBCMTD:undname.obj
 0001:000680d8       $LN28                      004690d8     LIBCMTD:undname.obj
 0001:000680ec       $LN26                      004690ec     LIBCMTD:undname.obj
 0001:00068130       $LN29                      00469130     LIBCMTD:undname.obj
 0001:00068154       $LN27                      00469154     LIBCMTD:undname.obj
 0001:00068ac4       $LN40                      00469ac4     LIBCMTD:undname.obj
 0001:00068adc       $LN39                      00469adc     LIBCMTD:undname.obj
 0001:00069834       $LN35                      0046a834     LIBCMTD:undname.obj
 0001:0006985c       $LN34                      0046a85c     LIBCMTD:undname.obj
 0001:000698b4       $LN36                      0046a8b4     LIBCMTD:undname.obj
 0001:0006a4a4       $LN118                     0046b4a4     LIBCMTD:undname.obj
 0001:0006a4c0       $LN119                     0046b4c0     LIBCMTD:undname.obj
 0001:0006a4e8       $LN116                     0046b4e8     LIBCMTD:undname.obj
 0001:0006a53c       $LN120                     0046b53c     LIBCMTD:undname.obj
 0001:0006a550       $LN117                     0046b550     LIBCMTD:undname.obj
 0001:0006a5a4       $LN121                     0046b5a4     LIBCMTD:undname.obj
 0001:0006afe0       ?und_memcpy@@YAXPADPBDI@Z  0046bfe0 f   LIBCMTD:undname.obj
 0001:0006b020       ?und_strlen@@YAIPBD@Z      0046c020 f   LIBCMTD:undname.obj
 0001:0006b060       ?und_strncmp@@YAIPBD0I@Z   0046c060 f   LIBCMTD:undname.obj
 0001:0006c06c       $LN137                     0046d06c     LIBCMTD:wstrgtold.obj
 0001:0006c09c       $LN138                     0046d09c     LIBCMTD:wstrgtold.obj
 0001:0006c0ac       $LN134                     0046d0ac     LIBCMTD:wstrgtold.obj
 0001:0006c0e8       $LN139                     0046d0e8     LIBCMTD:wstrgtold.obj
 0001:0006c0f4       $LN135                     0046d0f4     LIBCMTD:wstrgtold.obj
 0001:0006c130       $LN140                     0046d130     LIBCMTD:wstrgtold.obj
 0001:0006c13c       $LN136                     0046d13c     LIBCMTD:wstrgtold.obj
 0001:0006c7e0       __unwindfunclet$?getSystemCP@@YAHH@Z$0 0046d7e0 f   LIBCMTD:mbctype.obj
 0001:0006c7e8       __ehhandler$?getSystemCP@@YAHH@Z 0046d7e8 f   LIBCMTD:mbctype.obj
 0001:0006c810       __unwindfunclet$?strtoxq@@YA_KPAUlocaleinfo_struct@@PBDPAPBDHH@Z$0 0046d810 f   LIBCMTD:strtoq.obj
 0001:0006c818       __ehhandler$?strtoxq@@YA_KPAUlocaleinfo_struct@@PBDPAPBDHH@Z 0046d818 f   LIBCMTD:strtoq.obj
 0001:0006c840       __unwindfunclet$?strtoxl@@YAKPAUlocaleinfo_struct@@PBDPAPBDHH@Z$0 0046d840 f   LIBCMTD:strtol.obj
 0001:0006c848       __ehhandler$?strtoxl@@YAKPAUlocaleinfo_struct@@PBDPAPBDHH@Z 0046d848 f   LIBCMTD:strtol.obj
 0001:0006c870       __unwindfunclet$?x_ismbbtype_l@@YAHPAUlocaleinfo_struct@@IHH@Z$0 0046d870 f   LIBCMTD:ismbbyte.obj
 0001:0006c878       __ehhandler$?x_ismbbtype_l@@YAHPAUlocaleinfo_struct@@IHH@Z 0046d878 f   LIBCMTD:ismbbyte.obj
 0001:0006c8a0       __ehhandler$?CallUnexpected@@YAXPBU_s_ESTypeList@@@Z 0046d8a0 f   LIBCMTD:frame.obj
 0001:0006c8c0       __unwindfunclet$?wcstoxq@@YA_KPAUlocaleinfo_struct@@PB_WPAPB_WHH@Z$0 0046d8c0 f   LIBCMTD:wcstoq.obj
 0001:0006c8c8       __ehhandler$?wcstoxq@@YA_KPAUlocaleinfo_struct@@PB_WPAPB_WHH@Z 0046d8c8 f   LIBCMTD:wcstoq.obj
 0001:0006c8f0       __unwindfunclet$?make@DNameStatusNode@@SAPAV1@W4DNameStatus@@@Z$0 0046d8f0 f   LIBCMTD:undname.obj
 0001:0006c8fe       __ehhandler$?make@DNameStatusNode@@SAPAV1@W4DNameStatus@@@Z 0046d8fe f   LIBCMTD:undname.obj
 0002:0000017c       _pinit                     0046e17c     LIBCMTD:_file.obj
 0002:00000180       _pinit                     0046e180     LIBCMTD:onexit.obj
 0002:00000184       _pinit                     0046e184     LIBCMTD:mbctype.obj
 0002:00000188       _pinit                     0046e188     LIBCMTD:cpu_disp.obj
 0002:0000018c       _pinit                     0046e18c     LIBCMTD:mathfcns.obj
 0002:00000190       _pinit                     0046e190     LIBCMTD:crt0.obj
 0002:0000019c       _pterm                     0046e19c     LIBCMTD:wsetloca.obj
 0002:000001a0       _pterm                     0046e1a0     LIBCMTD:initcon.obj
 0002:000001a4       _pterm                     0046e1a4     LIBCMTD:_file.obj
 0002:000001f8       $SG101964                  0046e1f8     ac3dgroup.obj
 0002:0000020c       $SG101966                  0046e20c     ac3dgroup.obj
 0002:00000220       $SG101968                  0046e220     ac3dgroup.obj
 0002:00000234       $SG101970                  0046e234     ac3dgroup.obj
 0002:00000248       $SG101971                  0046e248     ac3dgroup.obj
 0002:00000260       $SG101972                  0046e260     ac3dgroup.obj
 0002:00000278       $SG101978                  0046e278     ac3dgroup.obj
 0002:00000280       $SG101980                  0046e280     ac3dgroup.obj
 0002:00000288       $SG101983                  0046e288     ac3dgroup.obj
 0002:00000290       $SG101989                  0046e290     ac3dgroup.obj
 0002:00000298       $SG101991                  0046e298     ac3dgroup.obj
 0002:000002a0       $SG101994                  0046e2a0     ac3dgroup.obj
 0002:000002a8       $SG102002                  0046e2a8     ac3dgroup.obj
 0002:000002dc       $SG102003                  0046e2dc     ac3dgroup.obj
 0002:000002f8       $SG102009                  0046e2f8     ac3dgroup.obj
 0002:00000300       $SG102011                  0046e300     ac3dgroup.obj
 0002:00000308       $SG102014                  0046e308     ac3dgroup.obj
 0002:00000310       $SG102021                  0046e310     ac3dgroup.obj
 0002:00000318       $SG102023                  0046e318     ac3dgroup.obj
 0002:00000320       $SG102026                  0046e320     ac3dgroup.obj
 0002:00000328       $SG102034                  0046e328     ac3dgroup.obj
 0002:0000034c       $SG102035                  0046e34c     ac3dgroup.obj
 0002:0000035c       $SG102041                  0046e35c     ac3dgroup.obj
 0002:00000364       $SG102043                  0046e364     ac3dgroup.obj
 0002:0000036c       $SG102045                  0046e36c     ac3dgroup.obj
 0002:00000374       $SG102046                  0046e374     ac3dgroup.obj
 0002:0000037c       $SG102047                  0046e37c     ac3dgroup.obj
 0002:0000038c       $SG102049                  0046e38c     ac3dgroup.obj
 0002:000003c8       $SG102057                  0046e3c8     ac3dgroup.obj
 0002:000003d0       $SG102059                  0046e3d0     ac3dgroup.obj
 0002:000003d8       $SG102061                  0046e3d8     ac3dgroup.obj
 0002:000003e0       $SG102062                  0046e3e0     ac3dgroup.obj
 0002:000003e8       $SG102063                  0046e3e8     ac3dgroup.obj
 0002:00000408       $SG102069                  0046e408     ac3dgroup.obj
 0002:00000410       $SG102071                  0046e410     ac3dgroup.obj
 0002:00000418       $SG102073                  0046e418     ac3dgroup.obj
 0002:00000420       $SG102080                  0046e420     ac3dgroup.obj
 0002:00000428       $SG102081                  0046e428     ac3dgroup.obj
 0002:00000430       $SG102082                  0046e430     ac3dgroup.obj
 0002:00000438       $SG102083                  0046e438     ac3dgroup.obj
 0002:00000440       $SG102084                  0046e440     ac3dgroup.obj
 0002:00000448       $SG102085                  0046e448     ac3dgroup.obj
 0002:00000450       $SG102086                  0046e450     ac3dgroup.obj
 0002:00000458       $SG102087                  0046e458     ac3dgroup.obj
 0002:00000460       $SG102088                  0046e460     ac3dgroup.obj
 0002:00000468       $SG102089                  0046e468     ac3dgroup.obj
 0002:00000470       $SG102091                  0046e470     ac3dgroup.obj
 0002:00000494       $SG102093                  0046e494     ac3dgroup.obj
 0002:000004b0       $SG102094                  0046e4b0     ac3dgroup.obj
 0002:000004dc       $SG102102                  0046e4dc     ac3dgroup.obj
 0002:000004f4       $SG102108                  0046e4f4     ac3dgroup.obj
 0002:000004fc       $SG102109                  0046e4fc     ac3dgroup.obj
 0002:0000051c       $SG102111                  0046e51c     ac3dgroup.obj
 0002:00000524       $SG102112                  0046e524     ac3dgroup.obj
 0002:00000544       $SG102114                  0046e544     ac3dgroup.obj
 0002:0000054c       $SG102115                  0046e54c     ac3dgroup.obj
 0002:0000056c       $SG102117                  0046e56c     ac3dgroup.obj
 0002:00000574       $SG102118                  0046e574     ac3dgroup.obj
 0002:00000594       $SG102120                  0046e594     ac3dgroup.obj
 0002:000005b4       $SG102123                  0046e5b4     ac3dgroup.obj
 0002:000005d4       $SG102126                  0046e5d4     ac3dgroup.obj
 0002:000005f4       $SG102128                  0046e5f4     ac3dgroup.obj
 0002:0000061c       $SG102130                  0046e61c     ac3dgroup.obj
 0002:0000062c       $SG102131                  0046e62c     ac3dgroup.obj
 0002:00000644       $SG102132                  0046e644     ac3dgroup.obj
 0002:0000065c       $SG102133                  0046e65c     ac3dgroup.obj
 0002:00000674       $SG102134                  0046e674     ac3dgroup.obj
 0002:0000068c       $SG102135                  0046e68c     ac3dgroup.obj
 0002:000006a4       $SG102143                  0046e6a4     ac3dgroup.obj
 0002:000006c4       $SG102145                  0046e6c4     ac3dgroup.obj
 0002:000006c8       $SG102146                  0046e6c8     ac3dgroup.obj
 0002:000006dc       $SG102147                  0046e6dc     ac3dgroup.obj
 0002:000006e4       $SG102152                  0046e6e4     ac3dgroup.obj
 0002:000006ec       $SG102155                  0046e6ec     ac3dgroup.obj
 0002:000006fc       $SG102156                  0046e6fc     ac3dgroup.obj
 0002:00000708       $SG102154                  0046e708     ac3dgroup.obj
 0002:00000780       $SG102161                  0046e780     ac3dgroup.obj
 0002:00000790       $SG102162                  0046e790     ac3dgroup.obj
 0002:000007a0       $SG102163                  0046e7a0     ac3dgroup.obj
 0002:000007ac       $SG102165                  0046e7ac     ac3dgroup.obj
 0002:000007bc       $SG102166                  0046e7bc     ac3dgroup.obj
 0002:000007d0       $SG102167                  0046e7d0     ac3dgroup.obj
 0002:000007dc       $SG102168                  0046e7dc     ac3dgroup.obj
 0002:000007f8       $SG102172                  0046e7f8     ac3dgroup.obj
 0002:000007fc       $SG102174                  0046e7fc     ac3dgroup.obj
 0002:0000080c       $SG102175                  0046e80c     ac3dgroup.obj
 0002:00000820       $SG102176                  0046e820     ac3dgroup.obj
 0002:0000082c       $SG102177                  0046e82c     ac3dgroup.obj
 0002:00000848       $SG102181                  0046e848     ac3dgroup.obj
 0002:0000084c       $SG102183                  0046e84c     ac3dgroup.obj
 0002:0000085c       $SG102184                  0046e85c     ac3dgroup.obj
 0002:00000870       $SG102185                  0046e870     ac3dgroup.obj
 0002:0000087c       $SG102186                  0046e87c     ac3dgroup.obj
 0002:00000898       $SG102190                  0046e898     ac3dgroup.obj
 0002:0000089c       $SG102191                  0046e89c     ac3dgroup.obj
 0002:000008ac       $SG102192                  0046e8ac     ac3dgroup.obj
 0002:000008c0       $SG102193                  0046e8c0     ac3dgroup.obj
 0002:000008cc       $SG102194                  0046e8cc     ac3dgroup.obj
 0002:000008e8       $SG102198                  0046e8e8     ac3dgroup.obj
 0002:000008ec       $SG102225                  0046e8ec     ac3dgroup.obj
 0002:00000920       $SG103435                  0046e920     ac3dload.obj
 0002:0000093c       $SG103438                  0046e93c     ac3dload.obj
 0002:00000964       $SG103442                  0046e964     ac3dload.obj
 0002:0000098c       $SG103446                  0046e98c     ac3dload.obj
 0002:000009b4       $SG103454                  0046e9b4     ac3dload.obj
 0002:000009b8       $SG102435                  0046e9b8     ac3dload.obj
 0002:000009c0       $SG102438                  0046e9c0     ac3dload.obj
 0002:000009dc       $SG103465                  0046e9dc     ac3dload.obj
 0002:000009f0       $SG103466                  0046e9f0     ac3dload.obj
 0002:000009fc       $SG103474                  0046e9fc     ac3dload.obj
 0002:00000a08       $SG102455                  0046ea08     ac3dload.obj
 0002:00000a0c       $SG102457                  0046ea0c     ac3dload.obj
 0002:00000a28       $SG102458                  0046ea28     ac3dload.obj
 0002:00000a2c       $SG103484                  0046ea2c     ac3dload.obj
 0002:00000a38       $SG103486                  0046ea38     ac3dload.obj
 0002:00000a44       $SG103487                  0046ea44     ac3dload.obj
 0002:00000a4c       $SG103488                  0046ea4c     ac3dload.obj
 0002:00000a58       $SG103490                  0046ea58     ac3dload.obj
 0002:00000a68       $SG103492                  0046ea68     ac3dload.obj
 0002:00000a78       $SG103494                  0046ea78     ac3dload.obj
 0002:00000a84       $SG103496                  0046ea84     ac3dload.obj
 0002:00000a90       $SG103498                  0046ea90     ac3dload.obj
 0002:00000a9c       $SG103499                  0046ea9c     ac3dload.obj
 0002:00000aa0       $SG103501                  0046eaa0     ac3dload.obj
 0002:00000ab0       $SG102478                  0046eab0     ac3dload.obj
 0002:00000ab8       $SG103503                  0046eab8     ac3dload.obj
 0002:00000ac8       $SG103505                  0046eac8     ac3dload.obj
 0002:00000ad4       $SG103507                  0046ead4     ac3dload.obj
 0002:00000ae0       $SG103509                  0046eae0     ac3dload.obj
 0002:00000aec       $SG103510                  0046eaec     ac3dload.obj
 0002:00000af0       $SG102491                  0046eaf0     ac3dload.obj
 0002:00000b0c       $SG103519                  0046eb0c     ac3dload.obj
 0002:00000b1c       $SG102497                  0046eb1c     ac3dload.obj
 0002:00000b38       $SG102495                  0046eb38     ac3dload.obj
 0002:00000b84       $SG103521                  0046eb84     ac3dload.obj
 0002:00000b94       $SG103523                  0046eb94     ac3dload.obj
 0002:00000ba0       $SG103525                  0046eba0     ac3dload.obj
 0002:00000bac       $SG102501                  0046ebac     ac3dload.obj
 0002:00000bb4       $SG102502                  0046ebb4     ac3dload.obj
 0002:00000bbc       $SG103527                  0046ebbc     ac3dload.obj
 0002:00000bc8       $SG102503                  0046ebc8     ac3dload.obj
 0002:00000bd0       $SG103528                  0046ebd0     ac3dload.obj
 0002:00000bd4       $SG102504                  0046ebd4     ac3dload.obj
 0002:00000bdc       $SG102505                  0046ebdc     ac3dload.obj
 0002:00000be4       $SG102506                  0046ebe4     ac3dload.obj
 0002:00000bec       $SG102507                  0046ebec     ac3dload.obj
 0002:00000bf4       $SG102508                  0046ebf4     ac3dload.obj
 0002:00000bfc       $SG102518                  0046ebfc     ac3dload.obj
 0002:00000c18       $SG103533                  0046ec18     ac3dload.obj
 0002:00000c6c       $SG102509                  0046ec6c     ac3dload.obj
 0002:00000c74       $SG102510                  0046ec74     ac3dload.obj
 0002:00000c7c       $SG102511                  0046ec7c     ac3dload.obj
 0002:00000c84       $SG102522                  0046ec84     ac3dload.obj
 0002:00000c8c       $SG102526                  0046ec8c     ac3dload.obj
 0002:00000cc8       $SG103536                  0046ecc8     ac3dload.obj
 0002:00000d1c       $SG102512                  0046ed1c     ac3dload.obj
 0002:00000d24       $SG102513                  0046ed24     ac3dload.obj
 0002:00000d2c       $SG102514                  0046ed2c     ac3dload.obj
 0002:00000d34       $SG102515                  0046ed34     ac3dload.obj
 0002:00000d3c       $SG102516                  0046ed3c     ac3dload.obj
 0002:00000d44       $SG102517                  0046ed44     ac3dload.obj
 0002:00000d4c       $SG102523                  0046ed4c     ac3dload.obj
 0002:00000d54       $SG102524                  0046ed54     ac3dload.obj
 0002:00000d5c       $SG102525                  0046ed5c     ac3dload.obj
 0002:00000d64       $SG103551                  0046ed64     ac3dload.obj
 0002:00000d68       $SG103552                  0046ed68     ac3dload.obj
 0002:00000d7c       $SG102530                  0046ed7c     ac3dload.obj
 0002:00000db8       $SG103557                  0046edb8     ac3dload.obj
 0002:00000dc0       $SG103559                  0046edc0     ac3dload.obj
 0002:00000e20       $SG103565                  0046ee20     ac3dload.obj
 0002:00000e28       $SG102542                  0046ee28     ac3dload.obj
 0002:00000e2c       $SG103567                  0046ee2c     ac3dload.obj
 0002:00000e34       $SG102544                  0046ee34     ac3dload.obj
 0002:00000e50       $SG102546                  0046ee50     ac3dload.obj
 0002:00000e54       $SG103571                  0046ee54     ac3dload.obj
 0002:00000e64       $SG102547                  0046ee64     ac3dload.obj
 0002:00000e68       $SG102550                  0046ee68     ac3dload.obj
 0002:00000e6c       $SG102551                  0046ee6c     ac3dload.obj
 0002:00000e78       $SG102553                  0046ee78     ac3dload.obj
 0002:00000e84       $SG102554                  0046ee84     ac3dload.obj
 0002:00000e8c       $SG102562                  0046ee8c     ac3dload.obj
 0002:00000e90       $SG103587                  0046ee90     ac3dload.obj
 0002:00000ebc       $SG103588                  0046eebc     ac3dload.obj
 0002:00000ec0       $SG102564                  0046eec0     ac3dload.obj
 0002:00000edc       $SG102566                  0046eedc     ac3dload.obj
 0002:00000ee8       $SG102567                  0046eee8     ac3dload.obj
 0002:00000eec       $SG102568                  0046eeec     ac3dload.obj
 0002:00000f20       $SG102569                  0046ef20     ac3dload.obj
 0002:00000f34       $SG103594                  0046ef34     ac3dload.obj
 0002:00000f3c       $SG103596                  0046ef3c     ac3dload.obj
 0002:00000f44       $SG103600                  0046ef44     ac3dload.obj
 0002:00000f54       $SG102576                  0046ef54     ac3dload.obj
 0002:00000f58       $SG102578                  0046ef58     ac3dload.obj
 0002:00000f70       $SG102579                  0046ef70     ac3dload.obj
 0002:00000f7c       $SG103606                  0046ef7c     ac3dload.obj
 0002:00000f84       $SG103608                  0046ef84     ac3dload.obj
 0002:00000f8c       $SG102586                  0046ef8c     ac3dload.obj
 0002:00000f90       $SG103612                  0046ef90     ac3dload.obj
 0002:00000fa0       $SG102588                  0046efa0     ac3dload.obj
 0002:00000fb8       $SG103618                  0046efb8     ac3dload.obj
 0002:00000fc0       $SG103620                  0046efc0     ac3dload.obj
 0002:00000fc8       $SG103624                  0046efc8     ac3dload.obj
 0002:00000fd8       $SG103625                  0046efd8     ac3dload.obj
 0002:00000fe0       $SG102601                  0046efe0     ac3dload.obj
 0002:00000fe4       $SG103626                  0046efe4     ac3dload.obj
 0002:00000fec       $SG103627                  0046efec     ac3dload.obj
 0002:00000ffc       $SG102603                  0046effc     ac3dload.obj
 0002:00001018       $SG102604                  0046f018     ac3dload.obj
 0002:0000101c       $SG102605                  0046f01c     ac3dload.obj
 0002:00001020       $SG102608                  0046f020     ac3dload.obj
 0002:00001024       $SG103633                  0046f024     ac3dload.obj
 0002:0000102c       $SG103635                  0046f02c     ac3dload.obj
 0002:00001034       $SG103636                  0046f034     ac3dload.obj
 0002:00001050       $SG102616                  0046f050     ac3dload.obj
 0002:00001054       $SG102618                  0046f054     ac3dload.obj
 0002:00001070       $SG102619                  0046f070     ac3dload.obj
 0002:00001078       $SG103644                  0046f078     ac3dload.obj
 0002:00001098       $SG103645                  0046f098     ac3dload.obj
 0002:000010a0       $SG102626                  0046f0a0     ac3dload.obj
 0002:000010a4       $SG102628                  0046f0a4     ac3dload.obj
 0002:000010c0       $SG102629                  0046f0c0     ac3dload.obj
 0002:000010c4       $SG102638                  0046f0c4     ac3dload.obj
 0002:000010c8       $SG102640                  0046f0c8     ac3dload.obj
 0002:000010e4       $SG103665                  0046f0e4     ac3dload.obj
 0002:000010ec       $SG102641                  0046f0ec     ac3dload.obj
 0002:000010f0       $SG103667                  0046f0f0     ac3dload.obj
 0002:000010f8       $SG102647                  0046f0f8     ac3dload.obj
 0002:00001108       $SG102659                  0046f108     ac3dload.obj
 0002:00001114       $SG103684                  0046f114     ac3dload.obj
 0002:0000111c       $SG103686                  0046f11c     ac3dload.obj
 0002:00001124       $SG102666                  0046f124     ac3dload.obj
 0002:00001128       $SG102668                  0046f128     ac3dload.obj
 0002:00001144       $SG102669                  0046f144     ac3dload.obj
 0002:00001148       $SG102676                  0046f148     ac3dload.obj
 0002:0000114c       $SG102678                  0046f14c     ac3dload.obj
 0002:00001164       $SG102679                  0046f164     ac3dload.obj
 0002:00001168       $SG103710                  0046f168     ac3dload.obj
 0002:00001170       $SG102686                  0046f170     ac3dload.obj
 0002:00001174       $SG103712                  0046f174     ac3dload.obj
 0002:0000117c       $SG102688                  0046f17c     ac3dload.obj
 0002:00001198       $SG102689                  0046f198     ac3dload.obj
 0002:0000119c       $SG102691                  0046f19c     ac3dload.obj
 0002:000011b0       $SG103723                  0046f1b0     ac3dload.obj
 0002:000011b8       $SG103725                  0046f1b8     ac3dload.obj
 0002:000011c0       $SG102706                  0046f1c0     ac3dload.obj
 0002:000011c4       $SG102707                  0046f1c4     ac3dload.obj
 0002:000011d8       $SG102709                  0046f1d8     ac3dload.obj
 0002:00001200       $SG102711                  0046f200     ac3dload.obj
 0002:00001208       $SG102712                  0046f208     ac3dload.obj
 0002:00001210       $SG102713                  0046f210     ac3dload.obj
 0002:00001224       $SG102720                  0046f224     ac3dload.obj
 0002:0000122c       $SG102721                  0046f22c     ac3dload.obj
 0002:00001234       $SG102722                  0046f234     ac3dload.obj
 0002:0000124c       $SG102731                  0046f24c     ac3dload.obj
 0002:00001250       $SG102738                  0046f250     ac3dload.obj
 0002:00001264       $SG103765                  0046f264     ac3dload.obj
 0002:0000126c       $SG103767                  0046f26c     ac3dload.obj
 0002:00001274       $SG103782                  0046f274     ac3dload.obj
 0002:0000127c       $SG103784                  0046f27c     ac3dload.obj
 0002:00001284       $SG102760                  0046f284     ac3dload.obj
 0002:00001288       $SG102761                  0046f288     ac3dload.obj
 0002:0000129c       $SG102763                  0046f29c     ac3dload.obj
 0002:000012c4       $SG102765                  0046f2c4     ac3dload.obj
 0002:000012cc       $SG102766                  0046f2cc     ac3dload.obj
 0002:000012d4       $SG102767                  0046f2d4     ac3dload.obj
 0002:000012e8       $SG102774                  0046f2e8     ac3dload.obj
 0002:000012f0       $SG102775                  0046f2f0     ac3dload.obj
 0002:000012f8       $SG102776                  0046f2f8     ac3dload.obj
 0002:00001310       $SG103807                  0046f310     ac3dload.obj
 0002:00001318       $SG103809                  0046f318     ac3dload.obj
 0002:00001320       $SG102785                  0046f320     ac3dload.obj
 0002:00001324       $SG102792                  0046f324     ac3dload.obj
 0002:00001338       $SG102793                  0046f338     ac3dload.obj
 0002:0000135c       $SG103823                  0046f35c     ac3dload.obj
 0002:00001364       $SG103825                  0046f364     ac3dload.obj
 0002:0000136c       $SG102805                  0046f36c     ac3dload.obj
 0002:0000137c       $SG102806                  0046f37c     ac3dload.obj
 0002:00001388       $SG102809                  0046f388     ac3dload.obj
 0002:0000139c       $SG102811                  0046f39c     ac3dload.obj
 0002:000013b0       $SG102813                  0046f3b0     ac3dload.obj
 0002:000013d8       $SG102815                  0046f3d8     ac3dload.obj
 0002:000013ec       $SG102817                  0046f3ec     ac3dload.obj
 0002:00001414       $SG102819                  0046f414     ac3dload.obj
 0002:00001428       $SG102821                  0046f428     ac3dload.obj
 0002:00001450       $SG103846                  0046f450     ac3dload.obj
 0002:00001458       $SG102823                  0046f458     ac3dload.obj
 0002:00001468       $SG103848                  0046f468     ac3dload.obj
 0002:00001470       $SG102824                  0046f470     ac3dload.obj
 0002:0000147c       $SG102831                  0046f47c     ac3dload.obj
 0002:00001498       $SG102833                  0046f498     ac3dload.obj
 0002:000014a8       $SG102835                  0046f4a8     ac3dload.obj
 0002:000014b4       $SG103863                  0046f4b4     ac3dload.obj
 0002:000014bc       $SG102840                  0046f4bc     ac3dload.obj
 0002:000014c8       $SG103865                  0046f4c8     ac3dload.obj
 0002:000014d0       $SG103866                  0046f4d0     ac3dload.obj
 0002:000014ec       $SG102842                  0046f4ec     ac3dload.obj
 0002:000014f8       $SG102843                  0046f4f8     ac3dload.obj
 0002:00001500       $SG102844                  0046f500     ac3dload.obj
 0002:00001508       $SG102846                  0046f508     ac3dload.obj
 0002:00001518       $SG102847                  0046f518     ac3dload.obj
 0002:00001528       $SG102848                  0046f528     ac3dload.obj
 0002:00001538       $SG102850                  0046f538     ac3dload.obj
 0002:00001548       $SG102852                  0046f548     ac3dload.obj
 0002:00001554       $SG102854                  0046f554     ac3dload.obj
 0002:00001560       $SG102856                  0046f560     ac3dload.obj
 0002:0000156c       $SG102857                  0046f56c     ac3dload.obj
 0002:00001570       $SG102858                  0046f570     ac3dload.obj
 0002:00001580       $SG102860                  0046f580     ac3dload.obj
 0002:0000158c       $SG102862                  0046f58c     ac3dload.obj
 0002:00001598       $SG103887                  0046f598     ac3dload.obj
 0002:000015a0       $SG102864                  0046f5a0     ac3dload.obj
 0002:000015ac       $SG103889                  0046f5ac     ac3dload.obj
 0002:000015b4       $SG102865                  0046f5b4     ac3dload.obj
 0002:000015b8       $SG102866                  0046f5b8     ac3dload.obj
 0002:000015c8       $SG102868                  0046f5c8     ac3dload.obj
 0002:000015d4       $SG102870                  0046f5d4     ac3dload.obj
 0002:000015e0       $SG102872                  0046f5e0     ac3dload.obj
 0002:000015ec       $SG102874                  0046f5ec     ac3dload.obj
 0002:000015fc       $SG102875                  0046f5fc     ac3dload.obj
 0002:00001600       $SG102877                  0046f600     ac3dload.obj
 0002:00001608       $SG103904                  0046f608     ac3dload.obj
 0002:00001610       $SG103906                  0046f610     ac3dload.obj
 0002:00001618       $SG103909                  0046f618     ac3dload.obj
 0002:00001634       $SG102893                  0046f634     ac3dload.obj
 0002:0000163c       $SG102895                  0046f63c     ac3dload.obj
 0002:00001644       $SG102897                  0046f644     ac3dload.obj
 0002:0000164c       $SG103928                  0046f64c     ac3dload.obj
 0002:00001650       $SG103929                  0046f650     ac3dload.obj
 0002:00001664       $SG103933                  0046f664     ac3dload.obj
 0002:0000166c       $SG103938                  0046f66c     ac3dload.obj
 0002:00001674       $SG103941                  0046f674     ac3dload.obj
 0002:00001684       $SG103943                  0046f684     ac3dload.obj
 0002:000016a8       $SG103940                  0046f6a8     ac3dload.obj
 0002:00001720       $SG103947                  0046f720     ac3dload.obj
 0002:00001724       $SG102925                  0046f724     ac3dload.obj
 0002:0000172c       $SG102927                  0046f72c     ac3dload.obj
 0002:00001734       $SG103957                  0046f734     ac3dload.obj
 0002:0000173c       $SG103959                  0046f73c     ac3dload.obj
 0002:00001744       $SG103960                  0046f744     ac3dload.obj
 0002:00001750       $SG102942                  0046f750     ac3dload.obj
 0002:00001758       $SG103967                  0046f758     ac3dload.obj
 0002:0000175c       $SG102944                  0046f75c     ac3dload.obj
 0002:00001764       $SG103975                  0046f764     ac3dload.obj
 0002:0000176c       $SG103977                  0046f76c     ac3dload.obj
 0002:00001774       $SG103986                  0046f774     ac3dload.obj
 0002:000017ac       $SG103995                  0046f7ac     ac3dload.obj
 0002:000017b4       $SG102972                  0046f7b4     ac3dload.obj
 0002:000017cc       $SG103997                  0046f7cc     ac3dload.obj
 0002:000017d4       $SG104001                  0046f7d4     ac3dload.obj
 0002:000017fc       $SG102978                  0046f7fc     ac3dload.obj
 0002:00001804       $SG104004                  0046f804     ac3dload.obj
 0002:00001808       $SG102980                  0046f808     ac3dload.obj
 0002:00001810       $SG104006                  0046f810     ac3dload.obj
 0002:0000182c       $SG104008                  0046f82c     ac3dload.obj
 0002:00001848       $SG104009                  0046f848     ac3dload.obj
 0002:00001850       $SG102989                  0046f850     ac3dload.obj
 0002:00001858       $SG102991                  0046f858     ac3dload.obj
 0002:00001860       $SG102994                  0046f860     ac3dload.obj
 0002:0000186c       $SG104022                  0046f86c     ac3dload.obj
 0002:00001888       $SG103000                  0046f888     ac3dload.obj
 0002:00001890       $SG103002                  0046f890     ac3dload.obj
 0002:00001898       $SG103005                  0046f898     ac3dload.obj
 0002:000018a4       $SG103019                  0046f8a4     ac3dload.obj
 0002:000018ac       $SG103021                  0046f8ac     ac3dload.obj
 0002:000018b4       $SG103032                  0046f8b4     ac3dload.obj
 0002:000018bc       $SG103034                  0046f8bc     ac3dload.obj
 0002:000018c4       $SG103037                  0046f8c4     ac3dload.obj
 0002:000018d0       $SG103043                  0046f8d0     ac3dload.obj
 0002:000018d8       $SG103045                  0046f8d8     ac3dload.obj
 0002:000018e0       $SG103048                  0046f8e0     ac3dload.obj
 0002:000018ec       $SG103057                  0046f8ec     ac3dload.obj
 0002:000018f4       $SG103059                  0046f8f4     ac3dload.obj
 0002:000018fc       $SG102046                  0046f8fc     ac3dload.obj
 0002:00001908       $SG104104                  0046f908     ac3dload.obj
 0002:0000190c       $SG104107                  0046f90c     ac3dload.obj
 0002:00001918       $SG104108                  0046f918     ac3dload.obj
 0002:0000191c       $SG104110                  0046f91c     ac3dload.obj
 0002:00001920       $SG104112                  0046f920     ac3dload.obj
 0002:0000192c       $SG104114                  0046f92c     ac3dload.obj
 0002:00001944       $SG104116                  0046f944     ac3dload.obj
 0002:00001948       $SG104118                  0046f948     ac3dload.obj
 0002:00001954       $SG104125                  0046f954     ac3dload.obj
 0002:0000195c       $SG104126                  0046f95c     ac3dload.obj
 0002:00001964       $SG103104                  0046f964     ac3dload.obj
 0002:00001968       $SG104129                  0046f968     ac3dload.obj
 0002:00001970       $SG103105                  0046f970     ac3dload.obj
 0002:00001984       $SG104133                  0046f984     ac3dload.obj
 0002:000019ac       $SG103110                  0046f9ac     ac3dload.obj
 0002:000019b4       $SG103115                  0046f9b4     ac3dload.obj
 0002:000019bc       $SG103118                  0046f9bc     ac3dload.obj
 0002:000019cc       $SG103120                  0046f9cc     ac3dload.obj
 0002:000019f0       $SG103117                  0046f9f0     ac3dload.obj
 0002:00001a68       $SG103124                  0046fa68     ac3dload.obj
 0002:00001a6c       $SG103135                  0046fa6c     ac3dload.obj
 0002:00001a74       $SG103139                  0046fa74     ac3dload.obj
 0002:00001a7c       $SG103141                  0046fa7c     ac3dload.obj
 0002:00001a84       $SG103142                  0046fa84     ac3dload.obj
 0002:00001a90       $SG103149                  0046fa90     ac3dload.obj
 0002:00001a98       $SG103151                  0046fa98     ac3dload.obj
 0002:00001aa0       $SG103160                  0046faa0     ac3dload.obj
 0002:00001ad8       $SG103166                  0046fad8     ac3dload.obj
 0002:00001ae0       $SG103168                  0046fae0     ac3dload.obj
 0002:00001ae8       $SG103170                  0046fae8     ac3dload.obj
 0002:00001af0       $SG103171                  0046faf0     ac3dload.obj
 0002:00001b0c       $SG102151                  0046fb0c     ac3dload.obj
 0002:00001b18       $SG102152                  0046fb18     ac3dload.obj
 0002:00001b20       $SG102153                  0046fb20     ac3dload.obj
 0002:00001b28       $SG102154                  0046fb28     ac3dload.obj
 0002:00001b30       $SG102155                  0046fb30     ac3dload.obj
 0002:00001b34       $SG102156                  0046fb34     ac3dload.obj
 0002:00001b3c       $SG103181                  0046fb3c     ac3dload.obj
 0002:00001b40       $SG102157                  0046fb40     ac3dload.obj
 0002:00001b48       $SG102158                  0046fb48     ac3dload.obj
 0002:00001b50       $SG102159                  0046fb50     ac3dload.obj
 0002:00001b58       $SG102160                  0046fb58     ac3dload.obj
 0002:00001b60       $SG102161                  0046fb60     ac3dload.obj
 0002:00001b68       $SG102162                  0046fb68     ac3dload.obj
 0002:00001b6c       $SG102163                  0046fb6c     ac3dload.obj
 0002:00001b74       $SG103188                  0046fb74     ac3dload.obj
 0002:00001b7c       $SG102164                  0046fb7c     ac3dload.obj
 0002:00001b84       $SG102165                  0046fb84     ac3dload.obj
 0002:00001b88       $SG103190                  0046fb88     ac3dload.obj
 0002:00001b90       $SG103193                  0046fb90     ac3dload.obj
 0002:00001b98       $SG103194                  0046fb98     ac3dload.obj
 0002:00001ba8       $SG103195                  0046fba8     ac3dload.obj
 0002:00001bb8       $SG103196                  0046fbb8     ac3dload.obj
 0002:00001bc4       $SG103197                  0046fbc4     ac3dload.obj
 0002:00001be0       $SG103202                  0046fbe0     ac3dload.obj
 0002:00001c08       $SG103205                  0046fc08     ac3dload.obj
 0002:00001c0c       $SG103207                  0046fc0c     ac3dload.obj
 0002:00001c28       $SG103209                  0046fc28     ac3dload.obj
 0002:00001c44       $SG103213                  0046fc44     ac3dload.obj
 0002:00001c54       $SG103229                  0046fc54     ac3dload.obj
 0002:00001c80       $SG103230                  0046fc80     ac3dload.obj
 0002:00001c88       $SG102207                  0046fc88     ac3dload.obj
 0002:00001c8c       $SG102209                  0046fc8c     ac3dload.obj
 0002:00001cac       $SG103247                  0046fcac     ac3dload.obj
 0002:00001cb0       $SG102210                  0046fcb0     ac3dload.obj
 0002:00001d08       $SG102223                  0046fd08     ac3dload.obj
 0002:00001d0c       $SG103248                  0046fd0c     ac3dload.obj
 0002:00001d20       $SG103249                  0046fd20     ac3dload.obj
 0002:00001d34       $SG102225                  0046fd34     ac3dload.obj
 0002:00001d50       $SG103250                  0046fd50     ac3dload.obj
 0002:00001d58       $SG102226                  0046fd58     ac3dload.obj
 0002:00001d5c       $SG103252                  0046fd5c     ac3dload.obj
 0002:00001d60       $SG103253                  0046fd60     ac3dload.obj
 0002:00001d74       $SG103258                  0046fd74     ac3dload.obj
 0002:00001d7c       $SG103265                  0046fd7c     ac3dload.obj
 0002:00001d84       $SG103267                  0046fd84     ac3dload.obj
 0002:00001d8c       $SG103270                  0046fd8c     ac3dload.obj
 0002:00001d9c       $SG103271                  0046fd9c     ac3dload.obj
 0002:00001dac       $SG103272                  0046fdac     ac3dload.obj
 0002:00001dbc       $SG103273                  0046fdbc     ac3dload.obj
 0002:00001dcc       $SG103274                  0046fdcc     ac3dload.obj
 0002:00001dd4       $SG103275                  0046fdd4     ac3dload.obj
 0002:00001de0       $SG103282                  0046fde0     ac3dload.obj
 0002:00001de8       $SG103284                  0046fde8     ac3dload.obj
 0002:00001df0       $SG102261                  0046fdf0     ac3dload.obj
 0002:00001e08       $SG102264                  0046fe08     ac3dload.obj
 0002:00001e28       $SG103293                  0046fe28     ac3dload.obj
 0002:00001e60       $SG103297                  0046fe60     ac3dload.obj
 0002:00001e70       $SG102280                  0046fe70     ac3dload.obj
 0002:00001e90       $SG102281                  0046fe90     ac3dload.obj
 0002:00001eb0       $SG103313                  0046feb0     ac3dload.obj
 0002:00001edc       $SG103314                  0046fedc     ac3dload.obj
 0002:00001ee0       $SG103320                  0046fee0     ac3dload.obj
 0002:00001ee8       $SG103322                  0046fee8     ac3dload.obj
 0002:00001ef0       $SG103326                  0046fef0     ac3dload.obj
 0002:00001f00       $SG103332                  0046ff00     ac3dload.obj
 0002:00001f08       $SG103334                  0046ff08     ac3dload.obj
 0002:00001f10       $SG103338                  0046ff10     ac3dload.obj
 0002:00001f20       $SG103344                  0046ff20     ac3dload.obj
 0002:00001f28       $SG103346                  0046ff28     ac3dload.obj
 0002:00001f30       $SG102323                  0046ff30     ac3dload.obj
 0002:00001f40       $SG103350                  0046ff40     ac3dload.obj
 0002:00001f50       $SG103351                  0046ff50     ac3dload.obj
 0002:00001f58       $SG103352                  0046ff58     ac3dload.obj
 0002:00001f60       $SG103353                  0046ff60     ac3dload.obj
 0002:00001f70       $SG103359                  0046ff70     ac3dload.obj
 0002:00001f78       $SG103361                  0046ff78     ac3dload.obj
 0002:00001f80       $SG103362                  0046ff80     ac3dload.obj
 0002:00001f9c       $SG103370                  0046ff9c     ac3dload.obj
 0002:00001fbc       $SG103371                  0046ffbc     ac3dload.obj
 0002:00001fc4       $SG103404                  0046ffc4     ac3dload.obj
 0002:00001fe8       $SG103405                  0046ffe8     ac3dload.obj
 0002:00001ff4       $SG103406                  0046fff4     ac3dload.obj
 0002:00001ff8       $SG103410                  0046fff8     ac3dload.obj
 0002:00002008       $SG103414                  00470008     ac3dload.obj
 0002:00002014       $SG103415                  00470014     ac3dload.obj
 0002:0000202c       $SG103416                  0047002c     ac3dload.obj
 0002:0000203c       $SG103417                  0047003c     ac3dload.obj
 0002:00002040       $SG103418                  00470040     ac3dload.obj
 0002:00002044       $SG103422                  00470044     ac3dload.obj
 0002:00002100       $SG101942                  00470100     mainaccc.obj
 0002:00002128       $SG101943                  00470128     mainaccc.obj
 0002:00002178       $SG101944                  00470178     mainaccc.obj
 0002:000021ac       $SG101945                  004701ac     mainaccc.obj
 0002:000021e4       $SG101946                  004701e4     mainaccc.obj
 0002:00002214       $SG101948                  00470214     mainaccc.obj
 0002:00002228       $SG101947                  00470228     mainaccc.obj
 0002:00002274       $SG101949                  00470274     mainaccc.obj
 0002:000022a4       $SG101958                  004702a4     mainaccc.obj
 0002:000022e0       $SG101950                  004702e0     mainaccc.obj
 0002:00002340       $SG101951                  00470340     mainaccc.obj
 0002:0000239c       $SG101956                  0047039c     mainaccc.obj
 0002:000023ac       $SG101961                  004703ac     mainaccc.obj
 0002:000023c4       $SG101963                  004703c4     mainaccc.obj
 0002:000023d8       $SG101952                  004703d8     mainaccc.obj
 0002:00002430       $SG101953                  00470430     mainaccc.obj
 0002:00002494       $SG101966                  00470494     mainaccc.obj
 0002:000024d0       $SG101954                  004704d0     mainaccc.obj
 0002:00002530       $SG101955                  00470530     mainaccc.obj
 0002:000025ac       $SG101957                  004705ac     mainaccc.obj
 0002:000025bc       $SG101968                  004705bc     mainaccc.obj
 0002:000025f4       $SG101970                  004705f4     mainaccc.obj
 0002:00002628       $SG101959                  00470628     mainaccc.obj
 0002:0000266c       $SG101965                  0047066c     mainaccc.obj
 0002:0000269c       $SG101971                  0047069c     mainaccc.obj
 0002:000026d0       $SG101960                  004706d0     mainaccc.obj
 0002:00002718       $SG101962                  00470718     mainaccc.obj
 0002:00002764       $SG101964                  00470764     mainaccc.obj
 0002:0000279c       $SG101974                  0047079c     mainaccc.obj
 0002:000027c8       $SG101967                  004707c8     mainaccc.obj
 0002:00002810       $SG101969                  00470810     mainaccc.obj
 0002:00002848       $SG101972                  00470848     mainaccc.obj
 0002:00002888       $SG101973                  00470888     mainaccc.obj
 0002:000028c0       $SG101981                  004708c0     mainaccc.obj
 0002:000028c4       $SG101984                  004708c4     mainaccc.obj
 0002:000028c8       $SG101987                  004708c8     mainaccc.obj
 0002:000028cc       $SG101990                  004708cc     mainaccc.obj
 0002:000028d0       $SG101993                  004708d0     mainaccc.obj
 0002:000028d4       $SG101994                  004708d4     mainaccc.obj
 0002:000028d8       $SG101997                  004708d8     mainaccc.obj
 0002:000028dc       $SG102000                  004708dc     mainaccc.obj
 0002:000028e4       $SG102003                  004708e4     mainaccc.obj
 0002:000028ec       $SG102006                  004708ec     mainaccc.obj
 0002:000028f0       $SG102014                  004708f0     mainaccc.obj
 0002:000028f4       $SG102016                  004708f4     mainaccc.obj
 0002:000028fc       $SG102018                  004708fc     mainaccc.obj
 0002:00002900       $SG102021                  00470900     mainaccc.obj
 0002:00002904       $SG102024                  00470904     mainaccc.obj
 0002:00002908       $SG102027                  00470908     mainaccc.obj
 0002:0000290c       $SG102030                  0047090c     mainaccc.obj
 0002:00002910       $SG102033                  00470910     mainaccc.obj
 0002:00002914       $SG102036                  00470914     mainaccc.obj
 0002:00002918       $SG102039                  00470918     mainaccc.obj
 0002:0000291c       $SG102046                  0047091c     mainaccc.obj
 0002:00002924       $SG102051                  00470924     mainaccc.obj
 0002:00002e98       _GS_ExceptionPointers      00470e98     LIBCMTD:gs_report.obj
 0002:0000347c       _szBlockUseName            0047147c     LIBCMTD:dbgheap.obj
 0002:000046ac       __CrtDbgModeMsg            004726ac     LIBCMTD:dbgrptw.obj
 0002:00004d94       ?ccsField@?P@??_openfile@@9@9 00472d94     LIBCMTD:_open.obj
 0002:00004d98       ?utf8encoding@?P@??_openfile@@9@9 00472d98     LIBCMTD:_open.obj
 0002:00004da0       ?utf16encoding@?P@??_openfile@@9@9 00472da0     LIBCMTD:_open.obj
 0002:00004dac       ?unicodeencoding@?P@??_openfile@@9@9 00472dac     LIBCMTD:_open.obj
 0002:000055d8       _rterrs                    004735d8     LIBCMTD:crt0msg.obj
 0002:0000666c       __mb_locale_names          0047466c     LIBCMTD:mbctype.obj
 0002:00006904       One                        00474904     LIBCMTD:87disp.obj
 0002:0000690c       XAMtoTagTab                0047490c     LIBCMTD:87disp.obj
 0002:00006920       One                        00474920     LIBCMTD:common.obj
 0002:00006934       DblMax                     00474934     LIBCMTD:common.obj
 0002:0000693c       DblMin                     0047493c     LIBCMTD:common.obj
 0002:00006944       IeeeAdjO                   00474944     LIBCMTD:common.obj
 0002:0000694c       IeeeAdjU                   0047494c     LIBCMTD:common.obj
 0002:00006954       _infinity                  00474954     LIBCMTD:common.obj
 0002:0000695c       _zero                      0047495c     LIBCMTD:common.obj
 0002:00006964       __RTC_ErrorMessages        00474964     LIBCMTD:error.obj
 0002:0000697c       __RTC_NoFalsePositives     0047497c     LIBCMTD:error.obj
 0002:00006994       _stack_premsg              00474994     LIBCMTD:error.obj
 0002:000069b0       _stack_postmsg             004749b0     LIBCMTD:error.obj
 0002:000069c4       _uninit_premsg             004749c4     LIBCMTD:error.obj
 0002:000069d4       _uninit_postmsg            004749d4     LIBCMTD:error.obj
 0002:00006f34       __RTC_errlist              00474f34     LIBCMTD:userapi.obj
 0002:000082f0       Ctable                     004762f0     LIBCMTD:cos_pentium4.obj
 0002:00008af0       SC_1                       00476af0     LIBCMTD:cos_pentium4.obj
 0002:00008b00       SC_2                       00476b00     LIBCMTD:cos_pentium4.obj
 0002:00008b10       SC_3                       00476b10     LIBCMTD:cos_pentium4.obj
 0002:00008b20       SC_4                       00476b20     LIBCMTD:cos_pentium4.obj
 0002:00008b30       PI32INV                    00476b30     LIBCMTD:cos_pentium4.obj
 0002:00008b38       SHIFTER                    00476b38     LIBCMTD:cos_pentium4.obj
 0002:00008b40       P_2                        00476b40     LIBCMTD:cos_pentium4.obj
 0002:00008b50       P_1                        00476b50     LIBCMTD:cos_pentium4.obj
 0002:00008b58       P_3                        00476b58     LIBCMTD:cos_pentium4.obj
 0002:00008b60       TWO_POW_55                 00476b60     LIBCMTD:cos_pentium4.obj
 0002:00008b68       TWO_POW_M55                00476b68     LIBCMTD:cos_pentium4.obj
 0002:00008b70       ALL_ONES                   00476b70     LIBCMTD:cos_pentium4.obj
 0002:00008b78       NEG_ZERO                   00476b78     LIBCMTD:cos_pentium4.obj
 0002:00008b80       ONE                        00476b80     LIBCMTD:cos_pentium4.obj
 0002:00008b90       SIGN_MASK                  00476b90     LIBCMTD:cos_pentium4.obj
 0002:000093ac       __CrtDbgModeMsg            004773ac     LIBCMTD:dbgrpt.obj
 0002:0000da28       __first_127char            0047ba28     LIBCMTD:wsetloca.obj
 0002:0000eb38       _msvcrdFilename            0047cb38     LIBCMTD:pdblkup.obj
 0002:0000eb54       _mspdbName                 0047cb54     LIBCMTD:pdblkup.obj
 0002:0000ec3c       ?dllExt@?1??GetPdbDllPathFromFilePath@@YAHPB_WPA_WI@Z@4QB_WB 0047cc3c     LIBCMTD:pdblkup.obj
 0002:0000ec44       ?mspdbFilename@?1??GetPdbDllPathFromFilePath@@YAHPB_WPA_WI@Z@4QB_WB 0047cc44     LIBCMTD:pdblkup.obj
 0002:00012dd8       ?ExceptionTemplate@?1??_CxxThrowException@@9@8@4UEHExceptionRecord@@B 00480dd8     LIBCMTD:throw.obj
 0002:00013220       _tokenTable                00481220     LIBCMTD:undname.obj
 0002:00013258       _nameTable                 00481258     LIBCMTD:undname.obj
 0002:00013398       _rttiTable                 00481398     LIBCMTD:undname.obj
 0002:00014378       __RTC_InitBase.rtc$IMZ     00482378     ac3dgroup.obj
 0002:0001437c       __RTC_InitBase.rtc$IMZ     0048237c     ac3dload.obj
 0002:00014380       __RTC_InitBase.rtc$IMZ     00482380     mainaccc.obj
 0002:0001438c       __RTC_Shutdown.rtc$TMZ     0048238c     ac3dgroup.obj
 0002:00014390       __RTC_Shutdown.rtc$TMZ     00482390     ac3dload.obj
 0002:00014394       __RTC_Shutdown.rtc$TMZ     00482394     mainaccc.obj
 0002:000143a0       __sehtable$__fsopen        004823a0     LIBCMTD:fopen.obj
 0002:000143c0       __sehtable$_fprintf        004823c0     LIBCMTD:fprintf.obj
 0002:000143e0       __sehtable$_printf         004823e0     LIBCMTD:printf.obj
 0002:00014400       __sehtable$_doexit         00482400     LIBCMTD:crt0dat.obj
 0002:00014420       __sehtable$_fclose         00482420     LIBCMTD:fclose.obj
 0002:00014440       __sehtable$_fgetc          00482440     LIBCMTD:fgetc.obj
 0002:00014460       __sehtable$_getc           00482460     LIBCMTD:fgetc.obj
 0002:00014480       __sehtable$_fgets          00482480     LIBCMTD:fgets.obj
 0002:000144a0       __sehtable$_vfscanf_fn     004824a0     LIBCMTD:fscanf.obj
 0002:000144c0       __sehtable$_rewind         004824c0     LIBCMTD:rewind.obj
 0002:000144e0       __sehtable$___tmainCRTStartup 004824e0     LIBCMTD:crt0.obj
 0002:00014500       __sehtable$__fcloseall     00482500     LIBCMTD:closeall.obj
 0002:00014520       __sehtable$_fflush         00482520     LIBCMTD:fflush.obj
 0002:00014540       __sehtable$_flsall         00482540     LIBCMTD:fflush.obj
 0002:00014568       __sehtable$__mtinitlocknum 00482568     LIBCMTD:mlock.obj
 0002:00014588       __sehtable$__realloc_dbg   00482588     LIBCMTD:dbgheap.obj
 0002:000145a8       __sehtable$__expand_dbg    004825a8     LIBCMTD:dbgheap.obj
 0002:000145c8       __sehtable$__free_dbg      004825c8     LIBCMTD:dbgheap.obj
 0002:000145e8       __sehtable$__msize_dbg     004825e8     LIBCMTD:dbgheap.obj
 0002:00014608       __sehtable$__CrtCheckMemory 00482608     LIBCMTD:dbgheap.obj
 0002:00014628       __sehtable$__CrtSetDbgFlag 00482628     LIBCMTD:dbgheap.obj
 0002:00014648       __sehtable$__CrtDoForAllClientObjects 00482648     LIBCMTD:dbgheap.obj
 0002:00014668       __sehtable$__CrtIsMemoryBlock 00482668     LIBCMTD:dbgheap.obj
 0002:00014688       __sehtable$__CrtMemCheckpoint 00482688     LIBCMTD:dbgheap.obj
 0002:000146a8       __sehtable$__CrtSetDbgBlockType 004826a8     LIBCMTD:dbgheap.obj
 0002:000146c8       __sehtable$__heap_alloc_dbg_impl 004826c8     LIBCMTD:dbgheap.obj
 0002:000146e8       __sehtable$?__crtIsBadReadPtr@@YAHPBXI@Z 004826e8     LIBCMTD:dbgheap.obj
 0002:00014708       __sehtable$?_CrtMemDumpAllObjectsSince_stat@@YAXPBU_CrtMemState@@PAUlocaleinfo_struct@@@Z 00482708     LIBCMTD:dbgheap.obj
 0002:00014728       __sehtable$__CrtSetReportHookW2 00482728     LIBCMTD:dbgrptw.obj
 0002:00014748       __sehtable$__getstream     00482748     LIBCMTD:stream.obj
 0002:00014768       __sehtable$_vfprintf_helper 00482768     LIBCMTD:vfprintf.obj
 0002:00014788       __sehtable$__ioinit        00482788     LIBCMTD:ioinit.obj
 0002:000147a8       __sehtable$_vprintf_helper 004827a8     LIBCMTD:vprintf.obj
 0002:000147c8       __sehtable$__IsNonwritableInCurrentImage 004827c8     LIBCMTD:pesect.obj
 0002:000147e8       __sehtable$__onexit        004827e8     LIBCMTD:onexit.obj
 0002:00014808       __sehtable$?terminate@@YAXXZ 00482808     LIBCMTD:hooks.obj
 0002:00014828       __sehtable$?_inconsistency@@YAXXZ 00482828     LIBCMTD:hooks.obj
 0002:00014848       __sehtable$_signal         00482848     LIBCMTD:winsig.obj
 0002:00014868       __sehtable$_raise          00482868     LIBCMTD:winsig.obj
 0002:00014888       __sehtable$_ctrlevent_capture@4 00482888     LIBCMTD:winsig.obj
 0002:000148a8       __sehtable$___updatetmbcinfo 004828a8     LIBCMTD:mbctype.obj
 0002:000148c8       __sehtable$__setmbcp       004828c8     LIBCMTD:mbctype.obj
 0002:000148e4       __unwindtable$?getSystemCP@@YAHH@Z 004828e4     LIBCMTD:mbctype.obj
 0002:000148ec       __ehfuncinfo$?getSystemCP@@YAHH@Z 004828ec     LIBCMTD:mbctype.obj
 0002:00014910       __unwindtable$?strtoxq@@YA_KPAUlocaleinfo_struct@@PBDPAPBDHH@Z 00482910     LIBCMTD:strtoq.obj
 0002:00014918       __ehfuncinfo$?strtoxq@@YA_KPAUlocaleinfo_struct@@PBDPAPBDHH@Z 00482918     LIBCMTD:strtoq.obj
 0002:0001493c       __unwindtable$?strtoxl@@YAKPAUlocaleinfo_struct@@PBDPAPBDHH@Z 0048293c     LIBCMTD:strtol.obj
 0002:00014944       __ehfuncinfo$?strtoxl@@YAKPAUlocaleinfo_struct@@PBDPAPBDHH@Z 00482944     LIBCMTD:strtol.obj
 0002:00014968       __sehtable$___set_fpsr_sse2 00482968     LIBCMTD:fpctrl.obj
 0002:00014988       __sehtable$?DebuggerProbe@@YAHK@Z 00482988     LIBCMTD:error.obj
 0002:000149a8       __sehtable$?DebuggerRuntime@@YAHKHPAXPB_W@Z 004829a8     LIBCMTD:error.obj
 0002:000149c8       __sehtable$__close         004829c8     LIBCMTD:close.obj
 0002:000149e8       __sehtable$__lseek         004829e8     LIBCMTD:lseek.obj
 0002:00014a08       __sehtable$__dupenv_s_dbg  00482a08     LIBCMTD:getenv.obj
 0002:00014a28       __sehtable$_getenv         00482a28     LIBCMTD:getenv.obj
 0002:00014a48       __sehtable$_getenv_s       00482a48     LIBCMTD:getenv.obj
 0002:00014a68       __sehtable$__freefls@4     00482a68     LIBCMTD:tidtable.obj
 0002:00014a90       __sehtable$__initptd       00482a90     LIBCMTD:tidtable.obj
 0002:00014ab8       __sehtable$__commit        00482ab8     LIBCMTD:commit.obj
 0002:00014ad8       __sehtable$__write         00482ad8     LIBCMTD:write.obj
 0002:00014af8       __sehtable$___updatetlocinfo 00482af8     LIBCMTD:localref.obj
 0002:00014b18       __sehtable$__CrtSetReportHook2 00482b18     LIBCMTD:dbgrpt.obj
 0002:00014b38       __sehtable$__VCrtDbgReportA 00482b38     LIBCMTD:dbgrptt.obj
 0002:00014b60       __sehtable$__VCrtDbgReportW 00482b60     LIBCMTD:dbgrptt.obj
 0002:00014b88       __sehtable$__sopen_helper  00482b88     LIBCMTD:open.obj
 0002:00014ba8       __sehtable$__open          00482ba8     LIBCMTD:open.obj
 0002:00014bc8       __sehtable$__get_current_locale 00482bc8     LIBCMTD:wsetloca.obj
 0002:00014bf0       __sehtable$__free_locale   00482bf0     LIBCMTD:wsetloca.obj
 0002:00014c18       __sehtable$__wsetlocale    00482c18     LIBCMTD:wsetloca.obj
 0002:00014c50       __sehtable$__locterm       00482c50     LIBCMTD:wsetloca.obj
 0002:00014c70       __sehtable$__alloc_osfhnd  00482c70     LIBCMTD:osfinfo.obj
 0002:00014c98       __sehtable$___lock_fhandle 00482c98     LIBCMTD:osfinfo.obj
 0002:00014cb8       __sehtable$__open_osfhandle 00482cb8     LIBCMTD:osfinfo.obj
 0002:00014cd8       __sehtable$__read          00482cd8     LIBCMTD:read.obj
 0002:00014cf8       __sehtable$_ungetc         00482cf8     LIBCMTD:ungetc.obj
 0002:00014d18       __sehtable$__lseeki64      00482d18     LIBCMTD:lseeki64.obj
 0002:00014d34       __unwindtable$?x_ismbbtype_l@@YAHPAUlocaleinfo_struct@@IHH@Z 00482d34     LIBCMTD:ismbbyte.obj
 0002:00014d3c       __ehfuncinfo$?x_ismbbtype_l@@YAHPAUlocaleinfo_struct@@IHH@Z 00482d3c     LIBCMTD:ismbbyte.obj
 0002:00014d60       __sehtable$__putwch        00482d60     LIBCMTD:putwch.obj
 0002:00014d80       __sehtable$__wsopen_helper 00482d80     LIBCMTD:wopen.obj
 0002:00014da0       __sehtable$__wopen         00482da0     LIBCMTD:wopen.obj
 0002:00014dc0       __sehtable$___FrameUnwindToState 00482dc0     LIBCMTD:frame.obj
 0002:00014de8       __sehtable$?CallCatchBlock@@YAPAXPAUEHExceptionRecord@@PAUEHRegistrationNode@@PAU_CONTEXT@@PBU_s_FuncInfo@@PAXHK@Z 00482de8     LIBCMTD:frame.obj
 0002:00014e10       __sehtable$___BuildCatchObject 00482e10     LIBCMTD:frame.obj
 0002:00014e30       __sehtable$___DestructExceptionObject 00482e30     LIBCMTD:frame.obj
 0002:00014e4c       __catchsym$?CallUnexpected@@YAXPBU_s_ESTypeList@@@Z$2 00482e4c     LIBCMTD:frame.obj
 0002:00014e5c       __unwindtable$?CallUnexpected@@YAXPBU_s_ESTypeList@@@Z 00482e5c     LIBCMTD:frame.obj
 0002:00014e6c       __tryblocktable$?CallUnexpected@@YAXPBU_s_ESTypeList@@@Z 00482e6c     LIBCMTD:frame.obj
 0002:00014e80       __ehfuncinfo$?CallUnexpected@@YAXPBU_s_ESTypeList@@@Z 00482e80     LIBCMTD:frame.obj
 0002:00014ea8       __sehtable$___BuildCatchObjectHelper 00482ea8     LIBCMTD:frame.obj
 0002:00014f18       __sehtable$_fputwc         00482f18     LIBCMTD:fputwc.obj
 0002:00014f38       __sehtable$__chsize_s      00482f38     LIBCMTD:chsize.obj
 0002:00014f58       __sehtable$__setmode       00482f58     LIBCMTD:setmode.obj
 0002:00014f78       __sehtable$??3@YAXPAX@Z    00482f78     LIBCMTD:dbgdel.obj
 0002:00014f98       __sehtable$?_Name_base@type_info@@CAPBDPBV1@PAU__type_info_node@@@Z 00482f98     LIBCMTD:typname.obj
 0002:00014fb8       __sehtable$?_Type_info_dtor@type_info@@CAXPAV1@@Z 00482fb8     LIBCMTD:typname.obj
 0002:00014fd8       __sehtable$?_Name_base_internal@type_info@@CAPBDPBV1@PAU__type_info_node@@@Z 00482fd8     LIBCMTD:typname.obj
 0002:00014ff8       __sehtable$?_Type_info_dtor_internal@type_info@@CAXPAV1@@Z 00482ff8     LIBCMTD:typname.obj
 0002:00015018       __sehtable$___clean_type_info_names_internal 00483018     LIBCMTD:typname.obj
 0002:00015034       __unwindtable$?wcstoxq@@YA_KPAUlocaleinfo_struct@@PB_WPAPB_WHH@Z 00483034     LIBCMTD:wcstoq.obj
 0002:0001503c       __ehfuncinfo$?wcstoxq@@YA_KPAUlocaleinfo_struct@@PB_WPAPB_WHH@Z 0048303c     LIBCMTD:wcstoq.obj
 0002:00015060       __sehtable$___unDName      00483060     LIBCMTD:undname.obj
 0002:00015080       __sehtable$___unDNameEx    00483080     LIBCMTD:undname.obj
 0002:0001509c       __unwindtable$?make@DNameStatusNode@@SAPAV1@W4DNameStatus@@@Z 0048309c     LIBCMTD:undname.obj
 0002:000150a4       __ehfuncinfo$?make@DNameStatusNode@@SAPAV1@W4DNameStatus@@@Z 004830a4     LIBCMTD:undname.obj
 0002:000158fc       .idata$6                   004838fc     kernel32:KERNEL32.dll
 0003:00000310       _NAME_                     00484310     LIBCMTD:sqrt.obj
 0003:00000320       _NAME_                     00484320     LIBCMTD:cos.obj
 0003:00000338       __locktable                00484338     LIBCMTD:mlock.obj
 0003:00000464       __lRequestCurr             00484464     LIBCMTD:dbgheap.obj
 0003:00000468       __bNoMansLandFill          00484468     LIBCMTD:dbgheap.obj
 0003:00000469       __bAlignLandFill           00484469     LIBCMTD:dbgheap.obj
 0003:0000046a       __bDeadLandFill            0048446a     LIBCMTD:dbgheap.obj
 0003:0000046b       __bCleanLandFill           0048446b     LIBCMTD:dbgheap.obj
 0003:0000046c       _dotdotdot                 0048446c     LIBCMTD:dbgrptw.obj
 0003:00000470       _errtable                  00484470     LIBCMTD:dosmap.obj
 0003:000005d8       _ErrnoNoMem                004845d8     LIBCMTD:dosmap.obj
 0003:000005dc       _DoserrorNoMem             004845dc     LIBCMTD:dosmap.obj
 0003:00000628       ?isPackaged@?1??__crtIsPackagedApp@@9@9 00484628     LIBCMTD:winapisupp.obj
 0003:00000a80       ___rgctypeflag             00484a80     LIBCMTD:mbctype.obj
 0003:00000a88       ___rgcode_page_info        00484a88     LIBCMTD:mbctype.obj
 0003:00000b78       ?_names@?1??_get_fname@@9@9 00484b78     LIBCMTD:fpexcept.obj
 0003:00000c88       _over                      00484c88     LIBCMTD:fpctrl.obj
 0003:00000c94       _under                     00484c94     LIBCMTD:fpctrl.obj
 0003:00000ca0       ?__DAZ_ENABLED@?1??__set_fpsr_sse2@@9@9 00484ca0     LIBCMTD:fpctrl.obj
 0003:00000cc8       _ext_strings               00484cc8     LIBCMTD:spawnve.obj
 0003:00000ce4       _dotdotdot                 00484ce4     LIBCMTD:dbgrpt.obj
 0003:00000f60       __ctype_loc_style          00484f60     LIBCMTD:wsetloca.obj
 0003:000010e8       _DoubleFormat              004850e8     LIBCMTD:intrncvt.obj
 0003:00001100       _FloatFormat               00485100     LIBCMTD:intrncvt.obj
 0003:009874e0       ___enable_percent_n        00e0b4e0     LIBCMTD:printf.obj
 0003:00987518       ?init@?1??_RTC_InitBase@@9@4_NA 00e0b518     LIBCMTD:init.obj
 0003:00987520       _GS_ExceptionRecord        00e0b520     LIBCMTD:gs_report.obj
 0003:00987570       _GS_ContextRecord          00e0b570     LIBCMTD:gs_report.obj
 0003:0098783c       _DebuggerWasPresent        00e0b83c     LIBCMTD:gs_report.obj
 0003:00987848       _lclcritsects              00e0b848     LIBCMTD:mlock.obj
 0003:009879b4       _check_frequency           00e0b9b4     LIBCMTD:dbgheap.obj
 0003:009879bc       _check_counter             00e0b9bc     LIBCMTD:dbgheap.obj
 0003:009879c0       __lTotalAlloc              00e0b9c0     LIBCMTD:dbgheap.obj
 0003:009879c4       __lCurAlloc                00e0b9c4     LIBCMTD:dbgheap.obj
 0003:009879c8       __lMaxAlloc                00e0b9c8     LIBCMTD:dbgheap.obj
 0003:009879cc       __pFirstBlock              00e0b9cc     LIBCMTD:dbgheap.obj
 0003:009879d0       __pLastBlock               00e0b9d0     LIBCMTD:dbgheap.obj
 0003:00987ae8       ?outmsg@?M@??_NMSG_WRITE@@9@9 00e0bae8     LIBCMTD:crt0msg.obj
 0003:0098811c       _ctrlc_action              00e0c11c     LIBCMTD:winsig.obj
 0003:00988120       _ctrlbreak_action          00e0c120     LIBCMTD:winsig.obj
 0003:00988124       _abort_action              00e0c124     LIBCMTD:winsig.obj
 0003:00988128       _term_action               00e0c128     LIBCMTD:winsig.obj
 0003:0098812c       _ConsoleCtrlHandler_Installed 00e0c12c     LIBCMTD:winsig.obj
 0003:00988130       _g_pfnRtlGenRandom         00e0c130     LIBCMTD:rand_s.obj
 0003:0098814c       _fSystemSet                00e0c14c     LIBCMTD:mbctype.obj
 0003:00988158       __RTC_ErrorReportFunc      00e0c158     LIBCMTD:userapi.obj
 0003:0098815c       __RTC_ErrorReportFuncW     00e0c15c     LIBCMTD:userapi.obj
 0003:00988170       ?_pgmname@?1??_setargv@@9@9 00e0c170     LIBCMTD:stdargv.obj
 0003:0098827c       ?pfnGetLastActivePopup@?1??__crtMessageBoxW@@9@9 00e0c27c     LIBCMTD:crtmboxw.obj
 0003:00988280       ?pfnGetProcessWindowStation@?1??__crtMessageBoxW@@9@9 00e0c280     LIBCMTD:crtmboxw.obj
 0003:00988284       ?pfnGetUserObjectInformation@?1??__crtMessageBoxW@@9@9 00e0c284     LIBCMTD:crtmboxw.obj
 0003:00988288       ?pfnMessageBox@?1??__crtMessageBoxW@@9@9 00e0c288     LIBCMTD:crtmboxw.obj
 0003:0098828c       ?pfnGetActiveWindow@?1??__crtMessageBoxW@@9@9 00e0c28c     LIBCMTD:crtmboxw.obj
 0003:00988294       ___crtCallProc             00e0c294     LIBCMTD:winapinls.obj
 0003:0098829c       _mspdb                     00e0c29c     LIBCMTD:pdblkup.obj
 0003:009882a0       ?alreadyTried@?1??GetPdbDll@@YAPAUHINSTANCE__@@XZ@4_NA 00e0c2a0     LIBCMTD:pdblkup.obj
 0003:009882a1       ?PDBOK@?BM@??_RTC_GetSrcLine@@YAHPAEPA_WKPAH1K@Z@4_NA 00e0c2a1     LIBCMTD:pdblkup.obj
 0003:009882b8       ___type_info_root_node     00e0c2b8     LIBCMTD:typname.obj
 0003:009882e8       _heap                      00e0c2e8     LIBCMTD:undname.obj
 0003:00988300       ?buf@?1??dbGetString@DName@@QBEPADXZ@4PADA 00e0c300     LIBCMTD:undname.obj
