 human

 Timestamp is 593049d8 (Thu Jun 01 18:07:36 2017)

 Preferred load address is 10000000

 Start         Length     Name                   Class
 0001:00000000 00000000H .text                   CODE
 0001:00000000 0000002cH .text$di                CODE
 0001:00000030 000152ccH .text$mn                CODE
 0001:00015300 00000025H .text$x                 CODE
 0001:00015330 0000002bH .text$yd                CODE
 0002:00000000 00000170H .idata$5                DATA
 0002:00000170 00000004H .CRT$XCA                DATA
 0002:00000174 0000000cH .CRT$XCU                DATA
 0002:00000180 00000004H .CRT$XCZ                DATA
 0002:00000184 00000004H .CRT$XIA                DATA
 0002:00000188 00000014H .CRT$XIC                DATA
 0002:0000019c 00000004H .CRT$XIZ                DATA
 0002:000001a0 00000004H .CRT$XPA                DATA
 0002:000001a4 00000008H .CRT$XPX                DATA
 0002:000001ac 00000004H .CRT$XPXA               DATA
 0002:000001b0 00000004H .CRT$XPZ                DATA
 0002:000001b4 00000004H .CRT$XTA                DATA
 0002:000001b8 00000004H .CRT$XTZ                DATA
 0002:000001c0 00012f80H .rdata                  DATA
 0002:00013140 00000348H .rdata$r                DATA
 0002:00013490 0000001cH .rdata$sxdata           DATA
 0002:000134ac 00000004H .rtc$IAA                DATA
 0002:000134b0 00000004H .rtc$IZZ                DATA
 0002:000134b4 00000004H .rtc$TAA                DATA
 0002:000134b8 00000004H .rtc$TZZ                DATA
 0002:000134c0 0000062cH .xdata$x                DATA
 0002:00013af0 00000042H .edata                  DATA
 0002:00013b34 00000050H .idata$2                DATA
 0002:00013b84 00000014H .idata$3                DATA
 0002:00013b98 00000170H .idata$4                DATA
 0002:00013d08 000006b0H .idata$6                DATA
 0003:00000000 00001788H .data                   DATA
 0003:00001788 00000178H .data$r                 DATA
 0003:00001900 00004700H .bss                    DATA

  Address         Publics by Value              Rva+Base       Lib:Object

 0000:00000000       ___guard_fids_table        00000000     <absolute>
 0000:00000000       __except_list              00000000     <absolute>
 0000:00000000       ___guard_flags             00000000     <absolute>
 0000:00000000       ___guard_fids_count        00000000     <absolute>
 0000:00000007       ___safe_se_handler_count   00000007     <absolute>
 0000:00000000       ___ImageBase               10000000     <linker-defined>
 0001:00000f30       ?DllEntryPoint@@YGHPAUHINSTANCE__@@KPAX@Z 10001f30 f   human.obj
 0001:00001070       _human                     10002070 f   human.obj
 0001:00002c40       ??_G_Iostream_error_category@std@@UAEPAXI@Z 10003c40 f i human.obj
 0001:00002c40       ??_Gerror_category@std@@UAEPAXI@Z 10003c40 f i human.obj
 0001:00002c40       ??_E_System_error_category@std@@UAEPAXI@Z 10003c40 f i human.obj
 0001:00002c40       ??_E_Generic_error_category@std@@UAEPAXI@Z 10003c40 f i human.obj
 0001:00002c40       ??_G_System_error_category@std@@UAEPAXI@Z 10003c40 f i human.obj
 0001:00002c40       ??_E_Iostream_error_category@std@@UAEPAXI@Z 10003c40 f i human.obj
 0001:00002c40       ??_G_Generic_error_category@std@@UAEPAXI@Z 10003c40 f i human.obj
 0001:00002c40       ??_Eerror_category@std@@UAEPAXI@Z 10003c40 f i human.obj
 0001:00002c70       ?_Copy@?$basic_string@DU?$char_traits@D@std@@V?$allocator@D@2@@std@@QAEXII@Z 10003c70 f i human.obj
 0001:00002dc0       ?allocate@?$_Wrap_alloc@V?$allocator@D@std@@@std@@QAEPADI@Z 10003dc0 f i human.obj
 0001:00002df0       ?assign@?$basic_string@DU?$char_traits@D@std@@V?$allocator@D@2@@std@@QAEAAV12@ABV12@II@Z 10003df0 f i human.obj
 0001:00002f20       ?assign@?$basic_string@DU?$char_traits@D@std@@V?$allocator@D@2@@std@@QAEAAV12@PBDI@Z 10003f20 f i human.obj
 0001:00003020       ?default_error_condition@_System_error_category@std@@UBE?AVerror_condition@2@H@Z 10004020 f i human.obj
 0001:00003060       ?default_error_condition@error_category@std@@UBE?AVerror_condition@2@H@Z 10004060 f i human.obj
 0001:00003080       ?equivalent@error_category@std@@UBE_NABVerror_code@2@H@Z 10004080 f i human.obj
 0001:000030a0       ?equivalent@error_category@std@@UBE_NHABVerror_condition@2@@Z 100040a0 f i human.obj
 0001:000030e0       ?erase@?$basic_string@DU?$char_traits@D@std@@V?$allocator@D@2@@std@@QAEAAV12@II@Z 100040e0 f i human.obj
 0001:00003180       ?message@_Generic_error_category@std@@UBE?AV?$basic_string@DU?$char_traits@D@std@@V?$allocator@D@2@@2@H@Z 10004180 f i human.obj
 0001:000031f0       ?message@_Iostream_error_category@std@@UBE?AV?$basic_string@DU?$char_traits@D@std@@V?$allocator@D@2@@2@H@Z 100041f0 f i human.obj
 0001:00003240       ?message@_System_error_category@std@@UBE?AV?$basic_string@DU?$char_traits@D@std@@V?$allocator@D@2@@2@H@Z 10004240 f i human.obj
 0001:000032b0       ?name@_Generic_error_category@std@@UBEPBDXZ 100042b0 f i human.obj
 0001:000032c0       ?name@_Iostream_error_category@std@@UBEPBDXZ 100042c0 f i human.obj
 0001:000032d0       ?name@_System_error_category@std@@UBEPBDXZ 100042d0 f i human.obj
 0001:000032f0       ?HmReadPrefs@@YAXH@Z       100042f0 f   pref.obj
 0001:00003a2a       ?GfScrGetSize@@YAXPAH000@Z 10004a2a f   client:client.dll
 0001:00003a30       ?GfuiKeyEventRegisterCurrent@@YAXP6AHEHH@Z@Z 10004a30 f   client:client.dll
 0001:00003a36       ?GfuiSKeyEventRegisterCurrent@@YAXP6AHHHH@Z@Z 10004a36 f   client:client.dll
 0001:00003a3c       ?GfuiMouseShow@@YAXXZ      10004a3c f   client:client.dll
 0001:00003a42       ?GfctrlJoyInit@@YAPAUtCtrlJoyInfo@@XZ 10004a42 f   client:client.dll
 0001:00003a48       ?GfctrlJoyGetCurrent@@YAHPAUtCtrlJoyInfo@@@Z 10004a48 f   client:client.dll
 0001:00003a4e       ?GfctrlJoyRelease@@YAXPAUtCtrlJoyInfo@@@Z 10004a4e f   client:client.dll
 0001:00003a54       ?GfctrlMouseInit@@YAPAUtCtrlMouseInfo@@XZ 10004a54 f   client:client.dll
 0001:00003a5a       ?GfctrlMouseGetCurrent@@YAHPAUtCtrlMouseInfo@@@Z 10004a5a f   client:client.dll
 0001:00003a60       ?GfctrlMouseRelease@@YAXPAUtCtrlMouseInfo@@@Z 10004a60 f   client:client.dll
 0001:00003a66       ?GfctrlMouseCenter@@YAXXZ  10004a66 f   client:client.dll
 0001:00003a6c       ?GfctrlMouseInitCenter@@YAXXZ 10004a6c f   client:client.dll
 0001:00003a72       ?GfctrlGetRefByName@@YAPAUtCtrlRef@@PBD@Z 10004a72 f   client:client.dll
 0001:00003a78       ?GfctrlGetNameByRef@@YAPBDHH@Z 10004a78 f   client:client.dll
 0001:00003a7e       ?_tgf_win_calloc@@YAPAXII@Z 10004a7e f   tgf:tgf.dll
 0001:00003a84       ?_tgf_win_free@@YAXPAX@Z   10004a84 f   tgf:tgf.dll
 0001:00003a8a       ?_tgf_win_strdup@@YAPADPBD@Z 10004a8a f   tgf:tgf.dll
 0001:00003a90       ?GfParmReadFile@@YAPAXPBDH@Z 10004a90 f   tgf:tgf.dll
 0001:00003a96       ?GfParmWriteFile@@YAHPBDPAX0@Z 10004a96 f   tgf:tgf.dll
 0001:00003a9c       ?GfParmGetStr@@YAPBDPAXPBD11@Z 10004a9c f   tgf:tgf.dll
 0001:00003aa2       ?GfParmSetStr@@YAHPAXPBD11@Z 10004aa2 f   tgf:tgf.dll
 0001:00003aa8       ?GfParmGetNum@@YAMPAXPBD11M@Z 10004aa8 f   tgf:tgf.dll
 0001:00003aae       ?GfParmSetNum@@YAHPAXPBD11M@Z 10004aae f   tgf:tgf.dll
 0001:00003ab4       ?GfParmReleaseHandle@@YAXPAX@Z 10004ab4 f   tgf:tgf.dll
 0001:00003aba       ?GetLocalDir@@YAPADXZ      10004aba f   tgf:tgf.dll
 0001:00003ac0       ?RtTrackSideTgAngleL@@YAMPAUtTrkLocPos@@@Z 10004ac0 f   robottools:robottools.dll
 0001:00003ac6       ?RtGetDistFromStart@@YAMPAUCarElt@@@Z 10004ac6 f   robottools:robottools.dll
 0001:00003acc       ??0bad_alloc@std@@QAE@ABV01@@Z 10004acc f i libcpmt:xthrow.obj
 0001:00003ae7       ??0length_error@std@@QAE@ABV01@@Z 10004ae7 f i libcpmt:xthrow.obj
 0001:00003b02       ??0logic_error@std@@QAE@ABV01@@Z 10004b02 f i libcpmt:xthrow.obj
 0001:00003b1d       ??0out_of_range@std@@QAE@ABV01@@Z 10004b1d f i libcpmt:xthrow.obj
 0001:00003b38       ??1bad_alloc@std@@UAE@XZ   10004b38 f i libcpmt:xthrow.obj
 0001:00003b43       ??1out_of_range@std@@UAE@XZ 10004b43 f i libcpmt:xthrow.obj
 0001:00003b43       ??1length_error@std@@UAE@XZ 10004b43 f i libcpmt:xthrow.obj
 0001:00003b48       ??_Gbad_alloc@std@@UAEPAXI@Z 10004b48 f i libcpmt:xthrow.obj
 0001:00003b48       ??_Ebad_alloc@std@@UAEPAXI@Z 10004b48 f i libcpmt:xthrow.obj
 0001:00003b6d       ??_Eout_of_range@std@@UAEPAXI@Z 10004b6d f i libcpmt:xthrow.obj
 0001:00003b6d       ??_Gout_of_range@std@@UAEPAXI@Z 10004b6d f i libcpmt:xthrow.obj
 0001:00003b6d       ??_Glogic_error@std@@UAEPAXI@Z 10004b6d f i libcpmt:xthrow.obj
 0001:00003b6d       ??_Elogic_error@std@@UAEPAXI@Z 10004b6d f i libcpmt:xthrow.obj
 0001:00003b6d       ??_Glength_error@std@@UAEPAXI@Z 10004b6d f i libcpmt:xthrow.obj
 0001:00003b6d       ??_Elength_error@std@@UAEPAXI@Z 10004b6d f i libcpmt:xthrow.obj
 0001:00003b8c       ?_Xbad_alloc@std@@YAXXZ    10004b8c f   libcpmt:xthrow.obj
 0001:00003bbd       ?_Xlength_error@std@@YAXPBD@Z 10004bbd f   libcpmt:xthrow.obj
 0001:00003beb       ?_Xout_of_range@std@@YAXPBD@Z 10004beb f   libcpmt:xthrow.obj
 0001:00003c19       ?_Syserror_map@std@@YAPBDH@Z 10004c19 f   libcpmt:syserror.obj
 0001:00003c43       ?_Winerror_map@std@@YAPBDH@Z 10004c43 f   libcpmt:syserror.obj
 0001:00003c6d       __purecall                 10004c6d f   LIBCMT:purevirt.obj
 0001:00003c8f       ??2@YAPAXI@Z               10004c8f f   LIBCMT:new.obj
 0001:00003ce0       ??3@YAXPAX@Z               10004ce0 f   LIBCMT:delete.obj
 0001:00003ce5       ___onexitinit              10004ce5 f   LIBCMT:onexit.obj
 0001:00003d14       __onexit                   10004d14 f   LIBCMT:onexit.obj
 0001:00003e10       _atexit                    10004e10 f   LIBCMT:onexit.obj
 0001:00003e30       _memmove                   10004e30 f   LIBCMT:memmove.obj
 0001:00004480       _strchr                    10005480 f   LIBCMT:strchr.obj
 0001:000044ee       ___from_strstr_to_strchr   100054ee     LIBCMT:strchr.obj
 0001:000045b0       _strncpy                   100055b0 f   LIBCMT:strncpy.obj
 0001:000046e0       _strrchr                   100056e0 f   LIBCMT:strrchr.obj
 0001:00004817       __fdtest                   10005817 f   LIBCMT:_test.obj
 0001:00004863       __get_printf_count_output  10005863 f   LIBCMT:printf.obj
 0001:00004878       _printf                    10005878 f   LIBCMT:printf.obj
 0001:00004927       __snprintf                 10005927 f   LIBCMT:snprintf.obj
 0001:000049e0       _atan2                     100059e0 f   LIBCMT:87ctriga.obj
 0001:000049ea       __CIatan2                  100059ea f   LIBCMT:87ctriga.obj
 0001:000049f4       __CxxThrowException@8      100059f4 f   LIBCMT:throw.obj
 0001:00004b27       ?_CallCatchBlock2@@YAPAXPAUEHRegistrationNode@@PBU_s_FuncInfo@@PAXHK@Z 10005b27 f   LIBCMT:_trnsctrl_.obj
 0001:00004b87       ?_CallMemberFunction2@@YGXPAX00H@Z 10005b87 f   LIBCMT:_trnsctrl_.obj
 0001:00004b87       ?_CallMemberFunction0@@YGXPAX0@Z 10005b87 f   LIBCMT:_trnsctrl_.obj
 0001:00004b87       ?_CallMemberFunction1@@YGXPAX00@Z 10005b87 f   LIBCMT:_trnsctrl_.obj
 0001:00004b8e       ?_CallSETranslator@@YAHPAUEHExceptionRecord@@PAUEHRegistrationNode@@PAX2PBU_s_FuncInfo@@H1@Z 10005b8e f   LIBCMT:_trnsctrl_.obj
 0001:00004c65       ?_GetRangeOfTrysToCheck@@YAPBU_s_TryBlockMapEntry@@PBU_s_FuncInfo@@HHPAI1@Z 10005c65 f   LIBCMT:_trnsctrl_.obj
 0001:00004ce3       ?_JumpToContinuation@@YGXPAXPAUEHRegistrationNode@@@Z 10005ce3 f   LIBCMT:_trnsctrl_.obj
 0001:00004d15       ?_UnwindNestedFrames@@YGXPAUEHRegistrationNode@@PAUEHExceptionRecord@@@Z 10005d15 f   LIBCMT:_trnsctrl_.obj
 0001:00004d6a       __CreateFrameInfo          10005d6a f   LIBCMT:_trnsctrl_.obj
 0001:00004d94       __FindAndUnlinkFrame       10005d94 f   LIBCMT:_trnsctrl_.obj
 0001:00004de4       __IsExceptionObjectToBeDestroyed 10005de4 f   LIBCMT:_trnsctrl_.obj
 0001:00004e0d       ___CxxFrameHandler3        10005e0d f   LIBCMT:_trnsctrl_.obj
 0001:00004e50       __ftol2_sse                10005e50 f   LIBCMT:ftol2.obj
 0001:00004e59       __ftol2_pentium4           10005e59 f   LIBCMT:ftol2.obj
 0001:00004e6c       __ftol2_sse_excpt          10005e6c f   LIBCMT:ftol2.obj
 0001:00004e86       __ftol2                    10005e86 f   LIBCMT:ftol2.obj
 0001:00004f00       __libm_sse2_cos_precise    10005f00 f   LIBCMT:cos_sse2_precise.obj
 0001:000050c0       __libm_sse2_pow_precise    100060c0 f   LIBCMT:pow_sse2_precise.obj
 0001:00005c30       _memcpy                    10006c30 f   LIBCMT:memcpy.obj
 0001:00006280       _memset                    10007280 f   LIBCMT:memset.obj
 0001:00006310       ??1type_info@@UAE@XZ       10007310 f   LIBCMT:typinfo.obj
 0001:0000631e       ??8type_info@@QBE_NABV0@@Z 1000731e f   LIBCMT:typinfo.obj
 0001:0000633c       ??_Gtype_info@@UAEPAXI@Z   1000733c f i LIBCMT:typinfo.obj
 0001:0000633c       ??_Etype_info@@UAEPAXI@Z   1000733c f i LIBCMT:typinfo.obj
 0001:0000635b       __fpmath                   1000735b f   LIBCMT:fpinit.obj
 0001:00006372       __cfltcvt_init             10007372 f   LIBCMT:fpinit.obj
 0001:000063d2       __CRT_INIT@12              100073d2 f   LIBCMT:dllcrt0.obj
 0001:00006544       __DllMainCRTStartup@12     10007544 f   LIBCMT:dllcrt0.obj
 0001:00006675       ___DllXcptFilter           10007675 f   LIBCMT:dllcrt0.obj
 0001:000066a0       __CIsqrt                   100076a0 f   LIBCMT:sqrt.obj
 0001:000066b4       _sqrt                      100076b4     LIBCMT:sqrt.obj
 0001:00006760       _asin                      10007760 f   LIBCMT:asin.obj
 0001:000067a0       __CIasin                   100077a0 f   LIBCMT:asin.obj
 0001:000067db       __CIasin_default           100077db f   LIBCMT:asin.obj
 0001:000067ef       __asin_default             100077ef     LIBCMT:asin.obj
 0001:000068b0       _acos                      100078b0 f   LIBCMT:acos.obj
 0001:000068f0       __CIacos                   100078f0 f   LIBCMT:acos.obj
 0001:0000692b       __CIacos_default           1000792b f   LIBCMT:acos.obj
 0001:0000693f       __acos_default             1000793f     LIBCMT:acos.obj
 0001:00006a00       _sin                       10007a00 f   LIBCMT:sin.obj
 0001:00006a40       __CIsin                    10007a40 f   LIBCMT:sin.obj
 0001:00006a7b       __CIsin_default            10007a7b f   LIBCMT:sin.obj
 0001:00006a8f       __sin_default              10007a8f     LIBCMT:sin.obj
 0001:00006b30       _cos                       10007b30 f   LIBCMT:cos.obj
 0001:00006b70       __CIcos                    10007b70 f   LIBCMT:cos.obj
 0001:00006bab       __CIcos_default            10007bab f   LIBCMT:cos.obj
 0001:00006bbf       __cos_default              10007bbf     LIBCMT:cos.obj
 0001:00006c60       _tan                       10007c60 f   LIBCMT:tan.obj
 0001:00006ca0       __CItan                    10007ca0 f   LIBCMT:tan.obj
 0001:00006cdb       __CItan_default            10007cdb f   LIBCMT:tan.obj
 0001:00006cef       __tan_default              10007cef     LIBCMT:tan.obj
 0001:00006d8d       ___crtCorExitProcess       10007d8d f   LIBCMT:crt0dat.obj
 0001:00006dc1       ___crtExitProcess          10007dc1 f   LIBCMT:crt0dat.obj
 0001:00006dd7       ___freeCrtMemory           10007dd7 f   LIBCMT:crt0dat.obj
 0001:00006ee4       __amsg_exit                10007ee4 f   LIBCMT:crt0dat.obj
 0001:00006f00       __cexit                    10007f00 f   LIBCMT:crt0dat.obj
 0001:00006f0f       __cinit                    10007f0f f   LIBCMT:crt0dat.obj
 0001:00006f93       __exit                     10007f93 f   LIBCMT:crt0dat.obj
 0001:00006fa7       __init_pointers            10007fa7 f   LIBCMT:crt0dat.obj
 0001:00007015       __initterm_e               10008015 f   LIBCMT:crt0dat.obj
 0001:00007037       __lockexit                 10008037 f   LIBCMT:crt0dat.obj
 0001:00007040       __unlockexit               10008040 f   LIBCMT:crt0dat.obj
 0001:00007178       ___initstdio               10008178 f   LIBCMT:_file.obj
 0001:000071eb       ___endstdio                100081eb f   LIBCMT:_file.obj
 0001:00007212       ___iob_func                10008212 f   LIBCMT:_file.obj
 0001:00007218       __lock_file                10008218 f   LIBCMT:_file.obj
 0001:00007257       __lock_file2               10008257 f   LIBCMT:_file.obj
 0001:00007287       __unlock_file              10008287 f   LIBCMT:_file.obj
 0001:000072c1       __unlock_file2             100082c1 f   LIBCMT:_file.obj
 0001:000072f0       _strlen                    100082f0 f   LIBCMT:strlen.obj
 0001:0000737b       ??0exception@std@@QAE@ABQBD@Z 1000837b f   LIBCMT:stdexcpt.obj
 0001:000073a0       ??0exception@std@@QAE@ABQBDH@Z 100083a0 f   LIBCMT:stdexcpt.obj
 0001:000073bb       ??0exception@std@@QAE@ABV01@@Z 100083bb f   LIBCMT:stdexcpt.obj
 0001:000073de       ??1exception@std@@UAE@XZ   100083de f   LIBCMT:stdexcpt.obj
 0001:000073e9       ??4exception@std@@QAEAAV01@ABV01@@Z 100083e9 f   LIBCMT:stdexcpt.obj
 0001:0000741c       ??_Eexception@std@@UAEPAXI@Z 1000841c f i LIBCMT:stdexcpt.obj
 0001:0000741c       ??_Gexception@std@@UAEPAXI@Z 1000841c f i LIBCMT:stdexcpt.obj
 0001:00007441       ?_Copy_str@exception@std@@AAEXPBD@Z 10008441 f   LIBCMT:stdexcpt.obj
 0001:0000747f       ?_Tidy@exception@std@@AAEXXZ 1000847f f   LIBCMT:stdexcpt.obj
 0001:0000749b       ?what@exception@std@@UBEPBDXZ 1000849b f   LIBCMT:stdexcpt.obj
 0001:000074a8       @__security_check_cookie@4 100084a8 f   LIBCMT:secchk.obj
 0001:000074b7       __EH_prolog3_catch         100084b7 f   LIBCMT:ehprolg3.obj
 0001:000074ed       __set_abort_behavior       100084ed f   LIBCMT:abort.obj
 0001:0000750c       _abort                     1000850c f   LIBCMT:abort.obj
 0001:0000754f       __initp_misc_purevirt      1000854f f   LIBCMT:inithelp.obj
 0001:0000755c       _malloc                    1000855c f   LIBCMT:malloc.obj
 0001:000075ee       __callnewh                 100085ee f   LIBCMT:handler.obj
 0001:00007614       __initp_heap_handler       10008614 f   LIBCMT:handler.obj
 0001:00007621       _free                      10008621 f   LIBCMT:free.obj
 0001:00007659       __msize                    10008659 f   LIBCMT:msize.obj
 0001:0000768a       __calloc_crt               1000868a f   LIBCMT:crtheap.obj
 0001:000076d2       __malloc_crt               100086d2 f   LIBCMT:crtheap.obj
 0001:00007719       __realloc_crt              10008719 f   LIBCMT:crtheap.obj
 0001:00007770       __SEH_prolog4              10008770 f   LIBCMT:sehprolg4.obj
 0001:000077b5       __SEH_epilog4              100087b5 f   LIBCMT:sehprolg4.obj
 0001:000077d0       __except_handler4          100087d0 f   LIBCMT:chandler4.obj
 0001:00007964       ___isa_available_init      10008964 f   LIBCMT:cpu_disp.obj
 0001:00007add       ___doserrno                10008add f   LIBCMT:dosmap.obj
 0001:00007af0       __dosmaperr                10008af0 f   LIBCMT:dosmap.obj
 0001:00007b11       __errno                    10008b11 f   LIBCMT:dosmap.obj
 0001:00007b24       __get_errno_from_oserr     10008b24 f   LIBCMT:dosmap.obj
 0001:00007b65       __decomp                   10008b65 f   LIBCMT:util.obj
 0001:00007c37       __set_exp                  10008c37 f   LIBCMT:util.obj
 0001:00007c66       __sptype                   10008c66 f   LIBCMT:util.obj
 0001:00007cc1       __handle_exc               10008cc1 f   LIBCMT:fpexcept.obj
 0001:00007e9f       __raise_exc                10008e9f f   LIBCMT:fpexcept.obj
 0001:00007ec0       __raise_exc_ex             10008ec0 f   LIBCMT:fpexcept.obj
 0001:000081a5       __set_errno_from_matherr   100091a5 f   LIBCMT:fpexcept.obj
 0001:000081d2       ___set_fpsr_sse2           100091d2 f   LIBCMT:fpctrl.obj
 0001:00008248       __clrfp                    10009248 f   LIBCMT:fpctrl.obj
 0001:00008259       __ctrlfp                   10009259 f   LIBCMT:fpctrl.obj
 0001:00008284       __set_statfp               10009284 f   LIBCMT:fpctrl.obj
 0001:000082dc       __statfp                   100092dc f   LIBCMT:fpctrl.obj
 0001:000082ec       __call_reportfault         100092ec f   LIBCMT:invarg.obj
 0001:00008411       __initp_misc_invarg        10009411 f   LIBCMT:invarg.obj
 0001:0000841e       __invalid_parameter        1000941e f   LIBCMT:invarg.obj
 0001:00008449       __invalid_parameter_noinfo 10009449 f   LIBCMT:invarg.obj
 0001:00008459       __invoke_watson            10009459 f   LIBCMT:invarg.obj
 0001:00008484       __ftbuf                    10009484 f   LIBCMT:_sftbuf.obj
 0001:000084b5       __stbuf                    100094b5 f   LIBCMT:_sftbuf.obj
 0001:0000855b       ??0_LocaleUpdate@@QAE@PAUlocaleinfo_struct@@@Z 1000955b f i LIBCMT:output.obj
 0001:000085e3       __output_l                 100095e3 f   LIBCMT:output.obj
 0001:0000924f       __flsbuf                   1000a24f f   LIBCMT:_flsbuf.obj
 0001:000093bc       __fFATN2                   1000a3bc     LIBCMT:87triga.obj
 0001:0000940c       __rtpiby2                  1000a40c     LIBCMT:87triga.obj
 0001:00009450       __cintrindisp2             1000a450 f   LIBCMT:87cdisp.obj
 0001:0000948e       __cintrindisp1             1000a48e f   LIBCMT:87cdisp.obj
 0001:000094cb       __ctrandisp2               1000a4cb f   LIBCMT:87cdisp.obj
 0001:0000965a       __ctrandisp1               1000a65a f   LIBCMT:87cdisp.obj
 0001:0000968d       __fload                    1000a68d f   LIBCMT:87cdisp.obj
 0001:000096c9       __freefls@4                1000a6c9 f   LIBCMT:tidtable.obj
 0001:000097fe       __freeptd                  1000a7fe f   LIBCMT:tidtable.obj
 0001:00009834       __getptd                   1000a834 f   LIBCMT:tidtable.obj
 0001:0000984c       __getptd_noexit            1000a84c f   LIBCMT:tidtable.obj
 0001:000098bb       __initptd                  1000a8bb f   LIBCMT:tidtable.obj
 0001:0000996e       __mtinit                   1000a96e f   LIBCMT:tidtable.obj
 0001:000099e4       __mtterm                   1000a9e4 f   LIBCMT:tidtable.obj
 0001:00009a10       __CallSettingFrame@12      1000aa10 f   LIBCMT:lowhelpr.obj
 0001:00009a37       __NLG_Return               1000aa37     LIBCMT:lowhelpr.obj
 0001:00009a5c       ?_inconsistency@@YAXXZ     1000aa5c f   LIBCMT:hooks.obj
 0001:00009a94       ?terminate@@YAXXZ          1000aa94 f   LIBCMT:hooks.obj
 0001:00009ac8       ?unexpected@@YAXXZ         1000aac8 f   LIBCMT:hooks.obj
 0001:00009adb       __initp_eh_hooks           1000aadb f   LIBCMT:hooks.obj
 0001:00009aec       ___DestructExceptionObject 1000aaec f   LIBCMT:frame.obj
 0001:00009b77       ??0bad_exception@std@@QAE@ABV01@@Z 1000ab77 f i LIBCMT:frame.obj
 0001:00009b92       ??1bad_exception@std@@UAE@XZ 1000ab92 f i LIBCMT:frame.obj
 0001:00009b9d       ??_Gbad_exception@std@@UAEPAXI@Z 1000ab9d f i LIBCMT:frame.obj
 0001:00009b9d       ??_Ebad_exception@std@@UAEPAXI@Z 1000ab9d f i LIBCMT:frame.obj
 0001:0000a3d1       ___AdjustPointer           1000b3d1 f   LIBCMT:frame.obj
 0001:0000a3f6       ___BuildCatchObject        1000b3f6 f   LIBCMT:frame.obj
 0001:0000a484       ___BuildCatchObjectHelper  1000b484 f   LIBCMT:frame.obj
 0001:0000a646       ___FrameUnwindFilter       1000b646 f   LIBCMT:frame.obj
 0001:0000a694       ___FrameUnwindToState      1000b694 f   LIBCMT:frame.obj
 0001:0000a76d       ___InternalCxxFrameHandler 1000b76d f   LIBCMT:frame.obj
 0001:0000a84e       ___TypeMatch               1000b84e f   LIBCMT:frame.obj
 0001:0000a8b5       ___libm_error_support      1000b8b5 f   LIBCMT:libm_error.obj
 0001:0000aba0       _pow                       1000bba0 f   LIBCMT:pow.obj
 0001:0000abe0       __CIpow                    1000bbe0 f   LIBCMT:pow.obj
 0001:0000ac1b       __CIpow_default            1000bc1b f   LIBCMT:pow.obj
 0001:0000ac34       __pow_default              1000bc34     LIBCMT:pow.obj
 0001:0000ae2a       __VEC_memset               1000be2a f   LIBCMT:p4_memset.obj
 0001:0000af00       _strcmp                    1000bf00 f   LIBCMT:strcmp.obj
 0001:0000af8c       ?_Type_info_dtor@type_info@@CAXPAV1@@Z 1000bf8c f   LIBCMT:typname.obj
 0001:0000affd       __cfltcvt                  1000bffd f   LIBCMT:cvt.obj
 0001:0000b01e       __cfltcvt_l                1000c01e f   LIBCMT:cvt.obj
 0001:0000b0a4       __cftoa_l                  1000c0a4 f   LIBCMT:cvt.obj
 0001:0000b400       __cftoe                    1000c400 f   LIBCMT:cvt.obj
 0001:0000b56f       __cftoe_l                  1000c56f f   LIBCMT:cvt.obj
 0001:0000b729       __cftof_l                  1000c729 f   LIBCMT:cvt.obj
 0001:0000b7ea       __cftog_l                  1000c7ea f   LIBCMT:cvt.obj
 0001:0000b8e9       __cropzeros                1000c8e9 f   LIBCMT:cvt.obj
 0001:0000b8fa       __cropzeros_l              1000c8fa f   LIBCMT:cvt.obj
 0001:0000b97a       __fassign                  1000c97a f   LIBCMT:cvt.obj
 0001:0000b992       __fassign_l                1000c992 f   LIBCMT:cvt.obj
 0001:0000b9d4       __forcdecpt                1000c9d4 f   LIBCMT:cvt.obj
 0001:0000b9e5       __forcdecpt_l              1000c9e5 f   LIBCMT:cvt.obj
 0001:0000ba59       __positive                 1000ca59 f   LIBCMT:cvt.obj
 0001:0000ba9b       __setdefaultprecision      1000ca9b f   LIBCMT:fp8.obj
 0001:0000bac2       __initp_misc_cfltcvt_tab   1000cac2 f   LIBCMT:cmiscdat.obj
 0001:0000bae1       __XcptFilter               1000cae1 f   LIBCMT:winxfltr.obj
 0001:0000bc3c       ___CppXcptFilter           1000cc3c f   LIBCMT:winxfltr.obj
 0001:0000bc5a       __heap_init                1000cc5a f   LIBCMT:heapinit.obj
 0001:0000bc6f       __heap_term                1000cc6f f   LIBCMT:heapinit.obj
 0001:0000bc77       __ioinit                   1000cc77 f   LIBCMT:ioinit.obj
 0001:0000bf2b       __ioterm                   1000cf2b f   LIBCMT:ioinit.obj
 0001:0000bf7d       __setargv                  1000cf7d f   LIBCMT:stdargv.obj
 0001:0000c1ac       __setenvp                  1000d1ac f   LIBCMT:stdenvp.obj
 0001:0000c28d       ___security_init_cookie    1000d28d f   LIBCMT:gs_support.obj
 0001:0000c329       _DllMain@12                1000d329 f   LIBCMT:dllmain.obj
 0001:0000c32f       ___crtGetEnvironmentStringsA 1000d32f f   LIBCMT:a_env.obj
 0001:0000c3bc       ___crtFlsAlloc             1000d3bc f   LIBCMT:winapisupp.obj
 0001:0000c3da       ___crtFlsFree              1000d3da f   LIBCMT:winapisupp.obj
 0001:0000c3f9       ___crtFlsGetValue          1000d3f9 f   LIBCMT:winapisupp.obj
 0001:0000c418       ___crtFlsSetValue          1000d418 f   LIBCMT:winapisupp.obj
 0001:0000c43a       ___crtInitializeCriticalSectionEx 1000d43a f   LIBCMT:winapisupp.obj
 0001:0000c468       ___crtIsPackagedApp        1000d468 f   LIBCMT:winapisupp.obj
 0001:0000c4a8       ___crtLoadWinApiPointers   1000d4a8 f   LIBCMT:winapisupp.obj
 0001:0000c733       ___crtSleep                1000d733 f   LIBCMT:winapisupp.obj
 0001:0000c741       ___crtTerminateProcess     1000d741 f   LIBCMT:winapisupp.obj
 0001:0000c756       ___crtUnhandledException   1000d756 f   LIBCMT:winapisupp.obj
 0001:0000c76c       __RTC_Initialize           1000d76c f   LIBCMT:initsect.obj
 0001:0000c78c       __RTC_Terminate            1000d78c f   LIBCMT:initsect.obj
 0001:0000c7b0       __trandisp1                1000d7b0 f   LIBCMT:87disp.obj
 0001:0000c817       __trandisp2                1000d817 f   LIBCMT:87disp.obj
 0001:0000c8a3       __rttospopde               1000d8a3     LIBCMT:87disp.obj
 0001:0000c8a8       __rttospop                 1000d8a8     LIBCMT:87disp.obj
 0001:0000c8aa       __rtnospop                 1000d8aa     LIBCMT:87disp.obj
 0001:0000c8ac       __rttosnpop                1000d8ac     LIBCMT:87disp.obj
 0001:0000c8ad       __rtnospopde               1000d8ad     LIBCMT:87disp.obj
 0001:0000c8b4       __rtzeropop                1000d8b4     LIBCMT:87disp.obj
 0001:0000c8b6       __rtzeronpop               1000d8b6     LIBCMT:87disp.obj
 0001:0000c8bb       __rtonepop                 1000d8bb     LIBCMT:87disp.obj
 0001:0000c8bd       __rtonenpop                1000d8bd     LIBCMT:87disp.obj
 0001:0000c8c2       __tosnan1                  1000d8c2     LIBCMT:87disp.obj
 0001:0000c8ed       __nosnan2                  1000d8ed     LIBCMT:87disp.obj
 0001:0000c8ef       __tosnan2                  1000d8ef     LIBCMT:87disp.obj
 0001:0000c917       __nan2                     1000d917     LIBCMT:87disp.obj
 0001:0000c956       __rtindfpop                1000d956     LIBCMT:87disp.obj
 0001:0000c958       __rtindfnpop               1000d958     LIBCMT:87disp.obj
 0001:0000c969       __rttosnpopde              1000d969     LIBCMT:87disp.obj
 0001:0000c973       __rtchsifneg               1000d973     LIBCMT:87disp.obj
 0001:0000c980       __startTwoArgErrorHandling 1000d980 f   LIBCMT:genexcep.obj
 0001:0000c997       __startOneArgErrorHandling 1000d997 f   LIBCMT:genexcep.obj
 0001:0000c9e0       __twoToTOS                 1000d9e0 f   LIBCMT:common.obj
 0001:0000c9f5       __load_CW                  1000d9f5 f   LIBCMT:common.obj
 0001:0000ca0c       __convertTOStoQNaN         1000da0c f   LIBCMT:common.obj
 0001:0000ca25       __fload_withFB             1000da25 f   LIBCMT:common.obj
 0001:0000ca68       __checkTOS_withFB          1000da68 f   LIBCMT:common.obj
 0001:0000ca7e       __fast_exit                1000da7e f   LIBCMT:common.obj
 0001:0000ca8b       __math_exit                1000da8b f   LIBCMT:common.obj
 0001:0000cab5       __check_overflow_exit      1000dab5 f   LIBCMT:common.obj
 0001:0000cac9       __check_range_exit         1000dac9 f   LIBCMT:common.obj
 0001:0000cb6c       __sse2_mathfcns_init       1000db6c f   LIBCMT:mathfcns.obj
 0001:0000cb80       __CIasin_pentium4          1000db80 f   LIBCMT:asin_pentium4.obj
 0001:0000cb98       __asin_pentium4            1000db98     LIBCMT:asin_pentium4.obj
 0001:0000d100       __CIacos_pentium4          1000e100 f   LIBCMT:acos_pentium4.obj
 0001:0000d118       __acos_pentium4            1000e118     LIBCMT:acos_pentium4.obj
 0001:0000d660       __CIsin_pentium4           1000e660 f   LIBCMT:sin_pentium4.obj
 0001:0000d678       __sin_pentium4             1000e678     LIBCMT:sin_pentium4.obj
 0001:0000d830       __CIcos_pentium4           1000e830 f   LIBCMT:cos_pentium4.obj
 0001:0000d848       __cos_pentium4             1000e848     LIBCMT:cos_pentium4.obj
 0001:0000d9e0       __CItan_pentium4           1000e9e0 f   LIBCMT:tan_pentium4.obj
 0001:0000d9f8       __tan_pentium4             1000e9f8     LIBCMT:tan_pentium4.obj
 0001:0000dc40       __lock                     1000ec40 f   LIBCMT:mlock.obj
 0001:0000dc74       __mtdeletelocks            1000ec74 f   LIBCMT:mlock.obj
 0001:0000dcc8       __mtinitlocknum            1000ecc8 f   LIBCMT:mlock.obj
 0001:0000dd71       __mtinitlocks              1000ed71 f   LIBCMT:mlock.obj
 0001:0000ddaa       __unlock                   1000edaa f   LIBCMT:mlock.obj
 0001:0000ddbf       __FF_MSGBANNER             1000edbf f   LIBCMT:crt0msg.obj
 0001:0000ddf8       __GET_RTERRMSG             1000edf8 f   LIBCMT:crt0msg.obj
 0001:0000de1c       __NMSG_WRITE               1000ee1c f   LIBCMT:crt0msg.obj
 0001:0000dfe0       __FindPESection            1000efe0 f   LIBCMT:pesect.obj
 0001:0000e030       __IsNonwritableInCurrentImage 1000f030 f   LIBCMT:pesect.obj
 0001:0000e0f0       __ValidateImageBase        1000f0f0 f   LIBCMT:pesect.obj
 0001:0000e121       ___get_sigabrt             1000f121 f   LIBCMT:winsig.obj
 0001:0000e12e       __initp_misc_winsig        1000f12e f   LIBCMT:winsig.obj
 0001:0000e14a       _raise                     1000f14a f   LIBCMT:winsig.obj
 0001:0000e33f       __initp_misc_rand_s        1000f33f f   LIBCMT:rand_s.obj
 0001:0000e34c       ___initmbctable            1000f34c f   LIBCMT:mbctype.obj
 0001:0000e603       ___updatetmbcinfo          1000f603 f   LIBCMT:mbctype.obj
 0001:0000e6a9       __setmbcp                  1000f6a9 f   LIBCMT:mbctype.obj
 0001:0000e851       __setmbcp_nolock           1000f851 f   LIBCMT:mbctype.obj
 0001:0000ea3c       __fileno                   1000fa3c f   LIBCMT:fileno.obj
 0001:0000ea60       __fcloseall                1000fa60 f   LIBCMT:closeall.obj
 0001:0000eafd       __fflush_nolock            1000fafd f   LIBCMT:fflush.obj
 0001:0000eb43       __flush                    1000fb43 f   LIBCMT:fflush.obj
 0001:0000eba7       __flushall                 1000fba7 f   LIBCMT:fflush.obj
 0001:0000ec94       _strcpy_s                  1000fc94 f   LIBCMT:strcpy_s.obj
 0001:0000ece9       ___raise_securityfailure   1000fce9 f   LIBCMT:gs_report.obj
 0001:0000ed26       ___report_gsfailure        1000fd26 f   LIBCMT:gs_report.obj
 0001:0000ee21       __freea                    1000fe21 f i LIBCMT:a_loc.obj
 0001:0000ee3f       _GetTableIndexFromLocaleName 1000fe3f f   LIBCMT:winapinls.obj
 0001:0000ee8d       ___crtDownlevelLocaleNameToLCID 1000fe8d f   LIBCMT:winapinls.obj
 0001:0000eeb7       ___crtLCMapStringEx        1000feb7 f   LIBCMT:winapinls.obj
 0001:0000ef03       ___wcsnicmp_ascii          1000ff03 f   LIBCMT:winapinls.obj
 0001:0000ef71       _realloc                   1000ff71 f   LIBCMT:realloc.obj
 0001:0000f01c       __calloc_impl              1001001c f   LIBCMT:calloc_impl.obj
 0001:0000f0a0       __local_unwind4            100100a0 f   LIBCMT:exsup4.obj
 0001:0000f176       __seh_longjmp_unwind4@4    10010176 f   LIBCMT:exsup4.obj
 0001:0000f192       @_EH4_CallFilterFunc@8     10010192 f   LIBCMT:exsup4.obj
 0001:0000f1a9       @_EH4_TransferToHandler@8  100101a9 f   LIBCMT:exsup4.obj
 0001:0000f1c2       @_EH4_GlobalUnwind2@8      100101c2 f   LIBCMT:exsup4.obj
 0001:0000f1db       @_EH4_LocalUnwind@16       100101db f   LIBCMT:exsup4.obj
 0001:0000f1f2       __matherr                  100101f2 f   LIBCMT:matherr.obj
 0001:0000f1f5       __crt_debugger_hook        100101f5 f   LIBCMT:dbghook.obj
 0001:0000f1fd       __isatty                   100101fd f   LIBCMT:isatty.obj
 0001:0000f251       ___addlocaleref            10010251 f   LIBCMT:localref.obj
 0001:0000f2e6       ___freetlocinfo            100102e6 f   LIBCMT:localref.obj
 0001:0000f440       ___removelocaleref         10010440 f   LIBCMT:localref.obj
 0001:0000f4e0       ___updatetlocinfo          100104e0 f   LIBCMT:localref.obj
 0001:0000f560       __updatetlocinfoEx_nolock  10010560 f   LIBCMT:localref.obj
 0001:0000f5ab       __isleadbyte_l             100105ab f i LIBCMT:_wctype.obj
 0001:0000f5e5       _isleadbyte                100105e5 f i LIBCMT:_wctype.obj
 0001:0000f5f6       __wctomb_s_l               100105f6 f   LIBCMT:wctomb.obj
 0001:0000f71a       _wctomb_s                  1001071a f   LIBCMT:wctomb.obj
 0001:0000f740       __aulldvrm                 10010740 f   LIBCMT:ulldvrm.obj
 0001:0000f7d5       __write                    100107d5 f   LIBCMT:write.obj
 0001:0000f8c4       __write_nolock             100108c4 f   LIBCMT:write.obj
 0001:00010129       __lseeki64                 10011129 f   LIBCMT:lseeki64.obj
 0001:00010225       __lseeki64_nolock          10011225 f   LIBCMT:lseeki64.obj
 0001:00010298       __getbuf                   10011298 f   LIBCMT:_getbuf.obj
 0001:000102de       __87except                 100112de f   LIBCMT:87except.obj
 0001:000103f0       __global_unwind2           100113f0 f   LIBCMT:exsup.obj
 0001:00010455       __local_unwind2            10011455 f   LIBCMT:exsup.obj
 0001:000104d9       __abnormal_termination     100114d9 f   LIBCMT:exsup.obj
 0001:000104fc       __NLG_Notify1              100114fc f   LIBCMT:exsup.obj
 0001:00010505       __NLG_Notify               10011505 f   LIBCMT:exsup.obj
 0001:0001051c       __NLG_Dispatch             1001151c     LIBCMT:exsup.obj
 0001:0001051c       __NLG_Dispatch2            1001151c     LIBCMT:exsup.obj
 0001:00010524       __NLG_Call                 10011524 f   LIBCMT:exsup.obj
 0001:00010526       __NLG_Return2              10011526     LIBCMT:exsup.obj
 0001:00010527       ?_ValidateWrite@@YAHPAXI@Z 10011527 f   LIBCMT:validate.obj
 0001:00010527       ?_ValidateRead@@YAHPBXI@Z  10011527 f   LIBCMT:validate.obj
 0001:00010527       ?_ValidateExecute@@YAHP6GHXZ@Z 10011527 f   LIBCMT:validate.obj
 0001:00010540       __CIpow_pentium4           10011540 f   LIBCMT:pow_pentium4.obj
 0001:00010559       __pow_pentium4             10011559     LIBCMT:pow_pentium4.obj
 0001:000110b1       __fFEXP                    100120b1     LIBCMT:87tran.obj
 0001:00011108       __rtinfpopse               10012108     LIBCMT:87tran.obj
 0001:0001110a       __rtinfnpopse              1001210a     LIBCMT:87tran.obj
 0001:0001111a       __fFLN                     1001211a     LIBCMT:87tran.obj
 0001:000111cf       __rtinfpop                 100121cf     LIBCMT:87tran.obj
 0001:000111d1       __rtinfnpop                100121d1     LIBCMT:87tran.obj
 0001:000111ee       __ffexpm1                  100121ee     LIBCMT:87tran.obj
 0001:00011297       __d_inttype                10012297 f   LIBCMT:powhlp.obj
 0001:000112ff       __powhlp                   100122ff f   LIBCMT:powhlp.obj
 0001:00011435       __isdigit_l                10012435 f i LIBCMT:_ctype.obj
 0001:00011487       _isdigit                   10012487 f i LIBCMT:_ctype.obj
 0001:000114b2       __tolower_l                100124b2 f   LIBCMT:tolower.obj
 0001:000115f5       _tolower                   100125f5 f   LIBCMT:tolower.obj
 0001:00011621       __fptostr                  10012621 f   LIBCMT:_fptostr.obj
 0001:000116d1       ___crt_atoflt_l            100126d1 f   LIBCMT:atodbl.obj
 0001:00011775       __atodbl_l                 10012775 f   LIBCMT:atodbl.obj
 0001:00011803       __atoflt_l                 10012803 f   LIBCMT:atodbl.obj
 0001:0001181b       ___dtold                   1001281b f   LIBCMT:cfout.obj
 0001:000118e3       __fltout2                  100128e3 f   LIBCMT:cfout.obj
 0001:00011980       __alldvrm                  10012980 f   LIBCMT:lldvrm.obj
 0001:00011a60       __aullshr                  10012a60 f   LIBCMT:ullshr.obj
 0001:00011a7f       __controlfp_s              10012a7f f   LIBCMT:contrlfp.obj
 0001:00011adc       __fptrap                   10012adc f   LIBCMT:crt0fp.obj
 0001:00011b3f       __ismbblead                10012b3f f   LIBCMT:ismbbyte.obj
 0001:00011b55       _wcscat_s                  10012b55 f   LIBCMT:wcscat_s.obj
 0001:00011bc1       _wcscpy_s                  10012bc1 f   LIBCMT:wcscpy_s.obj
 0001:00011c1d       _wcslen                    10012c1d f   LIBCMT:wcslen.obj
 0001:00011c36       _wcsncpy_s                 10012c36 f   LIBCMT:wcsncpy_s.obj
 0001:00011cf4       __set_error_mode           10012cf4 f   LIBCMT:errmode.obj
 0001:00011d34       ___crtMessageBoxW          10012d34 f   LIBCMT:crtmboxw.obj
 0001:0001211e       ___crtLCMapStringA         1001311e f   LIBCMT:a_map.obj
 0001:0001225c       ___crtGetStringTypeA       1001325c f   LIBCMT:a_str.obj
 0001:0001229c       __fclose_nolock            1001329c f   LIBCMT:fclose.obj
 0001:00012308       _fclose                    10013308 f   LIBCMT:fclose.obj
 0001:0001237f       __commit                   1001337f f   LIBCMT:commit.obj
 0001:00012470       __alloca_probe_16          10013470 f   LIBCMT:alloca16.obj
 0001:00012486       __alloca_probe_8           10013486     LIBCMT:alloca16.obj
 0001:0001249c       ___free_lconv_mon          1001349c f   LIBCMT:initmon.obj
 0001:00012598       ___free_lconv_num          10013598 f   LIBCMT:initnum.obj
 0001:000125ff       ___free_lc_time            100135ff f   LIBCMT:inittime.obj
 0001:0001297f       ___lock_fhandle            1001397f f   LIBCMT:osfinfo.obj
 0001:00012a0d       __free_osfhnd              10013a0d f   LIBCMT:osfinfo.obj
 0001:00012a93       __get_osfhandle            10013a93 f   LIBCMT:osfinfo.obj
 0001:00012afa       __unlock_fhandle           10013afa f   LIBCMT:osfinfo.obj
 0001:00012b20       __mbtowc_l                 10013b20 f   LIBCMT:mbtowc.obj
 0001:00012c15       _mbtowc                    10013c15 f   LIBCMT:mbtowc.obj
 0001:00012c2d       __putwch_nolock            10013c2d f   LIBCMT:putwch.obj
 0001:00012c70       __chkstk                   10013c70 f   LIBCMT:chkstk.obj
 0001:00012c70       __alloca_probe             10013c70 f   LIBCMT:chkstk.obj
 0001:00012c9b       __frnd                     10013c9b f   LIBCMT:frnd.obj
 0001:00012caf       __fpclass                  10013caf f   LIBCMT:ieeemisc.obj
 0001:00012d4b       __isctype_l                10013d4b f   LIBCMT:isctype.obj
 0001:00012dfc       __locterm                  10013dfc f   LIBCMT:wsetloca.obj
 0001:00012e4e       __ld12tod                  10013e4e f   LIBCMT:intrncvt.obj
 0001:000133c0       __ld12tof                  100143c0 f   LIBCMT:intrncvt.obj
 0001:00013932       ___strgtold12_l            10014932 f   LIBCMT:strgtold.obj
 0001:000140da       _$I10_OUTPUT               100150da f   LIBCMT:x10fout.obj
 0001:00014b57       __control87                10015b57 f i LIBCMT:ieee87.obj
 0001:00014ef0       __close                    10015ef0 f   LIBCMT:close.obj
 0001:00014fcb       __close_nolock             10015fcb f   LIBCMT:close.obj
 0001:00015065       __freebuf                  10016065 f   LIBCMT:_freebuf.obj
 0001:00015095       ___termconout              10016095 f   LIBCMT:initcon.obj
 0001:000150ac       ___initconout              100160ac f   LIBCMT:initcon.obj
 0001:000150cb       ___mtold12                 100160cb f   LIBCMT:mantold.obj
 0001:000152b0       __allmul                   100162b0 f   LIBCMT:llmul.obj
 0001:000152f0       _RtlUnwind@16              100162f0 f   kernel32:KERNEL32.dll
 0001:000152f6       _IsProcessorFeaturePresent@4 100162f6 f   kernel32:KERNEL32.dll
 0002:00000000       __imp__GetStdHandle@4      10017000     kernel32:KERNEL32.dll
 0002:00000004       __imp__CreateFileW@28      10017004     kernel32:KERNEL32.dll
 0002:00000008       __imp__CloseHandle@4       10017008     kernel32:KERNEL32.dll
 0002:0000000c       __imp__WriteConsoleW@20    1001700c     kernel32:KERNEL32.dll
 0002:00000010       __imp__SetStdHandle@8      10017010     kernel32:KERNEL32.dll
 0002:00000014       __imp__FlushFileBuffers@4  10017014     kernel32:KERNEL32.dll
 0002:00000018       __imp__GetStringTypeW@16   10017018     kernel32:KERNEL32.dll
 0002:0000001c       __imp__OutputDebugStringW@4 1001701c     kernel32:KERNEL32.dll
 0002:00000020       __imp__SetFilePointerEx@20 10017020     kernel32:KERNEL32.dll
 0002:00000024       __imp__GetConsoleMode@8    10017024     kernel32:KERNEL32.dll
 0002:00000028       __imp__GetConsoleCP@0      10017028     kernel32:KERNEL32.dll
 0002:0000002c       __imp__HeapReAlloc@16      1001702c     kernel32:KERNEL32.dll
 0002:00000030       __imp__LCMapStringW@24     10017030     kernel32:KERNEL32.dll
 0002:00000034       __imp__GetCPInfo@8         10017034     kernel32:KERNEL32.dll
 0002:00000038       __imp__GetOEMCP@0          10017038     kernel32:KERNEL32.dll
 0002:0000003c       __imp__GetACP@0            1001703c     kernel32:KERNEL32.dll
 0002:00000040       __imp__IsValidCodePage@4   10017040     kernel32:KERNEL32.dll
 0002:00000044       __imp__LoadLibraryExW@12   10017044     kernel32:KERNEL32.dll
 0002:00000048       __imp__GetModuleFileNameW@12 10017048     kernel32:KERNEL32.dll
 0002:0000004c       __imp__WriteFile@20        1001704c     kernel32:KERNEL32.dll
 0002:00000050       __imp__EncodePointer@4     10017050     kernel32:KERNEL32.dll
 0002:00000054       __imp__DecodePointer@4     10017054     kernel32:KERNEL32.dll
 0002:00000058       __imp__RaiseException@16   10017058     kernel32:KERNEL32.dll
 0002:0000005c       __imp__RtlUnwind@16        1001705c     kernel32:KERNEL32.dll
 0002:00000060       __imp__GetCommandLineA@0   10017060     kernel32:KERNEL32.dll
 0002:00000064       __imp__GetCurrentThreadId@0 10017064     kernel32:KERNEL32.dll
 0002:00000068       __imp__GetLastError@0      10017068     kernel32:KERNEL32.dll
 0002:0000006c       __imp__ExitProcess@4       1001706c     kernel32:KERNEL32.dll
 0002:00000070       __imp__GetModuleHandleExW@12 10017070     kernel32:KERNEL32.dll
 0002:00000074       __imp__GetProcAddress@8    10017074     kernel32:KERNEL32.dll
 0002:00000078       __imp__MultiByteToWideChar@24 10017078     kernel32:KERNEL32.dll
 0002:0000007c       __imp__WideCharToMultiByte@32 1001707c     kernel32:KERNEL32.dll
 0002:00000080       __imp__EnterCriticalSection@4 10017080     kernel32:KERNEL32.dll
 0002:00000084       __imp__LeaveCriticalSection@4 10017084     kernel32:KERNEL32.dll
 0002:00000088       __imp__IsProcessorFeaturePresent@4 10017088     kernel32:KERNEL32.dll
 0002:0000008c       __imp__HeapAlloc@12        1001708c     kernel32:KERNEL32.dll
 0002:00000090       __imp__HeapFree@12         10017090     kernel32:KERNEL32.dll
 0002:00000094       __imp__HeapSize@12         10017094     kernel32:KERNEL32.dll
 0002:00000098       __imp__IsDebuggerPresent@0 10017098     kernel32:KERNEL32.dll
 0002:0000009c       __imp__SetLastError@4      1001709c     kernel32:KERNEL32.dll
 0002:000000a0       __imp__GetProcessHeap@0    100170a0     kernel32:KERNEL32.dll
 0002:000000a4       __imp__GetFileType@4       100170a4     kernel32:KERNEL32.dll
 0002:000000a8       __imp__DeleteCriticalSection@4 100170a8     kernel32:KERNEL32.dll
 0002:000000ac       __imp__GetStartupInfoW@4   100170ac     kernel32:KERNEL32.dll
 0002:000000b0       __imp__GetModuleFileNameA@12 100170b0     kernel32:KERNEL32.dll
 0002:000000b4       __imp__QueryPerformanceCounter@4 100170b4     kernel32:KERNEL32.dll
 0002:000000b8       __imp__GetCurrentProcessId@0 100170b8     kernel32:KERNEL32.dll
 0002:000000bc       __imp__GetSystemTimeAsFileTime@4 100170bc     kernel32:KERNEL32.dll
 0002:000000c0       __imp__GetEnvironmentStringsW@0 100170c0     kernel32:KERNEL32.dll
 0002:000000c4       __imp__FreeEnvironmentStringsW@4 100170c4     kernel32:KERNEL32.dll
 0002:000000c8       __imp__UnhandledExceptionFilter@4 100170c8     kernel32:KERNEL32.dll
 0002:000000cc       __imp__SetUnhandledExceptionFilter@4 100170cc     kernel32:KERNEL32.dll
 0002:000000d0       __imp__InitializeCriticalSectionAndSpinCount@8 100170d0     kernel32:KERNEL32.dll
 0002:000000d4       __imp__Sleep@4             100170d4     kernel32:KERNEL32.dll
 0002:000000d8       __imp__GetCurrentProcess@0 100170d8     kernel32:KERNEL32.dll
 0002:000000dc       __imp__TerminateProcess@8  100170dc     kernel32:KERNEL32.dll
 0002:000000e0       __imp__TlsAlloc@0          100170e0     kernel32:KERNEL32.dll
 0002:000000e4       __imp__TlsGetValue@4       100170e4     kernel32:KERNEL32.dll
 0002:000000e8       __imp__TlsSetValue@8       100170e8     kernel32:KERNEL32.dll
 0002:000000ec       __imp__TlsFree@4           100170ec     kernel32:KERNEL32.dll
 0002:000000f0       __imp__GetModuleHandleW@4  100170f0     kernel32:KERNEL32.dll
 0002:000000f4       \177KERNEL32_NULL_THUNK_DATA 100170f4     kernel32:KERNEL32.dll
 0002:000000f8       __imp_?GfuiKeyEventRegisterCurrent@@YAXP6AHEHH@Z@Z 100170f8     client:client.dll
 0002:000000fc       __imp_?GfuiSKeyEventRegisterCurrent@@YAXP6AHHHH@Z@Z 100170fc     client:client.dll
 0002:00000100       __imp_?GfuiMouseShow@@YAXXZ 10017100     client:client.dll
 0002:00000104       __imp_?GfctrlJoyInit@@YAPAUtCtrlJoyInfo@@XZ 10017104     client:client.dll
 0002:00000108       __imp_?GfctrlJoyGetCurrent@@YAHPAUtCtrlJoyInfo@@@Z 10017108     client:client.dll
 0002:0000010c       __imp_?GfctrlJoyRelease@@YAXPAUtCtrlJoyInfo@@@Z 1001710c     client:client.dll
 0002:00000110       __imp_?GfctrlMouseInit@@YAPAUtCtrlMouseInfo@@XZ 10017110     client:client.dll
 0002:00000114       __imp_?GfctrlMouseGetCurrent@@YAHPAUtCtrlMouseInfo@@@Z 10017114     client:client.dll
 0002:00000118       __imp_?GfctrlMouseRelease@@YAXPAUtCtrlMouseInfo@@@Z 10017118     client:client.dll
 0002:0000011c       __imp_?GfctrlMouseCenter@@YAXXZ 1001711c     client:client.dll
 0002:00000120       __imp_?GfctrlMouseInitCenter@@YAXXZ 10017120     client:client.dll
 0002:00000124       __imp_?GfctrlGetRefByName@@YAPAUtCtrlRef@@PBD@Z 10017124     client:client.dll
 0002:00000128       __imp_?GfctrlGetNameByRef@@YAPBDHH@Z 10017128     client:client.dll
 0002:0000012c       __imp_?GfScrGetSize@@YAXPAH000@Z 1001712c     client:client.dll
 0002:00000130       \177client_NULL_THUNK_DATA 10017130     client:client.dll
 0002:00000134       __imp_?RtTrackSideTgAngleL@@YAMPAUtTrkLocPos@@@Z 10017134     robottools:robottools.dll
 0002:00000138       __imp_?RtGetDistFromStart@@YAMPAUCarElt@@@Z 10017138     robottools:robottools.dll
 0002:0000013c       \177robottools_NULL_THUNK_DATA 1001713c     robottools:robottools.dll
 0002:00000140       __imp_?GfParmReadFile@@YAPAXPBDH@Z 10017140     tgf:tgf.dll
 0002:00000144       __imp_?GfParmWriteFile@@YAHPBDPAX0@Z 10017144     tgf:tgf.dll
 0002:00000148       __imp_?GfParmGetStr@@YAPBDPAXPBD11@Z 10017148     tgf:tgf.dll
 0002:0000014c       __imp_?GfParmSetStr@@YAHPAXPBD11@Z 1001714c     tgf:tgf.dll
 0002:00000150       __imp_?_tgf_win_strdup@@YAPADPBD@Z 10017150     tgf:tgf.dll
 0002:00000154       __imp_?GfParmSetNum@@YAHPAXPBD11M@Z 10017154     tgf:tgf.dll
 0002:00000158       __imp_?GfParmReleaseHandle@@YAXPAX@Z 10017158     tgf:tgf.dll
 0002:0000015c       __imp_?GetLocalDir@@YAPADXZ 1001715c     tgf:tgf.dll
 0002:00000160       __imp_?_tgf_win_free@@YAXPAX@Z 10017160     tgf:tgf.dll
 0002:00000164       __imp_?GfParmGetNum@@YAMPAXPBD11M@Z 10017164     tgf:tgf.dll
 0002:00000168       __imp_?_tgf_win_calloc@@YAPAXII@Z 10017168     tgf:tgf.dll
 0002:0000016c       \177tgf_NULL_THUNK_DATA    1001716c     tgf:tgf.dll
 0002:00000170       ___xc_a                    10017170     LIBCMT:crt0init.obj
 0002:00000180       ___xc_z                    10017180     LIBCMT:crt0init.obj
 0002:00000184       ___xi_a                    10017184     LIBCMT:crt0init.obj
 0002:0000019c       ___xi_z                    1001719c     LIBCMT:crt0init.obj
 0002:000001a0       ___xp_a                    100171a0     LIBCMT:crt0init.obj
 0002:000001b0       ___xp_z                    100171b0     LIBCMT:crt0init.obj
 0002:000001b4       ___xt_a                    100171b4     LIBCMT:crt0init.obj
 0002:000001b8       ___xt_z                    100171b8     LIBCMT:crt0init.obj
 0002:000001d0       ??_C@_00CNPNBAHC@?$AA@     100171d0     human.obj
 0002:000001d8       ??_7error_category@std@@6B@ 100171d8     human.obj
 0002:000001f4       ??_7_Generic_error_category@std@@6B@ 100171f4     human.obj
 0002:0000020c       ??_C@_07DCLBNMLN@generic?$AA@ 1001720c     human.obj
 0002:00000214       ??_C@_0O@BFJCFAAK@unknown?5error?$AA@ 10017214     human.obj
 0002:00000228       ??_7_Iostream_error_category@std@@6B@ 10017228     human.obj
 0002:00000240       ??_C@_08LLGCOLLL@iostream?$AA@ 10017240     human.obj
 0002:0000024c       ??_C@_0BG@PADBLCHM@iostream?5stream?5error?$AA@ 1001724c     human.obj
 0002:00000268       ??_7_System_error_category@std@@6B@ 10017268     human.obj
 0002:00000280       ??_C@_06FHFOAHML@system?$AA@ 10017280     human.obj
 0002:00000288       ??_C@_0BK@OJCEGJDH@?$CFsdrivers?1human?1human?4xml?$AA@ 10017288     human.obj
 0002:000002a4       ??_C@_0BA@OMGEAALP@Robots?1index?1?$CFd?$AA@ 100172a4     human.obj
 0002:000002b4       ??_C@_04MEMAJGDJ@name?$AA@ 100172b4     human.obj
 0002:000002bc       ??_C@_0BM@GOPGHCE@Joystick?5controlable?5driver?$AA@ 100172bc     human.obj
 0002:000002d8       ??_C@_0CI@JEDEOJFM@human?4cpp?0?5initTrack?0?5filename?5t@ 100172d8     human.obj
 0002:00000300       ??_C@_08OBBPKMPK@car?5name?$AA@ 10017300     human.obj
 0002:0000030c       ??_C@_0CI@HIKEIHJD@?$CFsdrivers?1human?1tracks?1?$CFs?1car?9?$CFs@ 1001730c     human.obj
 0002:00000334       ??_C@_0BD@FECFFICF@Player?3?5?$CFs?5Loaded?6?$AA@ 10017334     human.obj
 0002:00000348       ??_C@_0CF@LOLLACJH@?$CFsdrivers?1human?1tracks?1?$CFs?1car?9?$CFs@ 10017348     human.obj
 0002:00000370       ??_C@_0BO@KBJHPOKA@?$CFsdrivers?1human?1car?9?$CFs?9?$CFd?4xml?$AA@ 10017370     human.obj
 0002:00000390       ??_C@_0BL@FGHJJEEC@?$CFsdrivers?1human?1car?9?$CFs?4xml?$AA@ 10017390     human.obj
 0002:000003ac       ??_C@_0BI@ICBGFDLF@?$CFsdrivers?1human?1car?4xml?$AA@ 100173ac     human.obj
 0002:000003c4       ??_C@_07EKALPHEE@Drivers?$AA@ 100173c4     human.obj
 0002:000003cc       ??_C@_0M@PIPCPMLP@Preferences?$AA@ 100173cc     human.obj
 0002:000003d8       ??_C@_08OEOPGIOB@?$CFs?1?$CFs?1?$CFd?$AA@ 100173d8     human.obj
 0002:000003e4       ??_C@_0BF@PCACBANA@programmed?5pit?5stops?$AA@ 100173e4     human.obj
 0002:000003fc       ??_C@_0N@GEJBANM@initial?5fuel?$AA@ 100173fc     human.obj
 0002:0000040c       ??_C@_03DAGGNFD@Car?$AA@   1001740c     human.obj
 0002:00000410       ??_C@_03ECFJFFPO@RWD?$AA@  10017410     human.obj
 0002:00000414       ??_C@_04GPMDFGEJ@type?$AA@ 10017414     human.obj
 0002:0000041c       ??_C@_0L@GPGHGHOJ@Drivetrain?$AA@ 1001741c     human.obj
 0002:00000428       ??_C@_03JNCCJFDG@FWD?$AA@  10017428     human.obj
 0002:0000042c       ??_C@_03FMBEPNCB@4WD?$AA@  1001742c     human.obj
 0002:00000430       ??_C@_06KFALCFDK@ABS?5on?$AA@ 10017430     human.obj
 0002:00000438       ??_C@_05OHCDHBAC@Human?$AA@ 10017438     human.obj
 0002:00000440       ??_C@_06FAOBNNLE@ASR?5on?$AA@ 10017440     human.obj
 0002:00000448       ??_C@_03BLGELAIE@ASR?$AA@  10017448     human.obj
 0002:0000044c       ??_C@_03BPJLEIIC@ABS?$AA@  1001744c     human.obj
 0002:00000450       ??_C@_05DNIIFBMG@?$CFs?5?$CFs?$AA@ 10017450     human.obj
 0002:00000458       ??_C@_0BB@CPOJOICP@Speed?5Limiter?5On?$AA@ 10017458     human.obj
 0002:0000046c       ??_C@_0BC@JGEKEJCI@Speed?5Limiter?5Off?$AA@ 1001746c     human.obj
 0002:00000480       ??_C@_0BA@JFNIOLAK@string?5too?5long?$AA@ 10017480     human.obj
 0002:00000490       ??_C@_0BI@CFPLBAOH@invalid?5string?5position?$AA@ 10017490     human.obj
 0002:000004a8       __real@00000000            100174a8     human.obj
 0002:000004ac       __real@3e4ccccd            100174ac     human.obj
 0002:000004b0       __real@3e800000            100174b0     human.obj
 0002:000004b4       __real@3ea9fbe7            100174b4     human.obj
 0002:000004b8       __real@3f454c985f06f694    100174b8     human.obj
 0002:000004c0       __real@3f4a36e2eb1c432d    100174c0     human.obj
 0002:000004c8       __real@3f800000            100174c8     human.obj
 0002:000004d0       __real@3f947ae147ae147b    100174d0     human.obj
 0002:000004d8       __real@3fb999999999999a    100174d8     human.obj
 0002:000004e0       __real@3fc3333333333333    100174e0     human.obj
 0002:000004e8       __real@3fc999999999999a    100174e8     human.obj
 0002:000004f0       __real@3fd0000000000000    100174f0     human.obj
 0002:000004f8       __real@3fd6666666666666    100174f8     human.obj
 0002:00000500       __real@3fe0000000000000    10017500     human.obj
 0002:00000508       __real@3fe3333333333333    10017508     human.obj
 0002:00000510       __real@3fe6666666666666    10017510     human.obj
 0002:00000518       __real@3fe999999999999a    10017518     human.obj
 0002:00000520       __real@3feb333333333333    10017520     human.obj
 0002:00000528       __real@3ff0000000000000    10017528     human.obj
 0002:00000530       __real@40000000            10017530     human.obj
 0002:00000538       __real@4000000000000000    10017538     human.obj
 0002:00000540       __real@400921fb54442d18    10017540     human.obj
 0002:00000548       __real@4010000000000000    10017548     human.obj
 0002:00000550       __real@4014000000000000    10017550     human.obj
 0002:00000558       __real@4018000000000000    10017558     human.obj
 0002:00000560       __real@401921fb54442d18    10017560     human.obj
 0002:00000568       __real@40200000            10017568     human.obj
 0002:00000570       __real@4024000000000000    10017570     human.obj
 0002:00000578       __real@4034000000000000    10017578     human.obj
 0002:00000580       __real@40a00000            10017580     human.obj
 0002:00000584       __real@41200000            10017584     human.obj
 0002:00000588       __real@42820000            10017588     human.obj
 0002:0000058c       __real@bf800000            1001758c     human.obj
 0002:00000590       __real@bff0000000000000    10017590     human.obj
 0002:00000598       __real@c00921fb54442d18    10017598     human.obj
 0002:000005a0       __xmm@7fffffffffffffff7fffffffffffffff 100175a0     human.obj
 0002:000005b0       __xmm@80000000000000008000000000000000 100175b0     human.obj
 0002:000005c0       __xmm@80000000800000008000000080000000 100175c0     human.obj
 0002:000005d0       ?nbCmdControl@@3HB         100175d0     pref.obj
 0002:000005d8       ??_C@_08KFPMDFMN@up?5shift?$AA@ 100175d8     pref.obj
 0002:000005e4       ??_C@_0L@KPFECBFH@down?5shift?$AA@ 100175e4     pref.obj
 0002:000005f0       ??_C@_07IFFNDJAK@ASR?5cmd?$AA@ 100175f0     pref.obj
 0002:000005f8       ??_C@_07IPKIHNNF@ABS?5cmd?$AA@ 100175f8     pref.obj
 0002:00000600       ??_C@_0N@OKNFDBHF@reverse?5gear?$AA@ 10017600     pref.obj
 0002:00000610       ??_C@_0N@DOOANBAG@neutral?5gear?$AA@ 10017610     pref.obj
 0002:00000620       ??_C@_08GOBOEOLC@1st?5gear?$AA@ 10017620     pref.obj
 0002:0000062c       ??_C@_08NHPDMKED@2nd?5gear?$AA@ 1001762c     pref.obj
 0002:00000638       ??_C@_08OLJMPKGE@3rd?5gear?$AA@ 10017638     pref.obj
 0002:00000644       ??_C@_08IODCPEFO@4th?5gear?$AA@ 10017644     pref.obj
 0002:00000650       ??_C@_08JJEJOABN@5th?5gear?$AA@ 10017650     pref.obj
 0002:0000065c       ??_C@_08KAMENMNI@6th?5gear?$AA@ 1001765c     pref.obj
 0002:00000668       ??_C@_08IEKKGCGJ@throttle?$AA@ 10017668     pref.obj
 0002:00000674       ??_C@_0N@HLFACMB@throttle?5min?$AA@ 10017674     pref.obj
 0002:00000684       ??_C@_0N@BFDOOGKO@throttle?5max?$AA@ 10017684     pref.obj
 0002:00000694       ??_C@_0BF@JKGIOFIM@throttle?5sensitivity?$AA@ 10017694     pref.obj
 0002:000006ac       ??_C@_0P@HCODGONJ@throttle?5power?$AA@ 100176ac     pref.obj
 0002:000006bc       ??_C@_05FHIBGIOH@brake?$AA@ 100176bc     pref.obj
 0002:000006c4       ??_C@_09GOAODIBI@brake?5min?$AA@ 100176c4     pref.obj
 0002:000006d0       ??_C@_09HMIFNMHH@brake?5max?$AA@ 100176d0     pref.obj
 0002:000006dc       ??_C@_0BC@GLAGIECN@brake?5sensitivity?$AA@ 100176dc     pref.obj
 0002:000006f0       ??_C@_0M@OEBFKAIG@brake?5power?$AA@ 100176f0     pref.obj
 0002:000006fc       ??_C@_0L@OPKPPHOO@left?5steer?$AA@ 100176fc     pref.obj
 0002:00000708       ??_C@_0P@CLPELKMN@left?5steer?5min?$AA@ 10017708     pref.obj
 0002:00000718       ??_C@_0P@DJHPFOKC@left?5steer?5max?$AA@ 10017718     pref.obj
 0002:00000728       ??_C@_0BC@DHPOBLIC@steer?5sensitivity?$AA@ 10017728     pref.obj
 0002:0000073c       ??_C@_0BB@BLOMDGCK@left?5steer?5power?$AA@ 1001773c     pref.obj
 0002:00000750       ??_C@_0BI@CDPIFMDP@steer?5speed?5sensitivity?$AA@ 10017750     pref.obj
 0002:00000768       ??_C@_0BA@BMINNPMM@steer?5dead?5zone?$AA@ 10017768     pref.obj
 0002:00000778       ??_C@_0M@IKOMDIOL@right?5steer?$AA@ 10017778     pref.obj
 0002:00000784       ??_C@_0BA@GAFFBCJD@right?5steer?5min?$AA@ 10017784     pref.obj
 0002:00000794       ??_C@_0BA@HCNOPGPM@right?5steer?5max?$AA@ 10017794     pref.obj
 0002:000007a4       ??_C@_0BC@OHNJCGIL@right?5steer?5power?$AA@ 100177a4     pref.obj
 0002:000007b8       ??_C@_0L@CABJBMOL@Light1?5cmd?$AA@ 100177b8     pref.obj
 0002:000007c4       ??_C@_06JFCBHFHK@clutch?$AA@ 100177c4     pref.obj
 0002:000007cc       ??_C@_0L@OOLHCODH@clutch?5min?$AA@ 100177cc     pref.obj
 0002:000007d8       ??_C@_0L@PMDMMKFI@clutch?5max?$AA@ 100177d8     pref.obj
 0002:000007e4       ??_C@_0BD@MDHNKPAM@clutch?5sensitivity?$AA@ 100177e4     pref.obj
 0002:000007f8       ??_C@_0N@CNNKNAD@clutch?5power?$AA@ 100177f8     pref.obj
 0002:00000808       ??_C@_0O@PDEJOBGJ@Speed?5Limiter?$AA@ 10017808     pref.obj
 0002:00000818       ??_C@_08KLNCIBHI@joystick?$AA@ 10017818     pref.obj
 0002:00000824       ??_C@_08KNBLADDJ@keyboard?$AA@ 10017824     pref.obj
 0002:00000830       ??_C@_05PDOJLLAB@mouse?$AA@ 10017830     pref.obj
 0002:00000838       ??_C@_03ICICOMAL@yes?$AA@  10017838     pref.obj
 0002:0000083c       ??_C@_02KAJCLHKP@no?$AA@   1001783c     pref.obj
 0002:00000840       ??_C@_0BO@COMBMIHP@drivers?1human?1preferences?4xml?$AA@ 10017840     pref.obj
 0002:00000860       ??_C@_04HDOCAJNK@?$CFs?$CFs?$AA@ 10017860     pref.obj
 0002:00000868       ??_C@_04HAPDLBFF@auto?$AA@ 10017868     pref.obj
 0002:00000870       ??_C@_0N@ENDCBJLO@transmission?$AA@ 10017870     pref.obj
 0002:00000880       ??_C@_07MMBOFDEG@control?$AA@ 10017880     pref.obj
 0002:00000888       ??_C@_0BB@JBDPOCO@?$CFs?5?9?$DO?5NONE?5?$CI?91?$CJ?6?$AA@ 10017888     pref.obj
 0002:0000089c       ??_C@_09OPDGLCFB@?$CFs?5?9?$DO?5?$CFs?6?$AA@ 1001789c     pref.obj
 0002:000008a8       ??_C@_0CB@CNBDPHHH@release?5gear?5button?5goes?5neutral@ 100178a8     pref.obj
 0002:000008cc       ??_C@_0CB@NKHONLIL@sequential?5shifter?5allow?5neutral@ 100178cc     pref.obj
 0002:000008f0       ??_C@_0N@EHLIHCNP@auto?5reverse?$AA@ 100178f0     pref.obj
 0002:00000900       __real@4059000000000000    10017900     pref.obj
 0002:0000090c       ??_C@_05JLFELJNP@FATAL?$AA@ 1001790c     ul_vs2008_32:ulError.obj
 0002:00000914       ??_C@_07KCOHIFOP@WARNING?$AA@ 10017914     ul_vs2008_32:ulError.obj
 0002:0000091c       ??_C@_05KOLFGEDA@DEBUG?$AA@ 1001791c     ul_vs2008_32:ulError.obj
 0002:0000092c       ??_7bad_alloc@std@@6B@     1001792c     libcpmt:xthrow.obj
 0002:00000934       ??_C@_0P@GHFPNOJB@bad?5allocation?$AA@ 10017934     libcpmt:xthrow.obj
 0002:00000948       ??_7logic_error@std@@6B@   10017948     libcpmt:xthrow.obj
 0002:00000954       ??_7length_error@std@@6B@  10017954     libcpmt:xthrow.obj
 0002:00000960       ??_7out_of_range@std@@6B@  10017960     libcpmt:xthrow.obj
 0002:00000e38       ??_C@_0BC@CIJDGCDI@permission?5denied?$AA@ 10017e38     libcpmt:syserror.obj
 0002:00000e4c       ??_C@_0M@MIDIAGJP@file?5exists?$AA@ 10017e4c     libcpmt:syserror.obj
 0002:00000e58       ??_C@_0P@FDINDDOK@no?5such?5device?$AA@ 10017e58     libcpmt:syserror.obj
 0002:00000e68       ??_C@_0BC@EJHOMAAK@filename?5too?5long?$AA@ 10017e68     libcpmt:syserror.obj
 0002:00000e7c       ??_C@_0BI@NGCEHDD@device?5or?5resource?5busy?$AA@ 10017e7c     libcpmt:syserror.obj
 0002:00000e94       ??_C@_08GLNPIFBN@io?5error?$AA@ 10017e94     libcpmt:syserror.obj
 0002:00000ea0       ??_C@_0BE@JIDOCPHM@directory?5not?5empty?$AA@ 10017ea0     libcpmt:syserror.obj
 0002:00000eb4       ??_C@_0BB@FCMFBGOM@invalid?5argument?$AA@ 10017eb4     libcpmt:syserror.obj
 0002:00000ec8       ??_C@_0BD@IJDJKDEA@no?5space?5on?5device?$AA@ 10017ec8     libcpmt:syserror.obj
 0002:00000edc       ??_C@_0BK@NDOCBPGE@no?5such?5file?5or?5directory?$AA@ 10017edc     libcpmt:syserror.obj
 0002:00000ef8       ??_C@_0BH@KEFGLDAF@function?5not?5supported?$AA@ 10017ef8     libcpmt:syserror.obj
 0002:00000f10       ??_C@_0BC@NJECKMKE@no?5lock?5available?$AA@ 10017f10     libcpmt:syserror.obj
 0002:00000f24       ??_C@_0BC@ENOOLCNF@not?5enough?5memory?$AA@ 10017f24     libcpmt:syserror.obj
 0002:00000f38       ??_C@_0BP@LKNGHENJ@resource?5unavailable?5try?5again?$AA@ 10017f38     libcpmt:syserror.obj
 0002:00000f58       ??_C@_0BC@PPHBOELF@cross?5device?5link?$AA@ 10017f58     libcpmt:syserror.obj
 0002:00000f6c       ??_C@_0BD@MOLBPMEA@operation?5canceled?$AA@ 10017f6c     libcpmt:syserror.obj
 0002:00000f80       ??_C@_0BE@GHAFMPAH@too?5many?5files?5open?$AA@ 10017f80     libcpmt:syserror.obj
 0002:00000f94       ??_C@_0BC@FNODOBAE@permission_denied?$AA@ 10017f94     libcpmt:syserror.obj
 0002:00000fa8       ??_C@_0P@LNDJPBFK@address_in_use?$AA@ 10017fa8     libcpmt:syserror.obj
 0002:00000fb8       ??_C@_0BG@IPMGOJF@address_not_available?$AA@ 10017fb8     libcpmt:syserror.obj
 0002:00000fd0       ??_C@_0BN@LCBDHODA@address_family_not_supported?$AA@ 10017fd0     libcpmt:syserror.obj
 0002:00000ff0       ??_C@_0BP@FOJJHMCC@connection_already_in_progress?$AA@ 10017ff0     libcpmt:syserror.obj
 0002:00001010       ??_C@_0BE@DLHHIBGN@bad_file_descriptor?$AA@ 10018010     libcpmt:syserror.obj
 0002:00001024       ??_C@_0BD@OJMJDIGI@connection_aborted?$AA@ 10018024     libcpmt:syserror.obj
 0002:00001038       ??_C@_0BD@NGKCIFEP@connection_refused?$AA@ 10018038     libcpmt:syserror.obj
 0002:0000104c       ??_C@_0BB@JOANDNCK@connection_reset?$AA@ 1001804c     libcpmt:syserror.obj
 0002:00001060       ??_C@_0BN@JLJNLKLK@destination_address_required?$AA@ 10018060     libcpmt:syserror.obj
 0002:00001080       ??_C@_0M@IJGMGFGP@bad_address?$AA@ 10018080     libcpmt:syserror.obj
 0002:0000108c       ??_C@_0BB@KKNHPPIN@host_unreachable?$AA@ 1001808c     libcpmt:syserror.obj
 0002:000010a0       ??_C@_0BG@DJGBJIIK@operation_in_progress?$AA@ 100180a0     libcpmt:syserror.obj
 0002:000010b8       ??_C@_0M@EGEKIIMP@interrupted?$AA@ 100180b8     libcpmt:syserror.obj
 0002:000010c4       ??_C@_0BB@FFIHMIPJ@invalid_argument?$AA@ 100180c4     libcpmt:syserror.obj
 0002:000010d8       ??_C@_0BC@FIFLCHLO@already_connected?$AA@ 100180d8     libcpmt:syserror.obj
 0002:000010ec       ??_C@_0BE@GJJJJDDA@too_many_files_open?$AA@ 100180ec     libcpmt:syserror.obj
 0002:00001100       ??_C@_0N@HPMLKHPL@message_size?$AA@ 10018100     libcpmt:syserror.obj
 0002:00001110       ??_C@_0BC@LEEIKBAL@filename_too_long?$AA@ 10018110     libcpmt:syserror.obj
 0002:00001124       ??_C@_0N@FCPALPJK@network_down?$AA@ 10018124     libcpmt:syserror.obj
 0002:00001134       ??_C@_0O@EHNDLHIG@network_reset?$AA@ 10018134     libcpmt:syserror.obj
 0002:00001144       ??_C@_0BE@JFNJIDNF@network_unreachable?$AA@ 10018144     libcpmt:syserror.obj
 0002:00001158       ??_C@_0BA@FDIJKJCL@no_buffer_space?$AA@ 10018158     libcpmt:syserror.obj
 0002:00001168       ??_C@_0BD@JHIHCGKP@no_protocol_option?$AA@ 10018168     libcpmt:syserror.obj
 0002:0000117c       ??_C@_0O@GBCLHHD@not_connected?$AA@ 1001817c     libcpmt:syserror.obj
 0002:0000118c       ??_C@_0N@IMHKKLEM@not_a_socket?$AA@ 1001818c     libcpmt:syserror.obj
 0002:0000119c       ??_C@_0BI@ICEIDKLJ@operation_not_supported?$AA@ 1001819c     libcpmt:syserror.obj
 0002:000011b4       ??_C@_0BH@KAPBAIJF@protocol_not_supported?$AA@ 100181b4     libcpmt:syserror.obj
 0002:000011cc       ??_C@_0BE@GAOJJFPC@wrong_protocol_type?$AA@ 100181cc     libcpmt:syserror.obj
 0002:000011e0       ??_C@_09NCHNLHPG@timed_out?$AA@ 100181e0     libcpmt:syserror.obj
 0002:000011ec       ??_C@_0BG@GDGHKFDH@operation_would_block?$AA@ 100181ec     libcpmt:syserror.obj
 0002:00001204       ??_C@_0BN@LKKBCCDB@address?5family?5not?5supported?$AA@ 10018204     libcpmt:syserror.obj
 0002:00001224       ??_C@_0P@LDMLAFHI@address?5in?5use?$AA@ 10018224     libcpmt:syserror.obj
 0002:00001234       ??_C@_0BG@DHPCNBJB@address?5not?5available?$AA@ 10018234     libcpmt:syserror.obj
 0002:0000124c       ??_C@_0BC@DFIBIBIL@already?5connected?$AA@ 1001824c     libcpmt:syserror.obj
 0002:00001260       ??_C@_0BH@CAKOHOMI@argument?5list?5too?5long?$AA@ 10018260     libcpmt:syserror.obj
 0002:00001278       ??_C@_0BH@CGIMPKIM@argument?5out?5of?5domain?$AA@ 10018278     libcpmt:syserror.obj
 0002:00001290       ??_C@_0M@KGHGGJGL@bad?5address?$AA@ 10018290     libcpmt:syserror.obj
 0002:0000129c       ??_C@_0BE@MPJPGCEO@bad?5file?5descriptor?$AA@ 1001829c     libcpmt:syserror.obj
 0002:000012b0       ??_C@_0M@PMMIEFCP@bad?5message?$AA@ 100182b0     libcpmt:syserror.obj
 0002:000012bc       ??_C@_0M@KPHOFDBE@broken?5pipe?$AA@ 100182bc     libcpmt:syserror.obj
 0002:000012c8       ??_C@_0BD@MGNDDEGM@connection?5aborted?$AA@ 100182c8     libcpmt:syserror.obj
 0002:000012dc       ??_C@_0BP@KAIHPOGN@connection?5already?5in?5progress?$AA@ 100182dc     libcpmt:syserror.obj
 0002:000012fc       ??_C@_0BD@PJLIIJEL@connection?5refused?$AA@ 100182fc     libcpmt:syserror.obj
 0002:00001310       ??_C@_0BB@IECNJNOI@connection?5reset?$AA@ 10018310     libcpmt:syserror.obj
 0002:00001324       ??_C@_0BN@KDMIFEIP@destination?5address?5required?$AA@ 10018324     libcpmt:syserror.obj
 0002:00001344       ??_C@_0BI@BNCLIGPB@executable?5format?5error?$AA@ 10018344     libcpmt:syserror.obj
 0002:0000135c       ??_C@_0P@DNAJLBJK@file?5too?5large?$AA@ 1001835c     libcpmt:syserror.obj
 0002:0000136c       ??_C@_0BB@DHFDFGDM@host?5unreachable?$AA@ 1001836c     libcpmt:syserror.obj
 0002:00001380       ??_C@_0BD@JPHBMONG@identifier?5removed?$AA@ 10018380     libcpmt:syserror.obj
 0002:00001394       ??_C@_0BG@CDNPAGJK@illegal?5byte?5sequence?$AA@ 10018394     libcpmt:syserror.obj
 0002:000013ac       ??_C@_0CD@BNPLBMNA@inappropriate?5io?5control?5operati@ 100183ac     libcpmt:syserror.obj
 0002:000013d0       ??_C@_0N@OHAFKDEK@invalid?5seek?$AA@ 100183d0     libcpmt:syserror.obj
 0002:000013e0       ??_C@_0P@FLLDBIDK@is?5a?5directory?$AA@ 100183e0     libcpmt:syserror.obj
 0002:000013f0       ??_C@_0N@IFLPBIOP@message?5size?$AA@ 100183f0     libcpmt:syserror.obj
 0002:00001400       ??_C@_0N@KIIEAAIO@network?5down?$AA@ 10018400     libcpmt:syserror.obj
 0002:00001410       ??_C@_0O@FNPDBHEE@network?5reset?$AA@ 10018410     libcpmt:syserror.obj
 0002:00001420       ??_C@_0BE@IFNCKGE@network?5unreachable?$AA@ 10018420     libcpmt:syserror.obj
 0002:00001434       ??_C@_0BA@PFFCAOFK@no?5buffer?5space?$AA@ 10018434     libcpmt:syserror.obj
 0002:00001444       ??_C@_0BB@IEPBLJHK@no?5child?5process?$AA@ 10018444     libcpmt:syserror.obj
 0002:00001458       ??_C@_07PLECNNKG@no?5link?$AA@ 10018458     libcpmt:syserror.obj
 0002:00001460       ??_C@_0BF@PBGGPKKE@no?5message?5available?$AA@ 10018460     libcpmt:syserror.obj
 0002:00001478       ??_C@_0L@EDOLMPAK@no?5message?$AA@ 10018478     libcpmt:syserror.obj
 0002:00001484       ??_C@_0BD@EAMBFIDF@no?5protocol?5option?$AA@ 10018484     libcpmt:syserror.obj
 0002:00001498       ??_C@_0BE@MKFDAFMP@no?5stream?5resources?$AA@ 10018498     libcpmt:syserror.obj
 0002:000014ac       ??_C@_0BK@IMCPHCBI@no?5such?5device?5or?5address?$AA@ 100184ac     libcpmt:syserror.obj
 0002:000014c8       ??_C@_0BA@ENLPPKBN@no?5such?5process?$AA@ 100184c8     libcpmt:syserror.obj
 0002:000014d8       ??_C@_0BA@DOCPFFJG@not?5a?5directory?$AA@ 100184d8     libcpmt:syserror.obj
 0002:000014e8       ??_C@_0N@POEIPGGF@not?5a?5socket?$AA@ 100184e8     libcpmt:syserror.obj
 0002:000014f8       ??_C@_0N@LGAPMMPI@not?5a?5stream?$AA@ 100184f8     libcpmt:syserror.obj
 0002:00001508       ??_C@_0O@GLMIBBEG@not?5connected?$AA@ 10018508     libcpmt:syserror.obj
 0002:00001518       ??_C@_0O@NHEDABJP@not?5supported?$AA@ 10018518     libcpmt:syserror.obj
 0002:00001528       ??_C@_0BG@KDKHOPCO@operation?5in?5progress?$AA@ 10018528     libcpmt:syserror.obj
 0002:00001540       ??_C@_0BI@OHIEJAAB@operation?5not?5permitted?$AA@ 10018540     libcpmt:syserror.obj
 0002:00001558       ??_C@_0BI@LNEGIFLN@operation?5not?5supported?$AA@ 10018558     libcpmt:syserror.obj
 0002:00001570       ??_C@_0BG@OEMDKMEE@operation?5would?5block?$AA@ 10018570     libcpmt:syserror.obj
 0002:00001588       ??_C@_0L@BLPOFLNJ@owner?5dead?$AA@ 10018588     libcpmt:syserror.obj
 0002:00001594       ??_C@_0P@FNPOCJBE@protocol?5error?$AA@ 10018594     libcpmt:syserror.obj
 0002:000015a4       ??_C@_0BH@JPPPLHJB@protocol?5not?5supported?$AA@ 100185a4     libcpmt:syserror.obj
 0002:000015bc       ??_C@_0BG@EICBIHDP@read?5only?5file?5system?$AA@ 100185bc     libcpmt:syserror.obj
 0002:000015d4       ??_C@_0BO@BJBOMOEJ@resource?5deadlock?5would?5occur?$AA@ 100185d4     libcpmt:syserror.obj
 0002:000015f4       ??_C@_0BE@GOIPJJHG@result?5out?5of?5range?$AA@ 100185f4     libcpmt:syserror.obj
 0002:00001608       ??_C@_0BG@MPLKFPAE@state?5not?5recoverable?$AA@ 10018608     libcpmt:syserror.obj
 0002:00001620       ??_C@_0P@DIIFGFCG@stream?5timeout?$AA@ 10018620     libcpmt:syserror.obj
 0002:00001630       ??_C@_0P@IPFDMIFL@text?5file?5busy?$AA@ 10018630     libcpmt:syserror.obj
 0002:00001640       ??_C@_09KJPPMAOI@timed?5out?$AA@ 10018640     libcpmt:syserror.obj
 0002:0000164c       ??_C@_0BO@HACHBEKI@too?5many?5files?5open?5in?5system?$AA@ 1001864c     libcpmt:syserror.obj
 0002:0000166c       ??_C@_0P@HCOMKFCC@too?5many?5links?$AA@ 1001866c     libcpmt:syserror.obj
 0002:0000167c       ??_C@_0BO@EFGOJEF@too?5many?5symbolic?5link?5levels?$AA@ 1001867c     libcpmt:syserror.obj
 0002:0000169c       ??_C@_0BA@KGKGOOJA@value?5too?5large?$AA@ 1001869c     libcpmt:syserror.obj
 0002:000016ac       ??_C@_0BE@MIEJDDNH@wrong?5protocol?5type?$AA@ 100186ac     libcpmt:syserror.obj
 0002:00005934       ??_7type_info@@6B@         1001c934     LIBCMT:typinfo.obj
 0002:00005938       __FPinit                   1001c938     LIBCMT:fpinit.obj
 0002:0000593c       __pDefaultRawDllMain       1001c93c     LIBCMT:dllcrt0.obj
 0002:0000593c       __pRawDllMain              1001c93c     LIBCMT:dllcrt0.obj
 0002:00005940       ??_C@_1BI@BGOHAHKC@?$AAm?$AAs?$AAc?$AAo?$AAr?$AAe?$AAe?$AA?4?$AAd?$AAl?$AAl?$AA?$AA@ 1001c940     LIBCMT:crt0dat.obj
 0002:00005958       ??_C@_0P@MIGLKIOC@CorExitProcess?$AA@ 1001c958     LIBCMT:crt0dat.obj
 0002:0000596c       ??_7exception@std@@6B@     1001c96c     LIBCMT:stdexcpt.obj
 0002:00005974       ??_C@_0BC@EOODALEL@Unknown?5exception?$AA@ 1001c974     LIBCMT:stdexcpt.obj
 0002:00005988       ??_C@_03KHJOGHMM@exp?$AA@  1001c988     LIBCMT:fpexcept.obj
 0002:0000598c       ??_C@_03JGHBODFD@pow?$AA@  1001c98c     LIBCMT:fpexcept.obj
 0002:00005990       ??_C@_03MGHMBJCF@log?$AA@  1001c990     LIBCMT:fpexcept.obj
 0002:00005994       ??_C@_05HGHHAHAP@log10?$AA@ 1001c994     LIBCMT:fpexcept.obj
 0002:0000599c       ??_C@_04COOMCNPB@sinh?$AA@ 1001c99c     LIBCMT:fpexcept.obj
 0002:000059a4       ??_C@_04HPJJNFIM@cosh?$AA@ 1001c9a4     LIBCMT:fpexcept.obj
 0002:000059ac       ??_C@_04FJHINJAO@tanh?$AA@ 1001c9ac     LIBCMT:fpexcept.obj
 0002:000059b4       ??_C@_04FIHNOPOL@asin?$AA@ 1001c9b4     LIBCMT:fpexcept.obj
 0002:000059bc       ??_C@_04PDIFKINK@acos?$AA@ 1001c9bc     LIBCMT:fpexcept.obj
 0002:000059c4       ??_C@_04MLLJIGOK@atan?$AA@ 1001c9c4     LIBCMT:fpexcept.obj
 0002:000059cc       ??_C@_05KNGEOGJB@atan2?$AA@ 1001c9cc     LIBCMT:fpexcept.obj
 0002:000059d4       ??_C@_04EIAKFFMI@sqrt?$AA@ 1001c9d4     LIBCMT:fpexcept.obj
 0002:000059dc       ??_C@_03BLEJJJBH@sin?$AA@  1001c9dc     LIBCMT:fpexcept.obj
 0002:000059e0       ??_C@_03LALBNOCG@cos?$AA@  1001c9e0     LIBCMT:fpexcept.obj
 0002:000059e4       ??_C@_03IIINPABG@tan?$AA@  1001c9e4     LIBCMT:fpexcept.obj
 0002:000059e8       ??_C@_04GFPJNGEK@ceil?$AA@ 1001c9e8     LIBCMT:fpexcept.obj
 0002:000059f0       ??_C@_05PBJFFIGL@floor?$AA@ 1001c9f0     LIBCMT:fpexcept.obj
 0002:000059f8       ??_C@_04ODHECPBC@fabs?$AA@ 1001c9f8     LIBCMT:fpexcept.obj
 0002:00005a00       ??_C@_04EHEDPDJG@modf?$AA@ 1001ca00     LIBCMT:fpexcept.obj
 0002:00005a08       ??_C@_05CEJMAHNP@ldexp?$AA@ 1001ca08     LIBCMT:fpexcept.obj
 0002:00005a10       ??_C@_05KBKMEMPO@_cabs?$AA@ 1001ca10     LIBCMT:fpexcept.obj
 0002:00005a18       ??_C@_06MEIMCGCF@_hypot?$AA@ 1001ca18     LIBCMT:fpexcept.obj
 0002:00005a20       ??_C@_04KEPJIHGP@fmod?$AA@ 1001ca20     LIBCMT:fpexcept.obj
 0002:00005a28       ??_C@_05GKKHEGJL@frexp?$AA@ 1001ca28     LIBCMT:fpexcept.obj
 0002:00005a30       ??_C@_03MJLDFKDL@_y0?$AA@  1001ca30     LIBCMT:fpexcept.obj
 0002:00005a34       ??_C@_03NAKIGLHK@_y1?$AA@  1001ca34     LIBCMT:fpexcept.obj
 0002:00005a38       ??_C@_03ONILCKOB@_yn?$AA@  1001ca38     LIBCMT:fpexcept.obj
 0002:00005a3c       ??_C@_05JGDBENOH@_logb?$AA@ 1001ca3c     LIBCMT:fpexcept.obj
 0002:00005a44       ??_C@_0L@KDOEJCKC@_nextafter?$AA@ 1001ca44     LIBCMT:fpexcept.obj
 0002:00005a50       ??_C@_06OJHGLDPL@?$CInull?$CJ?$AA@ 1001ca50     LIBCMT:output.obj
 0002:00005a58       ??_C@_1O@CEDCILHN@?$AA?$CI?$AAn?$AAu?$AAl?$AAl?$AA?$CJ?$AA?$AA@ 1001ca58     LIBCMT:output.obj
 0002:00005a68       ___lookuptable             1001ca68     LIBCMT:output.obj
 0002:00005ad0       __OP_ATAN2jmptab           1001cad0     LIBCMT:87triga.obj
 0002:00005b50       __pDestructExceptionObject 1001cb50     LIBCMT:frame.obj
 0002:00005b58       ??_7bad_exception@std@@6B@ 1001cb58     LIBCMT:frame.obj
 0002:00005b60       ??_C@_0O@DPKOEFFH@bad?5exception?$AA@ 1001cb60     LIBCMT:frame.obj
 0002:00005bd8       ??_C@_05EOHGHCHD@exp10?$AA@ 1001cbd8     LIBCMT:libm_error.obj
 0002:00005be0       ??_C@_05KLBDPFGC@e?$CL000?$AA@ 1001cbe0     LIBCMT:cvt.obj
 0002:00005be8       __XcptActTab               1001cbe8     LIBCMT:winxfltr.obj
 0002:00005c78       __XcptActTabCount          1001cc78     LIBCMT:winxfltr.obj
 0002:00005c7c       __XcptActTabSize           1001cc7c     LIBCMT:winxfltr.obj
 0002:00005c80       __First_FPE_Indx           1001cc80     LIBCMT:winxfltr.obj
 0002:00005c84       __Num_FPE                  1001cc84     LIBCMT:winxfltr.obj
 0002:00005c88       ??_C@_1BK@MGMFAEKH@?$AAk?$AAe?$AAr?$AAn?$AAe?$AAl?$AA3?$AA2?$AA?4?$AAd?$AAl?$AAl?$AA?$AA@ 1001cc88     LIBCMT:winapisupp.obj
 0002:00005ca4       ??_C@_08KNHFBNJ@FlsAlloc?$AA@ 1001cca4     LIBCMT:winapisupp.obj
 0002:00005cb0       ??_C@_07PEJMOBNF@FlsFree?$AA@ 1001ccb0     LIBCMT:winapisupp.obj
 0002:00005cb8       ??_C@_0M@GDNOONDI@FlsGetValue?$AA@ 1001ccb8     LIBCMT:winapisupp.obj
 0002:00005cc4       ??_C@_0M@JCPCPOEF@FlsSetValue?$AA@ 1001ccc4     LIBCMT:winapisupp.obj
 0002:00005cd0       ??_C@_0BM@HCFOFFN@InitializeCriticalSectionEx?$AA@ 1001ccd0     LIBCMT:winapisupp.obj
 0002:00005cec       ??_C@_0P@DLHPPCNH@CreateEventExW?$AA@ 1001ccec     LIBCMT:winapisupp.obj
 0002:00005cfc       ??_C@_0BD@KIEEOEEH@CreateSemaphoreExW?$AA@ 1001ccfc     LIBCMT:winapisupp.obj
 0002:00005d10       ??_C@_0BI@BKLFFAPO@SetThreadStackGuarantee?$AA@ 1001cd10     LIBCMT:winapisupp.obj
 0002:00005d28       ??_C@_0BG@OGFAJCKC@CreateThreadpoolTimer?$AA@ 1001cd28     LIBCMT:winapisupp.obj
 0002:00005d40       ??_C@_0BD@LPLEMMDI@SetThreadpoolTimer?$AA@ 1001cd40     LIBCMT:winapisupp.obj
 0002:00005d54       ??_C@_0CA@FMNJENH@WaitForThreadpoolTimerCallbacks?$AA@ 1001cd54     LIBCMT:winapisupp.obj
 0002:00005d74       ??_C@_0BF@DCFCCNOC@CloseThreadpoolTimer?$AA@ 1001cd74     LIBCMT:winapisupp.obj
 0002:00005d8c       ??_C@_0BF@FLABGKKM@CreateThreadpoolWait?$AA@ 1001cd8c     LIBCMT:winapisupp.obj
 0002:00005da4       ??_C@_0BC@MGCOHNA@SetThreadpoolWait?$AA@ 1001cda4     LIBCMT:winapisupp.obj
 0002:00005db8       ??_C@_0BE@OCIOMIMP@CloseThreadpoolWait?$AA@ 1001cdb8     LIBCMT:winapisupp.obj
 0002:00005dcc       ??_C@_0BJ@LKGHFHBO@FlushProcessWriteBuffers?$AA@ 1001cdcc     LIBCMT:winapisupp.obj
 0002:00005de8       ??_C@_0BP@KALKKPMO@FreeLibraryWhenCallbackReturns?$AA@ 1001cde8     LIBCMT:winapisupp.obj
 0002:00005e08       ??_C@_0BK@DFNBACLA@GetCurrentProcessorNumber?$AA@ 1001ce08     LIBCMT:winapisupp.obj
 0002:00005e24       ??_C@_0BP@KHGALBC@GetLogicalProcessorInformation?$AA@ 1001ce24     LIBCMT:winapisupp.obj
 0002:00005e44       ??_C@_0BE@FKKLLFLM@CreateSymbolicLinkW?$AA@ 1001ce44     LIBCMT:winapisupp.obj
 0002:00005e58       ??_C@_0BJ@OHNKDLIJ@SetDefaultDllDirectories?$AA@ 1001ce58     LIBCMT:winapisupp.obj
 0002:00005e74       ??_C@_0BE@LJANKFHF@EnumSystemLocalesEx?$AA@ 1001ce74     LIBCMT:winapisupp.obj
 0002:00005e88       ??_C@_0BA@IHGNDAEB@CompareStringEx?$AA@ 1001ce88     LIBCMT:winapisupp.obj
 0002:00005e98       ??_C@_0BA@EPCJIIPD@GetDateFormatEx?$AA@ 1001ce98     LIBCMT:winapisupp.obj
 0002:00005ea8       ??_C@_0BA@ONOKGCMP@GetLocaleInfoEx?$AA@ 1001cea8     LIBCMT:winapisupp.obj
 0002:00005eb8       ??_C@_0BA@CIJJKCJJ@GetTimeFormatEx?$AA@ 1001ceb8     LIBCMT:winapisupp.obj
 0002:00005ec8       ??_C@_0BJ@PBCCBIPI@GetUserDefaultLocaleName?$AA@ 1001cec8     LIBCMT:winapisupp.obj
 0002:00005ee4       ??_C@_0BC@CELBKLLA@IsValidLocaleName?$AA@ 1001cee4     LIBCMT:winapisupp.obj
 0002:00005ef8       ??_C@_0O@KKBNKAPF@LCMapStringEx?$AA@ 1001cef8     LIBCMT:winapisupp.obj
 0002:00005f08       ??_C@_0BE@JOGNEJCI@GetCurrentPackageId?$AA@ 1001cf08     LIBCMT:winapisupp.obj
 0002:00005f1c       ??_C@_0P@CDHHOHKP@GetTickCount64?$AA@ 1001cf1c     LIBCMT:winapisupp.obj
 0002:00005f2c       ??_C@_0BO@KPCLFDJJ@GetFileInformationByHandleExW?$AA@ 1001cf2c     LIBCMT:winapisupp.obj
 0002:00005f4c       ??_C@_0BM@MHIDLABK@SetFileInformationByHandleW?$AA@ 1001cf4c     LIBCMT:winapisupp.obj
 0002:00005f70       __indefinite               1001cf70     LIBCMT:87disp.obj
 0002:00005f7a       __piby2                    1001cf7a     LIBCMT:87disp.obj
 0002:00005fa8       __DEFAULT_CW_in_mem        1001cfa8     LIBCMT:common.obj
 0002:00005faa       __pi_by_2_to_61            1001cfaa     LIBCMT:common.obj
 0002:0000b898       ??_C@_1FK@PGACCAFB@?$AAR?$AA6?$AA0?$AA0?$AA2?$AA?$AN?$AA?6?$AA?9?$AA?5?$AAf?$AAl?$AAo?$AAa?$AAt?$AAi?$AAn?$AAg?$AA?5?$AAp?$AAo?$AAi?$AAn?$AAt?$AA?5?$AAs?$AAu?$AAp?$AAp?$AAo?$AAr?$AAt?$AA?5@ 10022898     LIBCMT:crt0msg.obj
 0002:0000b8f8       ??_C@_1FE@LLNEDJMD@?$AAR?$AA6?$AA0?$AA0?$AA8?$AA?$AN?$AA?6?$AA?9?$AA?5?$AAn?$AAo?$AAt?$AA?5?$AAe?$AAn?$AAo?$AAu?$AAg?$AAh?$AA?5?$AAs?$AAp?$AAa?$AAc?$AAe?$AA?5?$AAf?$AAo?$AAr?$AA?5?$AAa?$AAr@ 100228f8     LIBCMT:crt0msg.obj
 0002:0000b950       ??_C@_1FI@HONFMGBI@?$AAR?$AA6?$AA0?$AA0?$AA9?$AA?$AN?$AA?6?$AA?9?$AA?5?$AAn?$AAo?$AAt?$AA?5?$AAe?$AAn?$AAo?$AAu?$AAg?$AAh?$AA?5?$AAs?$AAp?$AAa?$AAc?$AAe?$AA?5?$AAf?$AAo?$AAr?$AA?5?$AAe?$AAn@ 10022950     LIBCMT:crt0msg.obj
 0002:0000b9a8       ??_C@_1EG@BEHAGFJD@?$AAR?$AA6?$AA0?$AA1?$AA0?$AA?$AN?$AA?6?$AA?9?$AA?5?$AAa?$AAb?$AAo?$AAr?$AAt?$AA?$CI?$AA?$CJ?$AA?5?$AAh?$AAa?$AAs?$AA?5?$AAb?$AAe?$AAe?$AAn?$AA?5?$AAc?$AAa?$AAl?$AAl?$AAe?$AAd@ 100229a8     LIBCMT:crt0msg.obj
 0002:0000b9f0       ??_C@_1FI@LOGNIKDM@?$AAR?$AA6?$AA0?$AA1?$AA6?$AA?$AN?$AA?6?$AA?9?$AA?5?$AAn?$AAo?$AAt?$AA?5?$AAe?$AAn?$AAo?$AAu?$AAg?$AAh?$AA?5?$AAs?$AAp?$AAa?$AAc?$AAe?$AA?5?$AAf?$AAo?$AAr?$AA?5?$AAt?$AAh@ 100229f0     LIBCMT:crt0msg.obj
 0002:0000ba48       ??_C@_1FK@BEOGODMC@?$AAR?$AA6?$AA0?$AA1?$AA7?$AA?$AN?$AA?6?$AA?9?$AA?5?$AAu?$AAn?$AAe?$AAx?$AAp?$AAe?$AAc?$AAt?$AAe?$AAd?$AA?5?$AAm?$AAu?$AAl?$AAt?$AAi?$AAt?$AAh?$AAr?$AAe?$AAa?$AAd?$AA?5@ 10022a48     LIBCMT:crt0msg.obj
 0002:0000baa8       ??_C@_1EC@JIBHAOPH@?$AAR?$AA6?$AA0?$AA1?$AA8?$AA?$AN?$AA?6?$AA?9?$AA?5?$AAu?$AAn?$AAe?$AAx?$AAp?$AAe?$AAc?$AAt?$AAe?$AAd?$AA?5?$AAh?$AAe?$AAa?$AAp?$AA?5?$AAe?$AAr?$AAr?$AAo?$AAr?$AA?$AN?$AA?6@ 10022aa8     LIBCMT:crt0msg.obj
 0002:0000baf0       ??_C@_1FC@ECHBIFBC@?$AAR?$AA6?$AA0?$AA1?$AA9?$AA?$AN?$AA?6?$AA?9?$AA?5?$AAu?$AAn?$AAa?$AAb?$AAl?$AAe?$AA?5?$AAt?$AAo?$AA?5?$AAo?$AAp?$AAe?$AAn?$AA?5?$AAc?$AAo?$AAn?$AAs?$AAo?$AAl?$AAe?$AA?5@ 10022af0     LIBCMT:crt0msg.obj
 0002:0000bb48       ??_C@_1GK@FHCKBEFA@?$AAR?$AA6?$AA0?$AA2?$AA4?$AA?$AN?$AA?6?$AA?9?$AA?5?$AAn?$AAo?$AAt?$AA?5?$AAe?$AAn?$AAo?$AAu?$AAg?$AAh?$AA?5?$AAs?$AAp?$AAa?$AAc?$AAe?$AA?5?$AAf?$AAo?$AAr?$AA?5?$AA_?$AAo@ 10022b48     LIBCMT:crt0msg.obj
 0002:0000bbb8       ??_C@_1EM@MAADIHMB@?$AAR?$AA6?$AA0?$AA2?$AA5?$AA?$AN?$AA?6?$AA?9?$AA?5?$AAp?$AAu?$AAr?$AAe?$AA?5?$AAv?$AAi?$AAr?$AAt?$AAu?$AAa?$AAl?$AA?5?$AAf?$AAu?$AAn?$AAc?$AAt?$AAi?$AAo?$AAn?$AA?5?$AAc@ 10022bb8     LIBCMT:crt0msg.obj
 0002:0000bc08       ??_C@_1GK@MCAAGJMO@?$AAR?$AA6?$AA0?$AA2?$AA6?$AA?$AN?$AA?6?$AA?9?$AA?5?$AAn?$AAo?$AAt?$AA?5?$AAe?$AAn?$AAo?$AAu?$AAg?$AAh?$AA?5?$AAs?$AAp?$AAa?$AAc?$AAe?$AA?5?$AAf?$AAo?$AAr?$AA?5?$AAs?$AAt@ 10022c08     LIBCMT:crt0msg.obj
 0002:0000bc78       ??_C@_1GK@MFGOKLAG@?$AAR?$AA6?$AA0?$AA2?$AA7?$AA?$AN?$AA?6?$AA?9?$AA?5?$AAn?$AAo?$AAt?$AA?5?$AAe?$AAn?$AAo?$AAu?$AAg?$AAh?$AA?5?$AAs?$AAp?$AAa?$AAc?$AAe?$AA?5?$AAf?$AAo?$AAr?$AA?5?$AAl?$AAo@ 10022c78     LIBCMT:crt0msg.obj
 0002:0000bce8       ??_C@_1EK@HHFLMAOL@?$AAR?$AA6?$AA0?$AA2?$AA8?$AA?$AN?$AA?6?$AA?9?$AA?5?$AAu?$AAn?$AAa?$AAb?$AAl?$AAe?$AA?5?$AAt?$AAo?$AA?5?$AAi?$AAn?$AAi?$AAt?$AAi?$AAa?$AAl?$AAi?$AAz?$AAe?$AA?5?$AAh?$AAe@ 10022ce8     LIBCMT:crt0msg.obj
 0002:0000bd34       ??_C@_1DO@BMFCDCD@?$AAR?$AA6?$AA0?$AA3?$AA0?$AA?$AN?$AA?6?$AA?9?$AA?5?$AAC?$AAR?$AAT?$AA?5?$AAn?$AAo?$AAt?$AA?5?$AAi?$AAn?$AAi?$AAt?$AAi?$AAa?$AAl?$AAi?$AAz?$AAe?$AAd?$AA?$AN?$AA?6?$AA?$AA@ 10022d34     LIBCMT:crt0msg.obj
 0002:0000bd78       ??_C@_1MG@ENCOOIDF@?$AAR?$AA6?$AA0?$AA3?$AA1?$AA?$AN?$AA?6?$AA?9?$AA?5?$AAA?$AAt?$AAt?$AAe?$AAm?$AAp?$AAt?$AA?5?$AAt?$AAo?$AA?5?$AAi?$AAn?$AAi?$AAt?$AAi?$AAa?$AAl?$AAi?$AAz?$AAe?$AA?5?$AAt@ 10022d78     LIBCMT:crt0msg.obj
 0002:0000be40       ??_C@_1GG@GOPILAJP@?$AAR?$AA6?$AA0?$AA3?$AA2?$AA?$AN?$AA?6?$AA?9?$AA?5?$AAn?$AAo?$AAt?$AA?5?$AAe?$AAn?$AAo?$AAu?$AAg?$AAh?$AA?5?$AAs?$AAp?$AAa?$AAc?$AAe?$AA?5?$AAf?$AAo?$AAr?$AA?5?$AAl?$AAo@ 10022e40     LIBCMT:crt0msg.obj
 0002:0000bea8       ??_C@_1BOO@KGEDBGAJ@?$AAR?$AA6?$AA0?$AA3?$AA3?$AA?$AN?$AA?6?$AA?9?$AA?5?$AAA?$AAt?$AAt?$AAe?$AAm?$AAp?$AAt?$AA?5?$AAt?$AAo?$AA?5?$AAu?$AAs?$AAe?$AA?5?$AAM?$AAS?$AAI?$AAL?$AA?5?$AAc?$AAo?$AAd@ 10022ea8     LIBCMT:crt0msg.obj
 0002:0000c098       ??_C@_1GG@MKFPEKFO@?$AAR?$AA6?$AA0?$AA3?$AA4?$AA?$AN?$AA?6?$AA?9?$AA?5?$AAi?$AAn?$AAc?$AAo?$AAn?$AAs?$AAi?$AAs?$AAt?$AAe?$AAn?$AAt?$AA?5?$AAo?$AAn?$AAe?$AAx?$AAi?$AAt?$AA?5?$AAb?$AAe?$AAg@ 10023098     LIBCMT:crt0msg.obj
 0002:0000c100       ??_C@_1BO@BFCDCGC@?$AAD?$AAO?$AAM?$AAA?$AAI?$AAN?$AA?5?$AAe?$AAr?$AAr?$AAo?$AAr?$AA?$AN?$AA?6?$AA?$AA@ 10023100     LIBCMT:crt0msg.obj
 0002:0000c120       ??_C@_1BK@KMOMNAAI@?$AAS?$AAI?$AAN?$AAG?$AA?5?$AAe?$AAr?$AAr?$AAo?$AAr?$AA?$AN?$AA?6?$AA?$AA@ 10023120     LIBCMT:crt0msg.obj
 0002:0000c13c       ??_C@_1BM@JBBEPPHI@?$AAT?$AAL?$AAO?$AAS?$AAS?$AA?5?$AAe?$AAr?$AAr?$AAo?$AAr?$AA?$AN?$AA?6?$AA?$AA@ 1002313c     LIBCMT:crt0msg.obj
 0002:0000c158       ??_C@_15JNBOKNOG@?$AA?$AN?$AA?6?$AA?$AA@ 10023158     LIBCMT:crt0msg.obj
 0002:0000c160       ??_C@_1BO@BKOMIGKJ@?$AAr?$AAu?$AAn?$AAt?$AAi?$AAm?$AAe?$AA?5?$AAe?$AAr?$AAr?$AAo?$AAr?$AA?5?$AA?$AA@ 10023160     LIBCMT:crt0msg.obj
 0002:0000c180       ??_C@_1DE@JNGNBFGO@?$AAR?$AAu?$AAn?$AAt?$AAi?$AAm?$AAe?$AA?5?$AAE?$AAr?$AAr?$AAo?$AAr?$AA?$CB?$AA?6?$AA?6?$AAP?$AAr?$AAo?$AAg?$AAr?$AAa?$AAm?$AA?3?$AA?5?$AA?$AA@ 10023180     LIBCMT:crt0msg.obj
 0002:0000c1b4       ??_C@_1CO@EAEJAADC@?$AA?$DM?$AAp?$AAr?$AAo?$AAg?$AAr?$AAa?$AAm?$AA?5?$AAn?$AAa?$AAm?$AAe?$AA?5?$AAu?$AAn?$AAk?$AAn?$AAo?$AAw?$AAn?$AA?$DO?$AA?$AA@ 100231b4     LIBCMT:crt0msg.obj
 0002:0000c1e4       ??_C@_17LGKOMLJ@?$AA?4?$AA?4?$AA?4?$AA?$AA@ 100231e4     LIBCMT:crt0msg.obj
 0002:0000c1ec       ??_C@_15IABLJNFO@?$AA?6?$AA?6?$AA?$AA@ 100231ec     LIBCMT:crt0msg.obj
 0002:0000c1f8       ??_C@_1EK@MBDPDCGA@?$AAM?$AAi?$AAc?$AAr?$AAo?$AAs?$AAo?$AAf?$AAt?$AA?5?$AAV?$AAi?$AAs?$AAu?$AAa?$AAl?$AA?5?$AAC?$AA?$CL?$AA?$CL?$AA?5?$AAR?$AAu?$AAn?$AAt?$AAi?$AAm?$AAe?$AA?5?$AAL?$AAi?$AAb@ 100231f8     LIBCMT:crt0msg.obj
 0002:0000c254       ??_C@_1M@HPNHIDJI@?$AAj?$AAa?$AA?9?$AAJ?$AAP?$AA?$AA@ 10023254     LIBCMT:mbctype.obj
 0002:0000c260       ??_C@_1M@BIBDDEMK@?$AAz?$AAh?$AA?9?$AAC?$AAN?$AA?$AA@ 10023260     LIBCMT:mbctype.obj
 0002:0000c26c       ??_C@_1M@JLOOOEGK@?$AAk?$AAo?$AA?9?$AAK?$AAR?$AA?$AA@ 1002326c     LIBCMT:mbctype.obj
 0002:0000c278       ??_C@_1M@CLNBBOPM@?$AAz?$AAh?$AA?9?$AAT?$AAW?$AA?$AA@ 10023278     LIBCMT:mbctype.obj
 0002:0000c290       _LcidToLocaleNameTable     10023290     LIBCMT:winapinls.obj
 0002:0000c9b0       _LocaleNameToIndexTable    100239b0     LIBCMT:winapinls.obj
 0002:0000d0d0       ??_C@_15EMKDOKLE@?$AAa?$AAr?$AA?$AA@ 100240d0     LIBCMT:winapinls.obj
 0002:0000d0d8       ??_C@_15KNPADPLH@?$AAb?$AAg?$AA?$AA@ 100240d8     LIBCMT:winapinls.obj
 0002:0000d0e0       ??_C@_15EDMHLDMO@?$AAc?$AAa?$AA?$AA@ 100240e0     LIBCMT:winapinls.obj
 0002:0000d0e8       ??_C@_1O@BPEAJADD@?$AAz?$AAh?$AA?9?$AAC?$AAH?$AAS?$AA?$AA@ 100240e8     LIBCMT:winapinls.obj
 0002:0000d0f8       ??_C@_15LJNHCMNK@?$AAc?$AAs?$AA?$AA@ 100240f8     LIBCMT:winapinls.obj
 0002:0000d100       ??_C@_15FOMCIDHG@?$AAd?$AAa?$AA?$AA@ 10024100     LIBCMT:winapinls.obj
 0002:0000d108       ??_C@_15NBKABECB@?$AAd?$AAe?$AA?$AA@ 10024108     LIBCMT:winapinls.obj
 0002:0000d110       ??_C@_15GHPEIIAO@?$AAe?$AAl?$AA?$AA@ 10024110     LIBCMT:winapinls.obj
 0002:0000d118       ??_C@_15MNPNEAIF@?$AAe?$AAn?$AA?$AA@ 10024118     LIBCMT:winapinls.obj
 0002:0000d120       ??_C@_15GPIOMPMH@?$AAe?$AAs?$AA?$AA@ 10024120     LIBCMT:winapinls.obj
 0002:0000d128       ??_C@_15NGLOAKJC@?$AAf?$AAi?$AA?$AA@ 10024128     LIBCMT:winapinls.obj
 0002:0000d130       ??_C@_15FBKGNKAM@?$AAf?$AAr?$AA?$AA@ 10024130     LIBCMT:winapinls.obj
 0002:0000d138       ??_C@_15KGGCNEFK@?$AAh?$AAe?$AA?$AA@ 10024138     LIBCMT:winapinls.obj
 0002:0000d140       ??_C@_15PGHLIDMF@?$AAh?$AAu?$AA?$AA@ 10024140     LIBCMT:winapinls.obj
 0002:0000d148       ??_C@_15BIEMAPLM@?$AAi?$AAs?$AA?$AA@ 10024148     LIBCMT:winapinls.obj
 0002:0000d150       ??_C@_15IFJLDHAF@?$AAi?$AAt?$AA?$AA@ 10024150     LIBCMT:winapinls.obj
 0002:0000d158       ??_C@_15GEMIOCAG@?$AAj?$AAa?$AA?$AA@ 10024158     LIBCMT:winapinls.obj
 0002:0000d160       ??_C@_15EPELEGJA@?$AAk?$AAo?$AA?$AA@ 10024160     LIBCMT:winapinls.obj
 0002:0000d168       ??_C@_15NDDHIMN@?$AAn?$AAl?$AA?$AA@ 10024168     LIBCMT:winapinls.obj
 0002:0000d170       ??_C@_15BPIGNHCD@?$AAn?$AAo?$AA?$AA@ 10024170     LIBCMT:winapinls.obj
 0002:0000d178       ??_C@_15DEOPBLCG@?$AAp?$AAl?$AA?$AA@ 10024178     LIBCMT:winapinls.obj
 0002:0000d180       ??_C@_15KBECGEFG@?$AAp?$AAt?$AA?$AA@ 10024180     LIBCMT:winapinls.obj
 0002:0000d188       ??_C@_15GLJCBFMD@?$AAr?$AAo?$AA?$AA@ 10024188     LIBCMT:winapinls.obj
 0002:0000d190       ??_C@_15FEDGKCDI@?$AAr?$AAu?$AA?$AA@ 10024190     LIBCMT:winapinls.obj
 0002:0000d198       ??_C@_15GLKMLLHM@?$AAh?$AAr?$AA?$AA@ 10024198     LIBCMT:winapinls.obj
 0002:0000d1a0       ??_C@_15CPKMFBDB@?$AAs?$AAk?$AA?$AA@ 100241a0     LIBCMT:winapinls.obj
 0002:0000d1a8       ??_C@_15BAAIOGMK@?$AAs?$AAq?$AA?$AA@ 100241a8     LIBCMT:winapinls.obj
 0002:0000d1b0       ??_C@_15INNPNOHD@?$AAs?$AAv?$AA?$AA@ 100241b0     LIBCMT:winapinls.obj
 0002:0000d1b8       ??_C@_15CABMMOGH@?$AAt?$AAh?$AA?$AA@ 100241b8     LIBCMT:winapinls.obj
 0002:0000d1c0       ??_C@_15BPLIHJJM@?$AAt?$AAr?$AA?$AA@ 100241c0     LIBCMT:winapinls.obj
 0002:0000d1c8       ??_C@_15NEOEKKDJ@?$AAu?$AAr?$AA?$AA@ 100241c8     LIBCMT:winapinls.obj
 0002:0000d1d0       ??_C@_15NFICGAJK@?$AAi?$AAd?$AA?$AA@ 100241d0     LIBCMT:winapinls.obj
 0002:0000d1d8       ??_C@_15PJPFLCCM@?$AAu?$AAk?$AA?$AA@ 100241d8     LIBCMT:winapinls.obj
 0002:0000d1e0       ??_C@_15HPJPHDM@?$AAb?$AAe?$AA?$AA@ 100241e0     LIBCMT:winapinls.obj
 0002:0000d1e8       ??_C@_15LCHLGJII@?$AAs?$AAl?$AA?$AA@ 100241e8     LIBCMT:winapinls.obj
 0002:0000d1f0       ??_C@_15PCFJPHHO@?$AAe?$AAt?$AA?$AA@ 100241f0     LIBCMT:winapinls.obj
 0002:0000d1f8       ??_C@_15HPFPGODN@?$AAl?$AAv?$AA?$AA@ 100241f8     LIBCMT:winapinls.obj
 0002:0000d200       ??_C@_15NFFGKGLG@?$AAl?$AAt?$AA?$AA@ 10024200     LIBCMT:winapinls.obj
 0002:0000d208       ??_C@_15BDAKCCHN@?$AAf?$AAa?$AA?$AA@ 10024208     LIBCMT:winapinls.obj
 0002:0000d210       ??_C@_15NFGIAIAJ@?$AAv?$AAi?$AA?$AA@ 10024210     LIBCMT:winapinls.obj
 0002:0000d218       ??_C@_15LMKNDMHN@?$AAh?$AAy?$AA?$AA@ 10024218     LIBCMT:winapinls.obj
 0002:0000d220       ??_C@_15IJBHMCFL@?$AAa?$AAz?$AA?$AA@ 10024220     LIBCMT:winapinls.obj
 0002:0000d228       ??_C@_15EKOFJABL@?$AAe?$AAu?$AA?$AA@ 10024228     LIBCMT:winapinls.obj
 0002:0000d230       ??_C@_15BGHADCNK@?$AAm?$AAk?$AA?$AA@ 10024230     LIBCMT:winapinls.obj
 0002:0000d238       ??_C@_15JDNICKHM@?$AAa?$AAf?$AA?$AA@ 10024238     LIBCMT:winapinls.obj
 0002:0000d240       ??_C@_15KPJEDBKD@?$AAk?$AAa?$AA?$AA@ 10024240     LIBCMT:winapinls.obj
 0002:0000d248       ??_C@_15PDNFFFEO@?$AAf?$AAo?$AA?$AA@ 10024248     LIBCMT:winapinls.obj
 0002:0000d250       ??_C@_15OMLEGLOC@?$AAh?$AAi?$AA?$AA@ 10024250     LIBCMT:winapinls.obj
 0002:0000d258       ??_C@_15IDNNENKK@?$AAm?$AAs?$AA?$AA@ 10024258     LIBCMT:winapinls.obj
 0002:0000d260       ??_C@_15MACJNBMH@?$AAk?$AAk?$AA?$AA@ 10024260     LIBCMT:winapinls.obj
 0002:0000d268       ??_C@_15DKDJEOND@?$AAk?$AAy?$AA?$AA@ 10024268     LIBCMT:winapinls.obj
 0002:0000d270       ??_C@_15DFGDLJBG@?$AAs?$AAw?$AA?$AA@ 10024270     LIBCMT:winapinls.obj
 0002:0000d278       ??_C@_15BBFAICNG@?$AAu?$AAz?$AA?$AA@ 10024278     LIBCMT:winapinls.obj
 0002:0000d280       ??_C@_15DKNDCGEA@?$AAt?$AAt?$AA?$AA@ 10024280     LIBCMT:winapinls.obj
 0002:0000d288       ??_C@_15MGIFMDPL@?$AAp?$AAa?$AA?$AA@ 10024288     LIBCMT:winapinls.obj
 0002:0000d290       ??_C@_15HCNDBBA@?$AAg?$AAu?$AA?$AA@ 10024290     LIBCMT:winapinls.obj
 0002:0000d298       ??_C@_15FNBEIBON@?$AAt?$AAa?$AA?$AA@ 10024298     LIBCMT:winapinls.obj
 0002:0000d2a0       ??_C@_15NCHGBGLK@?$AAt?$AAe?$AA?$AA@ 100242a0     LIBCMT:winapinls.obj
 0002:0000d2a8       ??_C@_15PHPHCBPF@?$AAk?$AAn?$AA?$AA@ 100242a8     LIBCMT:winapinls.obj
 0002:0000d2b0       ??_C@_15DLGBCKMP@?$AAm?$AAr?$AA?$AA@ 100242b0     LIBCMT:winapinls.obj
 0002:0000d2b8       ??_C@_15EABBLBFF@?$AAs?$AAa?$AA?$AA@ 100242b8     LIBCMT:winapinls.obj
 0002:0000d2c0       ??_C@_15CBKOMCOI@?$AAm?$AAn?$AA?$AA@ 100242c0     LIBCMT:winapinls.obj
 0002:0000d2c8       ??_C@_15CKDMCJAF@?$AAg?$AAl?$AA?$AA@ 100242c8     LIBCMT:winapinls.obj
 0002:0000d2d0       ??_C@_17CNJFBPG@?$AAk?$AAo?$AAk?$AA?$AA@ 100242d0     LIBCMT:winapinls.obj
 0002:0000d2d8       ??_C@_17FFBJICPL@?$AAs?$AAy?$AAr?$AA?$AA@ 100242d8     LIBCMT:winapinls.obj
 0002:0000d2e0       ??_C@_17KPNDCPAF@?$AAd?$AAi?$AAv?$AA?$AA@ 100242e0     LIBCMT:winapinls.obj
 0002:0000d2e8       ??_C@_11LOCGONAA@?$AA?$AA@ 100242e8     LIBCMT:winapinls.obj
 0002:0000d2ec       ??_C@_1M@OKAHONE@?$AAa?$AAr?$AA?9?$AAS?$AAA?$AA?$AA@ 100242ec     LIBCMT:winapinls.obj
 0002:0000d2f8       ??_C@_1M@FFFIGIGK@?$AAb?$AAg?$AA?9?$AAB?$AAG?$AA?$AA@ 100242f8     LIBCMT:winapinls.obj
 0002:0000d304       ??_C@_1M@BJNKEDC@?$AAc?$AAa?$AA?9?$AAE?$AAS?$AA?$AA@ 10024304     LIBCMT:winapinls.obj
 0002:0000d310       ??_C@_1M@IJJHFJHA@?$AAc?$AAs?$AA?9?$AAC?$AAZ?$AA?$AA@ 10024310     LIBCMT:winapinls.obj
 0002:0000d31c       ??_C@_1M@CLPEOBGI@?$AAd?$AAa?$AA?9?$AAD?$AAK?$AA?$AA@ 1002431c     LIBCMT:winapinls.obj
 0002:0000d328       ??_C@_1M@MCMADGCB@?$AAd?$AAe?$AA?9?$AAD?$AAE?$AA?$AA@ 10024328     LIBCMT:winapinls.obj
 0002:0000d334       ??_C@_1M@OOCKEMAM@?$AAe?$AAl?$AA?9?$AAG?$AAR?$AA?$AA@ 10024334     LIBCMT:winapinls.obj
 0002:0000d340       ??_C@_1M@BMHNFIME@?$AAe?$AAn?$AA?9?$AAU?$AAS?$AA?$AA@ 10024340     LIBCMT:winapinls.obj
 0002:0000d34c       ??_C@_1M@DDNJFGID@?$AAf?$AAi?$AA?9?$AAF?$AAI?$AA?$AA@ 1002434c     LIBCMT:winapinls.obj
 0002:0000d358       ??_C@_1M@GLIPPMAC@?$AAf?$AAr?$AA?9?$AAF?$AAR?$AA?$AA@ 10024358     LIBCMT:winapinls.obj
 0002:0000d364       ??_C@_1M@GFMCHPE@?$AAh?$AAe?$AA?9?$AAI?$AAL?$AA?$AA@ 10024364     LIBCMT:winapinls.obj
 0002:0000d370       ??_C@_1M@MHLPGNKM@?$AAh?$AAu?$AA?9?$AAH?$AAU?$AA?$AA@ 10024370     LIBCMT:winapinls.obj
 0002:0000d37c       ??_C@_1M@LPDDNNPN@?$AAi?$AAs?$AA?9?$AAI?$AAS?$AA?$AA@ 1002437c     LIBCMT:winapinls.obj
 0002:0000d388       ??_C@_1M@MADIPODN@?$AAi?$AAt?$AA?9?$AAI?$AAT?$AA?$AA@ 10024388     LIBCMT:winapinls.obj
 0002:0000d394       ??_C@_1M@IHBJJGG@?$AAn?$AAl?$AA?9?$AAN?$AAL?$AA?$AA@ 10024394     LIBCMT:winapinls.obj
 0002:0000d3a0       ??_C@_1M@EANAGDL@?$AAn?$AAb?$AA?9?$AAN?$AAO?$AA?$AA@ 100243a0     LIBCMT:winapinls.obj
 0002:0000d3ac       ??_C@_1M@NEIEMEGP@?$AAp?$AAl?$AA?9?$AAP?$AAL?$AA?$AA@ 100243ac     LIBCMT:winapinls.obj
 0002:0000d3b8       ??_C@_1M@BOCFIGEP@?$AAp?$AAt?$AA?9?$AAB?$AAR?$AA?$AA@ 100243b8     LIBCMT:winapinls.obj
 0002:0000d3c4       ??_C@_1M@IMPFOPBG@?$AAr?$AAo?$AA?9?$AAR?$AAO?$AA?$AA@ 100243c4     LIBCMT:winapinls.obj
 0002:0000d3d0       ??_C@_1M@IDNNEJMM@?$AAr?$AAu?$AA?9?$AAR?$AAU?$AA?$AA@ 100243d0     LIBCMT:winapinls.obj
 0002:0000d3dc       ??_C@_1M@LILEEOGM@?$AAh?$AAr?$AA?9?$AAH?$AAR?$AA?$AA@ 100243dc     LIBCMT:winapinls.obj
 0002:0000d3e8       ??_C@_1M@FKIFEHPB@?$AAs?$AAk?$AA?9?$AAS?$AAK?$AA?$AA@ 100243e8     LIBCMT:winapinls.obj
 0002:0000d3f4       ??_C@_1M@LJMAMNPJ@?$AAs?$AAq?$AA?9?$AAA?$AAL?$AA?$AA@ 100243f4     LIBCMT:winapinls.obj
 0002:0000d400       ??_C@_1M@GIAKDKJK@?$AAs?$AAv?$AA?9?$AAS?$AAE?$AA?$AA@ 10024400     LIBCMT:winapinls.obj
 0002:0000d40c       ??_C@_1M@MKJKIKCL@?$AAt?$AAh?$AA?9?$AAT?$AAH?$AA?$AA@ 1002440c     LIBCMT:winapinls.obj
 0002:0000d418       ??_C@_1M@MFLCCMPB@?$AAt?$AAr?$AA?9?$AAT?$AAR?$AA?$AA@ 10024418     LIBCMT:winapinls.obj
 0002:0000d424       ??_C@_1M@OIJHDKJN@?$AAu?$AAr?$AA?9?$AAP?$AAK?$AA?$AA@ 10024424     LIBCMT:winapinls.obj
 0002:0000d430       ??_C@_1M@LHIPCIEK@?$AAi?$AAd?$AA?9?$AAI?$AAD?$AA?$AA@ 10024430     LIBCMT:winapinls.obj
 0002:0000d43c       ??_C@_1M@MFMOBGI@?$AAu?$AAk?$AA?9?$AAU?$AAA?$AA?$AA@ 1002443c     LIBCMT:winapinls.obj
 0002:0000d448       ??_C@_1M@OBGLJIPL@?$AAb?$AAe?$AA?9?$AAB?$AAY?$AA?$AA@ 10024448     LIBCMT:winapinls.obj
 0002:0000d454       ??_C@_1M@BCFAJEAD@?$AAs?$AAl?$AA?9?$AAS?$AAI?$AA?$AA@ 10024454     LIBCMT:winapinls.obj
 0002:0000d460       ??_C@_1M@FKFFEDDN@?$AAe?$AAt?$AA?9?$AAE?$AAE?$AA?$AA@ 10024460     LIBCMT:winapinls.obj
 0002:0000d46c       ??_C@_1M@KGKKAACI@?$AAl?$AAv?$AA?9?$AAL?$AAV?$AA?$AA@ 1002446c     LIBCMT:winapinls.obj
 0002:0000d478       ??_C@_1M@IFGBIJO@?$AAl?$AAt?$AA?9?$AAL?$AAT?$AA?$AA@ 10024478     LIBCMT:winapinls.obj
 0002:0000d484       ??_C@_1M@FGEAHEDM@?$AAf?$AAa?$AA?9?$AAI?$AAR?$AA?$AA@ 10024484     LIBCMT:winapinls.obj
 0002:0000d490       ??_C@_1M@KBMAIBFN@?$AAv?$AAi?$AA?9?$AAV?$AAN?$AA?$AA@ 10024490     LIBCMT:winapinls.obj
 0002:0000d49c       ??_C@_1M@GPCBKDJK@?$AAh?$AAy?$AA?9?$AAA?$AAM?$AA?$AA@ 1002449c     LIBCMT:winapinls.obj
 0002:0000d4a8       ??_C@_1BG@BECMDDJB@?$AAa?$AAz?$AA?9?$AAA?$AAZ?$AA?9?$AAL?$AAa?$AAt?$AAn?$AA?$AA@ 100244a8     LIBCMT:winapinls.obj
 0002:0000d4c0       ??_C@_1M@MAOFCAEA@?$AAe?$AAu?$AA?9?$AAE?$AAS?$AA?$AA@ 100244c0     LIBCMT:winapinls.obj
 0002:0000d4cc       ??_C@_1M@IGHABKPI@?$AAm?$AAk?$AA?9?$AAM?$AAK?$AA?$AA@ 100244cc     LIBCMT:winapinls.obj
 0002:0000d4d8       ??_C@_1M@IAIGNEJG@?$AAt?$AAn?$AA?9?$AAZ?$AAA?$AA?$AA@ 100244d8     LIBCMT:winapinls.obj
 0002:0000d4e4       ??_C@_1M@IIJCOJFA@?$AAx?$AAh?$AA?9?$AAZ?$AAA?$AA?$AA@ 100244e4     LIBCMT:winapinls.obj
 0002:0000d4f0       ??_C@_1M@LGPJHNJH@?$AAz?$AAu?$AA?9?$AAZ?$AAA?$AA?$AA@ 100244f0     LIBCMT:winapinls.obj
 0002:0000d4fc       ??_C@_1M@HOKAOIO@?$AAa?$AAf?$AA?9?$AAZ?$AAA?$AA?$AA@ 100244fc     LIBCMT:winapinls.obj
 0002:0000d508       ??_C@_1M@DPCLHLIE@?$AAk?$AAa?$AA?9?$AAG?$AAE?$AA?$AA@ 10024508     LIBCMT:winapinls.obj
 0002:0000d514       ??_C@_1M@BLKMHJBI@?$AAf?$AAo?$AA?9?$AAF?$AAO?$AA?$AA@ 10024514     LIBCMT:winapinls.obj
 0002:0000d520       ??_C@_1M@LGGJAPPB@?$AAh?$AAi?$AA?9?$AAI?$AAN?$AA?$AA@ 10024520     LIBCMT:winapinls.obj
 0002:0000d52c       ??_C@_1M@FIKPIHFE@?$AAm?$AAt?$AA?9?$AAM?$AAT?$AA?$AA@ 1002452c     LIBCMT:winapinls.obj
 0002:0000d538       ??_C@_1M@HEGGPBFA@?$AAs?$AAe?$AA?9?$AAN?$AAO?$AA?$AA@ 10024538     LIBCMT:winapinls.obj
 0002:0000d544       ??_C@_1M@EIBJEEPA@?$AAm?$AAs?$AA?9?$AAM?$AAY?$AA?$AA@ 10024544     LIBCMT:winapinls.obj
 0002:0000d550       ??_C@_1M@FHLBGMPP@?$AAk?$AAk?$AA?9?$AAK?$AAZ?$AA?$AA@ 10024550     LIBCMT:winapinls.obj
 0002:0000d55c       ??_C@_1M@NGJJLCGI@?$AAk?$AAy?$AA?9?$AAK?$AAG?$AA?$AA@ 1002455c     LIBCMT:winapinls.obj
 0002:0000d568       ??_C@_1M@GIENNBFC@?$AAs?$AAw?$AA?9?$AAK?$AAE?$AA?$AA@ 10024568     LIBCMT:winapinls.obj
 0002:0000d574       ??_C@_1BG@NDGMJIMJ@?$AAu?$AAz?$AA?9?$AAU?$AAZ?$AA?9?$AAL?$AAa?$AAt?$AAn?$AA?$AA@ 10024574     LIBCMT:winapinls.obj
 0002:0000d58c       ??_C@_1M@IDCCIHBC@?$AAt?$AAt?$AA?9?$AAR?$AAU?$AA?$AA@ 1002458c     LIBCMT:winapinls.obj
 0002:0000d598       ??_C@_1M@LOICPMOJ@?$AAb?$AAn?$AA?9?$AAI?$AAN?$AA?$AA@ 10024598     LIBCMT:winapinls.obj
 0002:0000d5a4       ??_C@_1M@KPKKNEAH@?$AAp?$AAa?$AA?9?$AAI?$AAN?$AA?$AA@ 100245a4     LIBCMT:winapinls.obj
 0002:0000d5b0       ??_C@_1M@PJGPPBOG@?$AAg?$AAu?$AA?9?$AAI?$AAN?$AA?$AA@ 100245b0     LIBCMT:winapinls.obj
 0002:0000d5bc       ??_C@_1M@KMKMOPHI@?$AAt?$AAa?$AA?9?$AAI?$AAN?$AA?$AA@ 100245bc     LIBCMT:winapinls.obj
 0002:0000d5c8       ??_C@_1M@KFEHEPAC@?$AAt?$AAe?$AA?9?$AAI?$AAN?$AA?$AA@ 100245c8     LIBCMT:winapinls.obj
 0002:0000d5d4       ??_C@_1M@CDCLMGHI@?$AAk?$AAn?$AA?9?$AAI?$AAN?$AA?$AA@ 100245d4     LIBCMT:winapinls.obj
 0002:0000d5e0       ??_C@_1M@MIODLDKF@?$AAm?$AAl?$AA?9?$AAI?$AAN?$AA?$AA@ 100245e0     LIBCMT:winapinls.obj
 0002:0000d5ec       ??_C@_1M@PBIEACPO@?$AAm?$AAr?$AA?9?$AAI?$AAN?$AA?$AA@ 100245ec     LIBCMT:winapinls.obj
 0002:0000d5f8       ??_C@_1M@NIDEAGPH@?$AAs?$AAa?$AA?9?$AAI?$AAN?$AA?$AA@ 100245f8     LIBCMT:winapinls.obj
 0002:0000d604       ??_C@_1M@FHIHCBIO@?$AAm?$AAn?$AA?9?$AAM?$AAN?$AA?$AA@ 10024604     LIBCMT:winapinls.obj
 0002:0000d610       ??_C@_1M@JAIJPENP@?$AAc?$AAy?$AA?9?$AAG?$AAB?$AA?$AA@ 10024610     LIBCMT:winapinls.obj
 0002:0000d61c       ??_C@_1M@PHGFBEPN@?$AAg?$AAl?$AA?9?$AAE?$AAS?$AA?$AA@ 1002461c     LIBCMT:winapinls.obj
 0002:0000d628       ??_C@_1O@KPIPDNCP@?$AAk?$AAo?$AAk?$AA?9?$AAI?$AAN?$AA?$AA@ 10024628     LIBCMT:winapinls.obj
 0002:0000d638       ??_C@_1O@KNHJLDJA@?$AAs?$AAy?$AAr?$AA?9?$AAS?$AAY?$AA?$AA@ 10024638     LIBCMT:winapinls.obj
 0002:0000d648       ??_C@_1O@MKEKBLAH@?$AAd?$AAi?$AAv?$AA?9?$AAM?$AAV?$AA?$AA@ 10024648     LIBCMT:winapinls.obj
 0002:0000d658       ??_C@_1O@OHDCKDDF@?$AAq?$AAu?$AAz?$AA?9?$AAB?$AAO?$AA?$AA@ 10024658     LIBCMT:winapinls.obj
 0002:0000d668       ??_C@_1M@LEPJNLFD@?$AAn?$AAs?$AA?9?$AAZ?$AAA?$AA?$AA@ 10024668     LIBCMT:winapinls.obj
 0002:0000d674       ??_C@_1M@OMLEIIJB@?$AAm?$AAi?$AA?9?$AAN?$AAZ?$AA?$AA@ 10024674     LIBCMT:winapinls.obj
 0002:0000d680       ??_C@_1M@PMPEAILG@?$AAa?$AAr?$AA?9?$AAI?$AAQ?$AA?$AA@ 10024680     LIBCMT:winapinls.obj
 0002:0000d68c       ??_C@_1M@CNKPNOEE@?$AAd?$AAe?$AA?9?$AAC?$AAH?$AA?$AA@ 1002468c     LIBCMT:winapinls.obj
 0002:0000d698       ??_C@_1M@LKMGMLKO@?$AAe?$AAn?$AA?9?$AAG?$AAB?$AA?$AA@ 10024698     LIBCMT:winapinls.obj
 0002:0000d6a4       ??_C@_1M@PGKJFFGL@?$AAe?$AAs?$AA?9?$AAM?$AAX?$AA?$AA@ 100246a4     LIBCMT:winapinls.obj
 0002:0000d6b0       ??_C@_1M@DNNANBDC@?$AAf?$AAr?$AA?9?$AAB?$AAE?$AA?$AA@ 100246b0     LIBCMT:winapinls.obj
 0002:0000d6bc       ??_C@_1M@HLGMDFHM@?$AAi?$AAt?$AA?9?$AAC?$AAH?$AA?$AA@ 100246bc     LIBCMT:winapinls.obj
 0002:0000d6c8       ??_C@_1M@CLLBGJH@?$AAn?$AAl?$AA?9?$AAB?$AAE?$AA?$AA@ 100246c8     LIBCMT:winapinls.obj
 0002:0000d6d4       ??_C@_1M@BODBOGLF@?$AAn?$AAn?$AA?9?$AAN?$AAO?$AA?$AA@ 100246d4     LIBCMT:winapinls.obj
 0002:0000d6e0       ??_C@_1M@HFFAHKAD@?$AAp?$AAt?$AA?9?$AAP?$AAT?$AA?$AA@ 100246e0     LIBCMT:winapinls.obj
 0002:0000d6ec       ??_C@_1BG@LNOAKHIE@?$AAs?$AAr?$AA?9?$AAS?$AAP?$AA?9?$AAL?$AAa?$AAt?$AAn?$AA?$AA@ 100246ec     LIBCMT:winapinls.obj
 0002:0000d704       ??_C@_1M@HBMHBGAK@?$AAs?$AAv?$AA?9?$AAF?$AAI?$AA?$AA@ 10024704     LIBCMT:winapinls.obj
 0002:0000d710       ??_C@_1BG@DGCJGJBE@?$AAa?$AAz?$AA?9?$AAA?$AAZ?$AA?9?$AAC?$AAy?$AAr?$AAl?$AA?$AA@ 10024710     LIBCMT:winapinls.obj
 0002:0000d728       ??_C@_1M@KEJDAAHB@?$AAs?$AAe?$AA?9?$AAS?$AAE?$AA?$AA@ 10024728     LIBCMT:winapinls.obj
 0002:0000d734       ??_C@_1M@HEIBJJAD@?$AAm?$AAs?$AA?9?$AAB?$AAN?$AA?$AA@ 10024734     LIBCMT:winapinls.obj
 0002:0000d740       ??_C@_1BG@PBGJMCEM@?$AAu?$AAz?$AA?9?$AAU?$AAZ?$AA?9?$AAC?$AAy?$AAr?$AAl?$AA?$AA@ 10024740     LIBCMT:winapinls.obj
 0002:0000d758       ??_C@_1O@LAOBCMDF@?$AAq?$AAu?$AAz?$AA?9?$AAE?$AAC?$AA?$AA@ 10024758     LIBCMT:winapinls.obj
 0002:0000d768       ??_C@_1M@POEEMAIO@?$AAa?$AAr?$AA?9?$AAE?$AAG?$AA?$AA@ 10024768     LIBCMT:winapinls.obj
 0002:0000d774       ??_C@_1M@EFAKDEDL@?$AAz?$AAh?$AA?9?$AAH?$AAK?$AA?$AA@ 10024774     LIBCMT:winapinls.obj
 0002:0000d780       ??_C@_1M@HKKIJHGI@?$AAd?$AAe?$AA?9?$AAA?$AAT?$AA?$AA@ 10024780     LIBCMT:winapinls.obj
 0002:0000d78c       ??_C@_1M@KBFBEHJF@?$AAe?$AAn?$AA?9?$AAA?$AAU?$AA?$AA@ 1002478c     LIBCMT:winapinls.obj
 0002:0000d798       ??_C@_1M@MNPLFAAH@?$AAe?$AAs?$AA?9?$AAE?$AAS?$AA?$AA@ 10024798     LIBCMT:winapinls.obj
 0002:0000d7a4       ??_C@_1M@HJOOJFMA@?$AAf?$AAr?$AA?9?$AAC?$AAA?$AA?$AA@ 100247a4     LIBCMT:winapinls.obj
 0002:0000d7b0       ??_C@_1BG@JPOFPNAB@?$AAs?$AAr?$AA?9?$AAS?$AAP?$AA?9?$AAC?$AAy?$AAr?$AAl?$AA?$AA@ 100247b0     LIBCMT:winapinls.obj
 0002:0000d7c8       ??_C@_1M@LNFOCMOB@?$AAs?$AAe?$AA?9?$AAF?$AAI?$AA?$AA@ 100247c8     LIBCMT:winapinls.obj
 0002:0000d7d4       ??_C@_1O@MGJBOAMB@?$AAq?$AAu?$AAz?$AA?9?$AAP?$AAE?$AA?$AA@ 100247d4     LIBCMT:winapinls.obj
 0002:0000d7e4       ??_C@_1M@GJINLBOK@?$AAa?$AAr?$AA?9?$AAL?$AAY?$AA?$AA@ 100247e4     LIBCMT:winapinls.obj
 0002:0000d7f0       ??_C@_1M@GGMNHJNL@?$AAz?$AAh?$AA?9?$AAS?$AAG?$AA?$AA@ 100247f0     LIBCMT:winapinls.obj
 0002:0000d7fc       ??_C@_1M@HOIKODND@?$AAd?$AAe?$AA?9?$AAL?$AAU?$AA?$AA@ 100247fc     LIBCMT:winapinls.obj
 0002:0000d808       ??_C@_1M@DDOCCGFG@?$AAe?$AAn?$AA?9?$AAC?$AAA?$AA?$AA@ 10024808     LIBCMT:winapinls.obj
 0002:0000d814       ??_C@_1M@BNOEMJLF@?$AAe?$AAs?$AA?9?$AAG?$AAT?$AA?$AA@ 10024814     LIBCMT:winapinls.obj
 0002:0000d820       ??_C@_1M@EOGNKEK@?$AAf?$AAr?$AA?9?$AAC?$AAH?$AA?$AA@ 10024820     LIBCMT:winapinls.obj
 0002:0000d82c       ??_C@_1M@FLIDJFHL@?$AAh?$AAr?$AA?9?$AAB?$AAA?$AA?$AA@ 1002482c     LIBCMT:winapinls.obj
 0002:0000d838       ??_C@_1O@FMCELNAJ@?$AAs?$AAm?$AAj?$AA?9?$AAN?$AAO?$AA?$AA@ 10024838     LIBCMT:winapinls.obj
 0002:0000d848       ??_C@_1M@JHGLJMGJ@?$AAa?$AAr?$AA?9?$AAD?$AAZ?$AA?$AA@ 10024848     LIBCMT:winapinls.obj
 0002:0000d854       ??_C@_1M@JKKFDCNP@?$AAz?$AAh?$AA?9?$AAM?$AAO?$AA?$AA@ 10024854     LIBCMT:winapinls.obj
 0002:0000d860       ??_C@_1M@GEEFALPE@?$AAd?$AAe?$AA?9?$AAL?$AAI?$AA?$AA@ 10024860     LIBCMT:winapinls.obj
 0002:0000d86c       ??_C@_1M@IGEOFBG@?$AAe?$AAn?$AA?9?$AAN?$AAZ?$AA?$AA@ 1002486c     LIBCMT:winapinls.obj
 0002:0000d878       ??_C@_1M@KDBONEHP@?$AAe?$AAs?$AA?9?$AAC?$AAR?$AA?$AA@ 10024878     LIBCMT:winapinls.obj
 0002:0000d884       ??_C@_1M@FHMDOHNN@?$AAf?$AAr?$AA?9?$AAL?$AAU?$AA?$AA@ 10024884     LIBCMT:winapinls.obj
 0002:0000d890       ??_C@_1BG@NFKKMAFG@?$AAb?$AAs?$AA?9?$AAB?$AAA?$AA?9?$AAL?$AAa?$AAt?$AAn?$AA?$AA@ 10024890     LIBCMT:winapinls.obj
 0002:0000d8a8       ??_C@_1O@IMNBEMCI@?$AAs?$AAm?$AAj?$AA?9?$AAS?$AAE?$AA?$AA@ 100248a8     LIBCMT:winapinls.obj
 0002:0000d8b8       ??_C@_1M@DHHMBNDP@?$AAa?$AAr?$AA?9?$AAM?$AAA?$AA?$AA@ 100248b8     LIBCMT:winapinls.obj
 0002:0000d8c4       ??_C@_1M@BNBLJCGH@?$AAe?$AAn?$AA?9?$AAI?$AAE?$AA?$AA@ 100248c4     LIBCMT:winapinls.obj
 0002:0000d8d0       ??_C@_1M@GEPAFMDL@?$AAe?$AAs?$AA?9?$AAP?$AAA?$AA?$AA@ 100248d0     LIBCMT:winapinls.obj
 0002:0000d8dc       ??_C@_1M@OJONDMDL@?$AAf?$AAr?$AA?9?$AAM?$AAC?$AA?$AA@ 100248dc     LIBCMT:winapinls.obj
 0002:0000d8e8       ??_C@_1BG@OBCNFJB@?$AAs?$AAr?$AA?9?$AAB?$AAA?$AA?9?$AAL?$AAa?$AAt?$AAn?$AA?$AA@ 100248e8     LIBCMT:winapinls.obj
 0002:0000d900       ??_C@_1O@KEMEEGPO@?$AAs?$AAm?$AAa?$AA?9?$AAN?$AAO?$AA?$AA@ 10024900     LIBCMT:winapinls.obj
 0002:0000d910       ??_C@_1M@ELMGFODK@?$AAa?$AAr?$AA?9?$AAT?$AAN?$AA?$AA@ 10024910     LIBCMT:winapinls.obj
 0002:0000d91c       ??_C@_1M@BHDLHFAF@?$AAe?$AAn?$AA?9?$AAZ?$AAA?$AA?$AA@ 1002491c     LIBCMT:winapinls.obj
 0002:0000d928       ??_C@_1M@BMGIGLIF@?$AAe?$AAs?$AA?9?$AAD?$AAO?$AA?$AA@ 10024928     LIBCMT:winapinls.obj
 0002:0000d934       ??_C@_1BG@CMBHIPBE@?$AAs?$AAr?$AA?9?$AAB?$AAA?$AA?9?$AAC?$AAy?$AAr?$AAl?$AA?$AA@ 10024934     LIBCMT:winapinls.obj
 0002:0000d94c       ??_C@_1O@HEDBLHNP@?$AAs?$AAm?$AAa?$AA?9?$AAS?$AAE?$AA?$AA@ 1002494c     LIBCMT:winapinls.obj
 0002:0000d95c       ??_C@_1M@DAGCADIM@?$AAa?$AAr?$AA?9?$AAO?$AAM?$AA?$AA@ 1002495c     LIBCMT:winapinls.obj
 0002:0000d968       ??_C@_1M@FODLMICG@?$AAe?$AAn?$AA?9?$AAJ?$AAM?$AA?$AA@ 10024968     LIBCMT:winapinls.obj
 0002:0000d974       ??_C@_1M@DNMLCIHB@?$AAe?$AAs?$AA?9?$AAV?$AAE?$AA?$AA@ 10024974     LIBCMT:winapinls.obj
 0002:0000d980       ??_C@_1O@EOKHMKJK@?$AAs?$AAm?$AAs?$AA?9?$AAF?$AAI?$AA?$AA@ 10024980     LIBCMT:winapinls.obj
 0002:0000d990       ??_C@_1M@CAFJMKOF@?$AAa?$AAr?$AA?9?$AAY?$AAE?$AA?$AA@ 10024990     LIBCMT:winapinls.obj
 0002:0000d99c       ??_C@_1M@CBFHIJLI@?$AAe?$AAn?$AA?9?$AAC?$AAB?$AA?$AA@ 1002499c     LIBCMT:winapinls.obj
 0002:0000d9a8       ??_C@_1M@BGNFLDN@?$AAe?$AAs?$AA?9?$AAC?$AAO?$AA?$AA@ 100249a8     LIBCMT:winapinls.obj
 0002:0000d9b4       ??_C@_1O@JMPHMAMC@?$AAs?$AAm?$AAn?$AA?9?$AAF?$AAI?$AA?$AA@ 100249b4     LIBCMT:winapinls.obj
 0002:0000d9c4       ??_C@_1M@JLANABKE@?$AAa?$AAr?$AA?9?$AAS?$AAY?$AA?$AA@ 100249c4     LIBCMT:winapinls.obj
 0002:0000d9d0       ??_C@_1M@HPKGCFGN@?$AAe?$AAn?$AA?9?$AAB?$AAZ?$AA?$AA@ 100249d0     LIBCMT:winapinls.obj
 0002:0000d9dc       ??_C@_1M@OLJCMLGM@?$AAe?$AAs?$AA?9?$AAP?$AAE?$AA?$AA@ 100249dc     LIBCMT:winapinls.obj
 0002:0000d9e8       ??_C@_1M@MKKGFKLE@?$AAa?$AAr?$AA?9?$AAJ?$AAO?$AA?$AA@ 100249e8     LIBCMT:winapinls.obj
 0002:0000d9f4       ??_C@_1M@EKPGLDNI@?$AAe?$AAn?$AA?9?$AAT?$AAT?$AA?$AA@ 100249f4     LIBCMT:winapinls.obj
 0002:0000da00       ??_C@_1M@OONGHFHE@?$AAe?$AAs?$AA?9?$AAA?$AAR?$AA?$AA@ 10024a00     LIBCMT:winapinls.obj
 0002:0000da0c       ??_C@_1M@OOJFGBHE@?$AAa?$AAr?$AA?9?$AAL?$AAB?$AA?$AA@ 10024a0c     LIBCMT:winapinls.obj
 0002:0000da18       ??_C@_1M@GCEJHNEG@?$AAe?$AAn?$AA?9?$AAZ?$AAW?$AA?$AA@ 10024a18     LIBCMT:winapinls.obj
 0002:0000da24       ??_C@_1M@JNOCAHJI@?$AAe?$AAs?$AA?9?$AAE?$AAC?$AA?$AA@ 10024a24     LIBCMT:winapinls.obj
 0002:0000da30       ??_C@_1M@JEFHPGGB@?$AAa?$AAr?$AA?9?$AAK?$AAW?$AA?$AA@ 10024a30     LIBCMT:winapinls.obj
 0002:0000da3c       ??_C@_1M@MLKIBJOJ@?$AAe?$AAn?$AA?9?$AAP?$AAH?$AA?$AA@ 10024a3c     LIBCMT:winapinls.obj
 0002:0000da48       ??_C@_1M@BDNIPEND@?$AAe?$AAs?$AA?9?$AAC?$AAL?$AA?$AA@ 10024a48     LIBCMT:winapinls.obj
 0002:0000da54       ??_C@_1M@MPNMEKBD@?$AAa?$AAr?$AA?9?$AAA?$AAE?$AA?$AA@ 10024a54     LIBCMT:winapinls.obj
 0002:0000da60       ??_C@_1M@KBJALCPI@?$AAe?$AAs?$AA?9?$AAU?$AAY?$AA?$AA@ 10024a60     LIBCMT:winapinls.obj
 0002:0000da6c       ??_C@_1M@LLCCOAGA@?$AAa?$AAr?$AA?9?$AAB?$AAH?$AA?$AA@ 10024a6c     LIBCMT:winapinls.obj
 0002:0000da78       ??_C@_1M@PBFNCDEL@?$AAe?$AAs?$AA?9?$AAP?$AAY?$AA?$AA@ 10024a78     LIBCMT:winapinls.obj
 0002:0000da84       ??_C@_1M@EDGINPNP@?$AAa?$AAr?$AA?9?$AAQ?$AAA?$AA?$AA@ 10024a84     LIBCMT:winapinls.obj
 0002:0000da90       ??_C@_1M@MKDBIIJI@?$AAe?$AAs?$AA?9?$AAB?$AAO?$AA?$AA@ 10024a90     LIBCMT:winapinls.obj
 0002:0000da9c       ??_C@_1M@CPKKEBLD@?$AAe?$AAs?$AA?9?$AAS?$AAV?$AA?$AA@ 10024a9c     LIBCMT:winapinls.obj
 0002:0000daa8       ??_C@_1M@NDBGMMJL@?$AAe?$AAs?$AA?9?$AAH?$AAN?$AA?$AA@ 10024aa8     LIBCMT:winapinls.obj
 0002:0000dab4       ??_C@_1M@JIJIBHDP@?$AAe?$AAs?$AA?9?$AAN?$AAI?$AA?$AA@ 10024ab4     LIBCMT:winapinls.obj
 0002:0000dac0       ??_C@_1M@CGFMKEEK@?$AAe?$AAs?$AA?9?$AAP?$AAR?$AA?$AA@ 10024ac0     LIBCMT:winapinls.obj
 0002:0000dacc       ??_C@_1O@ICJHKIIK@?$AAz?$AAh?$AA?9?$AAC?$AAH?$AAT?$AA?$AA@ 10024acc     LIBCMT:winapinls.obj
 0002:0000dadc       ??_C@_15CLNEJCE@?$AAs?$AAr?$AA?$AA@ 10024adc     LIBCMT:winapinls.obj
 0002:0000dae4       ??_C@_1M@KAHEKEIG@?$AAa?$AAf?$AA?9?$AAz?$AAa?$AA?$AA@ 10024ae4     LIBCMT:winapinls.obj
 0002:0000daf0       ??_C@_1M@GIECOABL@?$AAa?$AAr?$AA?9?$AAa?$AAe?$AA?$AA@ 10024af0     LIBCMT:winapinls.obj
 0002:0000dafc       ??_C@_1M@BMLMEKGI@?$AAa?$AAr?$AA?9?$AAb?$AAh?$AA?$AA@ 10024afc     LIBCMT:winapinls.obj
 0002:0000db08       ??_C@_1M@DAPFDGGB@?$AAa?$AAr?$AA?9?$AAd?$AAz?$AA?$AA@ 10024b08     LIBCMT:winapinls.obj
 0002:0000db14       ??_C@_1M@FJNKGKIG@?$AAa?$AAr?$AA?9?$AAe?$AAg?$AA?$AA@ 10024b14     LIBCMT:winapinls.obj
 0002:0000db20       ??_C@_1M@FLGKKCLO@?$AAa?$AAr?$AA?9?$AAi?$AAq?$AA?$AA@ 10024b20     LIBCMT:winapinls.obj
 0002:0000db2c       ??_C@_1M@GNDIPALM@?$AAa?$AAr?$AA?9?$AAj?$AAo?$AA?$AA@ 10024b2c     LIBCMT:winapinls.obj
 0002:0000db38       ??_C@_1M@DDMJFMGJ@?$AAa?$AAr?$AA?9?$AAk?$AAw?$AA?$AA@ 10024b38     LIBCMT:winapinls.obj
 0002:0000db44       ??_C@_1M@EJALMLHM@?$AAa?$AAr?$AA?9?$AAl?$AAb?$AA?$AA@ 10024b44     LIBCMT:winapinls.obj
 0002:0000db50       ??_C@_1M@MOBDBLOC@?$AAa?$AAr?$AA?9?$AAl?$AAy?$AA?$AA@ 10024b50     LIBCMT:winapinls.obj
 0002:0000db5c       ??_C@_1M@JAOCLHDH@?$AAa?$AAr?$AA?9?$AAm?$AAa?$AA?$AA@ 10024b5c     LIBCMT:winapinls.obj
 0002:0000db68       ??_C@_1M@JHPMKJIE@?$AAa?$AAr?$AA?9?$AAo?$AAm?$AA?$AA@ 10024b68     LIBCMT:winapinls.obj
 0002:0000db74       ??_C@_1M@OEPGHFNH@?$AAa?$AAr?$AA?9?$AAq?$AAa?$AA?$AA@ 10024b74     LIBCMT:winapinls.obj
 0002:0000db80       ??_C@_1M@KJDONENM@?$AAa?$AAr?$AA?9?$AAs?$AAa?$AA?$AA@ 10024b80     LIBCMT:winapinls.obj
 0002:0000db8c       ??_C@_1M@DMJDKLKM@?$AAa?$AAr?$AA?9?$AAs?$AAy?$AA?$AA@ 10024b8c     LIBCMT:winapinls.obj
 0002:0000db98       ??_C@_1M@OMFIPEDC@?$AAa?$AAr?$AA?9?$AAt?$AAn?$AA?$AA@ 10024b98     LIBCMT:winapinls.obj
 0002:0000dba4       ??_C@_1M@IHMHGAON@?$AAa?$AAr?$AA?9?$AAy?$AAe?$AA?$AA@ 10024ba4     LIBCMT:winapinls.obj
 0002:0000dbb0       ??_C@_1BG@KDCPGJGB@?$AAa?$AAz?$AA?9?$AAa?$AAz?$AA?9?$AAc?$AAy?$AAr?$AAl?$AA?$AA@ 10024bb0     LIBCMT:winapinls.obj
 0002:0000dbc8       ??_C@_1BG@IBCKDDOE@?$AAa?$AAz?$AA?9?$AAa?$AAz?$AA?9?$AAl?$AAa?$AAt?$AAn?$AA?$AA@ 10024bc8     LIBCMT:winapinls.obj
 0002:0000dbe0       ??_C@_1M@EGPFDCPD@?$AAb?$AAe?$AA?9?$AAb?$AAy?$AA?$AA@ 10024be0     LIBCMT:winapinls.obj
 0002:0000dbec       ??_C@_1M@PCMGMCGC@?$AAb?$AAg?$AA?9?$AAb?$AAg?$AA?$AA@ 10024bec     LIBCMT:winapinls.obj
 0002:0000dbf8       ??_C@_1M@BJBMFGOB@?$AAb?$AAn?$AA?9?$AAi?$AAn?$AA?$AA@ 10024bf8     LIBCMT:winapinls.obj
 0002:0000dc04       ??_C@_1BG@EAKMMACD@?$AAb?$AAs?$AA?9?$AAb?$AAa?$AA?9?$AAl?$AAa?$AAt?$AAn?$AA?$AA@ 10024c04     LIBCMT:winapinls.obj
 0002:0000dc1c       ??_C@_1M@KGADAODK@?$AAc?$AAa?$AA?9?$AAe?$AAs?$AA?$AA@ 10024c1c     LIBCMT:winapinls.obj
 0002:0000dc28       ??_C@_1M@COAJPDHI@?$AAc?$AAs?$AA?9?$AAc?$AAz?$AA?$AA@ 10024c28     LIBCMT:winapinls.obj
 0002:0000dc34       ??_C@_1M@DHBHFONH@?$AAc?$AAy?$AA?9?$AAg?$AAb?$AA?$AA@ 10024c34     LIBCMT:winapinls.obj
 0002:0000dc40       ??_C@_1M@IMGKELGA@?$AAd?$AAa?$AA?9?$AAd?$AAk?$AA?$AA@ 10024c40     LIBCMT:winapinls.obj
 0002:0000dc4c       ??_C@_1M@NNDGDNGA@?$AAd?$AAe?$AA?9?$AAa?$AAt?$AA?$AA@ 10024c4c     LIBCMT:winapinls.obj
 0002:0000dc58       ??_C@_1M@IKDBHEEM@?$AAd?$AAe?$AA?9?$AAc?$AAh?$AA?$AA@ 10024c58     LIBCMT:winapinls.obj
 0002:0000dc64       ??_C@_1M@GFFOJMCJ@?$AAd?$AAe?$AA?9?$AAd?$AAe?$AA?$AA@ 10024c64     LIBCMT:winapinls.obj
 0002:0000dc70       ??_C@_1M@MDNLKBPM@?$AAd?$AAe?$AA?9?$AAl?$AAi?$AA?$AA@ 10024c70     LIBCMT:winapinls.obj
 0002:0000dc7c       ??_C@_1M@NJBEEJNL@?$AAd?$AAe?$AA?9?$AAl?$AAu?$AA?$AA@ 10024c7c     LIBCMT:winapinls.obj
 0002:0000dc88       ??_C@_1O@GNNELBAP@?$AAd?$AAi?$AAv?$AA?9?$AAm?$AAv?$AA?$AA@ 10024c88     LIBCMT:winapinls.obj
 0002:0000dc98       ??_C@_1M@EJLEOGAE@?$AAe?$AAl?$AA?9?$AAg?$AAr?$AA?$AA@ 10024c98     LIBCMT:winapinls.obj
 0002:0000dca4       ??_C@_1M@GMPONJN@?$AAe?$AAn?$AA?9?$AAa?$AAu?$AA?$AA@ 10024ca4     LIBCMT:winapinls.obj
 0002:0000dcb0       ??_C@_1M@NIDIIPGF@?$AAe?$AAn?$AA?9?$AAb?$AAz?$AA?$AA@ 10024cb0     LIBCMT:winapinls.obj
 0002:0000dcbc       ??_C@_1M@JEHMIMFO@?$AAe?$AAn?$AA?9?$AAc?$AAa?$AA?$AA@ 10024cbc     LIBCMT:winapinls.obj
 0002:0000dcc8       ??_C@_1M@IGMJCDLA@?$AAe?$AAn?$AA?9?$AAc?$AAb?$AA?$AA@ 10024cc8     LIBCMT:winapinls.obj
 0002:0000dcd4       ??_C@_1M@BNFIGBKG@?$AAe?$AAn?$AA?9?$AAg?$AAb?$AA?$AA@ 10024cd4     LIBCMT:winapinls.obj
 0002:0000dce0       ??_C@_1M@LKIFDIGP@?$AAe?$AAn?$AA?9?$AAi?$AAe?$AA?$AA@ 10024ce0     LIBCMT:winapinls.obj
 0002:0000dcec       ??_C@_1M@PJKFGCCO@?$AAe?$AAn?$AA?9?$AAj?$AAm?$AA?$AA@ 10024cec     LIBCMT:winapinls.obj
 0002:0000dcf8       ??_C@_1M@KPPKEPBO@?$AAe?$AAn?$AA?9?$AAn?$AAz?$AA?$AA@ 10024cf8     LIBCMT:winapinls.obj
 0002:0000dd04       ??_C@_1M@GMDGLDOB@?$AAe?$AAn?$AA?9?$AAp?$AAh?$AA?$AA@ 10024d04     LIBCMT:winapinls.obj
 0002:0000dd10       ??_C@_1M@ONGIBJNA@?$AAe?$AAn?$AA?9?$AAt?$AAt?$AA?$AA@ 10024d10     LIBCMT:winapinls.obj
 0002:0000dd1c       ??_C@_1M@LLODPCMM@?$AAe?$AAn?$AA?9?$AAu?$AAs?$AA?$AA@ 10024d1c     LIBCMT:winapinls.obj
 0002:0000dd28       ??_C@_1M@LAKFNPAN@?$AAe?$AAn?$AA?9?$AAz?$AAa?$AA?$AA@ 10024d28     LIBCMT:winapinls.obj
 0002:0000dd34       ??_C@_1M@MFNHNHEO@?$AAe?$AAn?$AA?9?$AAz?$AAw?$AA?$AA@ 10024d34     LIBCMT:winapinls.obj
 0002:0000dd40       ??_C@_1M@EJEINPHM@?$AAe?$AAs?$AA?9?$AAa?$AAr?$AA?$AA@ 10024d40     LIBCMT:winapinls.obj
 0002:0000dd4c       ??_C@_1M@GNKPCCJA@?$AAe?$AAs?$AA?9?$AAb?$AAo?$AA?$AA@ 10024d4c     LIBCMT:winapinls.obj
 0002:0000dd58       ??_C@_1M@LEEGFONL@?$AAe?$AAs?$AA?9?$AAc?$AAl?$AA?$AA@ 10024d58     LIBCMT:winapinls.obj
 0002:0000dd64       ??_C@_1M@KGPDPBDF@?$AAe?$AAs?$AA?9?$AAc?$AAo?$AA?$AA@ 10024d64     LIBCMT:winapinls.obj
 0002:0000dd70       ??_C@_1M@EIAHOHH@?$AAe?$AAs?$AA?9?$AAc?$AAr?$AA?$AA@ 10024d70     LIBCMT:winapinls.obj
 0002:0000dd7c       ??_C@_1M@LLPGMBIN@?$AAe?$AAs?$AA?9?$AAd?$AAo?$AA?$AA@ 10024d7c     LIBCMT:winapinls.obj
 0002:0000dd88       ??_C@_1M@DKHMKNJA@?$AAe?$AAs?$AA?9?$AAe?$AAc?$AA?$AA@ 10024d88     LIBCMT:winapinls.obj
 0002:0000dd94       ??_C@_1M@GKGFPKAP@?$AAe?$AAs?$AA?9?$AAe?$AAs?$AA?$AA@ 10024d94     LIBCMT:winapinls.obj
 0002:0000dda0       ??_C@_1M@LKHKGDLN@?$AAe?$AAs?$AA?9?$AAg?$AAt?$AA?$AA@ 10024da0     LIBCMT:winapinls.obj
 0002:0000ddac       ??_C@_1M@HEIIGGJD@?$AAe?$AAs?$AA?9?$AAh?$AAn?$AA?$AA@ 10024dac     LIBCMT:winapinls.obj
 0002:0000ddb8       ??_C@_1M@FBDHPPGD@?$AAe?$AAs?$AA?9?$AAm?$AAx?$AA?$AA@ 10024db8     LIBCMT:winapinls.obj
 0002:0000ddc4       ??_C@_1M@DPAGLNDH@?$AAe?$AAs?$AA?9?$AAn?$AAi?$AA?$AA@ 10024dc4     LIBCMT:winapinls.obj
 0002:0000ddd0       ??_C@_1M@MDGOPGDD@?$AAe?$AAs?$AA?9?$AAp?$AAa?$AA?$AA@ 10024dd0     LIBCMT:winapinls.obj
 0002:0000dddc       ??_C@_1M@EMAMGBGE@?$AAe?$AAs?$AA?9?$AAp?$AAe?$AA?$AA@ 10024ddc     LIBCMT:winapinls.obj
 0002:0000dde8       ??_C@_1M@IBMCAOEC@?$AAe?$AAs?$AA?9?$AAp?$AAr?$AA?$AA@ 10024de8     LIBCMT:winapinls.obj
 0002:0000ddf4       ??_C@_1M@FGMDIJED@?$AAe?$AAs?$AA?9?$AAp?$AAy?$AA?$AA@ 10024df4     LIBCMT:winapinls.obj
 0002:0000de00       ??_C@_1M@IIDEOLLL@?$AAe?$AAs?$AA?9?$AAs?$AAv?$AA?$AA@ 10024e00     LIBCMT:winapinls.obj
 0002:0000de0c       ??_C@_1M@GAOBIPA@?$AAe?$AAs?$AA?9?$AAu?$AAy?$AA?$AA@ 10024e0c     LIBCMT:winapinls.obj
 0002:0000de18       ??_C@_1M@JKFFICHJ@?$AAe?$AAs?$AA?9?$AAv?$AAe?$AA?$AA@ 10024e18     LIBCMT:winapinls.obj
 0002:0000de24       ??_C@_1M@PNMLOJDF@?$AAe?$AAt?$AA?9?$AAe?$AAe?$AA?$AA@ 10024e24     LIBCMT:winapinls.obj
 0002:0000de30       ??_C@_1M@GHHLIKEI@?$AAe?$AAu?$AA?9?$AAe?$AAs?$AA?$AA@ 10024e30     LIBCMT:winapinls.obj
 0002:0000de3c       ??_C@_1M@PBNONODE@?$AAf?$AAa?$AA?9?$AAi?$AAr?$AA?$AA@ 10024e3c     LIBCMT:winapinls.obj
 0002:0000de48       ??_C@_1M@JEEHPMIL@?$AAf?$AAi?$AA?9?$AAf?$AAi?$AA?$AA@ 10024e48     LIBCMT:winapinls.obj
 0002:0000de54       ??_C@_1M@LMDCNDBA@?$AAf?$AAo?$AA?9?$AAf?$AAo?$AA?$AA@ 10024e54     LIBCMT:winapinls.obj
 0002:0000de60       ??_C@_1M@JKEOHLDK@?$AAf?$AAr?$AA?9?$AAb?$AAe?$AA?$AA@ 10024e60     LIBCMT:winapinls.obj
 0002:0000de6c       ??_C@_1M@NOHADPMI@?$AAf?$AAr?$AA?9?$AAc?$AAa?$AA?$AA@ 10024e6c     LIBCMT:winapinls.obj
 0002:0000de78       ??_C@_1M@KDHIHAEC@?$AAf?$AAr?$AA?9?$AAc?$AAh?$AA?$AA@ 10024e78     LIBCMT:winapinls.obj
 0002:0000de84       ??_C@_1M@MMBBFGAK@?$AAf?$AAr?$AA?9?$AAf?$AAr?$AA?$AA@ 10024e84     LIBCMT:winapinls.obj
 0002:0000de90       ??_C@_1M@PAFNENNF@?$AAf?$AAr?$AA?9?$AAl?$AAu?$AA?$AA@ 10024e90     LIBCMT:winapinls.obj
 0002:0000de9c       ??_C@_1M@EOHDJGDD@?$AAf?$AAr?$AA?9?$AAm?$AAc?$AA?$AA@ 10024e9c     LIBCMT:winapinls.obj
 0002:0000dea8       ??_C@_1M@FAPLLOPF@?$AAg?$AAl?$AA?9?$AAe?$AAs?$AA?$AA@ 10024ea8     LIBCMT:winapinls.obj
 0002:0000deb4       ??_C@_1M@FOPBFLOO@?$AAg?$AAu?$AA?9?$AAi?$AAn?$AA?$AA@ 10024eb4     LIBCMT:winapinls.obj
 0002:0000dec0       ??_C@_1M@KBMCINPM@?$AAh?$AAe?$AA?9?$AAi?$AAl?$AA?$AA@ 10024ec0     LIBCMT:winapinls.obj
 0002:0000decc       ??_C@_1M@BBPHKFPJ@?$AAh?$AAi?$AA?9?$AAi?$AAn?$AA?$AA@ 10024ecc     LIBCMT:winapinls.obj
 0002:0000ded8       ??_C@_1M@PMBNDPHD@?$AAh?$AAr?$AA?9?$AAb?$AAa?$AA?$AA@ 10024ed8     LIBCMT:winapinls.obj
 0002:0000dee4       ??_C@_1M@BPCKOEGE@?$AAh?$AAr?$AA?9?$AAh?$AAr?$AA?$AA@ 10024ee4     LIBCMT:winapinls.obj
 0002:0000def0       ??_C@_1M@GACBMHKE@?$AAh?$AAu?$AA?9?$AAh?$AAu?$AA?$AA@ 10024ef0     LIBCMT:winapinls.obj
 0002:0000defc       ??_C@_1M@MILPAJJC@?$AAh?$AAy?$AA?9?$AAa?$AAm?$AA?$AA@ 10024efc     LIBCMT:winapinls.obj
 0002:0000df08       ??_C@_1M@BABBICEC@?$AAi?$AAd?$AA?9?$AAi?$AAd?$AA?$AA@ 10024f08     LIBCMT:winapinls.obj
 0002:0000df14       ??_C@_1M@BIKNHHPF@?$AAi?$AAs?$AA?9?$AAi?$AAs?$AA?$AA@ 10024f14     LIBCMT:winapinls.obj
 0002:0000df20       ??_C@_1M@NMPCJPHE@?$AAi?$AAt?$AA?9?$AAc?$AAh?$AA?$AA@ 10024f20     LIBCMT:winapinls.obj
 0002:0000df2c       ??_C@_1M@GHKGFEDF@?$AAi?$AAt?$AA?9?$AAi?$AAt?$AA?$AA@ 10024f2c     LIBCMT:winapinls.obj
 0002:0000df38       ??_C@_1M@NIEJCJJA@?$AAj?$AAa?$AA?9?$AAj?$AAp?$AA?$AA@ 10024f38     LIBCMT:winapinls.obj
 0002:0000df44       ??_C@_1M@JILFNBIM@?$AAk?$AAa?$AA?9?$AAg?$AAe?$AA?$AA@ 10024f44     LIBCMT:winapinls.obj
 0002:0000df50       ??_C@_1M@PACPMGPH@?$AAk?$AAk?$AA?9?$AAk?$AAz?$AA?$AA@ 10024f50     LIBCMT:winapinls.obj
 0002:0000df5c       ??_C@_1M@IELFGMHA@?$AAk?$AAn?$AA?9?$AAi?$AAn?$AA?$AA@ 10024f5c     LIBCMT:winapinls.obj
 0002:0000df68       ??_C@_1O@IBBJHCH@?$AAk?$AAo?$AAk?$AA?9?$AAi?$AAn?$AA?$AA@ 10024f68     LIBCMT:winapinls.obj
 0002:0000df78       ??_C@_1M@DMHAEOGC@?$AAk?$AAo?$AA?9?$AAk?$AAr?$AA?$AA@ 10024f78     LIBCMT:winapinls.obj
 0002:0000df84       ??_C@_1M@HBAHBIGA@?$AAk?$AAy?$AA?9?$AAk?$AAg?$AA?$AA@ 10024f84     LIBCMT:winapinls.obj
 0002:0000df90       ??_C@_1M@KPMILCJG@?$AAl?$AAt?$AA?9?$AAl?$AAt?$AA?$AA@ 10024f90     LIBCMT:winapinls.obj
 0002:0000df9c       ??_C@_1M@BDEKKCA@?$AAl?$AAv?$AA?9?$AAl?$AAv?$AA?$AA@ 10024f9c     LIBCMT:winapinls.obj
 0002:0000dfa8       ??_C@_1M@ELCKCCJJ@?$AAm?$AAi?$AA?9?$AAn?$AAz?$AA?$AA@ 10024fa8     LIBCMT:winapinls.obj
 0002:0000dfb4       ??_C@_1M@CBOOLAPA@?$AAm?$AAk?$AA?9?$AAm?$AAk?$AA?$AA@ 10024fb4     LIBCMT:winapinls.obj
 0002:0000dfc0       ??_C@_1M@GPHNBJKN@?$AAm?$AAl?$AA?9?$AAi?$AAn?$AA?$AA@ 10024fc0     LIBCMT:winapinls.obj
 0002:0000dfcc       ??_C@_1M@PABJILIG@?$AAm?$AAn?$AA?9?$AAm?$AAn?$AA?$AA@ 10024fcc     LIBCMT:winapinls.obj
 0002:0000dfd8       ??_C@_1M@FGBKKIPG@?$AAm?$AAr?$AA?9?$AAi?$AAn?$AA?$AA@ 10024fd8     LIBCMT:winapinls.obj
 0002:0000dfe4       ??_C@_1M@NDBPDDAL@?$AAm?$AAs?$AA?9?$AAb?$AAn?$AA?$AA@ 10024fe4     LIBCMT:winapinls.obj
 0002:0000dff0       ??_C@_1M@OPIHOOPI@?$AAm?$AAs?$AA?9?$AAm?$AAy?$AA?$AA@ 10024ff0     LIBCMT:winapinls.obj
 0002:0000dffc       ??_C@_1M@PPDBCNFM@?$AAm?$AAt?$AA?9?$AAm?$AAt?$AA?$AA@ 10024ffc     LIBCMT:winapinls.obj
 0002:0000e008       ??_C@_1M@KDJDKMDD@?$AAn?$AAb?$AA?9?$AAn?$AAo?$AA?$AA@ 10025008     LIBCMT:winapinls.obj
 0002:0000e014       ??_C@_1M@KFCFLMJP@?$AAn?$AAl?$AA?9?$AAb?$AAe?$AA?$AA@ 10025014     LIBCMT:winapinls.obj
 0002:0000e020       ??_C@_1M@KPOPDDGO@?$AAn?$AAl?$AA?9?$AAn?$AAl?$AA?$AA@ 10025020     LIBCMT:winapinls.obj
 0002:0000e02c       ??_C@_1M@LJKPEMLN@?$AAn?$AAn?$AA?9?$AAn?$AAo?$AA?$AA@ 1002502c     LIBCMT:winapinls.obj
 0002:0000e038       ??_C@_1M@BDGHHBFL@?$AAn?$AAs?$AA?9?$AAz?$AAa?$AA?$AA@ 10025038     LIBCMT:winapinls.obj
 0002:0000e044       ??_C@_1M@IDEHOAP@?$AAp?$AAa?$AA?9?$AAi?$AAn?$AA?$AA@ 10025044     LIBCMT:winapinls.obj
 0002:0000e050       ??_C@_1M@HDBKGOGH@?$AAp?$AAl?$AA?9?$AAp?$AAl?$AA?$AA@ 10025050     LIBCMT:winapinls.obj
 0002:0000e05c       ??_C@_1M@LJLLCMEH@?$AAp?$AAt?$AA?9?$AAb?$AAr?$AA?$AA@ 1002505c     LIBCMT:winapinls.obj
 0002:0000e068       ??_C@_1M@NCMONAAL@?$AAp?$AAt?$AA?9?$AAp?$AAt?$AA?$AA@ 10025068     LIBCMT:winapinls.obj
 0002:0000e074       ??_C@_1O@EAKMAJDN@?$AAq?$AAu?$AAz?$AA?9?$AAb?$AAo?$AA?$AA@ 10025074     LIBCMT:winapinls.obj
 0002:0000e084       ??_C@_1O@BHHPIGDN@?$AAq?$AAu?$AAz?$AA?9?$AAe?$AAc?$AA?$AA@ 10025084     LIBCMT:winapinls.obj
 0002:0000e094       ??_C@_1O@GBAPEKMJ@?$AAq?$AAu?$AAz?$AA?9?$AAp?$AAe?$AA?$AA@ 10025094     LIBCMT:winapinls.obj
 0002:0000e0a4       ??_C@_1M@CLGLEFBO@?$AAr?$AAo?$AA?9?$AAr?$AAo?$AA?$AA@ 100250a4     LIBCMT:winapinls.obj
 0002:0000e0b0       ??_C@_1M@CEEDODME@?$AAr?$AAu?$AA?9?$AAr?$AAu?$AA?$AA@ 100250b0     LIBCMT:winapinls.obj
 0002:0000e0bc       ??_C@_1M@HPKKKMPP@?$AAs?$AAa?$AA?9?$AAi?$AAn?$AA?$AA@ 100250bc     LIBCMT:winapinls.obj
 0002:0000e0c8       ??_C@_1M@BKMAIGOJ@?$AAs?$AAe?$AA?9?$AAf?$AAi?$AA?$AA@ 100250c8     LIBCMT:winapinls.obj
 0002:0000e0d4       ??_C@_1M@NDPIFLFI@?$AAs?$AAe?$AA?9?$AAn?$AAo?$AA?$AA@ 100250d4     LIBCMT:winapinls.obj
 0002:0000e0e0       ??_C@_1M@DANKKHJ@?$AAs?$AAe?$AA?9?$AAs?$AAe?$AA?$AA@ 100250e0     LIBCMT:winapinls.obj
 0002:0000e0ec       ??_C@_1M@PNBLONPJ@?$AAs?$AAk?$AA?9?$AAs?$AAk?$AA?$AA@ 100250ec     LIBCMT:winapinls.obj
 0002:0000e0f8       ??_C@_1M@LFMODOAL@?$AAs?$AAl?$AA?9?$AAs?$AAi?$AA?$AA@ 100250f8     LIBCMT:winapinls.obj
 0002:0000e104       ??_C@_1O@DFKOMPG@?$AAs?$AAm?$AAa?$AA?9?$AAn?$AAo?$AA?$AA@ 10025104     LIBCMT:winapinls.obj
 0002:0000e114       ??_C@_1O@NDKPBNNH@?$AAs?$AAm?$AAa?$AA?9?$AAs?$AAe?$AA?$AA@ 10025114     LIBCMT:winapinls.obj
 0002:0000e124       ??_C@_1O@PLLKBHAB@?$AAs?$AAm?$AAj?$AA?9?$AAn?$AAo?$AA?$AA@ 10025124     LIBCMT:winapinls.obj
 0002:0000e134       ??_C@_1O@CLEPOGCA@?$AAs?$AAm?$AAj?$AA?9?$AAs?$AAe?$AA?$AA@ 10025134     LIBCMT:winapinls.obj
 0002:0000e144       ??_C@_1O@DLGJGKMK@?$AAs?$AAm?$AAn?$AA?9?$AAf?$AAi?$AA?$AA@ 10025144     LIBCMT:winapinls.obj
 0002:0000e154       ??_C@_1O@OJDJGAJC@?$AAs?$AAm?$AAs?$AA?9?$AAf?$AAi?$AA?$AA@ 10025154     LIBCMT:winapinls.obj
 0002:0000e164       ??_C@_1M@BOFOGHPB@?$AAs?$AAq?$AA?9?$AAa?$AAl?$AA?$AA@ 10025164     LIBCMT:winapinls.obj
 0002:0000e170       ??_C@_1BG@LJBBIPGB@?$AAs?$AAr?$AA?9?$AAb?$AAa?$AA?9?$AAc?$AAy?$AAr?$AAl?$AA?$AA@ 10025170     LIBCMT:winapinls.obj
 0002:0000e188       ??_C@_1BG@JLBENFOE@?$AAs?$AAr?$AA?9?$AAb?$AAa?$AA?9?$AAl?$AAa?$AAt?$AAn?$AA?$AA@ 10025188     LIBCMT:winapinls.obj
 0002:0000e1a0       ??_C@_1BG@KODPNHE@?$AAs?$AAr?$AA?9?$AAs?$AAp?$AA?9?$AAc?$AAy?$AAr?$AAl?$AA?$AA@ 100251a0     LIBCMT:winapinls.obj
 0002:0000e1b8       ??_C@_1BG@CIOGKHPB@?$AAs?$AAr?$AA?9?$AAs?$AAp?$AA?9?$AAl?$AAa?$AAt?$AAn?$AA?$AA@ 100251b8     LIBCMT:winapinls.obj
 0002:0000e1d0       ??_C@_1M@NGFJLMAC@?$AAs?$AAv?$AA?9?$AAf?$AAi?$AA?$AA@ 100251d0     LIBCMT:winapinls.obj
 0002:0000e1dc       ??_C@_1M@MPJEJAJC@?$AAs?$AAv?$AA?9?$AAs?$AAe?$AA?$AA@ 100251dc     LIBCMT:winapinls.obj
 0002:0000e1e8       ??_C@_1M@MPNDHLFK@?$AAs?$AAw?$AA?9?$AAk?$AAe?$AA?$AA@ 100251e8     LIBCMT:winapinls.obj
 0002:0000e1f4       ??_C@_1O@KOHBJJI@?$AAs?$AAy?$AAr?$AA?9?$AAs?$AAy?$AA?$AA@ 100251f4     LIBCMT:winapinls.obj
 0002:0000e204       ??_C@_1M@LDCEFHA@?$AAt?$AAa?$AA?9?$AAi?$AAn?$AA?$AA@ 10025204     LIBCMT:winapinls.obj
 0002:0000e210       ??_C@_1M@CNJOFAK@?$AAt?$AAe?$AA?9?$AAi?$AAn?$AA?$AA@ 10025210     LIBCMT:winapinls.obj
 0002:0000e21c       ??_C@_1M@GNAECACD@?$AAt?$AAh?$AA?9?$AAt?$AAh?$AA?$AA@ 1002521c     LIBCMT:winapinls.obj
 0002:0000e228       ??_C@_1M@CHBIHOJO@?$AAt?$AAn?$AA?9?$AAz?$AAa?$AA?$AA@ 10025228     LIBCMT:winapinls.obj
 0002:0000e234       ??_C@_1M@GCCMIGPJ@?$AAt?$AAr?$AA?9?$AAt?$AAr?$AA?$AA@ 10025234     LIBCMT:winapinls.obj
 0002:0000e240       ??_C@_1M@CELMCNBK@?$AAt?$AAt?$AA?9?$AAr?$AAu?$AA?$AA@ 10025240     LIBCMT:winapinls.obj
 0002:0000e24c       ??_C@_1M@KLMCELGA@?$AAu?$AAk?$AA?9?$AAu?$AAa?$AA?$AA@ 1002524c     LIBCMT:winapinls.obj
 0002:0000e258       ??_C@_1M@EPAJJAJF@?$AAu?$AAr?$AA?9?$AAp?$AAk?$AA?$AA@ 10025258     LIBCMT:winapinls.obj
 0002:0000e264       ??_C@_1BG@GEGPMCDJ@?$AAu?$AAz?$AA?9?$AAu?$AAz?$AA?9?$AAc?$AAy?$AAr?$AAl?$AA?$AA@ 10025264     LIBCMT:winapinls.obj
 0002:0000e27c       ??_C@_1BG@EGGKJILM@?$AAu?$AAz?$AA?9?$AAu?$AAz?$AA?9?$AAl?$AAa?$AAt?$AAn?$AA?$AA@ 1002527c     LIBCMT:winapinls.obj
 0002:0000e294       ??_C@_1M@GFOCLFF@?$AAv?$AAi?$AA?9?$AAv?$AAn?$AA?$AA@ 10025294     LIBCMT:winapinls.obj
 0002:0000e2a0       ??_C@_1M@CPAMEDFI@?$AAx?$AAh?$AA?9?$AAz?$AAa?$AA?$AA@ 100252a0     LIBCMT:winapinls.obj
 0002:0000e2ac       ??_C@_1O@EBKIFIGN@?$AAz?$AAh?$AA?9?$AAc?$AAh?$AAs?$AA?$AA@ 100252ac     LIBCMT:winapinls.obj
 0002:0000e2bc       ??_C@_1O@NMHPGANE@?$AAz?$AAh?$AA?9?$AAc?$AAh?$AAt?$AA?$AA@ 100252bc     LIBCMT:winapinls.obj
 0002:0000e2cc       ??_C@_1M@LPINJOMC@?$AAz?$AAh?$AA?9?$AAc?$AAn?$AA?$AA@ 100252cc     LIBCMT:winapinls.obj
 0002:0000e2d8       ??_C@_1M@OCJEJODD@?$AAz?$AAh?$AA?9?$AAh?$AAk?$AA?$AA@ 100252d8     LIBCMT:winapinls.obj
 0002:0000e2e4       ??_C@_1M@DNDLJINH@?$AAz?$AAh?$AA?9?$AAm?$AAo?$AA?$AA@ 100252e4     LIBCMT:winapinls.obj
 0002:0000e2f0       ??_C@_1M@MBFDNDND@?$AAz?$AAh?$AA?9?$AAs?$AAg?$AA?$AA@ 100252f0     LIBCMT:winapinls.obj
 0002:0000e2fc       ??_C@_1M@IMEPLEPE@?$AAz?$AAh?$AA?9?$AAt?$AAw?$AA?$AA@ 100252fc     LIBCMT:winapinls.obj
 0002:0000e308       ??_C@_1M@BBGHNHJP@?$AAz?$AAu?$AA?9?$AAz?$AAa?$AA?$AA@ 10025308     LIBCMT:winapinls.obj
 0002:0000e318       ___lookuptable_s           10025318     LIBCMT:outputs.obj
 0002:0000e374       ??_C@_03KOEHGMDN@Sun?$AA@  10025374     LIBCMT:nlsdata.obj
 0002:0000e378       ??_C@_03PDAGKDH@Mon?$AA@   10025378     LIBCMT:nlsdata.obj
 0002:0000e37c       ??_C@_03NAGEINEP@Tue?$AA@  1002537c     LIBCMT:nlsdata.obj
 0002:0000e380       ??_C@_03MHOMLAJA@Wed?$AA@  10025380     LIBCMT:nlsdata.obj
 0002:0000e384       ??_C@_03IOFIKPDN@Thu?$AA@  10025384     LIBCMT:nlsdata.obj
 0002:0000e388       ??_C@_03IDIOELNC@Fri?$AA@  10025388     LIBCMT:nlsdata.obj
 0002:0000e38c       ??_C@_03FEFJNEK@Sat?$AA@   1002538c     LIBCMT:nlsdata.obj
 0002:0000e390       ??_C@_06OOPIFAJ@Sunday?$AA@ 10025390     LIBCMT:nlsdata.obj
 0002:0000e398       ??_C@_06JLEDEDGH@Monday?$AA@ 10025398     LIBCMT:nlsdata.obj
 0002:0000e3a0       ??_C@_07BAAGCFCM@Tuesday?$AA@ 100253a0     LIBCMT:nlsdata.obj
 0002:0000e3a8       ??_C@_09DLIGFAKA@Wednesday?$AA@ 100253a8     LIBCMT:nlsdata.obj
 0002:0000e3b4       ??_C@_08HACCIKIA@Thursday?$AA@ 100253b4     LIBCMT:nlsdata.obj
 0002:0000e3c0       ??_C@_06JECMNKMI@Friday?$AA@ 100253c0     LIBCMT:nlsdata.obj
 0002:0000e3c8       ??_C@_08INBOOONO@Saturday?$AA@ 100253c8     LIBCMT:nlsdata.obj
 0002:0000e3d4       ??_C@_03JIHJHPIE@Jan?$AA@  100253d4     LIBCMT:nlsdata.obj
 0002:0000e3d8       ??_C@_03HJBDCHOM@Feb?$AA@  100253d8     LIBCMT:nlsdata.obj
 0002:0000e3dc       ??_C@_03ODNJBKGA@Mar?$AA@  100253dc     LIBCMT:nlsdata.obj
 0002:0000e3e0       ??_C@_03LEOLGMJP@Apr?$AA@  100253e0     LIBCMT:nlsdata.obj
 0002:0000e3e4       ??_C@_03CNMDKL@May?$AA@    100253e4     LIBCMT:nlsdata.obj
 0002:0000e3e8       ??_C@_03IDFGHECI@Jun?$AA@  100253e8     LIBCMT:nlsdata.obj
 0002:0000e3ec       ??_C@_03LBGABGKK@Jul?$AA@  100253ec     LIBCMT:nlsdata.obj
 0002:0000e3f0       ??_C@_03IFJFEIGA@Aug?$AA@  100253f0     LIBCMT:nlsdata.obj
 0002:0000e3f4       ??_C@_03GGCAPAJC@Sep?$AA@  100253f4     LIBCMT:nlsdata.obj
 0002:0000e3f8       ??_C@_03BMAOKBAD@Oct?$AA@  100253f8     LIBCMT:nlsdata.obj
 0002:0000e3fc       ??_C@_03JPJOFNIA@Nov?$AA@  100253fc     LIBCMT:nlsdata.obj
 0002:0000e400       ??_C@_03MKABNOCG@Dec?$AA@  10025400     LIBCMT:nlsdata.obj
 0002:0000e404       ??_C@_07CGJPFGJA@January?$AA@ 10025404     LIBCMT:nlsdata.obj
 0002:0000e40c       ??_C@_08GNJGEPFN@February?$AA@ 1002540c     LIBCMT:nlsdata.obj
 0002:0000e418       ??_C@_05HPCKOFNC@March?$AA@ 10025418     LIBCMT:nlsdata.obj
 0002:0000e420       ??_C@_05DMJDNLEJ@April?$AA@ 10025420     LIBCMT:nlsdata.obj
 0002:0000e428       ??_C@_04CNLMGBGM@June?$AA@ 10025428     LIBCMT:nlsdata.obj
 0002:0000e430       ??_C@_04MIEPOIFP@July?$AA@ 10025430     LIBCMT:nlsdata.obj
 0002:0000e438       ??_C@_06LBBHFDDG@August?$AA@ 10025438     LIBCMT:nlsdata.obj
 0002:0000e440       ??_C@_09BHHEALKD@September?$AA@ 10025440     LIBCMT:nlsdata.obj
 0002:0000e44c       ??_C@_07JJNFCEND@October?$AA@ 1002544c     LIBCMT:nlsdata.obj
 0002:0000e454       ??_C@_08HCHEGEOA@November?$AA@ 10025454     LIBCMT:nlsdata.obj
 0002:0000e460       ??_C@_08EDHMEBNP@December?$AA@ 10025460     LIBCMT:nlsdata.obj
 0002:0000e46c       ??_C@_02DEDBPAFC@AM?$AA@   1002546c     LIBCMT:nlsdata.obj
 0002:0000e470       ??_C@_02CJNFDJBF@PM?$AA@   10025470     LIBCMT:nlsdata.obj
 0002:0000e474       ??_C@_08BPBNCDIB@MM?1dd?1yy?$AA@ 10025474     LIBCMT:nlsdata.obj
 0002:0000e480       ??_C@_0BE@CKGJFCPC@dddd?0?5MMMM?5dd?0?5yyyy?$AA@ 10025480     LIBCMT:nlsdata.obj
 0002:0000e494       ??_C@_08JCCMCCIL@HH?3mm?3ss?$AA@ 10025494     LIBCMT:nlsdata.obj
 0002:0000e4a0       ??_C@_17MBGCMIPB@?$AAS?$AAu?$AAn?$AA?$AA@ 100254a0     LIBCMT:nlsdata.obj
 0002:0000e4a8       ??_C@_17KBOMKBF@?$AAM?$AAo?$AAn?$AA?$AA@ 100254a8     LIBCMT:nlsdata.obj
 0002:0000e4b0       ??_C@_17BMKGEGOJ@?$AAT?$AAu?$AAe?$AA?$AA@ 100254b0     LIBCMT:nlsdata.obj
 0002:0000e4b8       ??_C@_17CJEDCEPE@?$AAW?$AAe?$AAd?$AA?$AA@ 100254b8     LIBCMT:nlsdata.obj
 0002:0000e4c0       ??_C@_17PDPHAADD@?$AAT?$AAh?$AAu?$AA?$AA@ 100254c0     LIBCMT:nlsdata.obj
 0002:0000e4c8       ??_C@_17HFOLPPLP@?$AAF?$AAr?$AAi?$AA?$AA@ 100254c8     LIBCMT:nlsdata.obj
 0002:0000e4d0       ??_C@_17GGIBDPIH@?$AAS?$AAa?$AAt?$AA?$AA@ 100254d0     LIBCMT:nlsdata.obj
 0002:0000e4d8       ??_C@_1O@IHNHDHPB@?$AAS?$AAu?$AAn?$AAd?$AAa?$AAy?$AA?$AA@ 100254d8     LIBCMT:nlsdata.obj
 0002:0000e4e8       ??_C@_1O@MMNBFLIA@?$AAM?$AAo?$AAn?$AAd?$AAa?$AAy?$AA?$AA@ 100254e8     LIBCMT:nlsdata.obj
 0002:0000e4f8       ??_C@_1BA@ENFBFFEK@?$AAT?$AAu?$AAe?$AAs?$AAd?$AAa?$AAy?$AA?$AA@ 100254f8     LIBCMT:nlsdata.obj
 0002:0000e508       ??_C@_1BE@EBOGMDOH@?$AAW?$AAe?$AAd?$AAn?$AAe?$AAs?$AAd?$AAa?$AAy?$AA?$AA@ 10025508     LIBCMT:nlsdata.obj
 0002:0000e51c       ??_C@_1BC@HHMNLIHE@?$AAT?$AAh?$AAu?$AAr?$AAs?$AAd?$AAa?$AAy?$AA?$AA@ 1002551c     LIBCMT:nlsdata.obj
 0002:0000e530       ??_C@_1O@PDICJHAG@?$AAF?$AAr?$AAi?$AAd?$AAa?$AAy?$AA?$AA@ 10025530     LIBCMT:nlsdata.obj
 0002:0000e540       ??_C@_1BC@ENMNNPAJ@?$AAS?$AAa?$AAt?$AAu?$AAr?$AAd?$AAa?$AAy?$AA?$AA@ 10025540     LIBCMT:nlsdata.obj
 0002:0000e554       ??_C@_17DKNBKCHM@?$AAJ?$AAa?$AAn?$AA?$AA@ 10025554     LIBCMT:nlsdata.obj
 0002:0000e55c       ??_C@_17LMDJEKJN@?$AAF?$AAe?$AAb?$AA?$AA@ 1002555c     LIBCMT:nlsdata.obj
 0002:0000e564       ??_C@_17CKNLEDEC@?$AAM?$AAa?$AAr?$AA?$AA@ 10025564     LIBCMT:nlsdata.obj
 0002:0000e56c       ??_C@_17LFPOIHDD@?$AAA?$AAp?$AAr?$AA?$AA@ 1002556c     LIBCMT:nlsdata.obj
 0002:0000e574       ??_C@_17PNNKMEED@?$AAM?$AAa?$AAy?$AA?$AA@ 10025574     LIBCMT:nlsdata.obj
 0002:0000e57c       ??_C@_17KCJGOCPB@?$AAJ?$AAu?$AAn?$AA?$AA@ 1002557c     LIBCMT:nlsdata.obj
 0002:0000e584       ??_C@_17IJPCKHK@?$AAJ?$AAu?$AAl?$AA?$AA@ 10025584     LIBCMT:nlsdata.obj
 0002:0000e58c       ??_C@_17ICPELBCN@?$AAA?$AAu?$AAg?$AA?$AA@ 1002558c     LIBCMT:nlsdata.obj
 0002:0000e594       ??_C@_17HCHCOKMG@?$AAS?$AAe?$AAp?$AA?$AA@ 10025594     LIBCMT:nlsdata.obj
 0002:0000e59c       ??_C@_17FNLKOI@?$AAO?$AAc?$AAt?$AA?$AA@ 1002559c     LIBCMT:nlsdata.obj
 0002:0000e5a4       ??_C@_17BBDMLCIG@?$AAN?$AAo?$AAv?$AA?$AA@ 100255a4     LIBCMT:nlsdata.obj
 0002:0000e5ac       ??_C@_17EGKACKIF@?$AAD?$AAe?$AAc?$AA?$AA@ 100255ac     LIBCMT:nlsdata.obj
 0002:0000e5b4       ??_C@_1BA@EFMEIEBA@?$AAJ?$AAa?$AAn?$AAu?$AAa?$AAr?$AAy?$AA?$AA@ 100255b4     LIBCMT:nlsdata.obj
 0002:0000e5c4       ??_C@_1BC@JGDDFFAM@?$AAF?$AAe?$AAb?$AAr?$AAu?$AAa?$AAr?$AAy?$AA?$AA@ 100255c4     LIBCMT:nlsdata.obj
 0002:0000e5d8       ??_C@_1M@IKEENEDF@?$AAM?$AAa?$AAr?$AAc?$AAh?$AA?$AA@ 100255d8     LIBCMT:nlsdata.obj
 0002:0000e5e4       ??_C@_1M@GJNLMHFD@?$AAA?$AAp?$AAr?$AAi?$AAl?$AA?$AA@ 100255e4     LIBCMT:nlsdata.obj
 0002:0000e5f0       ??_C@_19EPFLPGAP@?$AAJ?$AAu?$AAn?$AAe?$AA?$AA@ 100255f0     LIBCMT:nlsdata.obj
 0002:0000e5fc       ??_C@_19BIFMLPCD@?$AAJ?$AAu?$AAl?$AAy?$AA?$AA@ 100255fc     LIBCMT:nlsdata.obj
 0002:0000e608       ??_C@_1O@PAHLKOAC@?$AAA?$AAu?$AAg?$AAu?$AAs?$AAt?$AA?$AA@ 10025608     LIBCMT:nlsdata.obj
 0002:0000e618       ??_C@_1BE@DKAAMBJL@?$AAS?$AAe?$AAp?$AAt?$AAe?$AAm?$AAb?$AAe?$AAr?$AA?$AA@ 10025618     LIBCMT:nlsdata.obj
 0002:0000e62c       ??_C@_1BA@EPANDLNG@?$AAO?$AAc?$AAt?$AAo?$AAb?$AAe?$AAr?$AA?$AA@ 1002562c     LIBCMT:nlsdata.obj
 0002:0000e63c       ??_C@_1BC@BGLIFPF@?$AAN?$AAo?$AAv?$AAe?$AAm?$AAb?$AAe?$AAr?$AA?$AA@ 1002563c     LIBCMT:nlsdata.obj
 0002:0000e650       ??_C@_1BC@FEMKIFH@?$AAD?$AAe?$AAc?$AAe?$AAm?$AAb?$AAe?$AAr?$AA?$AA@ 10025650     LIBCMT:nlsdata.obj
 0002:0000e664       ??_C@_15ODEHAHHF@?$AAA?$AAM?$AA?$AA@ 10025664     LIBCMT:nlsdata.obj
 0002:0000e66c       ??_C@_15CLMNNGEL@?$AAP?$AAM?$AA?$AA@ 1002566c     LIBCMT:nlsdata.obj
 0002:0000e674       ??_C@_1BC@IEBCMHCM@?$AAM?$AAM?$AA?1?$AAd?$AAd?$AA?1?$AAy?$AAy?$AA?$AA@ 10025674     LIBCMT:nlsdata.obj
 0002:0000e688       ??_C@_1CI@KNAKOEBC@?$AAd?$AAd?$AAd?$AAd?$AA?0?$AA?5?$AAM?$AAM?$AAM?$AAM?$AA?5?$AAd?$AAd?$AA?0?$AA?5?$AAy?$AAy?$AAy?$AAy?$AA?$AA@ 10025688     LIBCMT:nlsdata.obj
 0002:0000e6b0       ??_C@_1BC@GDGBMEMK@?$AAH?$AAH?$AA?3?$AAm?$AAm?$AA?3?$AAs?$AAs?$AA?$AA@ 100256b0     LIBCMT:nlsdata.obj
 0002:00012010       __infinity                 10029010     LIBCMT:87tran.obj
 0002:0001201a       __minfinity                1002901a     LIBCMT:87tran.obj
 0002:00012024       __logemax                  10029024     LIBCMT:87tran.obj
 0002:0001204a       __OP_EXPjmptab             1002904a     LIBCMT:87tran.obj
 0002:000121fc       ??_C@_08EHJDFFNH@__based?$CI?$AA@ 100291fc     LIBCMT:undname.obj
 0002:00012208       ??_C@_07KOLFKCDI@__cdecl?$AA@ 10029208     LIBCMT:undname.obj
 0002:00012210       ??_C@_08GHMPAG@__pascal?$AA@ 10029210     LIBCMT:undname.obj
 0002:0001221c       ??_C@_09IFJBGAPI@__stdcall?$AA@ 1002921c     LIBCMT:undname.obj
 0002:00012228       ??_C@_0L@NPHFGOKO@__thiscall?$AA@ 10029228     LIBCMT:undname.obj
 0002:00012234       ??_C@_0L@JMKHOMEK@__fastcall?$AA@ 10029234     LIBCMT:undname.obj
 0002:00012240       ??_C@_0N@BCKKPABJ@__vectorcall?$AA@ 10029240     LIBCMT:undname.obj
 0002:00012250       ??_C@_09HIJEGCPM@__clrcall?$AA@ 10029250     LIBCMT:undname.obj
 0002:0001225c       ??_C@_06GHPCKEAG@__eabi?$AA@ 1002925c     LIBCMT:undname.obj
 0002:00012264       ??_C@_07JOMMBBKO@__ptr64?$AA@ 10029264     LIBCMT:undname.obj
 0002:0001226c       ??_C@_0L@PILCLIHE@__restrict?$AA@ 1002926c     LIBCMT:undname.obj
 0002:00012278       ??_C@_0M@GFIIJFMG@__unaligned?$AA@ 10029278     LIBCMT:undname.obj
 0002:00012284       ??_C@_09DHDLOLLB@restrict?$CI?$AA@ 10029284     LIBCMT:undname.obj
 0002:00012290       ??_C@_04NIHEBCM@?5new?$AA@ 10029290     LIBCMT:undname.obj
 0002:00012298       ??_C@_07FPCDHGMM@?5delete?$AA@ 10029298     LIBCMT:undname.obj
 0002:000122a0       ??_C@_01NEMOKFLO@?$DN?$AA@ 100292a0     LIBCMT:undname.obj
 0002:000122a4       ??_C@_02GPIOPFAK@?$DO?$DO?$AA@ 100292a4     LIBCMT:undname.obj
 0002:000122a8       ??_C@_02FODMEDOG@?$DM?$DM?$AA@ 100292a8     LIBCMT:undname.obj
 0002:000122ac       ??_C@_01DCLJPIOD@?$CB?$AA@ 100292ac     LIBCMT:undname.obj
 0002:000122b0       ??_C@_02EGOFBIJA@?$DN?$DN?$AA@ 100292b0     LIBCMT:undname.obj
 0002:000122b4       ??_C@_02FDNJECIE@?$CB?$DN?$AA@ 100292b4     LIBCMT:undname.obj
 0002:000122b8       ??_C@_02GPECMEKF@?$FL?$FN?$AA@ 100292b8     LIBCMT:undname.obj
 0002:000122bc       ??_C@_08LHJFAFGD@operator?$AA@ 100292bc     LIBCMT:undname.obj
 0002:000122c8       ??_C@_02HBOOOICD@?9?$DO?$AA@ 100292c8     LIBCMT:undname.obj
 0002:000122cc       ??_C@_01NBENCBCI@?$CK?$AA@ 100292cc     LIBCMT:undname.obj
 0002:000122d0       ??_C@_02ECNGHCIF@?$CL?$CL?$AA@ 100292d0     LIBCMT:undname.obj
 0002:000122d4       ??_C@_02BAABKJLB@?9?9?$AA@ 100292d4     LIBCMT:undname.obj
 0002:000122d8       ??_C@_01JOAMLHOP@?9?$AA@   100292d8     LIBCMT:undname.obj
 0002:000122dc       ??_C@_01MIFGBAGJ@?$CL?$AA@ 100292dc     LIBCMT:undname.obj
 0002:000122e0       ??_C@_01HNPIGOCE@?$CG?$AA@ 100292e0     LIBCMT:undname.obj
 0002:000122e4       ??_C@_03MNHNFDLC@?9?$DO?$CK?$AA@ 100292e4     LIBCMT:undname.obj
 0002:000122e8       ??_C@_01KMDKNFGN@?1?$AA@   100292e8     LIBCMT:undname.obj
 0002:000122ec       ??_C@_01FGNFDNOH@?$CF?$AA@ 100292ec     LIBCMT:undname.obj
 0002:000122f0       ??_C@_01MNNFJEPP@?$DM?$AA@ 100292f0     LIBCMT:undname.obj
 0002:000122f4       ??_C@_02EHCHHCKH@?$DM?$DN?$AA@ 100292f4     LIBCMT:undname.obj
 0002:000122f8       ??_C@_01PPODPGHN@?$DO?$AA@ 100292f8     LIBCMT:undname.obj
 0002:000122fc       ??_C@_02EEKDKGMJ@?$DO?$DN?$AA@ 100292fc     LIBCMT:undname.obj
 0002:00012300       ??_C@_01IHBHIGKO@?0?$AA@   10029300     LIBCMT:undname.obj
 0002:00012304       ??_C@_02HCKGKOFO@?$CI?$CJ?$AA@ 10029304     LIBCMT:undname.obj
 0002:00012308       ??_C@_01PJKLJHI@?$HO?$AA@  10029308     LIBCMT:undname.obj
 0002:0001230c       ??_C@_01JKBOJNNK@?$FO?$AA@ 1002930c     LIBCMT:undname.obj
 0002:00012310       ??_C@_01DNKMNLPK@?$HM?$AA@ 10029310     LIBCMT:undname.obj
 0002:00012314       ??_C@_02PPKAJPJL@?$CG?$CG?$AA@ 10029314     LIBCMT:undname.obj
 0002:00012318       ??_C@_02NONPIBCD@?$HM?$HM?$AA@ 10029318     LIBCMT:undname.obj
 0002:0001231c       ??_C@_02FPIMKNGF@?$CK?$DN?$AA@ 1002931c     LIBCMT:undname.obj
 0002:00012320       ??_C@_02FOEOMHFC@?$CL?$DN?$AA@ 10029320     LIBCMT:undname.obj
 0002:00012324       ??_C@_02FKMDLLOA@?9?$DN?$AA@ 10029324     LIBCMT:undname.obj
 0002:00012328       ??_C@_02FJEHGPIO@?1?$DN?$AA@ 10029328     LIBCMT:undname.obj
 0002:0001232c       ??_C@_02FENAOKFI@?$CF?$DN?$AA@ 1002932c     LIBCMT:undname.obj
 0002:00012330       ??_C@_03IKFCCPFF@?$DO?$DO?$DN?$AA@ 10029330     LIBCMT:undname.obj
 0002:00012334       ??_C@_03CDNPDDLA@?$DM?$DM?$DN?$AA@ 10029334     LIBCMT:undname.obj
 0002:00012338       ??_C@_02FGJGFEAB@?$CG?$DN?$AA@ 10029338     LIBCMT:undname.obj
 0002:0001233c       ??_C@_02DHLNPPGH@?$HM?$DN?$AA@ 1002933c     LIBCMT:undname.obj
 0002:00012340       ??_C@_02MHEGNOJ@?$FO?$DN?$AA@ 10029340     LIBCMT:undname.obj
 0002:00012344       ??_C@_09IFPLHPGF@?$GAvftable?8?$AA@ 10029344     LIBCMT:undname.obj
 0002:00012350       ??_C@_09BLBHBJP@?$GAvbtable?8?$AA@ 10029350     LIBCMT:undname.obj
 0002:0001235c       ??_C@_07FEEIOKP@?$GAvcall?8?$AA@ 1002935c     LIBCMT:undname.obj
 0002:00012364       ??_C@_08LLFFHHDJ@?$GAtypeof?8?$AA@ 10029364     LIBCMT:undname.obj
 0002:00012370       ??_C@_0BF@KDPPACIK@?$GAlocal?5static?5guard?8?$AA@ 10029370     LIBCMT:undname.obj
 0002:00012388       ??_C@_08OBABFOLI@?$GAstring?8?$AA@ 10029388     LIBCMT:undname.obj
 0002:00012394       ??_C@_0BD@JDLKDPAB@?$GAvbase?5destructor?8?$AA@ 10029394     LIBCMT:undname.obj
 0002:000123a8       ??_C@_0BN@DEGPLNFK@?$GAvector?5deleting?5destructor?8?$AA@ 100293a8     LIBCMT:undname.obj
 0002:000123c8       ??_C@_0BO@OBMKPJIG@?$GAdefault?5constructor?5closure?8?$AA@ 100293c8     LIBCMT:undname.obj
 0002:000123e8       ??_C@_0BN@IMDCHIKM@?$GAscalar?5deleting?5destructor?8?$AA@ 100293e8     LIBCMT:undname.obj
 0002:00012408       ??_C@_0BO@PFGOCPJJ@?$GAvector?5constructor?5iterator?8?$AA@ 10029408     LIBCMT:undname.obj
 0002:00012428       ??_C@_0BN@LFPFMEDL@?$GAvector?5destructor?5iterator?8?$AA@ 10029428     LIBCMT:undname.obj
 0002:00012448       ??_C@_0CE@IKBNEHA@?$GAvector?5vbase?5constructor?5iterat@ 10029448     LIBCMT:undname.obj
 0002:0001246c       ??_C@_0BL@NILFHHPC@?$GAvirtual?5displacement?5map?8?$AA@ 1002946c     LIBCMT:undname.obj
 0002:00012488       ??_C@_0CB@JONCMFFK@?$GAeh?5vector?5constructor?5iterator?8@ 10029488     LIBCMT:undname.obj
 0002:000124ac       ??_C@_0CA@GCEOPDGL@?$GAeh?5vector?5destructor?5iterator?8?$AA@ 100294ac     LIBCMT:undname.obj
 0002:000124cc       ??_C@_0CH@OOJPLCPH@?$GAeh?5vector?5vbase?5constructor?5ite@ 100294cc     LIBCMT:undname.obj
 0002:000124f4       ??_C@_0BL@LLKPOHJI@?$GAcopy?5constructor?5closure?8?$AA@ 100294f4     LIBCMT:undname.obj
 0002:00012510       ??_C@_0BA@KBCDOMBN@?$GAudt?5returning?8?$AA@ 10029510     LIBCMT:undname.obj
 0002:00012520       ??_C@_03KLGMFNMG@?$GAEH?$AA@ 10029520     LIBCMT:undname.obj
 0002:00012524       ??_C@_05KHLCHHI@?$GARTTI?$AA@ 10029524     LIBCMT:undname.obj
 0002:0001252c       ??_C@_0BA@KKLDJDLB@?$GAlocal?5vftable?8?$AA@ 1002952c     LIBCMT:undname.obj
 0002:0001253c       ??_C@_0CE@IIHCMGGL@?$GAlocal?5vftable?5constructor?5closu@ 1002953c     LIBCMT:undname.obj
 0002:00012560       ??_C@_06FHBGPFGH@?5new?$FL?$FN?$AA@ 10029560     LIBCMT:undname.obj
 0002:00012568       ??_C@_09LBNFPBCA@?5delete?$FL?$FN?$AA@ 10029568     LIBCMT:undname.obj
 0002:00012574       ??_C@_0P@HJKNJFNN@?$GAomni?5callsig?8?$AA@ 10029574     LIBCMT:undname.obj
 0002:00012584       ??_C@_0BL@CNOONJFP@?$GAplacement?5delete?5closure?8?$AA@ 10029584     LIBCMT:undname.obj
 0002:000125a0       ??_C@_0BN@CKNJLHMB@?$GAplacement?5delete?$FL?$FN?5closure?8?$AA@ 100295a0     LIBCMT:undname.obj
 0002:000125c0       ??_C@_0CG@CFDHKGGD@?$GAmanaged?5vector?5constructor?5iter@ 100295c0     LIBCMT:undname.obj
 0002:000125e8       ??_C@_0CF@IMGKMJNO@?$GAmanaged?5vector?5destructor?5itera@ 100295e8     LIBCMT:undname.obj
 0002:00012610       ??_C@_0CG@HLDDJMAG@?$GAeh?5vector?5copy?5constructor?5iter@ 10029610     LIBCMT:undname.obj
 0002:00012638       ??_C@_0CM@FCBBDIGB@?$GAeh?5vector?5vbase?5copy?5constructo@ 10029638     LIBCMT:undname.obj
 0002:00012664       ??_C@_0BL@CLIPGLGB@?$GAdynamic?5initializer?5for?5?8?$AA@ 10029664     LIBCMT:undname.obj
 0002:00012680       ??_C@_0CB@PDBIFEP@?$GAdynamic?5atexit?5destructor?5for?5?8@ 10029680     LIBCMT:undname.obj
 0002:000126a4       ??_C@_0CD@CGAJBKEJ@?$GAvector?5copy?5constructor?5iterato@ 100296a4     LIBCMT:undname.obj
 0002:000126c8       ??_C@_0CJ@GJELGAMM@?$GAvector?5vbase?5copy?5constructor?5i@ 100296c8     LIBCMT:undname.obj
 0002:000126f4       ??_C@_0CL@FGIJHLCE@?$GAmanaged?5vector?5copy?5constructor@ 100296f4     LIBCMT:undname.obj
 0002:00012720       ??_C@_0BM@PMGGMLDN@?$GAlocal?5static?5thread?5guard?8?$AA@ 10029720     LIBCMT:undname.obj
 0002:0001273c       ??_C@_0BC@DAFEJGAK@?5Type?5Descriptor?8?$AA@ 1002973c     LIBCMT:undname.obj
 0002:00012750       ??_C@_0BM@LDKODKLH@?5Base?5Class?5Descriptor?5at?5?$CI?$AA@ 10029750     LIBCMT:undname.obj
 0002:0001276c       ??_C@_0BD@LGICGFMM@?5Base?5Class?5Array?8?$AA@ 1002976c     LIBCMT:undname.obj
 0002:00012780       ??_C@_0BN@MECKDCOJ@?5Class?5Hierarchy?5Descriptor?8?$AA@ 10029780     LIBCMT:undname.obj
 0002:000127a0       ??_C@_0BK@CFCOFLF@?5Complete?5Object?5Locator?8?$AA@ 100297a0     LIBCMT:undname.obj
 0002:000127bc       ??_C@_1BG@GOEBHBDC@?$AAU?$AAS?$AAE?$AAR?$AA3?$AA2?$AA?4?$AAD?$AAL?$AAL?$AA?$AA@ 100297bc     LIBCMT:crtmboxw.obj
 0002:000127d4       ??_C@_0M@DLDCCGNP@MessageBoxW?$AA@ 100297d4     LIBCMT:crtmboxw.obj
 0002:000127e0       ??_C@_0BA@HNOPNCHB@GetActiveWindow?$AA@ 100297e0     LIBCMT:crtmboxw.obj
 0002:000127f0       ??_C@_0BD@HHGDFDBJ@GetLastActivePopup?$AA@ 100297f0     LIBCMT:crtmboxw.obj
 0002:00012804       ??_C@_0BK@DEKFELLI@GetUserObjectInformationW?$AA@ 10029804     LIBCMT:crtmboxw.obj
 0002:00012820       ??_C@_0BI@DFKBFLJE@GetProcessWindowStation?$AA@ 10029820     LIBCMT:crtmboxw.obj
 0002:00012838       ___newctype                10029838     LIBCMT:ctype.obj
 0002:00012b38       __wctype                   10029b38     LIBCMT:ctype.obj
 0002:00012d40       ___newclmap                10029d40     LIBCMT:ctype.obj
 0002:00012ec0       ___newcumap                10029ec0     LIBCMT:ctype.obj
 0002:000130c0       ??_C@_06PGGFOGJG@1?$CDSNAN?$AA@ 1002a0c0     LIBCMT:x10fout.obj
 0002:000130c8       ??_C@_05PHHOCPM@1?$CDIND?$AA@ 1002a0c8     LIBCMT:x10fout.obj
 0002:000130d0       ??_C@_05DNEBIAHO@1?$CDINF?$AA@ 1002a0d0     LIBCMT:x10fout.obj
 0002:000130d8       ??_C@_06IMKFLFPG@1?$CDQNAN?$AA@ 1002a0d8     LIBCMT:x10fout.obj
 0002:000130e0       ??_C@_1BA@BALFACEM@?$AAC?$AAO?$AAN?$AAO?$AAU?$AAT?$AA$?$AA?$AA@ 1002a0e0     LIBCMT:initcon.obj
 0002:000130f0       ___rg_language_count       1002a0f0     LIBCMT:getqloc.obj
 0002:000130f4       ___rg_country_count        1002a0f4     LIBCMT:getqloc.obj
 0002:000130f8       __load_config_used         1002a0f8     LIBCMT:loadcfg.obj
 0002:00013140       ??_R4error_category@std@@6B@ 1002a140     human.obj
 0002:00013154       ??_R3error_category@std@@8 1002a154     human.obj
 0002:00013164       ??_R2error_category@std@@8 1002a164     human.obj
 0002:0001316c       ??_R1A@?0A@EA@error_category@std@@8 1002a16c     human.obj
 0002:00013188       ??_R4_Generic_error_category@std@@6B@ 1002a188     human.obj
 0002:0001319c       ??_R3_Generic_error_category@std@@8 1002a19c     human.obj
 0002:000131ac       ??_R2_Generic_error_category@std@@8 1002a1ac     human.obj
 0002:000131b8       ??_R1A@?0A@EA@_Generic_error_category@std@@8 1002a1b8     human.obj
 0002:000131d4       ??_R4_Iostream_error_category@std@@6B@ 1002a1d4     human.obj
 0002:000131e8       ??_R3_Iostream_error_category@std@@8 1002a1e8     human.obj
 0002:000131f8       ??_R2_Iostream_error_category@std@@8 1002a1f8     human.obj
 0002:00013208       ??_R1A@?0A@EA@_Iostream_error_category@std@@8 1002a208     human.obj
 0002:00013224       ??_R4_System_error_category@std@@6B@ 1002a224     human.obj
 0002:00013238       ??_R3_System_error_category@std@@8 1002a238     human.obj
 0002:00013248       ??_R2_System_error_category@std@@8 1002a248     human.obj
 0002:00013258       ??_R1A@?0A@EA@_System_error_category@std@@8 1002a258     human.obj
 0002:00013274       ??_R1A@?0A@EA@exception@std@@8 1002a274     libcpmt:xthrow.obj
 0002:00013290       ??_R3exception@std@@8      1002a290     libcpmt:xthrow.obj
 0002:000132a0       ??_R2exception@std@@8      1002a2a0     libcpmt:xthrow.obj
 0002:000132a8       ??_R4bad_alloc@std@@6B@    1002a2a8     libcpmt:xthrow.obj
 0002:000132bc       ??_R3bad_alloc@std@@8      1002a2bc     libcpmt:xthrow.obj
 0002:000132cc       ??_R2bad_alloc@std@@8      1002a2cc     libcpmt:xthrow.obj
 0002:000132d8       ??_R1A@?0A@EA@bad_alloc@std@@8 1002a2d8     libcpmt:xthrow.obj
 0002:000132f4       ??_R4logic_error@std@@6B@  1002a2f4     libcpmt:xthrow.obj
 0002:00013308       ??_R3logic_error@std@@8    1002a308     libcpmt:xthrow.obj
 0002:00013318       ??_R2logic_error@std@@8    1002a318     libcpmt:xthrow.obj
 0002:00013324       ??_R1A@?0A@EA@logic_error@std@@8 1002a324     libcpmt:xthrow.obj
 0002:00013340       ??_R4length_error@std@@6B@ 1002a340     libcpmt:xthrow.obj
 0002:00013354       ??_R3length_error@std@@8   1002a354     libcpmt:xthrow.obj
 0002:00013364       ??_R2length_error@std@@8   1002a364     libcpmt:xthrow.obj
 0002:00013374       ??_R1A@?0A@EA@length_error@std@@8 1002a374     libcpmt:xthrow.obj
 0002:00013390       ??_R4out_of_range@std@@6B@ 1002a390     libcpmt:xthrow.obj
 0002:000133a4       ??_R3out_of_range@std@@8   1002a3a4     libcpmt:xthrow.obj
 0002:000133b4       ??_R2out_of_range@std@@8   1002a3b4     libcpmt:xthrow.obj
 0002:000133c4       ??_R1A@?0A@EA@out_of_range@std@@8 1002a3c4     libcpmt:xthrow.obj
 0002:000133e0       ??_R4type_info@@6B@        1002a3e0     LIBCMT:typinfo.obj
 0002:000133f4       ??_R3type_info@@8          1002a3f4     LIBCMT:typinfo.obj
 0002:00013404       ??_R2type_info@@8          1002a404     LIBCMT:typinfo.obj
 0002:0001340c       ??_R1A@?0A@EA@type_info@@8 1002a40c     LIBCMT:typinfo.obj
 0002:00013428       ??_R4exception@std@@6B@    1002a428     LIBCMT:stdexcpt.obj
 0002:0001343c       ??_R4bad_exception@std@@6B@ 1002a43c     LIBCMT:frame.obj
 0002:00013450       ??_R3bad_exception@std@@8  1002a450     LIBCMT:frame.obj
 0002:00013460       ??_R2bad_exception@std@@8  1002a460     LIBCMT:frame.obj
 0002:0001346c       ??_R1A@?0A@EA@bad_exception@std@@8 1002a46c     LIBCMT:frame.obj
 0002:00013490       ___safe_se_handler_table   1002a490     <linker-defined>
 0002:000134ac       ___rtc_iaa                 1002a4ac     LIBCMT:initsect.obj
 0002:000134b0       ___rtc_izz                 1002a4b0     LIBCMT:initsect.obj
 0002:000134b4       ___rtc_taa                 1002a4b4     LIBCMT:initsect.obj
 0002:000134b8       ___rtc_tzz                 1002a4b8     LIBCMT:initsect.obj
 0002:0001354c       __TI2?AVbad_alloc@std@@    1002a54c     libcpmt:xthrow.obj
 0002:0001355c       __CTA2?AVbad_alloc@std@@   1002a55c     libcpmt:xthrow.obj
 0002:00013568       __CT??_R0?AVbad_alloc@std@@@8??0bad_alloc@std@@QAE@ABV01@@Z12 1002a568     libcpmt:xthrow.obj
 0002:00013584       __CT??_R0?AVexception@std@@@8??0exception@std@@QAE@ABV01@@Z12 1002a584     libcpmt:xthrow.obj
 0002:000135a0       __CT??_R0?AVlogic_error@std@@@8??0logic_error@std@@QAE@ABV01@@Z12 1002a5a0     libcpmt:xthrow.obj
 0002:000135bc       __TI3?AVlength_error@std@@ 1002a5bc     libcpmt:xthrow.obj
 0002:000135cc       __CTA3?AVlength_error@std@@ 1002a5cc     libcpmt:xthrow.obj
 0002:000135dc       __CT??_R0?AVlength_error@std@@@8??0length_error@std@@QAE@ABV01@@Z12 1002a5dc     libcpmt:xthrow.obj
 0002:000135f8       __TI3?AVout_of_range@std@@ 1002a5f8     libcpmt:xthrow.obj
 0002:00013608       __CTA3?AVout_of_range@std@@ 1002a608     libcpmt:xthrow.obj
 0002:00013618       __CT??_R0?AVout_of_range@std@@@8??0out_of_range@std@@QAE@ABV01@@Z12 1002a618     libcpmt:xthrow.obj
 0002:0001388c       __TI2?AVbad_exception@std@@ 1002a88c     LIBCMT:frame.obj
 0002:0001389c       __CTA2?AVbad_exception@std@@ 1002a89c     LIBCMT:frame.obj
 0002:000138a8       __CT??_R0?AVbad_exception@std@@@8??0bad_exception@std@@QAE@ABV01@@Z12 1002a8a8     LIBCMT:frame.obj
 0002:00013b34       __IMPORT_DESCRIPTOR_client 1002ab34     client:client.dll
 0002:00013b48       __IMPORT_DESCRIPTOR_tgf    1002ab48     tgf:tgf.dll
 0002:00013b5c       __IMPORT_DESCRIPTOR_robottools 1002ab5c     robottools:robottools.dll
 0002:00013b70       __IMPORT_DESCRIPTOR_KERNEL32 1002ab70     kernel32:KERNEL32.dll
 0002:00013b84       __NULL_IMPORT_DESCRIPTOR   1002ab84     client:client.dll
 0003:00000018       ?_Generic_object@?$_Error_objects@H@std@@2V_Generic_error_category@2@A 1002c018     human.obj
 0003:0000001c       ?_Iostream_object@?$_Error_objects@H@std@@2V_Iostream_error_category@2@A 1002c01c     human.obj
 0003:00000020       ?_System_object@?$_Error_objects@H@std@@2V_System_error_category@2@A 1002c020     human.obj
 0003:00000028       ?Yn@@3PAPBDA               1002c028     pref.obj
 0003:00000030       ?CmdControlRef@@3PAUtControlCmd@@A 1002c030     pref.obj
 0003:00000508       ?_sgdGravity@@3PANA        1002c508     sg_vs2008_32:sgd.obj
 0003:00000530       __fltused                  1002c530     LIBCMT:fpinit.obj
 0003:00000534       __ldused                   1002c534     LIBCMT:fpinit.obj
 0003:00000598       __iob                      1002c598     LIBCMT:_file.obj
 0003:00000820       ___abort_behavior          1002c820     LIBCMT:abort.obj
 0003:00000830       ___isa_enabled             1002c830     LIBCMT:cpu_disp.obj
 0003:000009a8       __d_inf                    1002c9a8     LIBCMT:util.obj
 0003:000009b0       __d_ind                    1002c9b0     LIBCMT:util.obj
 0003:000009b8       __d_max                    1002c9b8     LIBCMT:util.obj
 0003:000009c0       __d_min                    1002c9c0     LIBCMT:util.obj
 0003:000009c8       __d_mzero                  1002c9c8     LIBCMT:util.obj
 0003:00000ad4       ___nullstring              1002cad4     LIBCMT:output.obj
 0003:00000ad8       ___wnullstring             1002cad8     LIBCMT:output.obj
 0003:00000adc       ___security_cookie         1002cadc     LIBCMT:gs_cookie.obj
 0003:00000ae0       ___security_cookie_complement 1002cae0     LIBCMT:gs_cookie.obj
 0003:00000af0       ___flsindex                1002caf0     LIBCMT:tidtable.obj
 0003:00000b00       __half                     1002cb00     LIBCMT:pow.obj
 0003:00000b10       __cfltcvt_tab              1002cb10     LIBCMT:cmiscdat.obj
 0003:00000b38       ___badioinfo               1002cb38     LIBCMT:ioinit.obj
 0003:00000ca0       __mbctype                  1002cca0     LIBCMT:mbctype.obj
 0003:00000da8       __mbcasemap                1002cda8     LIBCMT:mbctype.obj
 0003:00000ea8       ___initialmbcinfo          1002cea8     LIBCMT:mbctype.obj
 0003:000010cc       ___ptmbcinfo               1002d0cc     LIBCMT:mbctype.obj
 0003:000011c0       __matherr_flag             1002d1c0     LIBCMT:matherr.obj
 0003:000011d0       ___mb_cur_max              1002d1d0     LIBCMT:nlsdata.obj
 0003:000011d4       ___wclocalestr             1002d1d4     LIBCMT:nlsdata.obj
 0003:000011d8       ___lc_time_c               1002d1d8     LIBCMT:nlsdata.obj
 0003:0000133c       ___ptlocinfo               1002d33c     LIBCMT:nlsdata.obj
 0003:00001340       ___initiallocinfo          1002d340     LIBCMT:nlsdata.obj
 0003:000013f8       ___globallocalestatus      1002d3f8     LIBCMT:glstatus.obj
 0003:00001400       __NLG_Destination          1002d400     LIBCMT:exsup.obj
 0003:00001410       ___lconv                   1002d410     LIBCMT:lconv.obj
 0003:00001414       ___lconv_static_decimal    1002d414     LIBCMT:lconv.obj
 0003:00001418       ___lconv_c                 1002d418     LIBCMT:lconv.obj
 0003:00001468       ___lconv_static_W_decimal  1002d468     LIBCMT:lconv.obj
 0003:0000146c       __pctype                   1002d46c     LIBCMT:ctype.obj
 0003:00001470       __pwctype                  1002d470     LIBCMT:ctype.obj
 0003:000014b4       __confh                    1002d4b4     LIBCMT:initcon.obj
 0003:000014b8       __pow10pos                 1002d4b8     LIBCMT:constpow.obj
 0003:00001618       __pow10neg                 1002d618     LIBCMT:constpow.obj
 0003:00001780       __HUGE                     1002d780     LIBCMT:huge.obj
 0003:00001788       ??_R0?AVerror_category@std@@@8 1002d788     human.obj
 0003:000017ac       ??_R0?AV_Generic_error_category@std@@@8 1002d7ac     human.obj
 0003:000017d8       ??_R0?AV_Iostream_error_category@std@@@8 1002d7d8     human.obj
 0003:00001804       ??_R0?AV_System_error_category@std@@@8 1002d804     human.obj
 0003:00001830       ??_R0?AVbad_alloc@std@@@8  1002d830     libcpmt:xthrow.obj
 0003:0000184c       ??_R0?AVexception@std@@@8  1002d84c     libcpmt:xthrow.obj
 0003:00001868       ??_R0?AVlogic_error@std@@@8 1002d868     libcpmt:xthrow.obj
 0003:00001888       ??_R0?AVlength_error@std@@@8 1002d888     libcpmt:xthrow.obj
 0003:000018a8       ??_R0?AVout_of_range@std@@@8 1002d8a8     libcpmt:xthrow.obj
 0003:000018c8       ??_R0?AVtype_info@@@8      1002d8c8     LIBCMT:typinfo.obj
 0003:000018e0       ??_R0?AVbad_exception@std@@@8 1002d8e0     LIBCMT:frame.obj
 0003:00001900       ?HCtx@@3PAPAUHumanContext@@A 1002d900     human.obj
 0003:00001928       ?joyPresent@@3HA           1002d928     human.obj
 0003:00003d30       ?PrefHdle@@3PAXA           1002fd30     pref.obj
 0003:00004140       ?id@?$num_put@DV?$back_insert_iterator@V?$basic_string@DU?$char_traits@D@std@@V?$allocator@D@2@@std@@@std@@@std@@2V0locale@2@A 10030140     libcpmt:xthrow.obj
 0003:00004144       ?id@?$num_put@_WV?$back_insert_iterator@V?$basic_string@_WU?$char_traits@_W@std@@V?$allocator@_W@2@@std@@@std@@@std@@2V0locale@2@A 10030144     libcpmt:xthrow.obj
 0003:00004148       ?id@?$numpunct@D@std@@2V0locale@2@A 10030148     libcpmt:xthrow.obj
 0003:0000414c       ?id@?$numpunct@_W@std@@2V0locale@2@A 1003014c     libcpmt:xthrow.obj
 0003:00004158       ___fastflag                10030158     LIBCMT:fpinit.obj
 0003:00004160       __aenvptr                  10030160     LIBCMT:dllcrt0.obj
 0003:00004164       __wenvptr                  10030164     LIBCMT:dllcrt0.obj
 0003:00004168       __C_Exit_Done              10030168     LIBCMT:crt0dat.obj
 0003:0000416c       ___argc                    1003016c     LIBCMT:crt0dat.obj
 0003:00004170       ___argv                    10030170     LIBCMT:crt0dat.obj
 0003:00004174       ___wargv                   10030174     LIBCMT:crt0dat.obj
 0003:00004178       __environ                  10030178     LIBCMT:crt0dat.obj
 0003:0000417c       __wenviron                 1003017c     LIBCMT:crt0dat.obj
 0003:00004180       __pgmptr                   10030180     LIBCMT:crt0dat.obj
 0003:00004184       __wpgmptr                  10030184     LIBCMT:crt0dat.obj
 0003:00004188       __umaskval                 10030188     LIBCMT:crt0dat.obj
 0003:0000418c       __exitflag                 1003018c     LIBCMT:crt0dat.obj
 0003:00004190       __C_Termination_Done       10030190     LIBCMT:crt0dat.obj
 0003:00004194       ___winitenv                10030194     LIBCMT:crt0dat.obj
 0003:00004198       ___initenv                 10030198     LIBCMT:crt0dat.obj
 0003:0000419c       __cflush                   1003019c     LIBCMT:_file.obj
 0003:000041a0       ___pPurecall               100301a0     LIBCMT:inithelp.obj
 0003:000041a4       ?_pnhHeap@@3P6AHI@ZA       100301a4     LIBCMT:handler.obj
 0003:000041a8       __maxwait                  100301a8     LIBCMT:crtheap.obj
 0003:000041ac       ___isa_available           100301ac     LIBCMT:cpu_disp.obj
 0003:000041b0       ___favor                   100301b0     LIBCMT:cpu_disp.obj
 0003:000041b4       ___pInvalidArgHandler      100301b4     LIBCMT:invarg.obj
 0003:000041b8       __stdbuf                   100301b8     LIBCMT:_sftbuf.obj
 0003:000041c0       ?__pInconsistency@@3P6AXXZA 100301c0     LIBCMT:hooks.obj
 0003:000041c4       ?g_OutOfMemoryExceptionCallback@@3P6GPAXXZA 100301c4     LIBCMT:frame.obj
 0003:000041d4       __crtheap                  100301d4     LIBCMT:heapinit.obj
 0003:000041d8       ___pioinfo                 100301d8     LIBCMT:ioinit.obj
 0003:00004530       ___app_type                10030530     LIBCMT:crt0msg.obj
 0003:00004b78       ___mbcodepage              10030b78     LIBCMT:mbctype.obj
 0003:00004b7c       ___ismbcodepage            10030b7c     LIBCMT:mbctype.obj
 0003:00004b80       ___mbulinfo                10030b80     LIBCMT:mbctype.obj
 0003:00004b8c       ___mblocalename            10030b8c     LIBCMT:mbctype.obj
 0003:00004ebc       __newmode                  10030ebc     LIBCMT:_newmode.obj
 0003:00004ec0       ?pArgList@UnDecorator@@0PAVReplicator@@A 10030ec0     LIBCMT:undname.obj
 0003:00004ec4       ?pZNameList@UnDecorator@@0PAVReplicator@@A 10030ec4     LIBCMT:undname.obj
 0003:00004ec8       ?pTemplateArgList@UnDecorator@@0PAVReplicator@@A 10030ec8     LIBCMT:undname.obj
 0003:00004ecc       ?gName@UnDecorator@@0PBDB  10030ecc     LIBCMT:undname.obj
 0003:00004ed0       ?name@UnDecorator@@0PBDB   10030ed0     LIBCMT:undname.obj
 0003:00004ed4       ?outputString@UnDecorator@@0PADA 10030ed4     LIBCMT:undname.obj
 0003:00004ed8       ?maxStringLength@UnDecorator@@0HA 10030ed8     LIBCMT:undname.obj
 0003:00004edc       ?disableFlags@UnDecorator@@0KA 10030edc     LIBCMT:undname.obj
 0003:00004ee0       ?fExplicitTemplateParams@UnDecorator@@0_NA 10030ee0     LIBCMT:undname.obj
 0003:00004ee1       ?fGetTemplateArgumentList@UnDecorator@@0_NA 10030ee1     LIBCMT:undname.obj
 0003:00004ee4       ?m_pGetParameter@UnDecorator@@0P6APADJ@ZA 10030ee4     LIBCMT:undname.obj
 0003:00004efc       __outputformat             10030efc     LIBCMT:outputformat.obj
 0003:00004f00       ___error_mode              10030f00     LIBCMT:errmode.obj
 0003:00004f18       ___lconv_static_null       10030f18     LIBCMT:lconv.obj
 0003:00004f1c       ___lconv_static_W_null     10030f1c     LIBCMT:lconv.obj
 0003:00004f20       ___locale_changed          10030f20     LIBCMT:wsetloca.obj
 0003:00004f24       __debugger_hook_dummy      10030f24     <common>
 0003:00004f28       ___use_sse2_mathfcns       10030f28     <common>
 0003:00004f40       _encodedKERNEL32Functions  10030f40     <common>
 0003:00004fc4       __nhandle                  10030fc4     <common>
 0003:00004fc8       __pmatherr                 10030fc8     <common>
 0003:00004fe0       __bufin                    10030fe0     <common>
 0003:00005fe0       ___piob                    10031fe0     <common>
 0003:00005fe4       __nstream                  10031fe4     <common>
 0003:00005fe8       ___dyn_tls_init_callback   10031fe8     <common>
 0003:00005fec       ___onexitend               10031fec     <common>
 0003:00005ff0       ___onexitbegin             10031ff0     <common>
 0003:00005ff4       ___mbctype_initialized     10031ff4     <common>
 0003:00005ff8       ___env_initialized         10031ff8     <common>
 0003:00005ffc       __acmdln                   10031ffc     <common>

 entry point at        0001:00006544

 Static symbols

 0001:00000000       ??__E?_Generic_object@?$_Error_objects@H@std@@2V_Generic_error_category@2@A@@YAXXZ 10001000 f   human.obj
 0001:00000010       ??__E?_Iostream_object@?$_Error_objects@H@std@@2V_Iostream_error_category@2@A@@YAXXZ 10001010 f   human.obj
 0001:00000020       ??__E?_System_object@?$_Error_objects@H@std@@2V_System_error_category@2@A@@YAXXZ 10001020 f   human.obj
 0001:00000030       ?GfOut@@YAXPBDZZ           10001030 f   human.obj
 0001:00000040       ?initTrack@@YAXHPAUtTrack@@PAXPAPAXPAUSituation@@@Z 10001040 f   human.obj
 0001:00000350       ?drive_mt@@YAXHPAUCarElt@@PAUSituation@@@Z 10001350 f   human.obj
 0001:000005b0       ?drive_at@@YAXHPAUCarElt@@PAUSituation@@@Z 100015b0 f   human.obj
 0001:00000940       ?newrace@@YAXHPAUCarElt@@PAUSituation@@@Z 10001940 f   human.obj
 0001:00000db0       ?pitcmd@@YAHHPAUCarElt@@PAUSituation@@@Z 10001db0 f   human.obj
 0001:00000f40       ?shutdown@@YAXH@Z          10001f40 f   human.obj
 0001:00000fa0       ?InitFuncPt@@YAHHPAX@Z     10001fa0 f   human.obj
 0001:00001170       ?updateKeys@@YAXXZ         10002170 f   human.obj
 0001:00001250       ?onKeyAction@@YAHEHH@Z     10002250 f   human.obj
 0001:00001270       ?onSKeyAction@@YAHHHH@Z    10002270 f   human.obj
 0001:00001290       ?common_drive@@YAXHPAUCarElt@@PAUSituation@@@Z 10002290 f   human.obj
 0001:00002b40       $LN472                     10003b40     human.obj
 0001:00002b58       $LN473                     10003b58     human.obj
 0001:00002b70       $LN474                     10003b70     human.obj
 0001:00002b88       $LN475                     10003b88     human.obj
 0001:00002ba0       $LN476                     10003ba0     human.obj
 0001:00002bc0       ?getAutoClutch@@YAMHHHPAUCarElt@@@Z 10003bc0 f   human.obj
 0001:00002cfb       __catch$?_Copy@?$basic_string@DU?$char_traits@D@std@@V?$allocator@D@2@@std@@QAEXII@Z$0 10003cfb f i human.obj
 0001:00002d38       __catch$?_Copy@?$basic_string@DU?$char_traits@D@std@@V?$allocator@D@2@@std@@QAEXII@Z$1 10003d38 f i human.obj
 0001:000032e0       ?GfOut@@YAXPBDZZ           100042e0 f   pref.obj
 0001:00003d58       __onexit_nolock            10004d58 f   LIBCMT:onexit.obj
 0001:00003e30       $$000000                   10004e30     LIBCMT:memmove.obj
 0001:00004080       LeadUpVec                  10005080     LIBCMT:memmove.obj
 0001:000040fc       UnwindUpVec                100050fc     LIBCMT:memmove.obj
 0001:00004168       TrailUpVec                 10005168     LIBCMT:memmove.obj
 0001:0000420c       LeadDownVec                1000520c     LIBCMT:memmove.obj
 0001:00004298       UnwindDownVec              10005298     LIBCMT:memmove.obj
 0001:00004304       TrailDownVec               10005304     LIBCMT:memmove.obj
 0001:00004480       $$000000                   10005480     LIBCMT:strchr.obj
 0001:000045b0       $$000000                   100055b0     LIBCMT:strncpy.obj
 0001:000046e0       $$000000                   100056e0     LIBCMT:strrchr.obj
 0001:000049e0       $$000000                   100059e0     LIBCMT:87ctriga.obj
 0001:00004a57       ?CatchGuardHandler@@YA?AW4_EXCEPTION_DISPOSITION@@PAUEHExceptionRecord@@PAUCatchGuardRN@@PAX2@Z 10005a57 f   LIBCMT:_trnsctrl_.obj
 0001:00004a88       ?TranslatorGuardHandler@@YA?AW4_EXCEPTION_DISPOSITION@@PAUEHExceptionRecord@@PAUTranslatorGuardRN@@PAX2@Z 10005a88 f   LIBCMT:_trnsctrl_.obj
 0001:00004e50       $$000000                   10005e50     LIBCMT:ftol2.obj
 0001:00004f00       $$000000                   10005f00     LIBCMT:cos_sse2_precise.obj
 0001:000050c0       $$000000                   100060c0     LIBCMT:pow_sse2_precise.obj
 0001:00005c30       $$000000                   10006c30     LIBCMT:memcpy.obj
 0001:00005e80       LeadUpVec                  10006e80     LIBCMT:memcpy.obj
 0001:00005efc       UnwindUpVec                10006efc     LIBCMT:memcpy.obj
 0001:00005f68       TrailUpVec                 10006f68     LIBCMT:memcpy.obj
 0001:0000600c       LeadDownVec                1000700c     LIBCMT:memcpy.obj
 0001:00006098       UnwindDownVec              10007098     LIBCMT:memcpy.obj
 0001:00006104       TrailDownVec               10007104     LIBCMT:memcpy.obj
 0001:00006280       $$000000                   10007280     LIBCMT:memset.obj
 0001:00006567       ___DllMainCRTStartup       10007567 f   LIBCMT:dllcrt0.obj
 0001:000066a0       $$000000                   100076a0     LIBCMT:sqrt.obj
 0001:00006760       $$000000                   10007760     LIBCMT:asin.obj
 0001:000068b0       $$000000                   100078b0     LIBCMT:acos.obj
 0001:00006a00       $$000000                   10007a00     LIBCMT:sin.obj
 0001:00006b30       $$000000                   10007b30     LIBCMT:cos.obj
 0001:00006c60       $$000000                   10007c60     LIBCMT:tan.obj
 0001:00006fdf       __initterm                 10007fdf f   LIBCMT:crt0dat.obj
 0001:00007049       _doexit                    10008049 f   LIBCMT:crt0dat.obj
 0001:000072f0       $$000000                   100082f0     LIBCMT:strlen.obj
 0001:00007770       $$000000                   10008770     LIBCMT:sehprolg4.obj
 0001:00009143       $LN277                     1000a143     LIBCMT:output.obj
 0001:00009163       _write_char                1000a163 f   LIBCMT:output.obj
 0001:000091ab       _write_multi_char          1000a1ab f   LIBCMT:output.obj
 0001:000091d7       _write_string              1000a1d7 f   LIBCMT:output.obj
 0001:000093a0       $$000000                   1000a3a0     LIBCMT:87triga.obj
 0001:00009450       $$000000                   1000a450     LIBCMT:87cdisp.obj
 0001:00009a10       $$000000                   1000aa10     LIBCMT:lowhelpr.obj
 0001:00009bc2       ?CallCatchBlock@@YAPAXPAUEHExceptionRecord@@PAUEHRegistrationNode@@PAU_CONTEXT@@PBU_s_FuncInfo@@PAXHK@Z 1000abc2 f   LIBCMT:frame.obj
 0001:00009d88       ?CallUnexpected@@YAXPBU_s_ESTypeList@@@Z 1000ad88 f   LIBCMT:frame.obj
 0001:00009db0       __catch$?CallUnexpected@@YAXPBU_s_ESTypeList@@@Z$0 1000adb0 f   LIBCMT:frame.obj
 0001:00009dc8       ?CatchIt@@YAXPAUEHExceptionRecord@@PAUEHRegistrationNode@@PAU_CONTEXT@@PAXPBU_s_FuncInfo@@PBU_s_HandlerType@@PBU_s_CatchableType@@PBU_s_TryBlockMapEntry@@H1E@Z 1000adc8 f   LIBCMT:frame.obj
 0001:00009e43       ?ExFilterRethrow@@YAHPAU_EXCEPTION_POINTERS@@@Z 1000ae43 f   LIBCMT:frame.obj
 0001:00009e90       ?FindHandler@@YAXPAUEHExceptionRecord@@PAUEHRegistrationNode@@PAU_CONTEXT@@PAXPBU_s_FuncInfo@@EH1@Z 1000ae90 f   LIBCMT:frame.obj
 0001:0000a22d       ?FindHandlerForForeignException@@YAXPAUEHExceptionRecord@@PAUEHRegistrationNode@@PAU_CONTEXT@@PAXPBU_s_FuncInfo@@HH1@Z 1000b22d f   LIBCMT:frame.obj
 0001:0000a349       ?IsInExceptionSpec@@YAEPAUEHExceptionRecord@@PBU_s_ESTypeList@@@Z 1000b349 f   LIBCMT:frame.obj
 0001:0000ab65       $LN79                      1000bb65     LIBCMT:libm_error.obj
 0001:0000aba0       $$000000                   1000bba0     LIBCMT:pow.obj
 0001:0000af00       $$000000                   1000bf00     LIBCMT:strcmp.obj
 0001:0000b41e       __cftoe2_l                 1000c41e f   LIBCMT:cvt.obj
 0001:0000b63d       __cftof2_l                 1000c63d f   LIBCMT:cvt.obj
 0001:0000ba73       __shift                    1000ca73 f   LIBCMT:cvt.obj
 0001:0000c030       _parse_cmdline             1000d030 f   LIBCMT:stdargv.obj
 0001:0000c7b0       $$000000                   1000d7b0     LIBCMT:87disp.obj
 0001:0000c980       $$000000                   1000d980     LIBCMT:genexcep.obj
 0001:0000c9e0       $$000000                   1000d9e0     LIBCMT:common.obj
 0001:0000cb80       $$000000                   1000db80     LIBCMT:asin_pentium4.obj
 0001:0000d100       $$000000                   1000e100     LIBCMT:acos_pentium4.obj
 0001:0000d660       $$000000                   1000e660     LIBCMT:sin_pentium4.obj
 0001:0000d830       $$000000                   1000e830     LIBCMT:cos_pentium4.obj
 0001:0000d9e0       $$000000                   1000e9e0     LIBCMT:tan_pentium4.obj
 0001:0000e305       _siglookup                 1000f305 f   LIBCMT:winsig.obj
 0001:0000e36a       ?CPtoLocaleName@@YAPB_WH@Z 1000f36a f   LIBCMT:mbctype.obj
 0001:0000e3a4       ?getSystemCP@@YAHH@Z       1000f3a4 f   LIBCMT:mbctype.obj
 0001:0000e412       ?setSBCS@@YAXPAUthreadmbcinfostruct@@@Z 1000f412 f   LIBCMT:mbctype.obj
 0001:0000e471       ?setSBUpLow@@YAXPAUthreadmbcinfostruct@@@Z 1000f471 f   LIBCMT:mbctype.obj
 0001:0000ebb0       _flsall                    1000fbb0 f   LIBCMT:fflush.obj
 0001:0000f0a0       $$000000                   100100a0     LIBCMT:exsup4.obj
 0001:0000f130       __unwind_handler4          10010130 f   LIBCMT:exsup4.obj
 0001:0000f740       $$000000                   10010740     LIBCMT:ulldvrm.obj
 0001:000103f0       $$000000                   100113f0     LIBCMT:exsup.obj
 0001:00010410       __unwind_handler           10011410 f   LIBCMT:exsup.obj
 0001:00010540       $$000000                   10011540     LIBCMT:pow_pentium4.obj
 0001:000110a0       $$000000                   100120a0     LIBCMT:87tran.obj
 0001:00011980       $$000000                   10012980     LIBCMT:lldvrm.obj
 0001:00011a60       $$000000                   10012a60     LIBCMT:ullshr.obj
 0001:00011ae5       ?x_ismbbtype_l@@YAHPAUlocaleinfo_struct@@IHH@Z 10012ae5 f   LIBCMT:ismbbyte.obj
 0001:00011f1a       ?__crtLCMapStringA_stat@@YAHPAUlocaleinfo_struct@@PB_WKPBDHPADHHH@Z 10012f1a f   LIBCMT:a_map.obj
 0001:00012164       ?__crtGetStringTypeA_stat@@YAHPAUlocaleinfo_struct@@KPBDHPAGHH@Z 10013164 f   LIBCMT:a_str.obj
 0001:00012470       $$000000                   10013470     LIBCMT:alloca16.obj
 0001:00012c70       $$000000                   10013c70     LIBCMT:chkstk.obj
 0001:000140aa       $LN333                     100150aa     LIBCMT:strgtold.obj
 0001:00014aae       ___hw_cw_sse2              10015aae f   LIBCMT:ieee87.obj
 0001:00014e59       __hw_cw                    10015e59 f   LIBCMT:ieee87.obj
 0001:000152b0       $$000000                   100162b0     LIBCMT:llmul.obj
 0001:00015300       __ehhandler$?_Copy@?$basic_string@DU?$char_traits@D@std@@V?$allocator@D@2@@std@@QAEXII@Z 10016300 f   human.obj
 0001:0001530a       __ehhandler$?CallUnexpected@@YAXPBU_s_ESTypeList@@@Z 1001630a f   LIBCMT:frame.obj
 0001:00015330       ??__F?_Generic_object@?$_Error_objects@H@std@@2V_Generic_error_category@2@A@@YAXXZ 10016330 f   human.obj
 0001:00015340       ??__F?_Iostream_object@?$_Error_objects@H@std@@2V_Iostream_error_category@2@A@@YAXXZ 10016340 f   human.obj
 0001:00015350       ??__F?_System_object@?$_Error_objects@H@std@@2V_System_error_category@2@A@@YAXXZ 10016350 f   human.obj
 0002:00000174       ?_Generic_object$initializer$@?$_Error_objects@H@std@@2P6AXXZA 10017174     human.obj
 0002:00000178       ?_Iostream_object$initializer$@?$_Error_objects@H@std@@2P6AXXZA 10017178     human.obj
 0002:0000017c       ?_System_object$initializer$@?$_Error_objects@H@std@@2P6AXXZA 1001717c     human.obj
 0002:00000188       _pinit                     10017188     LIBCMT:onexit.obj
 0002:0000018c       _pinit                     1001718c     LIBCMT:_file.obj
 0002:00000190       _pinit                     10017190     LIBCMT:cpu_disp.obj
 0002:00000194       _pinit                     10017194     LIBCMT:mathfcns.obj
 0002:00000198       _pinit                     10017198     LIBCMT:mbctype.obj
 0002:000001a4       _pterm                     100171a4     LIBCMT:wsetloca.obj
 0002:000001a8       _pterm                     100171a8     LIBCMT:initcon.obj
 0002:000001ac       _pterm                     100171ac     LIBCMT:_file.obj
 0002:000001c0       __ulEndianTest             100171c0     human.obj
 0002:000001c8       _PI                        100171c8     human.obj
 0002:000005d4       __ulEndianTest             100175d4     pref.obj
 0002:00000908       __ulEndianTest             10017908     sg_vs2008_32:sgd.obj
 0002:00000924       __ulEndianTest             10017924     ul_vs2008_32:ulError.obj
 0002:00000968       __Win_errtab               10017968     libcpmt:syserror.obj
 0002:00000bc0       __Sys_errtab               10017bc0     libcpmt:syserror.obj
 0002:000016c0       ?mask@?3??_d_int@@9@9      100186c0     LIBCMT:_test.obj
 0002:000016e0       ?sub@?3??_d_int@@9@9       100186e0     LIBCMT:_test.obj
 0002:000016f0       ?mask@?3??_fd_int@@9@9     100186f0     LIBCMT:_test.obj
 0002:00001710       ?sub@?3??_fd_int@@9@9      10018710     LIBCMT:_test.obj
 0002:00001718       ?ExceptionTemplate@?1??_CxxThrowException@@9@8@4UEHExceptionRecord@@B 10018718     LIBCMT:throw.obj
 0002:00001740       Ctable                     10018740     LIBCMT:cos_sse2_precise.obj
 0002:00001f40       SC_1                       10018f40     LIBCMT:cos_sse2_precise.obj
 0002:00001f50       SC_2                       10018f50     LIBCMT:cos_sse2_precise.obj
 0002:00001f60       SC_3                       10018f60     LIBCMT:cos_sse2_precise.obj
 0002:00001f70       SC_4                       10018f70     LIBCMT:cos_sse2_precise.obj
 0002:00001f80       PI32INV                    10018f80     LIBCMT:cos_sse2_precise.obj
 0002:00001f88       SHIFTER                    10018f88     LIBCMT:cos_sse2_precise.obj
 0002:00001f90       P_2                        10018f90     LIBCMT:cos_sse2_precise.obj
 0002:00001fa0       P_1                        10018fa0     LIBCMT:cos_sse2_precise.obj
 0002:00001fa8       P_3                        10018fa8     LIBCMT:cos_sse2_precise.obj
 0002:00001fb0       TWO_POW_55                 10018fb0     LIBCMT:cos_sse2_precise.obj
 0002:00001fb8       TWO_POW_M55                10018fb8     LIBCMT:cos_sse2_precise.obj
 0002:00001fc0       ALL_ONES                   10018fc0     LIBCMT:cos_sse2_precise.obj
 0002:00001fc8       NEG_ZERO                   10018fc8     LIBCMT:cos_sse2_precise.obj
 0002:00001fd0       ONE                        10018fd0     LIBCMT:cos_sse2_precise.obj
 0002:00001fe0       SIGN_MASK                  10018fe0     LIBCMT:cos_sse2_precise.obj
 0002:00001ff0       rcp_t1                     10018ff0     LIBCMT:pow_sse2_precise.obj
 0002:00002400       log2_t1                    10019400     LIBCMT:pow_sse2_precise.obj
 0002:00002c10       rcp_t2                     10019c10     LIBCMT:pow_sse2_precise.obj
 0002:00003020       log2_t2                    1001a020     LIBCMT:pow_sse2_precise.obj
 0002:00003830       rcp_t3                     1001a830     LIBCMT:pow_sse2_precise.obj
 0002:00004040       log2_t3                    1001b040     LIBCMT:pow_sse2_precise.obj
 0002:00005050       clv                        1001c050     LIBCMT:pow_sse2_precise.obj
 0002:00005070       exp2_tbl                   1001c070     LIBCMT:pow_sse2_precise.obj
 0002:00005870       Shifter                    1001c870     LIBCMT:pow_sse2_precise.obj
 0002:00005880       SIGMASK                    1001c880     LIBCMT:pow_sse2_precise.obj
 0002:00005890       ONEMASK                    1001c890     LIBCMT:pow_sse2_precise.obj
 0002:000058a0       ABSVALMASK                 1001c8a0     LIBCMT:pow_sse2_precise.obj
 0002:000058b0       cev                        1001c8b0     LIBCMT:pow_sse2_precise.obj
 0002:000058d8       HALFSIG                    1001c8d8     LIBCMT:pow_sse2_precise.obj
 0002:000058e0       LHN                        1001c8e0     LIBCMT:pow_sse2_precise.obj
 0002:000058e8       sNaN                       1001c8e8     LIBCMT:pow_sse2_precise.obj
 0002:000058f0       INF                        1001c8f0     LIBCMT:pow_sse2_precise.obj
 0002:000058f8       NEG_INF                    1001c8f8     LIBCMT:pow_sse2_precise.obj
 0002:00005900       NEG_ZERO                   1001c900     LIBCMT:pow_sse2_precise.obj
 0002:00005908       NEG_BIG                    1001c908     LIBCMT:pow_sse2_precise.obj
 0002:00005910       POS_BIG                    1001c910     LIBCMT:pow_sse2_precise.obj
 0002:00005918       EMIN                       1001c918     LIBCMT:pow_sse2_precise.obj
 0002:00005920       QIND                       1001c920     LIBCMT:pow_sse2_precise.obj
 0002:00005b20       DblMax                     1001cb20     LIBCMT:87cdisp.obj
 0002:00005b28       DblMin                     1001cb28     LIBCMT:87cdisp.obj
 0002:00005b30       IeeeAdjO                   1001cb30     LIBCMT:87cdisp.obj
 0002:00005b38       IeeeAdjU                   1001cb38     LIBCMT:87cdisp.obj
 0002:00005b40       _infinity                  1001cb40     LIBCMT:87cdisp.obj
 0002:00005b48       _zero                      1001cb48     LIBCMT:87cdisp.obj
 0002:00005b70       _INF                       1001cb70     LIBCMT:libm_error.obj
 0002:00005b80       _BIG                       1001cb80     LIBCMT:libm_error.obj
 0002:00005b90       _ZERO                      1001cb90     LIBCMT:libm_error.obj
 0002:00005ba0       _INF_32                    1001cba0     LIBCMT:libm_error.obj
 0002:00005ba8       _NAN_32                    1001cba8     LIBCMT:libm_error.obj
 0002:00005bb0       _ZERO_32                   1001cbb0     LIBCMT:libm_error.obj
 0002:00005bb8       _libm_largef               1001cbb8     LIBCMT:libm_error.obj
 0002:00005bc0       _libm_smallf               1001cbc0     LIBCMT:libm_error.obj
 0002:00005bc8       _libm_small                1001cbc8     LIBCMT:libm_error.obj
 0002:00005f84       One                        1001cf84     LIBCMT:87disp.obj
 0002:00005f8c       XAMtoTagTab                1001cf8c     LIBCMT:87disp.obj
 0002:00005fa0       One                        1001cfa0     LIBCMT:common.obj
 0002:00005fb4       DblMax                     1001cfb4     LIBCMT:common.obj
 0002:00005fbc       DblMin                     1001cfbc     LIBCMT:common.obj
 0002:00005fc4       IeeeAdjO                   1001cfc4     LIBCMT:common.obj
 0002:00005fcc       IeeeAdjU                   1001cfcc     LIBCMT:common.obj
 0002:00005fd4       _infinity                  1001cfd4     LIBCMT:common.obj
 0002:00005fdc       _zero                      1001cfdc     LIBCMT:common.obj
 0002:00005ff0       Shifter                    1001cff0     LIBCMT:asin_pentium4.obj
 0002:00006000       Tbl_addr                   1001d000     LIBCMT:asin_pentium4.obj
 0002:00006f00       T_table                    1001df00     LIBCMT:asin_pentium4.obj
 0002:00007700       PI_BY_2                    1001e700     LIBCMT:asin_pentium4.obj
 0002:00007710       SIGNMASK                   1001e710     LIBCMT:asin_pentium4.obj
 0002:00007720       HALFMASK                   1001e720     LIBCMT:asin_pentium4.obj
 0002:00007730       HALFMASK2                  1001e730     LIBCMT:asin_pentium4.obj
 0002:00007738       cv                         1001e738     LIBCMT:asin_pentium4.obj
 0002:00007750       cv2                        1001e750     LIBCMT:asin_pentium4.obj
 0002:00007790       ABSVALMASK                 1001e790     LIBCMT:asin_pentium4.obj
 0002:00007798       TMASK                      1001e798     LIBCMT:asin_pentium4.obj
 0002:000077a0       ONEMASK                    1001e7a0     LIBCMT:asin_pentium4.obj
 0002:000077a8       EMIN                       1001e7a8     LIBCMT:asin_pentium4.obj
 0002:000077b0       MAX_ARG                    1001e7b0     LIBCMT:asin_pentium4.obj
 0002:000077b8       MIN_ARG                    1001e7b8     LIBCMT:asin_pentium4.obj
 0002:000077c0       INF                        1001e7c0     LIBCMT:asin_pentium4.obj
 0002:000077c8       ZERO                       1001e7c8     LIBCMT:asin_pentium4.obj
 0002:000077d0       Shifter                    1001e7d0     LIBCMT:acos_pentium4.obj
 0002:000077e0       Tbl_addr                   1001e7e0     LIBCMT:acos_pentium4.obj
 0002:000086e0       T_table                    1001f6e0     LIBCMT:acos_pentium4.obj
 0002:00008ee0       PI_BY_2                    1001fee0     LIBCMT:acos_pentium4.obj
 0002:00008ef0       NEG_PI                     1001fef0     LIBCMT:acos_pentium4.obj
 0002:00008f00       PI                         1001ff00     LIBCMT:acos_pentium4.obj
 0002:00008f10       SIGNMASK                   1001ff10     LIBCMT:acos_pentium4.obj
 0002:00008f20       HALFMASK                   1001ff20     LIBCMT:acos_pentium4.obj
 0002:00008f30       HALFMASK2                  1001ff30     LIBCMT:acos_pentium4.obj
 0002:00008f40       cv                         1001ff40     LIBCMT:acos_pentium4.obj
 0002:00008f60       cv2                        1001ff60     LIBCMT:acos_pentium4.obj
 0002:00008fa0       ABSVALMASK                 1001ffa0     LIBCMT:acos_pentium4.obj
 0002:00008fa8       TMASK                      1001ffa8     LIBCMT:acos_pentium4.obj
 0002:00008fb0       ONEMASK                    1001ffb0     LIBCMT:acos_pentium4.obj
 0002:00008fb8       ONE_BY_2                   1001ffb8     LIBCMT:acos_pentium4.obj
 0002:00008fc0       EMIN                       1001ffc0     LIBCMT:acos_pentium4.obj
 0002:00008fc8       MAX_ARG                    1001ffc8     LIBCMT:acos_pentium4.obj
 0002:00008fd0       MIN_ARG                    1001ffd0     LIBCMT:acos_pentium4.obj
 0002:00008fd8       INF                        1001ffd8     LIBCMT:acos_pentium4.obj
 0002:00008fe0       ZERO                       1001ffe0     LIBCMT:acos_pentium4.obj
 0002:00008fe8       ALPHA                      1001ffe8     LIBCMT:acos_pentium4.obj
 0002:00008ff0       Ctable                     1001fff0     LIBCMT:sin_pentium4.obj
 0002:000097f0       SC_1                       100207f0     LIBCMT:sin_pentium4.obj
 0002:00009800       SC_2                       10020800     LIBCMT:sin_pentium4.obj
 0002:00009810       SC_3                       10020810     LIBCMT:sin_pentium4.obj
 0002:00009820       SC_4                       10020820     LIBCMT:sin_pentium4.obj
 0002:00009830       PI32INV                    10020830     LIBCMT:sin_pentium4.obj
 0002:00009838       SHIFTER                    10020838     LIBCMT:sin_pentium4.obj
 0002:00009840       P_2                        10020840     LIBCMT:sin_pentium4.obj
 0002:00009850       P_1                        10020850     LIBCMT:sin_pentium4.obj
 0002:00009858       P_3                        10020858     LIBCMT:sin_pentium4.obj
 0002:00009860       TWO_POW_55                 10020860     LIBCMT:sin_pentium4.obj
 0002:00009868       TWO_POW_M55                10020868     LIBCMT:sin_pentium4.obj
 0002:00009870       ALL_ONES                   10020870     LIBCMT:sin_pentium4.obj
 0002:00009878       NEG_ZERO                   10020878     LIBCMT:sin_pentium4.obj
 0002:00009880       ONE                        10020880     LIBCMT:sin_pentium4.obj
 0002:00009890       Ctable                     10020890     LIBCMT:cos_pentium4.obj
 0002:0000a090       SC_1                       10021090     LIBCMT:cos_pentium4.obj
 0002:0000a0a0       SC_2                       100210a0     LIBCMT:cos_pentium4.obj
 0002:0000a0b0       SC_3                       100210b0     LIBCMT:cos_pentium4.obj
 0002:0000a0c0       SC_4                       100210c0     LIBCMT:cos_pentium4.obj
 0002:0000a0d0       PI32INV                    100210d0     LIBCMT:cos_pentium4.obj
 0002:0000a0d8       SHIFTER                    100210d8     LIBCMT:cos_pentium4.obj
 0002:0000a0e0       P_2                        100210e0     LIBCMT:cos_pentium4.obj
 0002:0000a0f0       P_1                        100210f0     LIBCMT:cos_pentium4.obj
 0002:0000a0f8       P_3                        100210f8     LIBCMT:cos_pentium4.obj
 0002:0000a100       TWO_POW_55                 10021100     LIBCMT:cos_pentium4.obj
 0002:0000a108       TWO_POW_M55                10021108     LIBCMT:cos_pentium4.obj
 0002:0000a110       ALL_ONES                   10021110     LIBCMT:cos_pentium4.obj
 0002:0000a118       NEG_ZERO                   10021118     LIBCMT:cos_pentium4.obj
 0002:0000a120       ONE                        10021120     LIBCMT:cos_pentium4.obj
 0002:0000a130       SIGN_MASK                  10021130     LIBCMT:cos_pentium4.obj
 0002:0000a140       Ctable                     10021140     LIBCMT:tan_pentium4.obj
 0002:0000b740       PI32INV                    10022740     LIBCMT:tan_pentium4.obj
 0002:0000b750       SHIFTER                    10022750     LIBCMT:tan_pentium4.obj
 0002:0000b760       P_1                        10022760     LIBCMT:tan_pentium4.obj
 0002:0000b770       P_2                        10022770     LIBCMT:tan_pentium4.obj
 0002:0000b780       P_3                        10022780     LIBCMT:tan_pentium4.obj
 0002:0000b790       QQ_2                       10022790     LIBCMT:tan_pentium4.obj
 0002:0000b798       ONE                        10022798     LIBCMT:tan_pentium4.obj
 0002:0000b7a0       MASK_35                    100227a0     LIBCMT:tan_pentium4.obj
 0002:0000b7b0       sign_mask                  100227b0     LIBCMT:tan_pentium4.obj
 0002:0000b7b8       TWO_POW_55                 100227b8     LIBCMT:tan_pentium4.obj
 0002:0000b7c0       TWO_POW_M55                100227c0     LIBCMT:tan_pentium4.obj
 0002:0000b7c8       TWO_POW_M53                100227c8     LIBCMT:tan_pentium4.obj
 0002:0000b7d0       INF                        100227d0     LIBCMT:tan_pentium4.obj
 0002:0000b7e0       _rterrs                    100227e0     LIBCMT:crt0msg.obj
 0002:0000c244       __mb_locale_names          10023244     LIBCMT:mbctype.obj
 0002:0000c284       _GS_ExceptionPointers      10023284     LIBCMT:gs_report.obj
 0002:0000e6d0       rcp_t1                     100256d0     LIBCMT:pow_pentium4.obj
 0002:0000eae0       log2_t1                    10025ae0     LIBCMT:pow_pentium4.obj
 0002:0000f2f0       rcp_t2                     100262f0     LIBCMT:pow_pentium4.obj
 0002:0000f700       log2_t2                    10026700     LIBCMT:pow_pentium4.obj
 0002:0000ff10       rcp_t3                     10026f10     LIBCMT:pow_pentium4.obj
 0002:00010720       log2_t3                    10027720     LIBCMT:pow_pentium4.obj
 0002:00011730       clv                        10028730     LIBCMT:pow_pentium4.obj
 0002:00011750       exp2_tbl                   10028750     LIBCMT:pow_pentium4.obj
 0002:00011f50       Shifter                    10028f50     LIBCMT:pow_pentium4.obj
 0002:00011f60       SIGMASK                    10028f60     LIBCMT:pow_pentium4.obj
 0002:00011f70       ONEMASK                    10028f70     LIBCMT:pow_pentium4.obj
 0002:00011f80       ABSVALMASK                 10028f80     LIBCMT:pow_pentium4.obj
 0002:00011f90       cev                        10028f90     LIBCMT:pow_pentium4.obj
 0002:00011fb8       HALFSIG                    10028fb8     LIBCMT:pow_pentium4.obj
 0002:00011fc0       LHN                        10028fc0     LIBCMT:pow_pentium4.obj
 0002:00011fc8       sNaN                       10028fc8     LIBCMT:pow_pentium4.obj
 0002:00011fd0       INF                        10028fd0     LIBCMT:pow_pentium4.obj
 0002:00011fd8       NEG_INF                    10028fd8     LIBCMT:pow_pentium4.obj
 0002:00011fe0       NEG_ZERO                   10028fe0     LIBCMT:pow_pentium4.obj
 0002:00011fe8       NEG_BIG                    10028fe8     LIBCMT:pow_pentium4.obj
 0002:00011ff0       POS_BIG                    10028ff0     LIBCMT:pow_pentium4.obj
 0002:00011ff8       EMIN                       10028ff8     LIBCMT:pow_pentium4.obj
 0002:00012000       QIND                       10029000     LIBCMT:pow_pentium4.obj
 0002:0001202e       _log2max                   1002902e     LIBCMT:87tran.obj
 0002:00012038       _smallarg                  10029038     LIBCMT:87tran.obj
 0002:00012042       _half                      10029042     LIBCMT:87tran.obj
 0002:00012070       _tokenTable                10029070     LIBCMT:undname.obj
 0002:000120a8       _nameTable                 100290a8     LIBCMT:undname.obj
 0002:000121e8       _rttiTable                 100291e8     LIBCMT:undname.obj
 0002:00013040       __first_127char            1002a040     LIBCMT:wsetloca.obj
 0002:000134c0       __catchsym$?_Copy@?$basic_string@DU?$char_traits@D@std@@V?$allocator@D@2@@std@@QAEXII@Z$5 1002a4c0     human.obj
 0002:000134d0       __catchsym$?_Copy@?$basic_string@DU?$char_traits@D@std@@V?$allocator@D@2@@std@@QAEXII@Z$4 1002a4d0     human.obj
 0002:000134e0       __unwindtable$?_Copy@?$basic_string@DU?$char_traits@D@std@@V?$allocator@D@2@@std@@QAEXII@Z 1002a4e0     human.obj
 0002:00013500       __ehfuncinfo$?_Copy@?$basic_string@DU?$char_traits@D@std@@V?$allocator@D@2@@std@@QAEXII@Z 1002a500     human.obj
 0002:00013524       __tryblocktable$?_Copy@?$basic_string@DU?$char_traits@D@std@@V?$allocator@D@2@@std@@QAEXII@Z 1002a524     human.obj
 0002:00013638       __sehtable$__onexit        1002a638     LIBCMT:onexit.obj
 0002:00013658       __sehtable$_printf         1002a658     LIBCMT:printf.obj
 0002:00013678       __sehtable$__CRT_INIT@12   1002a678     LIBCMT:dllcrt0.obj
 0002:00013698       __sehtable$___DllMainCRTStartup 1002a698     LIBCMT:dllcrt0.obj
 0002:000136b8       __sehtable$_doexit         1002a6b8     LIBCMT:crt0dat.obj
 0002:000136d8       __sehtable$___set_fpsr_sse2 1002a6d8     LIBCMT:fpctrl.obj
 0002:000136f8       __sehtable$__freefls@4     1002a6f8     LIBCMT:tidtable.obj
 0002:00013720       __sehtable$__initptd       1002a720     LIBCMT:tidtable.obj
 0002:00013748       __sehtable$?terminate@@YAXXZ 1002a748     LIBCMT:hooks.obj
 0002:00013768       __sehtable$?_inconsistency@@YAXXZ 1002a768     LIBCMT:hooks.obj
 0002:00013788       __sehtable$___FrameUnwindToState 1002a788     LIBCMT:frame.obj
 0002:000137b0       __sehtable$?CallCatchBlock@@YAPAXPAUEHExceptionRecord@@PAUEHRegistrationNode@@PAU_CONTEXT@@PBU_s_FuncInfo@@PAXHK@Z 1002a7b0     LIBCMT:frame.obj
 0002:000137d8       __sehtable$___BuildCatchObject 1002a7d8     LIBCMT:frame.obj
 0002:000137f8       __sehtable$___DestructExceptionObject 1002a7f8     LIBCMT:frame.obj
 0002:00013814       __catchsym$?CallUnexpected@@YAXPBU_s_ESTypeList@@@Z$2 1002a814     LIBCMT:frame.obj
 0002:00013824       __unwindtable$?CallUnexpected@@YAXPBU_s_ESTypeList@@@Z 1002a824     LIBCMT:frame.obj
 0002:00013834       __tryblocktable$?CallUnexpected@@YAXPBU_s_ESTypeList@@@Z 1002a834     LIBCMT:frame.obj
 0002:00013848       __ehfuncinfo$?CallUnexpected@@YAXPBU_s_ESTypeList@@@Z 1002a848     LIBCMT:frame.obj
 0002:00013870       __sehtable$___BuildCatchObjectHelper 1002a870     LIBCMT:frame.obj
 0002:000138c8       __sehtable$?_Type_info_dtor@type_info@@CAXPAV1@@Z 1002a8c8     LIBCMT:typname.obj
 0002:000138e8       __sehtable$__ioinit        1002a8e8     LIBCMT:ioinit.obj
 0002:00013908       __sehtable$__mtinitlocknum 1002a908     LIBCMT:mlock.obj
 0002:00013928       __sehtable$__IsNonwritableInCurrentImage 1002a928     LIBCMT:pesect.obj
 0002:00013948       __sehtable$_raise          1002a948     LIBCMT:winsig.obj
 0002:00013968       __sehtable$___updatetmbcinfo 1002a968     LIBCMT:mbctype.obj
 0002:00013988       __sehtable$__setmbcp       1002a988     LIBCMT:mbctype.obj
 0002:000139a8       __sehtable$__fcloseall     1002a9a8     LIBCMT:closeall.obj
 0002:000139c8       __sehtable$_flsall         1002a9c8     LIBCMT:fflush.obj
 0002:000139f0       __sehtable$___updatetlocinfo 1002a9f0     LIBCMT:localref.obj
 0002:00013a10       __sehtable$__write         1002aa10     LIBCMT:write.obj
 0002:00013a30       __sehtable$__lseeki64      1002aa30     LIBCMT:lseeki64.obj
 0002:00013a50       __sehtable$_fclose         1002aa50     LIBCMT:fclose.obj
 0002:00013a70       __sehtable$__commit        1002aa70     LIBCMT:commit.obj
 0002:00013a90       __sehtable$___lock_fhandle 1002aa90     LIBCMT:osfinfo.obj
 0002:00013ab0       __sehtable$__locterm       1002aab0     LIBCMT:wsetloca.obj
 0002:00013ad0       __sehtable$__close         1002aad0     LIBCMT:close.obj
 0002:00013af0       .edata                     1002aaf0     human.exp
 0002:00013b18       rgpv                       1002ab18     human.exp
 0002:00013b1c       rgszName                   1002ab1c     human.exp
 0002:00013b20       rgwOrd                     1002ab20     human.exp
 0002:00013b22       szName                     1002ab22     human.exp
 0002:00013b2c       $N00001                    1002ab2c     human.exp
 0002:00013e38       .idata$6                   1002ae38     client:client.dll
 0002:00013f00       .idata$6                   1002af00     tgf:tgf.dll
 0002:00013f34       .idata$6                   1002af34     robottools:robottools.dll
 0002:000143aa       .idata$6                   1002b3aa     kernel32:KERNEL32.dll
 0003:00000000       _color                     1002c000     human.obj
 0003:00000010       _masterPlayer              1002c010     human.obj
 0003:00000014       _lastKeyUpdate             1002c014     human.obj
 0003:00000024       ?firstTime@?1??common_drive@@YAXHPAUCarElt@@PAUSituation@@@Z@4HA 1002c024     human.obj
 0003:000004f0       _controlList               1002c4f0     pref.obj
 0003:00000520       __ulSeverityText           1002c520     ul_vs2008_32:ulError.obj
 0003:00000540       _NAME_                     1002c540     LIBCMT:sqrt.obj
 0003:00000550       _NAME_                     1002c550     LIBCMT:asin.obj
 0003:00000560       _NAME_                     1002c560     LIBCMT:acos.obj
 0003:00000570       _NAME_                     1002c570     LIBCMT:sin.obj
 0003:00000580       _NAME_                     1002c580     LIBCMT:cos.obj
 0003:00000590       _NAME_                     1002c590     LIBCMT:tan.obj
 0003:00000838       _errtable                  1002c838     LIBCMT:dosmap.obj
 0003:000009a0       _ErrnoNoMem                1002c9a0     LIBCMT:dosmap.obj
 0003:000009a4       _DoserrorNoMem             1002c9a4     LIBCMT:dosmap.obj
 0003:000009d0       ?_names@?1??_get_fname@@9@9 1002c9d0     LIBCMT:fpexcept.obj
 0003:00000ab8       _over                      1002cab8     LIBCMT:fpctrl.obj
 0003:00000ac4       _under                     1002cac4     LIBCMT:fpctrl.obj
 0003:00000ad0       ?__DAZ_ENABLED@?1??__set_fpsr_sse2@@9@9 1002cad0     LIBCMT:fpctrl.obj
 0003:00000b08       POW_name                   1002cb08     LIBCMT:pow.obj
 0003:00000b78       ?isPackaged@?1??__crtIsPackagedApp@@9@9 1002cb78     LIBCMT:winapisupp.obj
 0003:00000b80       __locktable                1002cb80     LIBCMT:mlock.obj
 0003:000010c8       ___rgctypeflag             1002d0c8     LIBCMT:mbctype.obj
 0003:000010d0       ___rgcode_page_info        1002d0d0     LIBCMT:mbctype.obj
 0003:00001480       __ctype_loc_style          1002d480     LIBCMT:wsetloca.obj
 0003:00001484       _DoubleFormat              1002d484     LIBCMT:intrncvt.obj
 0003:0000149c       _FloatFormat               1002d49c     LIBCMT:intrncvt.obj
 0003:0000192c       _joyInfo                   1002d92c     human.obj
 0003:00001930       _mouseInfo                 1002d930     human.obj
 0003:00001934       _speedLimiter              1002d934     human.obj
 0003:00001938       _firstTime                 1002d938     human.obj
 0003:0000193c       _allocator_arg             1002d93c     human.obj
 0003:0000193d       _piecewise_construct       1002d93d     human.obj
 0003:00001940       _curTrack                  1002d940     human.obj
 0003:00001944       _Vtarget                   1002d944     human.obj
 0003:00001948       _keyInfo                   1002d948     human.obj
 0003:00002548       _skeyInfo                  1002e548     human.obj
 0003:00003148       _currentKey                1002f148     human.obj
 0003:00003548       _currentSKey               1002f548     human.obj
 0003:00003948       _names                     1002f948     human.obj
 0003:00003d38       __ulErrorBuffer            1002fd38     ul_vs2008_32:ulError.obj
 0003:00004138       __ulErrorCB                10030138     ul_vs2008_32:ulError.obj
 0003:0000413c       __Tuple_alloc              1003013c     libcpmt:xthrow.obj
 0003:0000413d       _ignore                    1003013d     libcpmt:xthrow.obj
 0003:0000413e       _allocator_arg             1003013e     libcpmt:xthrow.obj
 0003:0000413f       _piecewise_construct       1003013f     libcpmt:xthrow.obj
 0003:00004150       _allocator_arg             10030150     libcpmt:syserror.obj
 0003:00004151       _piecewise_construct       10030151     libcpmt:syserror.obj
 0003:00004154       ___enable_percent_n        10030154     LIBCMT:printf.obj
 0003:0000415c       ___proc_attached           1003015c     LIBCMT:dllcrt0.obj
 0003:000041c8       __pmatherr_set             100301c8     LIBCMT:libm_error.obj
 0003:000041cc       ___type_info_root_node     100301cc     LIBCMT:typname.obj
 0003:000042d8       ?_pgmname@?1??_setargv@@9@9 100302d8     LIBCMT:stdargv.obj
 0003:000043e0       _lclcritsects              100303e0     LIBCMT:mlock.obj
 0003:00004538       ?outmsg@?9??_NMSG_WRITE@@9@9 10030538     LIBCMT:crt0msg.obj
 0003:00004b60       _ctrlc_action              10030b60     LIBCMT:winsig.obj
 0003:00004b64       _ctrlbreak_action          10030b64     LIBCMT:winsig.obj
 0003:00004b68       _abort_action              10030b68     LIBCMT:winsig.obj
 0003:00004b6c       _term_action               10030b6c     LIBCMT:winsig.obj
 0003:00004b70       _ConsoleCtrlHandler_Installed 10030b70     LIBCMT:winsig.obj
 0003:00004b74       _g_pfnRtlGenRandom         10030b74     LIBCMT:rand_s.obj
 0003:00004b90       _fSystemSet                10030b90     LIBCMT:mbctype.obj
 0003:00004b98       _GS_ExceptionRecord        10030b98     LIBCMT:gs_report.obj
 0003:00004be8       _GS_ContextRecord          10030be8     LIBCMT:gs_report.obj
 0003:00004eb4       _DebuggerWasPresent        10030eb4     LIBCMT:gs_report.obj
 0003:00004eb8       ___crtCallProc             10030eb8     LIBCMT:winapinls.obj
 0003:00004ee8       _heap                      10030ee8     LIBCMT:undname.obj
 0003:00004f04       ?pfnMessageBox@?1??__crtMessageBoxW@@9@9 10030f04     LIBCMT:crtmboxw.obj
 0003:00004f08       ?pfnGetActiveWindow@?1??__crtMessageBoxW@@9@9 10030f08     LIBCMT:crtmboxw.obj
 0003:00004f0c       ?pfnGetLastActivePopup@?1??__crtMessageBoxW@@9@9 10030f0c     LIBCMT:crtmboxw.obj
 0003:00004f10       ?pfnGetProcessWindowStation@?1??__crtMessageBoxW@@9@9 10030f10     LIBCMT:crtmboxw.obj
 0003:00004f14       ?pfnGetUserObjectInformation@?1??__crtMessageBoxW@@9@9 10030f14     LIBCMT:crtmboxw.obj
