 olethros

 Timestamp is 58af3063 (Thu Feb 23 18:56:35 2017)

 Preferred load address is 10000000

 Start         Length     Name                   Class
 0001:00000000 000042daH .text                   CODE
 0001:000042e0 000003edH .text$di                CODE
 0001:000046d0 00074f5cH .text$mn                CODE
 0001:00079630 00000c93H .text$x                 CODE
 0001:0007a2d0 0000006fH .text$yd                CODE
 0002:00000000 00000198H .idata$5                DATA
 0002:00000198 00000004H .CRT$XCA                DATA
 0002:0000019c 00000004H .CRT$XCC                DATA
 0002:000001a0 00000078H .CRT$XCU                DATA
 0002:00000218 00000004H .CRT$XCZ                DATA
 0002:0000021c 00000004H .CRT$XIA                DATA
 0002:00000220 00000018H .CRT$XIC                DATA
 0002:00000238 00000004H .CRT$XIZ                DATA
 0002:0000023c 00000004H .CRT$XPA                DATA
 0002:00000240 00000008H .CRT$XPX                DATA
 0002:00000248 00000004H .CRT$XPXA               DATA
 0002:0000024c 00000004H .CRT$XPZ                DATA
 0002:00000250 00000004H .CRT$XTA                DATA
 0002:00000254 00000004H .CRT$XTZ                DATA
 0002:00000260 0001d4c0H .rdata                  DATA
 0002:0001d720 000000c8H .rdata$debug            DATA
 0002:0001d7e8 00000860H .rdata$r                DATA
 0002:0001e048 00000004H .rtc$IAA                DATA
 0002:0001e04c 00000030H .rtc$IMZ                DATA
 0002:0001e07c 00000004H .rtc$IZZ                DATA
 0002:0001e080 00000004H .rtc$TAA                DATA
 0002:0001e084 00000030H .rtc$TMZ                DATA
 0002:0001e0b4 00000004H .rtc$TZZ                DATA
 0002:0001e0b8 00001c94H .xdata$x                DATA
 0002:0001fd50 00000048H .edata                  DATA
 0002:0001fd98 00000050H .idata$2                DATA
 0002:0001fde8 00000014H .idata$3                DATA
 0002:0001fdfc 00000198H .idata$4                DATA
 0002:0001ff94 00000732H .idata$6                DATA
 0003:00000000 000014b8H .data                   DATA
 0003:000014b8 0000037fH .data$r                 DATA
 0003:00001840 00002488H .bss                    DATA

  Address         Publics by Value              Rva+Base       Lib:Object

 0000:00000000       ___safe_se_handler_table   00000000     <absolute>
 0000:00000000       ___guard_flags             00000000     <absolute>
 0000:00000000       ___guard_fids_count        00000000     <absolute>
 0000:00000000       ___guard_fids_table        00000000     <absolute>
 0000:00000000       __except_list              00000000     <absolute>
 0000:00000000       ___safe_se_handler_count   00000000     <absolute>
 0000:00000000       ___ImageBase               10000000     <linker-defined>
 0001:00000000       ?sgdSqrt@@YANN@Z           10001000 f i sg_vs2008_32:sgd.obj
 0001:00000010       ?sgdSquare@@YANN@Z         10001010 f i sg_vs2008_32:sgd.obj
 0001:00000020       ?sgdAbs@@YANN@Z            10001020 f i sg_vs2008_32:sgd.obj
 0001:00000040       ?sgdASin@@YANN@Z           10001040 f i sg_vs2008_32:sgd.obj
 0001:00000050       ?sgdACos@@YANN@Z           10001050 f i sg_vs2008_32:sgd.obj
 0001:00000060       ?sgdATan2@@YANNN@Z         10001060 f i sg_vs2008_32:sgd.obj
 0001:00000080       ?sgdSin@@YANN@Z            10001080 f i sg_vs2008_32:sgd.obj
 0001:00000090       ?sgdCos@@YANN@Z            10001090 f i sg_vs2008_32:sgd.obj
 0001:000000a0       ?sgdZeroVec3@@YAXQAN@Z     100010a0 f i sg_vs2008_32:sgd.obj
 0001:000000b0       ?sgdSetVec3@@YAXQANNNN@Z   100010b0 f i sg_vs2008_32:sgd.obj
 0001:000000d0       ?sgdSetVec4@@YAXQANNNNN@Z  100010d0 f i sg_vs2008_32:sgd.obj
 0001:000000f0       ?sgdCopyVec3@@YAXQANQBN@Z  100010f0 f i sg_vs2008_32:sgd.obj
 0001:00000110       ?sgdCopyVec4@@YAXQANQBN@Z  10001110 f i sg_vs2008_32:sgd.obj
 0001:00000130       ?sgdAddVec3@@YAXQANQBN1@Z  10001130 f i sg_vs2008_32:sgd.obj
 0001:00000160       ?sgdSubVec2@@YAXQANQBN1@Z  10001160 f i sg_vs2008_32:sgd.obj
 0001:00000180       ?sgdSubVec3@@YAXQANQBN1@Z  10001180 f i sg_vs2008_32:sgd.obj
 0001:000001b0       ?sgdNegateVec3@@YAXQAN@Z   100011b0 f i sg_vs2008_32:sgd.obj
 0001:000001d0       ?sgdScaleVec2@@YAXQANN@Z   100011d0 f i sg_vs2008_32:sgd.obj
 0001:000001f0       ?sgdScaleVec3@@YAXQANN@Z   100011f0 f i sg_vs2008_32:sgd.obj
 0001:00000210       ?sgdScaleVec3@@YAXQANQBNN@Z 10001210 f i sg_vs2008_32:sgd.obj
 0001:00000240       ?sgdScaleVec4@@YAXQANQBNN@Z 10001240 f i sg_vs2008_32:sgd.obj
 0001:00000270       ?sgdAddScaledVec3@@YAXQANQBN1N@Z 10001270 f i sg_vs2008_32:sgd.obj
 0001:000002a0       ?sgdScalarProductVec2@@YANQBN0@Z 100012a0 f i sg_vs2008_32:sgd.obj
 0001:000002c0       ?sgdScalarProductVec3@@YANQBN0@Z 100012c0 f i sg_vs2008_32:sgd.obj
 0001:000002e0       ?sgdScalarProductVec4@@YANQBN0@Z 100012e0 f i sg_vs2008_32:sgd.obj
 0001:00000310       ?sgdDistanceSquaredVec3@@YANQBN0@Z 10001310 f i sg_vs2008_32:sgd.obj
 0001:00000340       ?sgdDistanceVec3@@YANQBN0@Z 10001340 f i sg_vs2008_32:sgd.obj
 0001:00000370       ?sgdLengthVec2@@YANQBN@Z   10001370 f i sg_vs2008_32:sgd.obj
 0001:00000390       ?sgdLengthVec3@@YANQBN@Z   10001390 f i sg_vs2008_32:sgd.obj
 0001:000003c0       ?sgdNormaliseVec2@@YAXQAN@Z 100013c0 f i sg_vs2008_32:sgd.obj
 0001:000003f0       ?sgdNormaliseVec3@@YAXQAN@Z 100013f0 f i sg_vs2008_32:sgd.obj
 0001:00000430       ?sgdNormaliseVec3@@YAXQANQBN@Z 10001430 f i sg_vs2008_32:sgd.obj
 0001:00000470       ?sgdCopyMat4@@YAXQAY03NQAY03$$CBN@Z 10001470 f i sg_vs2008_32:sgd.obj
 0001:000004e0       ?sgdScaleMat4@@YAXQAY03NQAY03$$CBNN@Z 100014e0 f i sg_vs2008_32:sgd.obj
 0001:00000570       ?sgdMakeIdentMat4@@YAXQAY03N@Z 10001570 f i sg_vs2008_32:sgd.obj
 0001:000005b0       ?sgdLineSegment3ToLine3@@YAXPAUsgdLine3@@UsgdLineSegment3@@@Z 100015b0 f i sg_vs2008_32:sgd.obj
 0001:00000620       ?sgdAngleBetweenNormalizedVec3@@YANQAN0@Z 10001620 f i sg_vs2008_32:sgd.obj
 0001:00000690       ?getCenter@sgdSphere@@QBEPBNXZ 10001690 f i sg_vs2008_32:sgd.obj
 0001:000006a0       ?getRadius@sgdSphere@@QBENXZ 100016a0 f i sg_vs2008_32:sgd.obj
 0001:000006b0       ?isEmpty@sgdSphere@@QBEHXZ 100016b0 f i sg_vs2008_32:sgd.obj
 0001:000006d0       ?getMin@sgdBox@@QBEPBNXZ   100016d0 f i sg_vs2008_32:sgd.obj
 0001:000006e0       ?getMax@sgdBox@@QBEPBNXZ   100016e0 f i sg_vs2008_32:sgd.obj
 0001:000006f0       ?isEmpty@sgdBox@@QBEHXZ    100016f0 f i sg_vs2008_32:sgd.obj
 0001:00000720       ?sgdVectorProductVec3@@YAXQANQBN1@Z 10001720 f   sg_vs2008_32:sgd.obj
 0001:00000760       ?_sgdClampToUnity@@YANN@Z  10001760 f i sg_vs2008_32:sgd.obj
 0001:00000790       ?sgdCompare3DSqdDist@@YAHQBN0N@Z 10001790 f   sg_vs2008_32:sgd.obj
 0001:000007f0       ?sgdMakeRotMat4@@YAXQAY03NNQBN@Z 100017f0 f   sg_vs2008_32:sgd.obj
 0001:00000920       ?sgdMakePickMatrix@@YAXQAY03NNNNNQAN@Z 10001920 f   sg_vs2008_32:sgd.obj
 0001:000009a0       ?sgdMakeLookAtMat4@@YAXQAY03NQBN11@Z 100019a0 f   sg_vs2008_32:sgd.obj
 0001:00000b20       ?sgdAngleBetweenVec3@@YANQAN0@Z 10001b20 f   sg_vs2008_32:sgd.obj
 0001:00000bc0       ?sgdAngleBetweenNormalizedVec3@@YANQAN00@Z 10001bc0 f   sg_vs2008_32:sgd.obj
 0001:00000d50       ?sgdAngleBetweenVec3@@YANQAN00@Z 10001d50 f   sg_vs2008_32:sgd.obj
 0001:00000df0       ?extend@sgdBox@@QAEXQBN@Z  10001df0 f   sg_vs2008_32:sgd.obj
 0001:00000ec0       ?extend@sgdBox@@QAEXPBV1@@Z 10001ec0 f   sg_vs2008_32:sgd.obj
 0001:00000f50       ?extend@sgdBox@@QAEXPBVsgdSphere@@@Z 10001f50 f   sg_vs2008_32:sgd.obj
 0001:00000fc0       ?intersects@sgdBox@@QBEHQBN@Z 10001fc0 f   sg_vs2008_32:sgd.obj
 0001:00001100       ?extend@sgdSphere@@QAEXQBN@Z 10002100 f   sg_vs2008_32:sgd.obj
 0001:000011b0       ?extend@sgdSphere@@QAEXPBVsgdBox@@@Z 100021b0 f   sg_vs2008_32:sgd.obj
 0001:00001340       ?extend@sgdSphere@@QAEXPBV1@@Z 10002340 f   sg_vs2008_32:sgd.obj
 0001:00001410       ?intersects@sgdSphere@@QBEHPBVsgdBox@@@Z 10002410 f   sg_vs2008_32:sgd.obj
 0001:000014c0       ?update@sgdFrustum@@AAEXXZ 100024c0 f   sg_vs2008_32:sgd.obj
 0001:000018c0       ?contains@sgdFrustum@@QBEHPBVsgdSphere@@@Z 100028c0 f   sg_vs2008_32:sgd.obj
 0001:00001a30       ?sgdDistSquaredToLineVec3@@YANUsgdLine3@@QBN@Z 10002a30 f   sg_vs2008_32:sgd.obj
 0001:00001a70       ?sgdDistSquaredToLineSegmentVec3@@YANUsgdLineSegment3@@QBN@Z 10002a70 f   sg_vs2008_32:sgd.obj
 0001:00001b80       ?sgdMakeCoordMat4@@YAXQAY03NNNNNNN@Z 10002b80 f   sg_vs2008_32:sgd.obj
 0001:00001d40       ?sgdMakeTransMat4@@YAXQAY03NQBN@Z 10002d40 f   sg_vs2008_32:sgd.obj
 0001:00001d90       ?sgdMakeTransMat4@@YAXQAY03NNNN@Z 10002d90 f   sg_vs2008_32:sgd.obj
 0001:00001de0       ?sgdSetCoord@@YAXPAUsgdCoord@@QAY03$$CBN@Z 10002de0 f   sg_vs2008_32:sgd.obj
 0001:000020e0       ?sgdMakeNormal@@YAXQANQBN1@Z 100030e0 f   sg_vs2008_32:sgd.obj
 0001:00002130       ?sgdMakeNormal@@YAXQANQBN11@Z 10003130 f   sg_vs2008_32:sgd.obj
 0001:000021d0       ?sgdMultMat4@@YAXQAY03NQAY03$$CBN1@Z 100031d0 f   sg_vs2008_32:sgd.obj
 0001:00002280       ?sgdTransposeNegateMat4@@YAXQAY03NQAY03$$CBN@Z 10003280 f   sg_vs2008_32:sgd.obj
 0001:00002320       ?sgdTransposeNegateMat4@@YAXQAY03N@Z 10003320 f   sg_vs2008_32:sgd.obj
 0001:00002350       ?sgdInvertMat4@@YAXQAY03NQAY03$$CBN@Z 10003350 f   sg_vs2008_32:sgd.obj
 0001:00002570       ?sgdXformVec3@@YAXQANQBNQAY03$$CBN@Z 10003570 f   sg_vs2008_32:sgd.obj
 0001:000025d0       ?sgdXformPnt3@@YAXQANQBNQAY03$$CBN@Z 100035d0 f   sg_vs2008_32:sgd.obj
 0001:00002630       ?sgdXformPnt4@@YAXQANQBNQAY03$$CBN@Z 10003630 f   sg_vs2008_32:sgd.obj
 0001:000026c0       ?sgdFullXformPnt3@@YAXQANQBNQAY03$$CBN@Z 100036c0 f   sg_vs2008_32:sgd.obj
 0001:00002720       ?sgdHPRfromVec3@@YAXQAN0@Z 10003720 f   sg_vs2008_32:sgd.obj
 0001:000027c0       ?sgdQuatToAngleAxis@@YAXPANQANQBN@Z 100037c0 f   sg_vs2008_32:sgd.obj
 0001:00002840       ?sgdAngleAxisToQuat@@YAXQANNQBN@Z 10003840 f   sg_vs2008_32:sgd.obj
 0001:000028e0       ?sgdMatrixToQuat@@YAXQANQAY03$$CBN@Z 100038e0 f   sg_vs2008_32:sgd.obj
 0001:00002a40       ?sgdMultQuat@@YAXQANQBN1@Z 10003a40 f   sg_vs2008_32:sgd.obj
 0001:00002b10       ?sgdMultQuat2@@YAXQANQBN1@Z 10003b10 f   sg_vs2008_32:sgd.obj
 0001:00002be0       ?sgdEulerToQuat@@YAXQANQBN@Z 10003be0 f   sg_vs2008_32:sgd.obj
 0001:00002cd0       ?sgdQuatToEuler@@YAXQANQBN@Z 10003cd0 f   sg_vs2008_32:sgd.obj
 0001:00002e30       ?sgdQuatToMatrix@@YAXQAY03NQBN@Z 10003e30 f   sg_vs2008_32:sgd.obj
 0001:00002f00       ?sgdMakeRotMat42@@YAXQAY03NQAN@Z 10003f00 f   sg_vs2008_32:sgd.obj
 0001:00002fd0       ?sgdSlerpQuat2@@YAXQANQBN1N@Z 10003fd0 f   sg_vs2008_32:sgd.obj
 0001:000030f0       ?sgdSlerpQuat@@YAXQANQBN1N@Z 100040f0 f   sg_vs2008_32:sgd.obj
 0001:000031e0       ?sgdRotateVecQuat@@YAXQAN0@Z 100041e0 f   sg_vs2008_32:sgd.obj
 0001:000032d0       ?sgdRotateCoordQuat@@YAXQAN0@Z 100042d0 f   sg_vs2008_32:sgd.obj
 0001:000033c0       ?sgdDistSquaredToLineLineSegment@@YANUsgdLineSegment3@@UsgdLine3@@@Z 100043c0 f   sg_vs2008_32:sgd.obj
 0001:000035d0       ?sgdReflectInPlaneVec3@@YAXQANQBN1@Z 100045d0 f   sg_vs2008_32:sgd.obj
 0001:00003620       ?sgdClassifyMat4@@YAHQAY03$$CBN@Z 10004620 f   sg_vs2008_32:sgd.obj
 0001:000038e0       ?sgdTriangleSolver_SAStoArea@@YANNNN@Z 100048e0 f   sg_vs2008_32:sgd.obj
 0001:00003900       ?sgdTriangleSolver_SSStoArea@@YANNNN@Z 10004900 f   sg_vs2008_32:sgd.obj
 0001:00003950       ?sgdTriangleSolver_SSStoAAA@@YAXNNNPAN00@Z 10004950 f   sg_vs2008_32:sgd.obj
 0001:00003af0       ?sgdTriangleSolver_SAStoASA@@YAXNNNPAN00@Z 10004af0 f   sg_vs2008_32:sgd.obj
 0001:00003b70       ?sgdTriangleSolver_ASAtoSAS@@YAXNNNPAN00@Z 10004b70 f   sg_vs2008_32:sgd.obj
 0001:00003c20       ?sgdTriangleSolver_ASStoSAA@@YAXNNNHPAN00@Z 10004c20 f   sg_vs2008_32:sgd.obj
 0001:00003cb0       ?sgdTriangleSolver_SAAtoASS@@YAXNNNPAN00@Z 10004cb0 f   sg_vs2008_32:sgd.obj
 0001:00003d00       ?sgdTriArea@@YANQAN00@Z    10004d00 f   sg_vs2008_32:sgd.obj
 0001:00003de0       ?getOutcode@sgdFrustum@@ABEHQBN@Z 10004de0 f   sg_vs2008_32:sgd.obj
 0001:00003ec0       ?contains@sgdFrustum@@QBEHQBN@Z 10004ec0 f   sg_vs2008_32:sgd.obj
 0001:00003ee0       ?contains@sgdFrustum@@QBEHPBVsgdBox@@@Z 10004ee0 f   sg_vs2008_32:sgd.obj
 0001:00004000       ?sgdPreMultMat4@@YAXQAY03NQAY03$$CBN@Z 10005000 f   sg_vs2008_32:sgd.obj
 0001:00004040       ?sgdPostMultMat4@@YAXQAY03NQAY03$$CBN@Z 10005040 f   sg_vs2008_32:sgd.obj
 0001:00004080       ?sgdQuatToAngleAxis@@YAXPAN000QBN@Z 10005080 f   sg_vs2008_32:sgd.obj
 0001:000040c0       ?sgdAngleAxisToQuat@@YAXQANNNNN@Z 100050c0 f   sg_vs2008_32:sgd.obj
 0001:00004100       ?sgdTriangleSolver_ASAtoArea@@YANNNN@Z 10005100 f   sg_vs2008_32:sgd.obj
 0001:00004170       ?sgdTriangleSolver_ASStoArea@@YANNNNH@Z 10005170 f   sg_vs2008_32:sgd.obj
 0001:000041d0       ?sgdTriangleSolver_SAAtoArea@@YANNNN@Z 100051d0 f   sg_vs2008_32:sgd.obj
 0001:00004230       ?ulSetError@@YAXW4ulSeverity@@PBDZZ 10005230 f   ul_vs2008_32:ulError.obj
 0001:000042a0       ?ulGetError@@YAPADXZ       100052a0 f   ul_vs2008_32:ulError.obj
 0001:000042b0       ?ulClearError@@YAXXZ       100052b0 f   ul_vs2008_32:ulError.obj
 0001:000042c0       ?ulGetErrorCallback@@YAP6AXW4ulSeverity@@PAD@ZXZ 100052c0 f   ul_vs2008_32:ulError.obj
 0001:000042d0       ?ulSetErrorCallback@@YAXP6AXW4ulSeverity@@PAD@Z@Z 100052d0 f   ul_vs2008_32:ulError.obj
 0001:000046d0       ?ArgMin@@YAHHPAM@Z         100056d0 f   MathFunctions.obj
 0001:00004760       ?ArgMax@@YAHHPAM@Z         10005760 f   MathFunctions.obj
 0001:000047f0       ?SmoothMaxGamma@@YAMMMMM@Z 100057f0 f   MathFunctions.obj
 0001:00004960       ?SmoothMaxPNorm@@YAMMMM@Z  10005960 f   MathFunctions.obj
 0001:00004a30       ?SoftMax@@YAXHPAM0M@Z      10005a30 f   MathFunctions.obj
 0001:00004b00       ?SoftMin@@YAXHPAM0M@Z      10005b00 f   MathFunctions.obj
 0001:00004be0       ?Normalise@@YAXPAM0H@Z     10005be0 f   MathFunctions.obj
 0001:00004ce0       ?EuclideanNorm@@YAMPAM0H@Z 10005ce0 f   MathFunctions.obj
 0001:00004d80       ?SquareNorm@@YAMPAM0H@Z    10005d80 f   MathFunctions.obj
 0001:00004e10       ?LNorm@@YAMPAM0HM@Z        10005e10 f   MathFunctions.obj
 0001:00004ef0       ?Sum@@YAMPAMH@Z            10005ef0 f   MathFunctions.obj
 0001:00004f50       ?exp@@YAMM@Z               10005f50 f i MathFunctions.obj
 0001:00004f70       ?pow@@YAMMM@Z              10005f70 f i MathFunctions.obj
 0001:00004fa0       ?sqrt@@YAMM@Z              10005fa0 f i MathFunctions.obj
 0001:00004fc0       _expf                      10005fc0 f i MathFunctions.obj
 0001:00005000       _hypot                     10006000 f i MathFunctions.obj
 0001:00005030       _powf                      10006030 f i MathFunctions.obj
 0001:00005080       _sqrtf                     10006080 f i MathFunctions.obj
 0001:000050c0       ?update@SingleCardata@@QAEXXZ 100060c0 f   cardata.obj
 0001:00005250       ?getSpeed@SingleCardata@@KAMPAUCarElt@@M@Z 10006250 f   cardata.obj
 0001:00005330       ??0Cardata@@QAE@PAUSituation@@@Z 10006330 f   cardata.obj
 0001:00005440       ??1Cardata@@QAE@XZ         10006440 f   cardata.obj
 0001:00005480       ?update@Cardata@@QAEXXZ    10006480 f   cardata.obj
 0001:000054e0       ?findCar@Cardata@@QAEPAVSingleCardata@@PAUCarElt@@@Z 100064e0 f   cardata.obj
 0001:00005550       ??0SingleCardata@@QAE@XZ   10006550 f i cardata.obj
 0001:000055b0       ??0v2d@@QAE@XZ             100065b0 f i cardata.obj
 0001:000055d0       ??Dv2d@@QBEMABV0@@Z        100065d0 f i cardata.obj
 0001:00005620       ??_H@YGXPAXIHP6EPAX0@Z@Z   10006620 f i cardata.obj
 0001:00005660       ?cos@@YAMM@Z               10006660 f i cardata.obj
 0001:00005680       ?init@SingleCardata@@QAEXPAUCarElt@@@Z 10006680 f i cardata.obj
 0001:000056a0       ?sgdMakeCoordMat4@@YAXQAY03NPBUsgdCoord@@@Z 100066a0 f i cardata.obj
 0001:000056d0       ?sgdMakeCoordMat4@@YAXQAY03NQBN1@Z 100066d0 f i cardata.obj
 0001:00005780       ?sin@@YAMM@Z               10006780 f i cardata.obj
 0001:000057a0       ?thisCar@SingleCardata@@QAE_NPAUCarElt@@@Z 100067a0 f i cardata.obj
 0001:000057e0       _cosf                      100067e0 f i cardata.obj
 0001:00005820       _sinf                      10006820 f i cardata.obj
 0001:00005860       ??0Driver@@QAE@H@Z         10006860 f   driver.obj
 0001:00005920       ??1Driver@@QAE@XZ          10006920 f   driver.obj
 0001:00005c30       ?initTrack@Driver@@QAEXPAUtTrack@@PAXPAPAXPAUSituation@@@Z 10006c30 f   driver.obj
 0001:00005f20       ?newRace@Driver@@QAEXPAUCarElt@@PAUSituation@@@Z 10006f20 f   driver.obj
 0001:00006520       ?drive@Driver@@QAEXPAUSituation@@@Z 10007520 f   driver.obj
 0001:00006c80       ?pitCommand@Driver@@QAEHPAUSituation@@@Z 10007c80 f   driver.obj
 0001:00006d20       ?endRace@Driver@@QAEXPAUSituation@@@Z 10007d20 f   driver.obj
 0001:00006d40       ?isStuck@Driver@@IAE_NXZ   10007d40 f   driver.obj
 0001:00006e50       ?update@Driver@@IAEXPAUSituation@@@Z 10007e50 f   driver.obj
 0001:000071f0       ?prepareTrack@Driver@@IAEXXZ 100081f0 f   driver.obj
 0001:00007df0       ?getAllowedSpeed@Driver@@IAEMPAUtrackSeg@@@Z 10008df0 f   driver.obj
 0001:00008440       ?getAccel@Driver@@IAEMXZ   10009440 f   driver.obj
 0001:000087e0       ?getDistToSegEnd@Driver@@IAEMXZ 100097e0 f   driver.obj
 0001:00008880       ?getBrake@Driver@@IAEMXZ   10009880 f   driver.obj
 0001:00008a60       ?getGear@Driver@@IAEHXZ    10009a60 f   driver.obj
 0001:00008d20       ?EstimateTorque@Driver@@IAEMM@Z 10009d20 f   driver.obj
 0001:00008f50       ?getSteer@Driver@@IAEMXZ   10009f50 f   driver.obj
 0001:00009200       ?getClutch@Driver@@IAEMXZ  1000a200 f   driver.obj
 0001:00009500       ?getTargetPoint@Driver@@IAE?AVv2d@@XZ 1000a500 f   driver.obj
 0001:0000a120       ?getOffset@Driver@@IAEMXZ  1000b120 f   driver.obj
 0001:0000a920       ?brakedist@Driver@@IAEMMM@Z 1000b920 f   driver.obj
 0001:0000aa90       ?filterOverlap@Driver@@IAEMM@Z 1000ba90 f   driver.obj
 0001:0000ab40       ?filterBColl@Driver@@IAEMM@Z 1000bb40 f   driver.obj
 0001:0000ad80       ?filterABS@Driver@@IAEMM@Z 1000bd80 f   driver.obj
 0001:0000aeb0       ?filterBPit@Driver@@IAEMM@Z 1000beb0 f   driver.obj
 0001:0000b2c0       ?filterBrakeSpeed@Driver@@IAEMM@Z 1000c2c0 f   driver.obj
 0001:0000b370       ?filterTCL@Driver@@IAEMM@Z 1000c370 f   driver.obj
 0001:0000b4b0       ?filterTrk@Driver@@IAEMPAUSituation@@M@Z 1000c4b0 f   driver.obj
 0001:0000c230       ?filterAPit@Driver@@IAEMM@Z 1000d230 f   driver.obj
 0001:0000c450       ?filterSColl@Driver@@IAEMM@Z 1000d450 f   driver.obj
 0001:0000cb10       ?filterTCL_RWD@Driver@@IAEMXZ 1000db10 f   driver.obj
 0001:0000cb90       ?filterTCL_FWD@Driver@@IAEMXZ 1000db90 f   driver.obj
 0001:0000cc10       ?filterTCL_4WD@Driver@@IAEMXZ 1000dc10 f   driver.obj
 0001:0000cce0       ?initTCLfilter@Driver@@IAEXXZ 1000dce0 f   driver.obj
 0001:0000cdb0       ?initCa@Driver@@IAEXXZ     1000ddb0 f   driver.obj
 0001:0000d060       ?initCw@Driver@@IAEXXZ     1000e060 f   driver.obj
 0001:0000d120       ?initTireMu@Driver@@IAEXXZ 1000e120 f   driver.obj
 0001:0000d280       ?computeRadius@Driver@@IAEXPAM@Z 1000e280 f   driver.obj
 0001:0000d5d0       ?isAlone@Driver@@IAEHXZ    1000e5d0 f   driver.obj
 0001:0000d680       ?EstimateRadius2@Driver@@IAEMPAUtrackSeg@@@Z 1000e680 f   driver.obj
 0001:0000d880       ?EstimateRadius@Driver@@IAEMPAUtrackSeg@@00@Z 1000e880 f   driver.obj
 0001:0000dae0       ?FindCurveTarget@Driver@@IAEMPAUtrackSeg@@PAVVector@@M@Z 1000eae0 f   driver.obj
 0001:0000de60       ?FindStraightTarget@Driver@@IAEMPAUtrackSeg@@0PAVVector@@MAA_N@Z 1000ee60 f   driver.obj
 0001:0000e170       ?AdjustRadi@Driver@@IAEXPAUtrackSeg@@0PAM@Z 1000f170 f   driver.obj
 0001:0000e410       ?ShowPaths@Driver@@IAEXXZ  1000f410 f   driver.obj
 0001:0000e620       ??$_Allocate@M@std@@YAPAMIPAM@Z 1000f620 f i driver.obj
 0001:0000e680       ??$_Allocate@U_Container_proxy@std@@@std@@YAPAU_Container_proxy@0@IPAU10@@Z 1000f680 f i driver.obj
 0001:0000e6e0       ??$_Allocate@VSegment@@@std@@YAPAVSegment@@IPAV1@@Z 1000f6e0 f i driver.obj
 0001:0000e740       ??$_Allocate@VVector@@@std@@YAPAVVector@@IPAV1@@Z 1000f740 f i driver.obj
 0001:0000e7a0       ??$_Debug_pointer@M@std@@YAXPAMPB_WI@Z 1000f7a0 f i driver.obj
 0001:0000e7d0       ??$_Debug_pointer@VSegment@@@std@@YAXPAVSegment@@PB_WI@Z 1000f7d0 f i driver.obj
 0001:0000e800       ??$_Debug_pointer@VSegment@@@std@@YAXPBVSegment@@PB_WI@Z 1000f800 f i driver.obj
 0001:0000e830       ??$_Debug_pointer@VVector@@@std@@YAXPAVVector@@PB_WI@Z 1000f830 f i driver.obj
 0001:0000e860       ??$_Debug_pointer@VVector@@@std@@YAXPBVVector@@PB_WI@Z 1000f860 f i driver.obj
 0001:0000e890       ??$_Debug_range2@PAM@std@@YAXPAM0PB_WIUrandom_access_iterator_tag@0@@Z 1000f890 f i driver.obj
 0001:0000e8f0       ??$_Debug_range2@PAVSegment@@@std@@YAXPAVSegment@@0PB_WIUrandom_access_iterator_tag@0@@Z 1000f8f0 f i driver.obj
 0001:0000e950       ??$_Debug_range2@PAVVector@@@std@@YAXPAVVector@@0PB_WIUrandom_access_iterator_tag@0@@Z 1000f950 f i driver.obj
 0001:0000e9b0       ??$_Debug_range2@PBVSegment@@@std@@YAXPBVSegment@@0PB_WIUrandom_access_iterator_tag@0@@Z 1000f9b0 f i driver.obj
 0001:0000ea10       ??$_Debug_range2@PBVVector@@@std@@YAXPBVVector@@0PB_WIUrandom_access_iterator_tag@0@@Z 1000fa10 f i driver.obj
 0001:0000ea70       ??$_Debug_range@PAM@std@@YAXPAM0PB_WI@Z 1000fa70 f i driver.obj
 0001:0000eac0       ??$_Debug_range@PAVSegment@@@std@@YAXPAVSegment@@0PB_WI@Z 1000fac0 f i driver.obj
 0001:0000eb10       ??$_Debug_range@PAVVector@@@std@@YAXPAVVector@@0PB_WI@Z 1000fb10 f i driver.obj
 0001:0000eb60       ??$_Debug_range@PBVSegment@@@std@@YAXPBVSegment@@0PB_WI@Z 1000fb60 f i driver.obj
 0001:0000ebb0       ??$_Debug_range@PBVVector@@@std@@YAXPBVVector@@0PB_WI@Z 1000fbb0 f i driver.obj
 0001:0000ec00       ??$_Destroy_range@U?$_Wrap_alloc@V?$allocator@H@std@@@std@@@std@@YAXPAH0AAU?$_Wrap_alloc@V?$allocator@H@std@@@0@@Z 1000fc00 f i driver.obj
 0001:0000ec50       ??$_Destroy_range@U?$_Wrap_alloc@V?$allocator@H@std@@@std@@@std@@YAXPAH0AAU?$_Wrap_alloc@V?$allocator@H@std@@@0@U_Scalar_ptr_iterator_tag@0@@Z 1000fc50 f i driver.obj
 0001:0000ec60       ??$_Destroy_range@U?$_Wrap_alloc@V?$allocator@M@std@@@std@@@std@@YAXPAM0AAU?$_Wrap_alloc@V?$allocator@M@std@@@0@@Z 1000fc60 f i driver.obj
 0001:0000ecb0       ??$_Destroy_range@U?$_Wrap_alloc@V?$allocator@M@std@@@std@@@std@@YAXPAM0AAU?$_Wrap_alloc@V?$allocator@M@std@@@0@U_Scalar_ptr_iterator_tag@0@@Z 1000fcb0 f i driver.obj
 0001:0000ecc0       ??$_Destroy_range@U?$_Wrap_alloc@V?$allocator@VSegment@@@std@@@std@@@std@@YAXPAVSegment@@0AAU?$_Wrap_alloc@V?$allocator@VSegment@@@std@@@0@@Z 1000fcc0 f i driver.obj
 0001:0000ed10       ??$_Destroy_range@U?$_Wrap_alloc@V?$allocator@VSegment@@@std@@@std@@@std@@YAXPAVSegment@@0AAU?$_Wrap_alloc@V?$allocator@VSegment@@@std@@@0@U_Nonscalar_ptr_iterator_tag@0@@Z 1000fd10 f i driver.obj
 0001:0000ed40       ??$_Destroy_range@U?$_Wrap_alloc@V?$allocator@VVector@@@std@@@std@@@std@@YAXPAVVector@@0AAU?$_Wrap_alloc@V?$allocator@VVector@@@std@@@0@@Z 1000fd40 f i driver.obj
 0001:0000ed90       ??$_Destroy_range@U?$_Wrap_alloc@V?$allocator@VVector@@@std@@@std@@@std@@YAXPAVVector@@0AAU?$_Wrap_alloc@V?$allocator@VVector@@@std@@@0@U_Nonscalar_ptr_iterator_tag@0@@Z 1000fd90 f i driver.obj
 0001:0000edc0       ??$_Fill_n@PAMIM@std@@YAPAMPAMIABM@Z 1000fdc0 f i driver.obj
 0001:0000edf0       ??$_Iter_cat@PAM@std@@YA?AUrandom_access_iterator_tag@0@ABQAM@Z 1000fdf0 f i driver.obj
 0001:0000ee50       ??$_Iter_cat@PAVSegment@@@std@@YA?AUrandom_access_iterator_tag@0@ABQAVSegment@@@Z 1000fe50 f i driver.obj
 0001:0000eeb0       ??$_Iter_cat@PAVVector@@@std@@YA?AUrandom_access_iterator_tag@0@ABQAVVector@@@Z 1000feb0 f i driver.obj
 0001:0000ef10       ??$_Iter_cat@PBVSegment@@@std@@YA?AUrandom_access_iterator_tag@0@ABQBVSegment@@@Z 1000ff10 f i driver.obj
 0001:0000ef70       ??$_Iter_cat@PBVVector@@@std@@YA?AUrandom_access_iterator_tag@0@ABQBVVector@@@Z 1000ff70 f i driver.obj
 0001:0000efd0       ??$_Ptr_cat@HH@std@@YA?AU_Scalar_ptr_iterator_tag@0@PAH0@Z 1000ffd0 f i driver.obj
 0001:0000f020       ??$_Ptr_cat@MM@std@@YA?AU_Scalar_ptr_iterator_tag@0@PAM0@Z 10010020 f i driver.obj
 0001:0000f070       ??$_Ptr_cat@VSegment@@V1@@std@@YA?AU_Nonscalar_ptr_iterator_tag@0@PAVSegment@@0@Z 10010070 f i driver.obj
 0001:0000f0c0       ??$_Ptr_cat@VSegment@@V1@@std@@YA?AU_Nonscalar_ptr_iterator_tag@0@PBVSegment@@PAV2@@Z 100100c0 f i driver.obj
 0001:0000f110       ??$_Ptr_cat@VVector@@V1@@std@@YA?AU_Nonscalar_ptr_iterator_tag@0@PAVVector@@0@Z 10010110 f i driver.obj
 0001:0000f160       ??$_Ptr_cat@VVector@@V1@@std@@YA?AU_Nonscalar_ptr_iterator_tag@0@PBVVector@@PAV2@@Z 10010160 f i driver.obj
 0001:0000f1b0       ??$_Rechecked@PAMPAM@std@@YAAAPAMAAPAMPAM@Z 100101b0 f i driver.obj
 0001:0000f1c0       ??$_Rechecked@PAVSegment@@PAV1@@std@@YAAAPAVSegment@@AAPAV1@PAV1@@Z 100101c0 f i driver.obj
 0001:0000f1d0       ??$_Rechecked@PAVVector@@PAV1@@std@@YAAAPAVVector@@AAPAV1@PAV1@@Z 100101d0 f i driver.obj
 0001:0000f1e0       ??$_Ucopy@V?$_Vector_const_iterator@V?$_Vector_val@U?$_Simple_types@VSegment@@@std@@@std@@@std@@@?$vector@VSegment@@V?$allocator@VSegment@@@std@@@std@@IAEPAVSegment@@V?$_Vector_const_iterator@V?$_Vector_val@U?$_Simple_types@VSegment@@@std@@@std@@@1@0PAV2@@Z 100101e0 f i driver.obj
 0001:0000f2f0       ??$_Ucopy@V?$_Vector_const_iterator@V?$_Vector_val@U?$_Simple_types@VVector@@@std@@@std@@@std@@@?$vector@VVector@@V?$allocator@VVector@@@std@@@std@@IAEPAVVector@@V?$_Vector_const_iterator@V?$_Vector_val@U?$_Simple_types@VVector@@@std@@@std@@@1@0PAV2@@Z 100102f0 f i driver.obj
 0001:0000f400       ??$_Umove@PAM@?$vector@MV?$allocator@M@std@@@std@@IAEPAMPAM00@Z 10010400 f i driver.obj
 0001:0000f480       ??$_Umove@PAVSegment@@@?$vector@VSegment@@V?$allocator@VSegment@@@std@@@std@@IAEPAVSegment@@PAV2@00@Z 10010480 f i driver.obj
 0001:0000f500       ??$_Umove@PAVVector@@@?$vector@VVector@@V?$allocator@VVector@@@std@@@std@@IAEPAVVector@@PAV2@00@Z 10010500 f i driver.obj
 0001:0000f580       ??$_Unchecked@PAM@std@@YAPAMPAM@Z 10010580 f i driver.obj
 0001:0000f590       ??$_Unchecked@PAVSegment@@@std@@YAPAVSegment@@PAV1@@Z 10010590 f i driver.obj
 0001:0000f5a0       ??$_Unchecked@PAVVector@@@std@@YAPAVVector@@PAV1@@Z 100105a0 f i driver.obj
 0001:0000f5b0       ??$_Unchecked@V?$_Vector_val@U?$_Simple_types@VSegment@@@std@@@std@@@std@@YAPBVSegment@@V?$_Vector_const_iterator@V?$_Vector_val@U?$_Simple_types@VSegment@@@std@@@std@@@0@@Z 100105b0 f i driver.obj
 0001:0000f620       ??$_Unchecked@V?$_Vector_val@U?$_Simple_types@VVector@@@std@@@std@@@std@@YAPBVVector@@V?$_Vector_const_iterator@V?$_Vector_val@U?$_Simple_types@VVector@@@std@@@std@@@0@@Z 10010620 f i driver.obj
 0001:0000f690       ??$_Uninit_copy@PBVSegment@@PAV1@U?$_Wrap_alloc@V?$allocator@VSegment@@@std@@@std@@@std@@YAPAVSegment@@PBV1@0PAV1@AAU?$_Wrap_alloc@V?$allocator@VSegment@@@std@@@0@@Z 10010690 f i driver.obj
 0001:0000f6e0       ??$_Uninit_copy@PBVSegment@@PAV1@V?$allocator@VSegment@@@std@@@std@@YAPAVSegment@@PBV1@0PAV1@AAU?$_Wrap_alloc@V?$allocator@VSegment@@@std@@@0@U_Nonscalar_ptr_iterator_tag@0@@Z 100106e0 f i driver.obj
 0001:0000f7e0       ??$_Uninit_copy@PBVVector@@PAV1@U?$_Wrap_alloc@V?$allocator@VVector@@@std@@@std@@@std@@YAPAVVector@@PBV1@0PAV1@AAU?$_Wrap_alloc@V?$allocator@VVector@@@std@@@0@@Z 100107e0 f i driver.obj
 0001:0000f830       ??$_Uninit_copy@PBVVector@@PAV1@V?$allocator@VVector@@@std@@@std@@YAPAVVector@@PBV1@0PAV1@AAU?$_Wrap_alloc@V?$allocator@VVector@@@std@@@0@U_Nonscalar_ptr_iterator_tag@0@@Z 10010830 f i driver.obj
 0001:0000f930       ??$_Uninit_def_fill_n@MIM@std@@YAXPAMIAAU?$_Wrap_alloc@V?$allocator@M@std@@@0@0U_Scalar_ptr_iterator_tag@0@@Z 10010930 f i driver.obj
 0001:0000f970       ??$_Uninit_move@MMM@std@@YAPAMPAM00AAU?$_Wrap_alloc@V?$allocator@M@std@@@0@0U_Scalar_ptr_iterator_tag@0@@Z 10010970 f i driver.obj
 0001:0000f9f0       ??$_Uninit_move@PAMPAMU?$_Wrap_alloc@V?$allocator@M@std@@@std@@@std@@YAPAMPAM00AAU?$_Wrap_alloc@V?$allocator@M@std@@@0@@Z 100109f0 f i driver.obj
 0001:0000fa50       ??$_Uninit_move@PAVSegment@@PAV1@U?$_Wrap_alloc@V?$allocator@VSegment@@@std@@@std@@@std@@YAPAVSegment@@PAV1@00AAU?$_Wrap_alloc@V?$allocator@VSegment@@@std@@@0@@Z 10010a50 f i driver.obj
 0001:0000fab0       ??$_Uninit_move@PAVSegment@@PAV1@V?$allocator@VSegment@@@std@@V1@@std@@YAPAVSegment@@PAV1@00AAU?$_Wrap_alloc@V?$allocator@VSegment@@@std@@@0@0U_Nonscalar_ptr_iterator_tag@0@@Z 10010ab0 f i driver.obj
 0001:0000fbb0       ??$_Uninit_move@PAVVector@@PAV1@U?$_Wrap_alloc@V?$allocator@VVector@@@std@@@std@@@std@@YAPAVVector@@PAV1@00AAU?$_Wrap_alloc@V?$allocator@VVector@@@std@@@0@@Z 10010bb0 f i driver.obj
 0001:0000fc10       ??$_Uninit_move@PAVVector@@PAV1@V?$allocator@VVector@@@std@@V1@@std@@YAPAVVector@@PAV1@00AAU?$_Wrap_alloc@V?$allocator@VVector@@@std@@@0@0U_Nonscalar_ptr_iterator_tag@0@@Z 10010c10 f i driver.obj
 0001:0000fd10       ??$_Uninitialized_copy@V?$_Vector_const_iterator@V?$_Vector_val@U?$_Simple_types@VSegment@@@std@@@std@@@std@@PAVSegment@@U?$_Wrap_alloc@V?$allocator@VSegment@@@std@@@2@@std@@YAPAVSegment@@V?$_Vector_const_iterator@V?$_Vector_val@U?$_Simple_types@VSegment@@@std@@@std@@@0@0PAV1@AAU?$_Wrap_alloc@V?$allocator@VSegment@@@std@@@0@@Z 10010d10 f i driver.obj
 0001:0000fe10       ??$_Uninitialized_copy@V?$_Vector_const_iterator@V?$_Vector_val@U?$_Simple_types@VVector@@@std@@@std@@@std@@PAVVector@@U?$_Wrap_alloc@V?$allocator@VVector@@@std@@@2@@std@@YAPAVVector@@V?$_Vector_const_iterator@V?$_Vector_val@U?$_Simple_types@VVector@@@std@@@std@@@0@0PAV1@AAU?$_Wrap_alloc@V?$allocator@VVector@@@std@@@0@@Z 10010e10 f i driver.obj
 0001:0000ff10       ??$_Uninitialized_default_fill_n@PAMIU?$_Wrap_alloc@V?$allocator@M@std@@@std@@@std@@YAXPAMIAAU?$_Wrap_alloc@V?$allocator@M@std@@@0@@Z 10010f10 f i driver.obj
 0001:0000ff70       ??$_Uninitialized_move@PAMPAMU?$_Wrap_alloc@V?$allocator@M@std@@@std@@@std@@YAPAMPAM00AAU?$_Wrap_alloc@V?$allocator@M@std@@@0@@Z 10010f70 f i driver.obj
 0001:0000ffc0       ??$_Uninitialized_move@PAVSegment@@PAV1@U?$_Wrap_alloc@V?$allocator@VSegment@@@std@@@std@@@std@@YAPAVSegment@@PAV1@00AAU?$_Wrap_alloc@V?$allocator@VSegment@@@std@@@0@@Z 10010fc0 f i driver.obj
 0001:00010010       ??$_Uninitialized_move@PAVVector@@PAV1@U?$_Wrap_alloc@V?$allocator@VVector@@@std@@@std@@@std@@YAPAVVector@@PAV1@00AAU?$_Wrap_alloc@V?$allocator@VVector@@@std@@@0@@Z 10011010 f i driver.obj
 0001:00010060       ??$_Val_type@PAM@std@@YAPAMPAM@Z 10011060 f i driver.obj
 0001:00010070       ??$_Val_type@PAVSegment@@@std@@YAPAVSegment@@PAV1@@Z 10011070 f i driver.obj
 0001:00010080       ??$_Val_type@PAVVector@@@std@@YAPAVVector@@PAV1@@Z 10011080 f i driver.obj
 0001:00010090       ??$addressof@$$CBVSegment@@@std@@YAPBVSegment@@ABV1@@Z 10011090 f i driver.obj
 0001:000100a0       ??$addressof@$$CBVVector@@@std@@YAPBVVector@@ABV1@@Z 100110a0 f i driver.obj
 0001:000100b0       ??$construct@U_Container_proxy@std@@U12@@?$_Wrap_alloc@V?$allocator@U_Container_proxy@std@@@std@@@std@@QAEXPAU_Container_proxy@1@$$QAU21@@Z 100110b0 f i driver.obj
 0001:000100f0       ??$construct@U_Container_proxy@std@@U12@@?$allocator@U_Container_proxy@std@@@std@@QAEXPAU_Container_proxy@1@$$QAU21@@Z 100110f0 f i driver.obj
 0001:000101a0       ??$construct@U_Container_proxy@std@@U12@@?$allocator_traits@V?$allocator@U_Container_proxy@std@@@std@@@std@@SAXAAV?$allocator@U_Container_proxy@std@@@1@PAU_Container_proxy@1@$$QAU31@@Z 100111a0 f i driver.obj
 0001:000101d0       ??$construct@VSegment@@AAV1@@?$_Wrap_alloc@V?$allocator@VSegment@@@std@@@std@@QAEXPAVSegment@@AAV2@@Z 100111d0 f i driver.obj
 0001:00010210       ??$construct@VSegment@@AAV1@@?$allocator@VSegment@@@std@@QAEXPAVSegment@@AAV2@@Z 10011210 f i driver.obj
 0001:000102c0       ??$construct@VSegment@@AAV1@@?$allocator_traits@V?$allocator@VSegment@@@std@@@std@@SAXAAV?$allocator@VSegment@@@1@PAVSegment@@AAV3@@Z 100112c0 f i driver.obj
 0001:000102f0       ??$construct@VSegment@@ABV1@@?$_Wrap_alloc@V?$allocator@VSegment@@@std@@@std@@QAEXPAVSegment@@ABV2@@Z 100112f0 f i driver.obj
 0001:00010330       ??$construct@VSegment@@ABV1@@?$allocator_traits@V?$allocator@VSegment@@@std@@@std@@SAXAAV?$allocator@VSegment@@@1@PAVSegment@@ABV3@@Z 10011330 f i driver.obj
 0001:00010360       ??$construct@VSegment@@V1@@?$_Wrap_alloc@V?$allocator@VSegment@@@std@@@std@@QAEXPAVSegment@@$$QAV2@@Z 10011360 f i driver.obj
 0001:000103a0       ??$construct@VSegment@@V1@@?$allocator@VSegment@@@std@@QAEXPAVSegment@@$$QAV2@@Z 100113a0 f i driver.obj
 0001:00010450       ??$construct@VSegment@@V1@@?$allocator_traits@V?$allocator@VSegment@@@std@@@std@@SAXAAV?$allocator@VSegment@@@1@PAVSegment@@$$QAV3@@Z 10011450 f i driver.obj
 0001:00010480       ??$construct@VVector@@AAV1@@?$_Wrap_alloc@V?$allocator@VVector@@@std@@@std@@QAEXPAVVector@@AAV2@@Z 10011480 f i driver.obj
 0001:000104c0       ??$construct@VVector@@AAV1@@?$allocator@VVector@@@std@@QAEXPAVVector@@AAV2@@Z 100114c0 f i driver.obj
 0001:00010560       ??$construct@VVector@@AAV1@@?$allocator_traits@V?$allocator@VVector@@@std@@@std@@SAXAAV?$allocator@VVector@@@1@PAVVector@@AAV3@@Z 10011560 f i driver.obj
 0001:00010590       ??$construct@VVector@@ABV1@@?$_Wrap_alloc@V?$allocator@VVector@@@std@@@std@@QAEXPAVVector@@ABV2@@Z 10011590 f i driver.obj
 0001:000105d0       ??$construct@VVector@@ABV1@@?$allocator_traits@V?$allocator@VVector@@@std@@@std@@SAXAAV?$allocator@VVector@@@1@PAVVector@@ABV3@@Z 100115d0 f i driver.obj
 0001:00010600       ??$construct@VVector@@V1@@?$_Wrap_alloc@V?$allocator@VVector@@@std@@@std@@QAEXPAVVector@@$$QAV2@@Z 10011600 f i driver.obj
 0001:00010640       ??$construct@VVector@@V1@@?$allocator@VVector@@@std@@QAEXPAVVector@@$$QAV2@@Z 10011640 f i driver.obj
 0001:000106e0       ??$construct@VVector@@V1@@?$allocator_traits@V?$allocator@VVector@@@std@@@std@@SAXAAV?$allocator@VVector@@@1@PAVVector@@$$QAV3@@Z 100116e0 f i driver.obj
 0001:00010710       ??$destroy@U_Container_proxy@std@@@?$_Wrap_alloc@V?$allocator@U_Container_proxy@std@@@std@@@std@@QAEXPAU_Container_proxy@1@@Z 10011710 f i driver.obj
 0001:00010740       ??$destroy@U_Container_proxy@std@@@?$allocator@U_Container_proxy@std@@@std@@QAEXPAU_Container_proxy@1@@Z 10011740 f i driver.obj
 0001:00010760       ??$destroy@U_Container_proxy@std@@@?$allocator_traits@V?$allocator@U_Container_proxy@std@@@std@@@std@@SAXAAV?$allocator@U_Container_proxy@std@@@1@PAU_Container_proxy@1@@Z 10011760 f i driver.obj
 0001:00010780       ??$destroy@VSegment@@@?$_Wrap_alloc@V?$allocator@VSegment@@@std@@@std@@QAEXPAVSegment@@@Z 10011780 f i driver.obj
 0001:000107b0       ??$destroy@VSegment@@@?$allocator@VSegment@@@std@@QAEXPAVSegment@@@Z 100117b0 f i driver.obj
 0001:000107d0       ??$destroy@VSegment@@@?$allocator_traits@V?$allocator@VSegment@@@std@@@std@@SAXAAV?$allocator@VSegment@@@1@PAVSegment@@@Z 100117d0 f i driver.obj
 0001:000107f0       ??$destroy@VVector@@@?$_Wrap_alloc@V?$allocator@VVector@@@std@@@std@@QAEXPAVVector@@@Z 100117f0 f i driver.obj
 0001:00010820       ??$destroy@VVector@@@?$allocator@VVector@@@std@@QAEXPAVVector@@@Z 10011820 f i driver.obj
 0001:00010850       ??$destroy@VVector@@@?$allocator_traits@V?$allocator@VVector@@@std@@@std@@SAXAAV?$allocator@VVector@@@1@PAVVector@@@Z 10011850 f i driver.obj
 0001:00010870       ??$forward@AAVSegment@@@std@@YAAAVSegment@@AAV1@@Z 10011870 f i driver.obj
 0001:00010880       ??$forward@AAVVector@@@std@@YAAAVVector@@AAV1@@Z 10011880 f i driver.obj
 0001:00010890       ??$forward@ABVSegment@@@std@@YAABVSegment@@ABV1@@Z 10011890 f i driver.obj
 0001:000108a0       ??$forward@ABVVector@@@std@@YAABVVector@@ABV1@@Z 100118a0 f i driver.obj
 0001:000108b0       ??$forward@U_Container_proxy@std@@@std@@YA$$QAU_Container_proxy@0@AAU10@@Z 100118b0 f i driver.obj
 0001:000108c0       ??$forward@VSegment@@@std@@YA$$QAVSegment@@AAV1@@Z 100118c0 f i driver.obj
 0001:000108d0       ??$forward@VVector@@@std@@YA$$QAVVector@@AAV1@@Z 100118d0 f i driver.obj
 0001:000108e0       ??0?$_Iterator012@Urandom_access_iterator_tag@std@@VSegment@@HPBV3@ABV3@U_Iterator_base12@2@@std@@QAE@ABU01@@Z 100118e0 f i driver.obj
 0001:00010910       ??0?$_Iterator012@Urandom_access_iterator_tag@std@@VSegment@@HPBV3@ABV3@U_Iterator_base12@2@@std@@QAE@XZ 10011910 f i driver.obj
 0001:00010940       ??0?$_Iterator012@Urandom_access_iterator_tag@std@@VVector@@HPBV3@ABV3@U_Iterator_base12@2@@std@@QAE@ABU01@@Z 10011940 f i driver.obj
 0001:00010970       ??0?$_Iterator012@Urandom_access_iterator_tag@std@@VVector@@HPBV3@ABV3@U_Iterator_base12@2@@std@@QAE@XZ 10011970 f i driver.obj
 0001:000109a0       ??0?$_Vector_alloc@$0A@U?$_Vec_base_types@HV?$allocator@H@std@@@std@@@std@@QAE@ABV?$allocator@H@1@@Z 100119a0 f i driver.obj
 0001:00010a10       ??0?$_Vector_alloc@$0A@U?$_Vec_base_types@MV?$allocator@M@std@@@std@@@std@@QAE@ABV?$allocator@M@1@@Z 10011a10 f i driver.obj
 0001:00010a80       ??0?$_Vector_alloc@$0A@U?$_Vec_base_types@VSegment@@V?$allocator@VSegment@@@std@@@std@@@std@@QAE@ABV?$allocator@VSegment@@@1@@Z 10011a80 f i driver.obj
 0001:00010af0       ??0?$_Vector_alloc@$0A@U?$_Vec_base_types@VVector@@V?$allocator@VVector@@@std@@@std@@@std@@QAE@ABV?$allocator@VVector@@@1@@Z 10011af0 f i driver.obj
 0001:00010b60       ??0?$_Vector_const_iterator@V?$_Vector_val@U?$_Simple_types@VSegment@@@std@@@std@@@std@@QAE@ABV01@@Z 10011b60 f i driver.obj
 0001:00010ba0       ??0?$_Vector_const_iterator@V?$_Vector_val@U?$_Simple_types@VSegment@@@std@@@std@@@std@@QAE@PAVSegment@@PBU_Container_base12@1@@Z 10011ba0 f i driver.obj
 0001:00010c20       ??0?$_Vector_const_iterator@V?$_Vector_val@U?$_Simple_types@VVector@@@std@@@std@@@std@@QAE@ABV01@@Z 10011c20 f i driver.obj
 0001:00010c60       ??0?$_Vector_const_iterator@V?$_Vector_val@U?$_Simple_types@VVector@@@std@@@std@@@std@@QAE@PAVVector@@PBU_Container_base12@1@@Z 10011c60 f i driver.obj
 0001:00010ce0       ??0?$_Vector_val@U?$_Simple_types@H@std@@@std@@QAE@XZ 10011ce0 f i driver.obj
 0001:00010d30       ??0?$_Vector_val@U?$_Simple_types@M@std@@@std@@QAE@XZ 10011d30 f i driver.obj
 0001:00010d80       ??0?$_Vector_val@U?$_Simple_types@VSegment@@@std@@@std@@QAE@XZ 10011d80 f i driver.obj
 0001:00010dd0       ??0?$_Vector_val@U?$_Simple_types@VVector@@@std@@@std@@QAE@XZ 10011dd0 f i driver.obj
 0001:00010e20       ??0?$_Wrap_alloc@V?$allocator@H@std@@@std@@QAE@XZ 10011e20 f i driver.obj
 0001:00010e50       ??0?$_Wrap_alloc@V?$allocator@M@std@@@std@@QAE@XZ 10011e50 f i driver.obj
 0001:00010e80       ??0?$_Wrap_alloc@V?$allocator@U_Container_proxy@std@@@std@@@std@@QAE@XZ 10011e80 f i driver.obj
 0001:00010eb0       ??0?$_Wrap_alloc@V?$allocator@VSegment@@@std@@@std@@QAE@ABV?$allocator@VSegment@@@1@@Z 10011eb0 f i driver.obj
 0001:00010ee0       ??0?$_Wrap_alloc@V?$allocator@VSegment@@@std@@@std@@QAE@XZ 10011ee0 f i driver.obj
 0001:00010f10       ??0?$_Wrap_alloc@V?$allocator@VVector@@@std@@@std@@QAE@ABV?$allocator@VVector@@@1@@Z 10011f10 f i driver.obj
 0001:00010f40       ??0?$_Wrap_alloc@V?$allocator@VVector@@@std@@@std@@QAE@XZ 10011f40 f i driver.obj
 0001:00010f70       ??0?$allocator@H@std@@QAE@XZ 10011f70 f i driver.obj
 0001:00010f90       ??0?$allocator@M@std@@QAE@XZ 10011f90 f i driver.obj
 0001:00010fb0       ??0?$allocator@U_Container_proxy@std@@@std@@QAE@XZ 10011fb0 f i driver.obj
 0001:00010fd0       ??0?$allocator@VSegment@@@std@@QAE@ABV01@@Z 10011fd0 f i driver.obj
 0001:00010ff0       ??0?$allocator@VSegment@@@std@@QAE@XZ 10011ff0 f i driver.obj
 0001:00011010       ??0?$allocator@VVector@@@std@@QAE@ABV01@@Z 10012010 f i driver.obj
 0001:00011030       ??0?$allocator@VVector@@@std@@QAE@XZ 10012030 f i driver.obj
 0001:00011050       ??0?$vector@HV?$allocator@H@std@@@std@@QAE@XZ 10012050 f i driver.obj
 0001:00011090       ??0?$vector@MV?$allocator@M@std@@@std@@QAE@XZ 10012090 f i driver.obj
 0001:000110d0       ??0?$vector@VSegment@@V?$allocator@VSegment@@@std@@@std@@QAE@ABV01@@Z 100120d0 f i driver.obj
 0001:000111f0       ??0?$vector@VSegment@@V?$allocator@VSegment@@@std@@@std@@QAE@XZ 100121f0 f i driver.obj
 0001:00011230       ??0?$vector@VVector@@V?$allocator@VVector@@@std@@@std@@QAE@ABV01@@Z 10012230 f i driver.obj
 0001:00011350       ??0?$vector@VVector@@V?$allocator@VVector@@@std@@@std@@QAE@XZ 10012350 f i driver.obj
 0001:00011390       ??0Point@@QAE@MMM@Z        10012390 f i driver.obj
 0001:000113e0       ??0Point@@QAE@XZ           100123e0 f i driver.obj
 0001:00011410       ??0Segment@@QAE@VPoint@@0@Z 10012410 f i driver.obj
 0001:00011460       ??0SegmentList@@QAE@ABV0@@Z 10012460 f i driver.obj
 0001:00011490       ??0SegmentList@@QAE@XZ     10012490 f i driver.obj
 0001:000114c0       ??0Trajectory@@QAE@XZ      100124c0 f i driver.obj
 0001:00011560       ??0_Container_base12@std@@QAE@XZ 10012560 f i driver.obj
 0001:00011580       ??0_Container_proxy@std@@QAE@XZ 10012580 f i driver.obj
 0001:000115b0       ??0_Iterator_base12@std@@QAE@ABU01@@Z 100125b0 f i driver.obj
 0001:000115f0       ??0_Iterator_base12@std@@QAE@XZ 100125f0 f i driver.obj
 0001:00011620       ??0v2d@@QAE@MM@Z           10012620 f i driver.obj
 0001:00011650       ??1?$_Iterator012@Urandom_access_iterator_tag@std@@VSegment@@HPBV3@ABV3@U_Iterator_base12@2@@std@@QAE@XZ 10012650 f i driver.obj
 0001:00011680       ??1?$_Iterator012@Urandom_access_iterator_tag@std@@VVector@@HPBV3@ABV3@U_Iterator_base12@2@@std@@QAE@XZ 10012680 f i driver.obj
 0001:000116b0       ??1?$_Vector_alloc@$0A@U?$_Vec_base_types@HV?$allocator@H@std@@@std@@@std@@QAE@XZ 100126b0 f i driver.obj
 0001:000116e0       ??1?$_Vector_alloc@$0A@U?$_Vec_base_types@MV?$allocator@M@std@@@std@@@std@@QAE@XZ 100126e0 f i driver.obj
 0001:00011710       ??1?$_Vector_alloc@$0A@U?$_Vec_base_types@VSegment@@V?$allocator@VSegment@@@std@@@std@@@std@@QAE@XZ 10012710 f i driver.obj
 0001:00011740       ??1?$_Vector_alloc@$0A@U?$_Vec_base_types@VVector@@V?$allocator@VVector@@@std@@@std@@@std@@QAE@XZ 10012740 f i driver.obj
 0001:00011770       ??1?$_Vector_const_iterator@V?$_Vector_val@U?$_Simple_types@VSegment@@@std@@@std@@@std@@QAE@XZ 10012770 f i driver.obj
 0001:000117a0       ??1?$_Vector_const_iterator@V?$_Vector_val@U?$_Simple_types@VVector@@@std@@@std@@@std@@QAE@XZ 100127a0 f i driver.obj
 0001:000117d0       ??1?$_Vector_val@U?$_Simple_types@H@std@@@std@@QAE@XZ 100127d0 f i driver.obj
 0001:00011800       ??1?$_Vector_val@U?$_Simple_types@M@std@@@std@@QAE@XZ 10012800 f i driver.obj
 0001:00011830       ??1?$_Vector_val@U?$_Simple_types@VSegment@@@std@@@std@@QAE@XZ 10012830 f i driver.obj
 0001:00011860       ??1?$_Vector_val@U?$_Simple_types@VVector@@@std@@@std@@QAE@XZ 10012860 f i driver.obj
 0001:00011890       ??1?$vector@HV?$allocator@H@std@@@std@@QAE@XZ 10012890 f i driver.obj
 0001:000118c0       ??1?$vector@MV?$allocator@M@std@@@std@@QAE@XZ 100128c0 f i driver.obj
 0001:000118f0       ??1?$vector@VSegment@@V?$allocator@VSegment@@@std@@@std@@QAE@XZ 100128f0 f i driver.obj
 0001:00011920       ??1?$vector@VVector@@V?$allocator@VVector@@@std@@@std@@QAE@XZ 10012920 f i driver.obj
 0001:00011950       ??1SegmentList@@QAE@XZ     10012950 f i driver.obj
 0001:00011980       ??1Trajectory@@QAE@XZ      10012980 f i driver.obj
 0001:000119d0       ??1_Container_base12@std@@QAE@XZ 100129d0 f i driver.obj
 0001:00011a00       ??1_Iterator_base12@std@@QAE@XZ 10012a00 f i driver.obj
 0001:00011a70       ??2@YAPAXIPAX@Z            10012a70 f i driver.obj
 0001:00011a80       ??3@YAXPAX0@Z              10012a80 f i driver.obj
 0001:00011a90       ??4Point@@QAEAAV0@ABV0@@Z  10012a90 f i driver.obj
 0001:00011ad0       ??4_Iterator_base12@std@@QAEAAU01@ABU01@@Z 10012ad0 f i driver.obj
 0001:00011bb0       ??4v2d@@QAEAAV0@ABV0@@Z    10012bb0 f i driver.obj
 0001:00011be0       ??A?$vector@MV?$allocator@M@std@@@std@@QAEAAMI@Z 10012be0 f i driver.obj
 0001:00011c80       ??D@YA?AVv2d@@MABV0@@Z     10012c80 f i driver.obj
 0001:00011cc0       ??Dv2d@@QBE?AV0@M@Z        10012cc0 f i driver.obj
 0001:00011d10       ??Gv2d@@QBE?AV0@ABV0@@Z    10012d10 f i driver.obj
 0001:00011d70       ??Hv2d@@QBE?AV0@ABV0@@Z    10012d70 f i driver.obj
 0001:00011dd0       ??_GCardata@@QAEPAXI@Z     10012dd0 f i driver.obj
 0001:00011e10       ??_GOpponents@@QAEPAXI@Z   10012e10 f i driver.obj
 0001:00011e50       ??_GPit@@QAEPAXI@Z         10012e50 f i driver.obj
 0001:00011e90       ??_GSegLearn@@QAEPAXI@Z    10012e90 f i driver.obj
 0001:00011ed0       ??_GVector@@QAEPAXI@Z      10012ed0 f i driver.obj
 0001:00011f10       ?Add@SegmentList@@QAEXVSegment@@@Z 10012f10 f i driver.obj
 0001:00011f40       ?GetFrictionDm@SegLearn@@QAEMPAUtrackSeg@@@Z 10012f40 f i driver.obj
 0001:00011f80       ?SetSafetyThreshold@SegLearn@@QAEXM@Z 10012f80 f i driver.obj
 0001:00011fa0       ?Size@Vector@@QAEHXZ       10012fa0 f i driver.obj
 0001:00011fc0       ?_Adopt@_Iterator_base12@std@@QAEXPBU_Container_base12@2@@Z 10012fc0 f i driver.obj
 0001:000120f0       ?_Alloc_proxy@?$_Vector_alloc@$0A@U?$_Vec_base_types@HV?$allocator@H@std@@@std@@@std@@QAEXXZ 100130f0 f i driver.obj
 0001:00012190       ?_Alloc_proxy@?$_Vector_alloc@$0A@U?$_Vec_base_types@MV?$allocator@M@std@@@std@@@std@@QAEXXZ 10013190 f i driver.obj
 0001:00012230       ?_Alloc_proxy@?$_Vector_alloc@$0A@U?$_Vec_base_types@VSegment@@V?$allocator@VSegment@@@std@@@std@@@std@@QAEXXZ 10013230 f i driver.obj
 0001:000122d0       ?_Alloc_proxy@?$_Vector_alloc@$0A@U?$_Vec_base_types@VVector@@V?$allocator@VVector@@@std@@@std@@@std@@QAEXXZ 100132d0 f i driver.obj
 0001:00012370       ?_Buy@?$vector@VSegment@@V?$allocator@VSegment@@@std@@@std@@IAE_NI@Z 10013370 f i driver.obj
 0001:00012420       ?_Buy@?$vector@VVector@@V?$allocator@VVector@@@std@@@std@@IAE_NI@Z 10013420 f i driver.obj
 0001:000124d0       ?_Clrcont@_Iterator_base12@std@@QAEXXZ 100134d0 f i driver.obj
 0001:000124f0       ?_Destroy@?$vector@HV?$allocator@H@std@@@std@@IAEXPAH0@Z 100134f0 f i driver.obj
 0001:00012570       ?_Destroy@?$vector@MV?$allocator@M@std@@@std@@IAEXPAM0@Z 10013570 f i driver.obj
 0001:000125f0       ?_Destroy@?$vector@VSegment@@V?$allocator@VSegment@@@std@@@std@@IAEXPAVSegment@@0@Z 100135f0 f i driver.obj
 0001:00012670       ?_Destroy@?$vector@VVector@@V?$allocator@VVector@@@std@@@std@@IAEXPAVVector@@0@Z 10013670 f i driver.obj
 0001:000126f0       ?_Free_proxy@?$_Vector_alloc@$0A@U?$_Vec_base_types@HV?$allocator@H@std@@@std@@@std@@QAEXXZ 100136f0 f i driver.obj
 0001:00012780       ?_Free_proxy@?$_Vector_alloc@$0A@U?$_Vec_base_types@MV?$allocator@M@std@@@std@@@std@@QAEXXZ 10013780 f i driver.obj
 0001:00012810       ?_Free_proxy@?$_Vector_alloc@$0A@U?$_Vec_base_types@VSegment@@V?$allocator@VSegment@@@std@@@std@@@std@@QAEXXZ 10013810 f i driver.obj
 0001:000128a0       ?_Free_proxy@?$_Vector_alloc@$0A@U?$_Vec_base_types@VVector@@V?$allocator@VVector@@@std@@@std@@@std@@QAEXXZ 100138a0 f i driver.obj
 0001:00012930       ?_Getal@?$_Vector_alloc@$0A@U?$_Vec_base_types@HV?$allocator@H@std@@@std@@@std@@QBE?AU?$_Wrap_alloc@V?$allocator@H@std@@@2@XZ 10013930 f i driver.obj
 0001:00012960       ?_Getal@?$_Vector_alloc@$0A@U?$_Vec_base_types@MV?$allocator@M@std@@@std@@@std@@QBE?AU?$_Wrap_alloc@V?$allocator@M@std@@@2@XZ 10013960 f i driver.obj
 0001:00012990       ?_Getal@?$_Vector_alloc@$0A@U?$_Vec_base_types@VSegment@@V?$allocator@VSegment@@@std@@@std@@@std@@QBE?AU?$_Wrap_alloc@V?$allocator@VSegment@@@std@@@2@XZ 10013990 f i driver.obj
 0001:000129c0       ?_Getal@?$_Vector_alloc@$0A@U?$_Vec_base_types@VVector@@V?$allocator@VVector@@@std@@@std@@@std@@QBE?AU?$_Wrap_alloc@V?$allocator@VVector@@@std@@@2@XZ 100139c0 f i driver.obj
 0001:000129f0       ?_Getpfirst@_Container_base12@std@@QBEPAPAU_Iterator_base12@2@XZ 100139f0 f i driver.obj
 0001:00012a30       ?_Getpnext@_Iterator_base12@std@@QAEPAPAU12@XZ 10013a30 f i driver.obj
 0001:00012a50       ?_Grow_to@?$vector@MV?$allocator@M@std@@@std@@IBEII@Z 10013a50 f i driver.obj
 0001:00012ad0       ?_Grow_to@?$vector@VSegment@@V?$allocator@VSegment@@@std@@@std@@IBEII@Z 10013ad0 f i driver.obj
 0001:00012b50       ?_Grow_to@?$vector@VVector@@V?$allocator@VVector@@@std@@@std@@IBEII@Z 10013b50 f i driver.obj
 0001:00012bd0       ?_Inside@?$vector@VSegment@@V?$allocator@VSegment@@@std@@@std@@IBE_NPBVSegment@@@Z 10013bd0 f i driver.obj
 0001:00012c20       ?_Inside@?$vector@VVector@@V?$allocator@VVector@@@std@@@std@@IBE_NPBVVector@@@Z 10013c20 f i driver.obj
 0001:00012c70       ?_Orphan_all@_Container_base12@std@@QAEXXZ 10013c70 f i driver.obj
 0001:00012d20       ?_Orphan_me@_Iterator_base12@std@@QAEXXZ 10013d20 f i driver.obj
 0001:00012db0       ?_Orphan_range@?$vector@MV?$allocator@M@std@@@std@@IBEXPAM0@Z 10013db0 f i driver.obj
 0001:00012ec0       ?_Orphan_range@?$vector@VSegment@@V?$allocator@VSegment@@@std@@@std@@IBEXPAVSegment@@0@Z 10013ec0 f i driver.obj
 0001:00012fd0       ?_Orphan_range@?$vector@VVector@@V?$allocator@VVector@@@std@@@std@@IBEXPAVVector@@0@Z 10013fd0 f i driver.obj
 0001:000130e0       ?_Pop_back_n@?$vector@MV?$allocator@M@std@@@std@@QAEXI@Z 100140e0 f i driver.obj
 0001:00013150       ?_Reallocate@?$vector@MV?$allocator@M@std@@@std@@IAEXI@Z 10014150 f i driver.obj
 0001:000132b0       ?_Reallocate@?$vector@VSegment@@V?$allocator@VSegment@@@std@@@std@@IAEXI@Z 100142b0 f i driver.obj
 0001:00013410       ?_Reallocate@?$vector@VVector@@V?$allocator@VVector@@@std@@@std@@IAEXI@Z 10014410 f i driver.obj
 0001:00013570       ?_Reserve@?$vector@MV?$allocator@M@std@@@std@@IAEXI@Z 10014570 f i driver.obj
 0001:000135e0       ?_Reserve@?$vector@VSegment@@V?$allocator@VSegment@@@std@@@std@@IAEXI@Z 100145e0 f i driver.obj
 0001:00013650       ?_Reserve@?$vector@VVector@@V?$allocator@VVector@@@std@@@std@@IAEXI@Z 10014650 f i driver.obj
 0001:000136c0       ?_Tidy@?$vector@HV?$allocator@H@std@@@std@@IAEXXZ 100146c0 f i driver.obj
 0001:00013760       ?_Tidy@?$vector@MV?$allocator@M@std@@@std@@IAEXXZ 10014760 f i driver.obj
 0001:00013800       ?_Tidy@?$vector@VSegment@@V?$allocator@VSegment@@@std@@@std@@IAEXXZ 10014800 f i driver.obj
 0001:000138a0       ?_Tidy@?$vector@VVector@@V?$allocator@VVector@@@std@@@std@@IAEXXZ 100148a0 f i driver.obj
 0001:00013940       ?_Unchecked@?$_Vector_const_iterator@V?$_Vector_val@U?$_Simple_types@VSegment@@@std@@@std@@@std@@QBEPBVSegment@@XZ 10014940 f i driver.obj
 0001:00013960       ?_Unchecked@?$_Vector_const_iterator@V?$_Vector_val@U?$_Simple_types@VVector@@@std@@@std@@@std@@QBEPBVVector@@XZ 10014960 f i driver.obj
 0001:00013980       ?_Unused_capacity@?$vector@MV?$allocator@M@std@@@std@@QBEIXZ 10014980 f i driver.obj
 0001:000139b0       ?_Unused_capacity@?$vector@VSegment@@V?$allocator@VSegment@@@std@@@std@@QBEIXZ 100149b0 f i driver.obj
 0001:000139e0       ?_Unused_capacity@?$vector@VVector@@V?$allocator@VVector@@@std@@@std@@QBEIXZ 100149e0 f i driver.obj
 0001:00013a10       ?_Xlen@?$vector@MV?$allocator@M@std@@@std@@IBEXXZ 10014a10 f i driver.obj
 0001:00013a40       ?_Xlen@?$vector@VSegment@@V?$allocator@VSegment@@@std@@@std@@IBEXXZ 10014a40 f i driver.obj
 0001:00013a70       ?_Xlen@?$vector@VVector@@V?$allocator@VVector@@@std@@@std@@IBEXXZ 10014a70 f i driver.obj
 0001:00013aa0       ?allocate@?$_Wrap_alloc@V?$allocator@M@std@@@std@@QAEPAMI@Z 10014aa0 f i driver.obj
 0001:00013ad0       ?allocate@?$_Wrap_alloc@V?$allocator@U_Container_proxy@std@@@std@@@std@@QAEPAU_Container_proxy@2@I@Z 10014ad0 f i driver.obj
 0001:00013b00       ?allocate@?$_Wrap_alloc@V?$allocator@VSegment@@@std@@@std@@QAEPAVSegment@@I@Z 10014b00 f i driver.obj
 0001:00013b30       ?allocate@?$_Wrap_alloc@V?$allocator@VVector@@@std@@@std@@QAEPAVVector@@I@Z 10014b30 f i driver.obj
 0001:00013b60       ?allocate@?$allocator@M@std@@QAEPAMI@Z 10014b60 f i driver.obj
 0001:00013b90       ?allocate@?$allocator@U_Container_proxy@std@@@std@@QAEPAU_Container_proxy@2@I@Z 10014b90 f i driver.obj
 0001:00013bc0       ?allocate@?$allocator@VSegment@@@std@@QAEPAVSegment@@I@Z 10014bc0 f i driver.obj
 0001:00013bf0       ?allocate@?$allocator@VVector@@@std@@QAEPAVVector@@I@Z 10014bf0 f i driver.obj
 0001:00013c20       ?atan2@@YAMMM@Z            10014c20 f i driver.obj
 0001:00013c50       ?begin@?$vector@VSegment@@V?$allocator@VSegment@@@std@@@std@@QBE?AV?$_Vector_const_iterator@V?$_Vector_val@U?$_Simple_types@VSegment@@@std@@@std@@@2@XZ 10014c50 f i driver.obj
 0001:00013c90       ?begin@?$vector@VVector@@V?$allocator@VVector@@@std@@@std@@QBE?AV?$_Vector_const_iterator@V?$_Vector_val@U?$_Simple_types@VVector@@@std@@@std@@@2@XZ 10014c90 f i driver.obj
 0001:00013cd0       ?brakeForCollision@Opponent@@QAEXXZ 10014cd0 f i driver.obj
 0001:00013d00       ?capacity@?$vector@MV?$allocator@M@std@@@std@@QBEIXZ 10014d00 f i driver.obj
 0001:00013d30       ?capacity@?$vector@VSegment@@V?$allocator@VSegment@@@std@@@std@@QBEIXZ 10014d30 f i driver.obj
 0001:00013d60       ?capacity@?$vector@VVector@@V?$allocator@VVector@@@std@@@std@@QBEIXZ 10014d60 f i driver.obj
 0001:00013d90       ?construct@?$allocator@VSegment@@@std@@QAEXPAVSegment@@ABV3@@Z 10014d90 f i driver.obj
 0001:00013e00       ?construct@?$allocator@VVector@@@std@@QAEXPAVVector@@ABV3@@Z 10014e00 f i driver.obj
 0001:00013ea0       ?deallocate@?$_Wrap_alloc@V?$allocator@H@std@@@std@@QAEXPAHI@Z 10014ea0 f i driver.obj
 0001:00013ed0       ?deallocate@?$_Wrap_alloc@V?$allocator@M@std@@@std@@QAEXPAMI@Z 10014ed0 f i driver.obj
 0001:00013f00       ?deallocate@?$_Wrap_alloc@V?$allocator@U_Container_proxy@std@@@std@@@std@@QAEXPAU_Container_proxy@2@I@Z 10014f00 f i driver.obj
 0001:00013f30       ?deallocate@?$_Wrap_alloc@V?$allocator@VSegment@@@std@@@std@@QAEXPAVSegment@@I@Z 10014f30 f i driver.obj
 0001:00013f60       ?deallocate@?$_Wrap_alloc@V?$allocator@VVector@@@std@@@std@@QAEXPAVVector@@I@Z 10014f60 f i driver.obj
 0001:00013f90       ?deallocate@?$allocator@H@std@@QAEXPAHI@Z 10014f90 f i driver.obj
 0001:00013fc0       ?deallocate@?$allocator@M@std@@QAEXPAMI@Z 10014fc0 f i driver.obj
 0001:00013ff0       ?deallocate@?$allocator@U_Container_proxy@std@@@std@@QAEXPAU_Container_proxy@2@I@Z 10014ff0 f i driver.obj
 0001:00014020       ?deallocate@?$allocator@VSegment@@@std@@QAEXPAVSegment@@I@Z 10015020 f i driver.obj
 0001:00014050       ?deallocate@?$allocator@VVector@@@std@@QAEXPAVVector@@I@Z 10015050 f i driver.obj
 0001:00014080       ?end@?$vector@VSegment@@V?$allocator@VSegment@@@std@@@std@@QBE?AV?$_Vector_const_iterator@V?$_Vector_val@U?$_Simple_types@VSegment@@@std@@@std@@@2@XZ 10015080 f i driver.obj
 0001:000140c0       ?end@?$vector@VVector@@V?$allocator@VVector@@@std@@@std@@QBE?AV?$_Vector_const_iterator@V?$_Vector_val@U?$_Simple_types@VVector@@@std@@@std@@@2@XZ 100150c0 f i driver.obj
 0001:00014100       ?fabs@@YAMM@Z              10015100 f i driver.obj
 0001:00014120       ?getBrakeOvertake@Opponent@@QAEMXZ 10015120 f i driver.obj
 0001:00014140       ?getCarAngle@SingleCardata@@QAEMXZ 10015140 f i driver.obj
 0001:00014160       ?getCarPtr@Opponent@@QAEPAUCarElt@@XZ 10015160 f i driver.obj
 0001:00014180       ?getCatchDist@Opponent@@QAEMXZ 10015180 f i driver.obj
 0001:000141a0       ?getDistance@Opponent@@QAEMXZ 100151a0 f i driver.obj
 0001:000141c0       ?getInPit@Pit@@QAE_NXZ     100151c0 f i driver.obj
 0001:000141e0       ?getNOpponents@Opponents@@QAEHXZ 100151e0 f i driver.obj
 0001:00014200       ?getNPitEnd@Pit@@QAEMXZ    10015200 f i driver.obj
 0001:00014230       ?getNPitLoc@Pit@@QAEMXZ    10015230 f i driver.obj
 0001:00014260       ?getNPitStart@Pit@@QAEMXZ  10015260 f i driver.obj
 0001:00014290       ?getOpponentPtr@Opponents@@QAEPAVOpponent@@XZ 10015290 f i driver.obj
 0001:000142b0       ?getPitstop@Pit@@QAE_NXZ   100152b0 f i driver.obj
 0001:000142d0       ?getRadius@SegLearn@@QAEMPAUtrackSeg@@@Z 100152d0 f i driver.obj
 0001:00014300       ?getSideDist@Opponent@@QAEMXZ 10015300 f i driver.obj
 0001:00014320       ?getSpeed@Driver@@QAEMXZ   10015320 f i driver.obj
 0001:00014350       ?getSpeed@Opponent@@QAEMXZ 10015350 f i driver.obj
 0001:00014380       ?getSpeedInTrackDirection@SingleCardata@@QAEMXZ 10015380 f i driver.obj
 0001:000143a0       ?getSpeedlimit@Pit@@QAEMXZ 100153a0 f i driver.obj
 0001:000143c0       ?getSpeedlimitSqr@Pit@@QAEMXZ 100153c0 f i driver.obj
 0001:000143e0       ?getState@Opponent@@QAEHXZ 100153e0 f i driver.obj
 0001:00014400       ?getState@Pit@@QAE?AW4PitState@@XZ 10015400 f i driver.obj
 0001:00014420       ?getTrackangle@SingleCardata@@QAEMXZ 10015420 f i driver.obj
 0001:00014440       ?getWidth@Opponent@@QAEMXZ 10015440 f i driver.obj
 0001:00014470       ?getWidthOnTrack@SingleCardata@@QAEMXZ 10015470 f i driver.obj
 0001:00014490       ?len@v2d@@QBEMXZ           10015490 f i driver.obj
 0001:000144e0       ?log@@YAMM@Z               100154e0 f i driver.obj
 0001:00014500       ?max_size@?$_Wrap_alloc@V?$allocator@M@std@@@std@@QBEIXZ 10015500 f i driver.obj
 0001:00014530       ?max_size@?$_Wrap_alloc@V?$allocator@VSegment@@@std@@@std@@QBEIXZ 10015530 f i driver.obj
 0001:00014560       ?max_size@?$_Wrap_alloc@V?$allocator@VVector@@@std@@@std@@QBEIXZ 10015560 f i driver.obj
 0001:00014590       ?max_size@?$allocator@M@std@@QBEIXZ 10015590 f i driver.obj
 0001:000145b0       ?max_size@?$allocator@VSegment@@@std@@QBEIXZ 100155b0 f i driver.obj
 0001:000145d0       ?max_size@?$allocator@VVector@@@std@@QBEIXZ 100155d0 f i driver.obj
 0001:000145f0       ?max_size@?$allocator_traits@V?$allocator@M@std@@@std@@SAIABV?$allocator@M@2@@Z 100155f0 f i driver.obj
 0001:00014610       ?max_size@?$allocator_traits@V?$allocator@VSegment@@@std@@@std@@SAIABV?$allocator@VSegment@@@2@@Z 10015610 f i driver.obj
 0001:00014630       ?max_size@?$allocator_traits@V?$allocator@VVector@@@std@@@std@@SAIABV?$allocator@VVector@@@2@@Z 10015630 f i driver.obj
 0001:00014650       ?max_size@?$vector@MV?$allocator@M@std@@@std@@QBEIXZ 10015650 f i driver.obj
 0001:00014690       ?max_size@?$vector@VSegment@@V?$allocator@VSegment@@@std@@@std@@QBEIXZ 10015690 f i driver.obj
 0001:000146d0       ?max_size@?$vector@VVector@@V?$allocator@VVector@@@std@@@std@@QBEIXZ 100156d0 f i driver.obj
 0001:00014710       ?normalize@v2d@@QAEXXZ     10015710 f i driver.obj
 0001:00014770       ?push_back@?$vector@VSegment@@V?$allocator@VSegment@@@std@@@std@@QAEXABVSegment@@@Z 10015770 f i driver.obj
 0001:000148a0       ?push_back@?$vector@VVector@@V?$allocator@VVector@@@std@@@std@@QAEXABVVector@@@Z 100158a0 f i driver.obj
 0001:000149d0       ?resize@?$vector@MV?$allocator@M@std@@@std@@QAEXI@Z 100159d0 f i driver.obj
 0001:00014b30       ?rotate@v2d@@QBE?AV1@ABV1@M@Z 10015b30 f i driver.obj
 0001:00014c30       ?select_on_container_copy_construction@?$_Wrap_alloc@V?$allocator@VSegment@@@std@@@std@@QBE?AU12@XZ 10015c30 f i driver.obj
 0001:00014c80       ?select_on_container_copy_construction@?$_Wrap_alloc@V?$allocator@VVector@@@std@@@std@@QBE?AU12@XZ 10015c80 f i driver.obj
 0001:00014cd0       ?select_on_container_copy_construction@?$allocator@VSegment@@@std@@QBE?AV12@XZ 10015cd0 f i driver.obj
 0001:00014d00       ?select_on_container_copy_construction@?$allocator@VVector@@@std@@QBE?AV12@XZ 10015d00 f i driver.obj
 0001:00014d30       ?select_on_container_copy_construction@?$allocator_traits@V?$allocator@VSegment@@@std@@@std@@SA?AV?$allocator@VSegment@@@2@ABV32@@Z 10015d30 f i driver.obj
 0001:00014d50       ?select_on_container_copy_construction@?$allocator_traits@V?$allocator@VVector@@@std@@@std@@SA?AV?$allocator@VVector@@@2@ABV32@@Z 10015d50 f i driver.obj
 0001:00014d70       ?setState@Pit@@QAEXW4PitState@@@Z 10015d70 f i driver.obj
 0001:00014d90       ?size@?$vector@MV?$allocator@M@std@@@std@@QBEIXZ 10015d90 f i driver.obj
 0001:00014dc0       ?size@?$vector@VSegment@@V?$allocator@VSegment@@@std@@@std@@QBEIXZ 10015dc0 f i driver.obj
 0001:00014df0       ?size@?$vector@VVector@@V?$allocator@VVector@@@std@@@std@@QBEIXZ 10015df0 f i driver.obj
 0001:00014e20       ?strrchr@@YAPADPADH@Z      10015e20 f i driver.obj
 0001:00014e40       ?tanh@@YAMM@Z              10015e40 f i driver.obj
 0001:00014e60       _atan2f                    10015e60 f i driver.obj
 0001:00014eb0       _fabsf                     10015eb0 f i driver.obj
 0001:00014ef0       _logf                      10015ef0 f i driver.obj
 0001:00014f30       _tanhf                     10015f30 f i driver.obj
 0001:00014f70       ??0Vector@@QAE@HW4BoundsCheckingStatus@0@@Z 10015f70 f   geometry.obj
 0001:00015020       ??0Vector@@QAE@ABV0@@Z     10016020 f   geometry.obj
 0001:000150e0       ??1Vector@@QAE@XZ          100160e0 f   geometry.obj
 0001:00015120       ??4Vector@@QAEAAV0@ABV0@@Z 10016120 f   geometry.obj
 0001:000151a0       ?Resize@Vector@@QAEXH@Z    100161a0 f   geometry.obj
 0001:00015220       ??AVector@@QAEAAMH@Z       10016220 f   geometry.obj
 0001:00015290       ??AVector@@QBEABMH@Z       10016290 f   geometry.obj
 0001:00015300       ?DotProd@@YAMPAVVector@@0@Z 10016300 f   geometry.obj
 0001:00015380       ?Sub@@YAXPAVVector@@00@Z   10016380 f   geometry.obj
 0001:000153e0       ??0ParametricLine@@QAE@PAVVector@@0@Z 100163e0 f   geometry.obj
 0001:00015550       ??1ParametricLine@@QAE@XZ  10016550 f   geometry.obj
 0001:000155e0       ?PointCoords@ParametricLine@@QAEXMPAVVector@@@Z 100165e0 f   geometry.obj
 0001:00015650       ??0ParametricSphere@@QAE@PAVVector@@M@Z 10016650 f   geometry.obj
 0001:00015750       ??0ParametricSphere@@QAE@H@Z 10016750 f   geometry.obj
 0001:00015800       ??1ParametricSphere@@QAE@XZ 10016800 f   geometry.obj
 0001:00015860       ?GetNormalToLine@@YAPAVVector@@PAV1@@Z 10016860 f   geometry.obj
 0001:00015a50       ?IntersectLineLine@@YAMPAVParametricLine@@0@Z 10016a50 f   geometry.obj
 0001:00015d00       ?CalculateRadiusPoints@@YAMV?$vector@VVector@@V?$allocator@VVector@@@std@@@std@@@Z 10016d00 f   geometry.obj
 0001:00016170       ?IntersectSphereLine@@YAPAVVector@@PAVParametricLine@@PAV1@M@Z 10017170 f   geometry.obj
 0001:00016450       ?EstimateSphere@@YAXV?$vector@VVector@@V?$allocator@VVector@@@std@@@std@@PAVParametricSphere@@@Z 10017450 f   geometry.obj
 0001:00016c80       ??0invalid_argument@std@@QAE@ABV01@@Z 10017c80 f i geometry.obj
 0001:00016cc0       ??0invalid_argument@std@@QAE@PBD@Z 10017cc0 f i geometry.obj
 0001:00016d00       ??0logic_error@std@@QAE@ABV01@@Z 10017d00 f i geometry.obj
 0001:00016d40       ??0logic_error@std@@QAE@PBD@Z 10017d40 f i geometry.obj
 0001:00016d80       ??0out_of_range@std@@QAE@ABV01@@Z 10017d80 f i geometry.obj
 0001:00016dc0       ??0out_of_range@std@@QAE@PBD@Z 10017dc0 f i geometry.obj
 0001:00016e00       ??1invalid_argument@std@@UAE@XZ 10017e00 f i geometry.obj
 0001:00016e30       ??1logic_error@std@@UAE@XZ 10017e30 f i geometry.obj
 0001:00016e60       ??1out_of_range@std@@UAE@XZ 10017e60 f i geometry.obj
 0001:00016e90       ??A?$vector@VVector@@V?$allocator@VVector@@@std@@@std@@QAEAAVVector@@I@Z 10017e90 f i geometry.obj
 0001:00016f30       ??_Ginvalid_argument@std@@UAEPAXI@Z 10017f30 f i geometry.obj
 0001:00016f30       ??_Einvalid_argument@std@@UAEPAXI@Z 10017f30 f i geometry.obj
 0001:00016f70       ??_Elogic_error@std@@UAEPAXI@Z 10017f70 f i geometry.obj
 0001:00016f70       ??_Glogic_error@std@@UAEPAXI@Z 10017f70 f i geometry.obj
 0001:00016fb0       ??_Eout_of_range@std@@UAEPAXI@Z 10017fb0 f i geometry.obj
 0001:00016fb0       ??_Gout_of_range@std@@UAEPAXI@Z 10017fb0 f i geometry.obj
 0001:00016ff0       ??0SegLearn@@QAE@PAUtTrack@@@Z 10017ff0 f   learn.obj
 0001:000174d0       ??1SegLearn@@QAE@XZ        100184d0 f   learn.obj
 0001:000175b0       ?update@SegLearn@@QAEXPAUSituation@@PAUtTrack@@PAUCarElt@@HMMPAMMMM@Z 100185b0 f   learn.obj
 0001:00018130       ?updateAccel@SegLearn@@QAEMPAUSituation@@PAUCarElt@@MMM@Z 10019130 f   learn.obj
 0001:00018500       ?predictedError@SegLearn@@QAEMPAUCarElt@@@Z 10019500 f   learn.obj
 0001:00018550       ?predictedAccel@SegLearn@@QAEMPAUtrackSeg@@@Z 10019550 f   learn.obj
 0001:00018570       ?AdjustFriction@SegLearn@@QAEXPAUtrackSeg@@MMMMMMM@Z 10019570 f   learn.obj
 0001:00018900       ?loadParameters@SegLearn@@QAEXPAD@Z 10019900 f   learn.obj
 0001:00018b60       ?saveParameters@SegLearn@@QAEXPAD@Z 10019b60 f   learn.obj
 0001:00018d30       ?LoadParameter@SegLearn@@AAE_NPAMHPAU_iobuf@@@Z 10019d30 f   learn.obj
 0001:00018e00       ?PropagateUpdateBackwards@SegLearn@@AAEXPAUtrackSeg@@MMM@Z 10019e00 f   learn.obj
 0001:00018ee0       ?segQuantum@SegLearn@@AAEHH@Z 10019ee0 f   learn.obj
 0001:00018f10       ??0Averages@SegLearn@@QAE@XZ 10019f10 f i learn.obj
 0001:00018f60       ?CheckMatchingToken@@YA_NPBDPAUStringBuffer_@@PAU_iobuf@@@Z 10019f60 f i learn.obj
 0001:00019010       ?Measure@Averages@SegLearn@@QAEXMMM@Z 1001a010 f i learn.obj
 0001:000190d0       ?WriteToken@@YAXPBDPAU_iobuf@@@Z 1001a0d0 f i learn.obj
 0001:00019100       ?tand@SegLearn@@AAEMM@Z    1001a100 f i learn.obj
 0001:00019150       ?tand_der@SegLearn@@AAEMM@Z 1001a150 f i learn.obj
 0001:000193b0       _olethros                  1001a3b0 f   olethros.obj
 0001:00019460       ??_GDriver@@QAEPAXI@Z      1001a460 f i olethros.obj
 0001:000194a0       ??0Opponent@@QAE@XZ        1001a4a0 f   opponent.obj
 0001:000194d0       ?update@Opponent@@QAEXPAUSituation@@PAVDriver@@@Z 1001a4d0 f   opponent.obj
 0001:00019d20       ?getDistToSegStart@Opponent@@AAEMXZ 1001ad20 f   opponent.obj
 0001:00019d90       ?updateOverlapTimer@Opponent@@AAEXPAUSituation@@PAUCarElt@@@Z 1001ad90 f   opponent.obj
 0001:00019ee0       ??0Opponents@@QAE@PAUSituation@@PAVDriver@@PAVCardata@@@Z 1001aee0 f   opponent.obj
 0001:0001a060       ??1Opponents@@QAE@XZ       1001b060 f   opponent.obj
 0001:0001a0a0       ?update@Opponents@@QAEXPAUSituation@@PAVDriver@@@Z 1001b0a0 f   opponent.obj
 0001:0001a170       ??0Straight@@QAE@MMMM@Z    1001b170 f i opponent.obj
 0001:0001a1f0       ?dist@Straight@@QBEMABVv2d@@@Z 1001b1f0 f i opponent.obj
 0001:0001a2a0       ?getCarPtr@Driver@@QAEPAUCarElt@@XZ 1001b2a0 f i opponent.obj
 0001:0001a2c0       ?getTrackPtr@Driver@@QAEPAUtTrack@@XZ 1001b2c0 f i opponent.obj
 0001:0001a2e0       ?setCarDataPtr@Opponent@@QAEXPAVSingleCardata@@@Z 1001b2e0 f i opponent.obj
 0001:0001a300       ?setCarPtr@Opponent@@QAEXPAUCarElt@@@Z 1001b300 f i opponent.obj
 0001:0001a320       ?setTrackPtr@Opponent@@SAXPAUtTrack@@@Z 1001b320 f i opponent.obj
 0001:0001a330       ??0Pit@@QAE@PAUSituation@@PAVDriver@@@Z 1001b330 f   pit.obj
 0001:0001a820       ??1Pit@@QAE@XZ             1001b820 f   pit.obj
 0001:0001a870       ?setPitstop@Pit@@QAEX_N@Z  1001b870 f   pit.obj
 0001:0001a900       ?getPitOffset@Pit@@QAEMMM@Z 1001b900 f   pit.obj
 0001:0001a990       ?isBetween@Pit@@QAE_NM@Z   1001b990 f   pit.obj
 0001:0001aa10       ?isTimeout@Pit@@QAE_NM@Z   1001ba10 f   pit.obj
 0001:0001aad0       ?toSplineCoord@Pit@@QAEMM@Z 1001bad0 f   pit.obj
 0001:0001ab30       ?getSpeedLimitBrake@Pit@@QAEMM@Z 1001bb30 f   pit.obj
 0001:0001ab80       ?update@Pit@@QAEXXZ        1001bb80 f   pit.obj
 0001:0001ac10       ?setInPit@Pit@@QAEX_N@Z    1001bc10 f i pit.obj
 0001:0001ac30       ??0Spline@@QAE@HPAVSplinePoint@@@Z 1001bc30 f   spline.obj
 0001:0001ac60       ?evaluate@Spline@@QAEMM@Z  1001bc60 f   spline.obj
 0001:0001ade0       ??0SimpleStrategy@@QAE@XZ  1001bde0 f   strategy.obj
 0001:0001ae40       ??1SimpleStrategy@@UAE@XZ  1001be40 f   strategy.obj
 0001:0001ae70       ?setFuelAtRaceStart@SimpleStrategy@@UAEXPAUtTrack@@PAPAXPAUSituation@@@Z 1001be70 f   strategy.obj
 0001:0001afb0       ?update@SimpleStrategy@@UAEXPAUCarElt@@PAUSituation@@@Z 1001bfb0 f   strategy.obj
 0001:0001b0b0       ?needPitstop@SimpleStrategy@@UAE_NPAUCarElt@@PAUSituation@@PAVOpponents@@@Z 1001c0b0 f   strategy.obj
 0001:0001b180       ?pitRefuel@SimpleStrategy@@UAEMPAUCarElt@@PAUSituation@@@Z 1001c180 f   strategy.obj
 0001:0001b360       ?pitRepair@SimpleStrategy@@UAEHPAUCarElt@@PAUSituation@@@Z 1001c360 f   strategy.obj
 0001:0001b380       ?getSpeedFactor@SimpleStrategy@@UAEMPAUCarElt@@PAUSituation@@PAVOpponents@@@Z 1001c380 f   strategy.obj
 0001:0001b3a0       ??0ManagedStrategy@@QAE@XZ 1001c3a0 f   strategy.obj
 0001:0001b3e0       ??1ManagedStrategy@@UAE@XZ 1001c3e0 f   strategy.obj
 0001:0001b410       ?needPitstop@ManagedStrategy@@UAE_NPAUCarElt@@PAUSituation@@PAVOpponents@@@Z 1001c410 f   strategy.obj
 0001:0001b4f0       ?getSpeedFactor@ManagedStrategy@@UAEMPAUCarElt@@PAUSituation@@PAVOpponents@@@Z 1001c4f0 f   strategy.obj
 0001:0001b610       ?RepairDamage@ManagedStrategy@@MAE_NPAUCarElt@@PAVOpponents@@@Z 1001c610 f   strategy.obj
 0001:0001b920       ??0AbstractStrategy@@QAE@XZ 1001c920 f i strategy.obj
 0001:0001b940       ??1AbstractStrategy@@UAE@XZ 1001c940 f i strategy.obj
 0001:0001b960       ??_EAbstractStrategy@@UAEPAXI@Z 1001c960 f i strategy.obj
 0001:0001b960       ??_GAbstractStrategy@@UAEPAXI@Z 1001c960 f i strategy.obj
 0001:0001b9a0       ??_GManagedStrategy@@UAEPAXI@Z 1001c9a0 f i strategy.obj
 0001:0001b9a0       ??_EManagedStrategy@@UAEPAXI@Z 1001c9a0 f i strategy.obj
 0001:0001b9e0       ??_GSimpleStrategy@@UAEPAXI@Z 1001c9e0 f i strategy.obj
 0001:0001b9e0       ??_ESimpleStrategy@@UAEPAXI@Z 1001c9e0 f i strategy.obj
 0001:0001ba20       ?floor@@YAMM@Z             1001ca20 f i strategy.obj
 0001:0001ba40       ?getNOpponentsBehind@Opponents@@QAEHXZ 1001ca40 f i strategy.obj
 0001:0001ba60       _floorf                    1001ca60 f i strategy.obj
 0001:0001baa0       ??0TrackData@@QAE@XZ       1001caa0 f   TrackData.obj
 0001:0001bb40       ?setWidth@TrackData@@QAEXM@Z 1001cb40 f   TrackData.obj
 0001:0001bbd0       ?setLeftWidth@TrackData@@QAEXM@Z 1001cbd0 f   TrackData.obj
 0001:0001bc30       ?setRightWidth@TrackData@@QAEXM@Z 1001cc30 f   TrackData.obj
 0001:0001bc90       ?setStep@TrackData@@QAEXM@Z 1001cc90 f   TrackData.obj
 0001:0001bce0       ?AddStraight@TrackData@@QAEXAAVSegmentList@@MMM@Z 1001cce0 f   TrackData.obj
 0001:0001c020       ?AddCurve@TrackData@@QAEXAAVSegmentList@@MMMM@Z 1001d020 f   TrackData.obj
 0001:0001c400       ?GetPoint@Trajectory@@SA?AVPoint@@AAVSegment@@M@Z 1001d400 f   Trajectory.obj
 0001:0001c4b0       ?Optimise@Trajectory@@QAEXVSegmentList@@HMPBD_N@Z 1001d4b0 f   Trajectory.obj
 0001:0001d840       ??$_Allocate@H@std@@YAPAHIPAH@Z 1001e840 f i Trajectory.obj
 0001:0001d8a0       ??$_Debug_pointer@H@std@@YAXPAHPB_WI@Z 1001e8a0 f i Trajectory.obj
 0001:0001d8d0       ??$_Debug_range2@PAH@std@@YAXPAH0PB_WIUrandom_access_iterator_tag@0@@Z 1001e8d0 f i Trajectory.obj
 0001:0001d930       ??$_Debug_range@PAH@std@@YAXPAH0PB_WI@Z 1001e930 f i Trajectory.obj
 0001:0001d980       ??$_Fill_n@PAHIH@std@@YAPAHPAHIABH@Z 1001e980 f i Trajectory.obj
 0001:0001d9b0       ??$_Iter_cat@PAH@std@@YA?AUrandom_access_iterator_tag@0@ABQAH@Z 1001e9b0 f i Trajectory.obj
 0001:0001da10       ??$_Rechecked@PAHPAH@std@@YAAAPAHAAPAHPAH@Z 1001ea10 f i Trajectory.obj
 0001:0001da20       ??$_Umove@PAH@?$vector@HV?$allocator@H@std@@@std@@IAEPAHPAH00@Z 1001ea20 f i Trajectory.obj
 0001:0001daa0       ??$_Unchecked@PAH@std@@YAPAHPAH@Z 1001eaa0 f i Trajectory.obj
 0001:0001dab0       ??$_Uninit_def_fill_n@HIH@std@@YAXPAHIAAU?$_Wrap_alloc@V?$allocator@H@std@@@0@0U_Scalar_ptr_iterator_tag@0@@Z 1001eab0 f i Trajectory.obj
 0001:0001daf0       ??$_Uninit_move@HHH@std@@YAPAHPAH00AAU?$_Wrap_alloc@V?$allocator@H@std@@@0@0U_Scalar_ptr_iterator_tag@0@@Z 1001eaf0 f i Trajectory.obj
 0001:0001db70       ??$_Uninit_move@PAHPAHU?$_Wrap_alloc@V?$allocator@H@std@@@std@@@std@@YAPAHPAH00AAU?$_Wrap_alloc@V?$allocator@H@std@@@0@@Z 1001eb70 f i Trajectory.obj
 0001:0001dbd0       ??$_Uninitialized_default_fill_n@PAHIU?$_Wrap_alloc@V?$allocator@H@std@@@std@@@std@@YAXPAHIAAU?$_Wrap_alloc@V?$allocator@H@std@@@0@@Z 1001ebd0 f i Trajectory.obj
 0001:0001dc30       ??$_Uninitialized_move@PAHPAHU?$_Wrap_alloc@V?$allocator@H@std@@@std@@@std@@YAPAHPAH00AAU?$_Wrap_alloc@V?$allocator@H@std@@@0@@Z 1001ec30 f i Trajectory.obj
 0001:0001dc80       ??$_Val_type@PAH@std@@YAPAHPAH@Z 1001ec80 f i Trajectory.obj
 0001:0001dc90       ??A?$vector@HV?$allocator@H@std@@@std@@QAEAAHI@Z 1001ec90 f i Trajectory.obj
 0001:0001dd30       ??A?$vector@VSegment@@V?$allocator@VSegment@@@std@@@std@@QAEAAVSegment@@I@Z 1001ed30 f i Trajectory.obj
 0001:0001ddd0       ??ASegmentList@@QAEAAVSegment@@H@Z 1001edd0 f i Trajectory.obj
 0001:0001de00       ??GPoint@@QAE?AV0@ABV0@@Z  1001ee00 f i Trajectory.obj
 0001:0001dec0       ??KPoint@@QAE?AV0@ABM@Z    1001eec0 f i Trajectory.obj
 0001:0001df80       ?Length@Point@@QAEMXZ      1001ef80 f i Trajectory.obj
 0001:0001e000       ?Normalise@Point@@QAEXXZ   1001f000 f i Trajectory.obj
 0001:0001e0a0       ?_Grow_to@?$vector@HV?$allocator@H@std@@@std@@IBEII@Z 1001f0a0 f i Trajectory.obj
 0001:0001e120       ?_Orphan_range@?$vector@HV?$allocator@H@std@@@std@@IBEXPAH0@Z 1001f120 f i Trajectory.obj
 0001:0001e230       ?_Pop_back_n@?$vector@HV?$allocator@H@std@@@std@@QAEXI@Z 1001f230 f i Trajectory.obj
 0001:0001e2a0       ?_Reallocate@?$vector@HV?$allocator@H@std@@@std@@IAEXI@Z 1001f2a0 f i Trajectory.obj
 0001:0001e400       ?_Reserve@?$vector@HV?$allocator@H@std@@@std@@IAEXI@Z 1001f400 f i Trajectory.obj
 0001:0001e470       ?_Unused_capacity@?$vector@HV?$allocator@H@std@@@std@@QBEIXZ 1001f470 f i Trajectory.obj
 0001:0001e4a0       ?_Xlen@?$vector@HV?$allocator@H@std@@@std@@IBEXXZ 1001f4a0 f i Trajectory.obj
 0001:0001e4d0       ?allocate@?$_Wrap_alloc@V?$allocator@H@std@@@std@@QAEPAHI@Z 1001f4d0 f i Trajectory.obj
 0001:0001e500       ?allocate@?$allocator@H@std@@QAEPAHI@Z 1001f500 f i Trajectory.obj
 0001:0001e530       ?capacity@?$vector@HV?$allocator@H@std@@@std@@QBEIXZ 1001f530 f i Trajectory.obj
 0001:0001e560       ?max_size@?$_Wrap_alloc@V?$allocator@H@std@@@std@@QBEIXZ 1001f560 f i Trajectory.obj
 0001:0001e590       ?max_size@?$allocator@H@std@@QBEIXZ 1001f590 f i Trajectory.obj
 0001:0001e5b0       ?max_size@?$allocator_traits@V?$allocator@H@std@@@std@@SAIABV?$allocator@H@2@@Z 1001f5b0 f i Trajectory.obj
 0001:0001e5d0       ?max_size@?$vector@HV?$allocator@H@std@@@std@@QBEIXZ 1001f5d0 f i Trajectory.obj
 0001:0001e610       ?resize@?$vector@HV?$allocator@H@std@@@std@@QAEXI@Z 1001f610 f i Trajectory.obj
 0001:0001e770       ?size@?$vector@HV?$allocator@H@std@@@std@@QBEIXZ 1001f770 f i Trajectory.obj
 0001:0001e7a0       ?size@SegmentList@@QAEHXZ  1001f7a0 f i Trajectory.obj
 0001:0001e7c4       ?GfParmReadFile@@YAPAXPBDH@Z 1001f7c4 f   tgf:tgf.dll
 0001:0001e7ca       ?GfParmGetStr@@YAPBDPAXPBD11@Z 1001f7ca f   tgf:tgf.dll
 0001:0001e7d0       ?GfParmGetNum@@YAMPAXPBD11M@Z 1001f7d0 f   tgf:tgf.dll
 0001:0001e7d6       ?GetLocalDir@@YAPADXZ      1001f7d6 f   tgf:tgf.dll
 0001:0001e7dc       ?GfCreateDir@@YAHPAD@Z     1001f7dc f   tgf:tgf.dll
 0001:0001e7e2       ?_tgf_win_strdup@@YAPADPBD@Z 1001f7e2 f   tgf:tgf.dll
 0001:0001e7e8       ?GfParmSetNum@@YAHPAXPBD11M@Z 1001f7e8 f   tgf:tgf.dll
 0001:0001e7ee       ?RtTrackSideTgAngleL@@YAMPAUtTrkLocPos@@@Z 1001f7ee f   robottools:robottools.dll
 0001:0001e7f4       ?RtDistToPit@@YAHPAUCarElt@@PAUtTrack@@PAM2@Z 1001f7f4 f   robottools:robottools.dll
 0001:0001e7fa       ?NewStringBuffer@@YAPAUStringBuffer_@@H@Z 1001f7fa f   learning:learning.dll
 0001:0001e800       ?FreeStringBuffer@@YAXPAPAUStringBuffer_@@@Z 1001f800 f   learning:learning.dll
 0001:0001e806       ?SetStringBufferLength@@YAPAUStringBuffer_@@PAU1@I@Z 1001f806 f   learning:learning.dll
 0001:0001e810       ??0_Init_locks@std@@QAE@XZ 1001f810 f   libcpmtd:xlock.obj
 0001:0001e860       ??0_Lockit@std@@QAE@H@Z    1001f860 f   libcpmtd:xlock.obj
 0001:0001e8b0       ??0_Lockit@std@@QAE@XZ     1001f8b0 f   libcpmtd:xlock.obj
 0001:0001e900       ??1_Init_locks@std@@QAE@XZ 1001f900 f   libcpmtd:xlock.obj
 0001:0001e950       ??1_Lockit@std@@QAE@XZ     1001f950 f   libcpmtd:xlock.obj
 0001:0001e990       ?_Init_locks_ctor@_Init_locks@std@@CAXPAV12@@Z 1001f990 f   libcpmtd:xlock.obj
 0001:0001e9e0       ?_Init_locks_dtor@_Init_locks@std@@CAXPAV12@@Z 1001f9e0 f   libcpmtd:xlock.obj
 0001:0001ea30       ?_Lockit_ctor@_Lockit@std@@CAXPAV12@@Z 1001fa30 f   libcpmtd:xlock.obj
 0001:0001ea50       ?_Lockit_ctor@_Lockit@std@@CAXPAV12@H@Z 1001fa50 f   libcpmtd:xlock.obj
 0001:0001ea90       ?_Lockit_ctor@_Lockit@std@@SAXH@Z 1001fa90 f   libcpmtd:xlock.obj
 0001:0001eac0       ?_Lockit_dtor@_Lockit@std@@CAXPAV12@@Z 1001fac0 f   libcpmtd:xlock.obj
 0001:0001eae0       ?_Lockit_dtor@_Lockit@std@@SAXH@Z 1001fae0 f   libcpmtd:xlock.obj
 0001:0001eb10       ??_U@YAPAXI@Z              1001fb10 f   libcpmtd:newaop.obj
 0001:0001eb30       ?_Debug_message@std@@YAXPBG0I@Z 1001fb30 f   libcpmtd:stdthrow.obj
 0001:0001eb50       ?_Debug_message@std@@YAXPB_W0I@Z 1001fb50 f   libcpmtd:stdthrow.obj
 0001:0001eb80       ??$_Allocate@D@std@@YAPADIPAD@Z 1001fb80 f i libcpmtd:xthrow.obj
 0001:0001ebc0       ??$_Debug_pointer@D@std@@YAXPBDPB_WI@Z 1001fbc0 f i libcpmtd:xthrow.obj
 0001:0001ebe0       ??$addressof@D@std@@YAPADAAD@Z 1001fbe0 f i libcpmtd:xthrow.obj
 0001:0001ebf0       ??$construct@PADAAPAD@?$_Wrap_alloc@V?$allocator@D@std@@@std@@QAEXPAPADAAPAD@Z 1001fbf0 f i libcpmtd:xthrow.obj
 0001:0001ec20       ??$construct@PADAAPAD@?$allocator@D@std@@QAEXPAPADAAPAD@Z 1001fc20 f i libcpmtd:xthrow.obj
 0001:0001ecb0       ??$construct@PADAAPAD@?$allocator_traits@V?$allocator@D@std@@@std@@SAXAAV?$allocator@D@1@PAPADAAPAD@Z 1001fcb0 f i libcpmtd:xthrow.obj
 0001:0001ecd0       ??$destroy@PAD@?$_Wrap_alloc@V?$allocator@D@std@@@std@@QAEXPAPAD@Z 1001fcd0 f i libcpmtd:xthrow.obj
 0001:0001ecf0       ??$destroy@PAD@?$allocator@D@std@@QAEXPAPAD@Z 1001fcf0 f i libcpmtd:xthrow.obj
 0001:0001ed00       ??$destroy@PAD@?$allocator_traits@V?$allocator@D@std@@@std@@SAXAAV?$allocator@D@1@PAPAD@Z 1001fd00 f i libcpmtd:xthrow.obj
 0001:0001ed20       ??$forward@AAPAD@std@@YAAAPADAAPAD@Z 1001fd20 f i libcpmtd:xthrow.obj
 0001:0001ed30       ??0?$_String_alloc@$0A@U?$_String_base_types@DV?$allocator@D@std@@@std@@@std@@QAE@ABV?$allocator@D@1@@Z 1001fd30 f i libcpmtd:xthrow.obj
 0001:0001ed90       ??0?$_String_val@U?$_Simple_types@D@std@@@std@@QAE@XZ 1001fd90 f i libcpmtd:xthrow.obj
 0001:0001edc0       ??0?$_Wrap_alloc@V?$allocator@D@std@@@std@@QAE@XZ 1001fdc0 f i libcpmtd:xthrow.obj
 0001:0001ede0       ??0?$allocator@D@std@@QAE@XZ 1001fde0 f i libcpmtd:xthrow.obj
 0001:0001edf0       ??0?$basic_string@DU?$char_traits@D@std@@V?$allocator@D@2@@std@@QAE@PBD@Z 1001fdf0 f i libcpmtd:xthrow.obj
 0001:0001ee70       ??0_Generic_error_category@std@@QAE@XZ 1001fe70 f i libcpmtd:xthrow.obj
 0001:0001ee90       ??0_Ignore@std@@QAE@XZ     1001fe90 f i libcpmtd:xthrow.obj
 0001:0001eea0       ??0_Iostream_error_category@std@@QAE@XZ 1001fea0 f i libcpmtd:xthrow.obj
 0001:0001eec0       ??0_System_error_category@std@@QAE@XZ 1001fec0 f i libcpmtd:xthrow.obj
 0001:0001eee0       ??0bad_alloc@std@@QAE@ABV01@@Z 1001fee0 f i libcpmtd:xthrow.obj
 0001:0001ef10       ??0bad_alloc@std@@QAE@XZ   1001ff10 f i libcpmtd:xthrow.obj
 0001:0001ef40       ??0bad_function_call@std@@QAE@ABV01@@Z 1001ff40 f i libcpmtd:xthrow.obj
 0001:0001ef70       ??0bad_function_call@std@@QAE@PBD@Z 1001ff70 f i libcpmtd:xthrow.obj
 0001:0001efa0       ??0error_category@std@@QAE@XZ 1001ffa0 f i libcpmtd:xthrow.obj
 0001:0001efc0       ??0error_condition@std@@QAE@HABVerror_category@1@@Z 1001ffc0 f i libcpmtd:xthrow.obj
 0001:0001eff0       ??0id@locale@std@@QAE@I@Z  1001fff0 f i libcpmtd:xthrow.obj
 0001:0001f010       ??0length_error@std@@QAE@ABV01@@Z 10020010 f i libcpmtd:xthrow.obj
 0001:0001f040       ??0length_error@std@@QAE@PBD@Z 10020040 f i libcpmtd:xthrow.obj
 0001:0001f070       ??0overflow_error@std@@QAE@ABV01@@Z 10020070 f i libcpmtd:xthrow.obj
 0001:0001f0a0       ??0overflow_error@std@@QAE@PBD@Z 100200a0 f i libcpmtd:xthrow.obj
 0001:0001f0d0       ??0regex_error@std@@QAE@ABV01@@Z 100200d0 f i libcpmtd:xthrow.obj
 0001:0001f110       ??0regex_error@std@@QAE@W4error_type@regex_constants@1@@Z 10020110 f i libcpmtd:xthrow.obj
 0001:0001f150       ??0runtime_error@std@@QAE@ABV01@@Z 10020150 f i libcpmtd:xthrow.obj
 0001:0001f180       ??0runtime_error@std@@QAE@PBD@Z 10020180 f i libcpmtd:xthrow.obj
 0001:0001f1b0       ??1?$_String_alloc@$0A@U?$_String_base_types@DV?$allocator@D@std@@@std@@@std@@QAE@XZ 100201b0 f i libcpmtd:xthrow.obj
 0001:0001f1d0       ??1?$_String_val@U?$_Simple_types@D@std@@@std@@QAE@XZ 100201d0 f i libcpmtd:xthrow.obj
 0001:0001f1f0       ??1_Generic_error_category@std@@UAE@XZ 100201f0 f i libcpmtd:xthrow.obj
 0001:0001f210       ??1_Iostream_error_category@std@@UAE@XZ 10020210 f i libcpmtd:xthrow.obj
 0001:0001f230       ??1_System_error_category@std@@UAE@XZ 10020230 f i libcpmtd:xthrow.obj
 0001:0001f250       ??1bad_alloc@std@@UAE@XZ   10020250 f i libcpmtd:xthrow.obj
 0001:0001f270       ??1bad_function_call@std@@UAE@XZ 10020270 f i libcpmtd:xthrow.obj
 0001:0001f290       ??1error_category@std@@UAE@XZ 10020290 f i libcpmtd:xthrow.obj
 0001:0001f2b0       ??1length_error@std@@UAE@XZ 100202b0 f i libcpmtd:xthrow.obj
 0001:0001f2d0       ??1overflow_error@std@@UAE@XZ 100202d0 f i libcpmtd:xthrow.obj
 0001:0001f2f0       ??1regex_error@std@@UAE@XZ 100202f0 f i libcpmtd:xthrow.obj
 0001:0001f310       ??1runtime_error@std@@UAE@XZ 10020310 f i libcpmtd:xthrow.obj
 0001:0001f330       ??8error_category@std@@QBE_NABV01@@Z 10020330 f i libcpmtd:xthrow.obj
 0001:0001f360       ??8error_condition@std@@QBE_NABV01@@Z 10020360 f i libcpmtd:xthrow.obj
 0001:0001f3c0       ??_G_Generic_error_category@std@@UAEPAXI@Z 100203c0 f i libcpmtd:xthrow.obj
 0001:0001f3c0       ??_E_Generic_error_category@std@@UAEPAXI@Z 100203c0 f i libcpmtd:xthrow.obj
 0001:0001f3f0       ??_E_Iostream_error_category@std@@UAEPAXI@Z 100203f0 f i libcpmtd:xthrow.obj
 0001:0001f3f0       ??_G_Iostream_error_category@std@@UAEPAXI@Z 100203f0 f i libcpmtd:xthrow.obj
 0001:0001f420       ??_E_System_error_category@std@@UAEPAXI@Z 10020420 f i libcpmtd:xthrow.obj
 0001:0001f420       ??_G_System_error_category@std@@UAEPAXI@Z 10020420 f i libcpmtd:xthrow.obj
 0001:0001f450       ??_Ebad_alloc@std@@UAEPAXI@Z 10020450 f i libcpmtd:xthrow.obj
 0001:0001f450       ??_Gbad_alloc@std@@UAEPAXI@Z 10020450 f i libcpmtd:xthrow.obj
 0001:0001f480       ??_Ebad_function_call@std@@UAEPAXI@Z 10020480 f i libcpmtd:xthrow.obj
 0001:0001f480       ??_Gbad_function_call@std@@UAEPAXI@Z 10020480 f i libcpmtd:xthrow.obj
 0001:0001f4b0       ??_Gerror_category@std@@UAEPAXI@Z 100204b0 f i libcpmtd:xthrow.obj
 0001:0001f4b0       ??_Eerror_category@std@@UAEPAXI@Z 100204b0 f i libcpmtd:xthrow.obj
 0001:0001f4e0       ??_Glength_error@std@@UAEPAXI@Z 100204e0 f i libcpmtd:xthrow.obj
 0001:0001f4e0       ??_Elength_error@std@@UAEPAXI@Z 100204e0 f i libcpmtd:xthrow.obj
 0001:0001f510       ??_Goverflow_error@std@@UAEPAXI@Z 10020510 f i libcpmtd:xthrow.obj
 0001:0001f510       ??_Eoverflow_error@std@@UAEPAXI@Z 10020510 f i libcpmtd:xthrow.obj
 0001:0001f540       ??_Gregex_error@std@@UAEPAXI@Z 10020540 f i libcpmtd:xthrow.obj
 0001:0001f540       ??_Eregex_error@std@@UAEPAXI@Z 10020540 f i libcpmtd:xthrow.obj
 0001:0001f570       ??_Gruntime_error@std@@UAEPAXI@Z 10020570 f i libcpmtd:xthrow.obj
 0001:0001f570       ??_Eruntime_error@std@@UAEPAXI@Z 10020570 f i libcpmtd:xthrow.obj
 0001:0001f5a0       ?_Alloc_proxy@?$_String_alloc@$0A@U?$_String_base_types@DV?$allocator@D@std@@@std@@@std@@QAEXXZ 100205a0 f i libcpmtd:xthrow.obj
 0001:0001f5f0       ?_Copy@?$basic_string@DU?$char_traits@D@std@@V?$allocator@D@2@@std@@QAEXII@Z 100205f0 f i libcpmtd:xthrow.obj
 0001:0001f7b0       ?_Eos@?$basic_string@DU?$char_traits@D@std@@V?$allocator@D@2@@std@@QAEXI@Z 100207b0 f i libcpmtd:xthrow.obj
 0001:0001f7f0       ?_Free_proxy@?$_String_alloc@$0A@U?$_String_base_types@DV?$allocator@D@std@@@std@@@std@@QAEXXZ 100207f0 f i libcpmtd:xthrow.obj
 0001:0001f840       ?_Getal@?$_String_alloc@$0A@U?$_String_base_types@DV?$allocator@D@std@@@std@@@std@@QBE?AU?$_Wrap_alloc@V?$allocator@D@std@@@2@XZ 10020840 f i libcpmtd:xthrow.obj
 0001:0001f860       ?_Grow@?$basic_string@DU?$char_traits@D@std@@V?$allocator@D@2@@std@@QAE_NI_N@Z 10020860 f i libcpmtd:xthrow.obj
 0001:0001f910       ?_Inside@?$basic_string@DU?$char_traits@D@std@@V?$allocator@D@2@@std@@QAE_NPBD@Z 10020910 f i libcpmtd:xthrow.obj
 0001:0001f950       ?_Myptr@?$_String_val@U?$_Simple_types@D@std@@@std@@QAEPADXZ 10020950 f i libcpmtd:xthrow.obj
 0001:0001f990       ?_Myptr@?$_String_val@U?$_Simple_types@D@std@@@std@@QBEPBDXZ 10020990 f i libcpmtd:xthrow.obj
 0001:0001f9d0       ?_Stringify@regex_error@std@@CAPBDW4error_type@regex_constants@2@@Z 100209d0 f i libcpmtd:xthrow.obj
 0001:0001faa0       ?_Tidy@?$basic_string@DU?$char_traits@D@std@@V?$allocator@D@2@@std@@QAEX_NI@Z 10020aa0 f i libcpmtd:xthrow.obj
 0001:0001fb50       ?_Xbad_alloc@std@@YAXXZ    10020b50 f   libcpmtd:xthrow.obj
 0001:0001fb70       ?_Xbad_function_call@std@@YAXXZ 10020b70 f   libcpmtd:xthrow.obj
 0001:0001fba0       ?_Xinvalid_argument@std@@YAXPBD@Z 10020ba0 f   libcpmtd:xthrow.obj
 0001:0001fbd0       ?_Xlen@?$basic_string@DU?$char_traits@D@std@@V?$allocator@D@2@@std@@QBEXXZ 10020bd0 f i libcpmtd:xthrow.obj
 0001:0001fbf0       ?_Xlength_error@std@@YAXPBD@Z 10020bf0 f   libcpmtd:xthrow.obj
 0001:0001fc20       ?_Xout_of_range@std@@YAXPBD@Z 10020c20 f   libcpmtd:xthrow.obj
 0001:0001fc50       ?_Xoverflow_error@std@@YAXPBD@Z 10020c50 f   libcpmtd:xthrow.obj
 0001:0001fc80       ?_Xran@?$basic_string@DU?$char_traits@D@std@@V?$allocator@D@2@@std@@QBEXXZ 10020c80 f i libcpmtd:xthrow.obj
 0001:0001fca0       ?_Xregex_error@std@@YAXW4error_type@regex_constants@1@@Z 10020ca0 f   libcpmtd:xthrow.obj
 0001:0001fcd0       ?_Xruntime_error@std@@YAXPBD@Z 10020cd0 f   libcpmtd:xthrow.obj
 0001:0001fd00       ?allocate@?$_Wrap_alloc@V?$allocator@D@std@@@std@@QAEPADI@Z 10020d00 f i libcpmtd:xthrow.obj
 0001:0001fd20       ?allocate@?$allocator@D@std@@QAEPADI@Z 10020d20 f i libcpmtd:xthrow.obj
 0001:0001fd40       ?assign@?$basic_string@DU?$char_traits@D@std@@V?$allocator@D@2@@std@@QAEAAV12@ABV12@II@Z 10020d40 f i libcpmtd:xthrow.obj
 0001:0001fdf0       ?assign@?$basic_string@DU?$char_traits@D@std@@V?$allocator@D@2@@std@@QAEAAV12@PBD@Z 10020df0 f i libcpmtd:xthrow.obj
 0001:0001fe30       ?assign@?$basic_string@DU?$char_traits@D@std@@V?$allocator@D@2@@std@@QAEAAV12@PBDI@Z 10020e30 f i libcpmtd:xthrow.obj
 0001:0001fed0       ?assign@?$char_traits@D@std@@SAXAADABD@Z 10020ed0 f i libcpmtd:xthrow.obj
 0001:0001fee0       ?category@error_code@std@@QBEABVerror_category@2@XZ 10020ee0 f i libcpmtd:xthrow.obj
 0001:0001ff00       ?category@error_condition@std@@QBEABVerror_category@2@XZ 10020f00 f i libcpmtd:xthrow.obj
 0001:0001ff20       ?copy@?$char_traits@D@std@@SAPADPADPBDI@Z 10020f20 f i libcpmtd:xthrow.obj
 0001:0001ff50       ?deallocate@?$_Wrap_alloc@V?$allocator@D@std@@@std@@QAEXPADI@Z 10020f50 f i libcpmtd:xthrow.obj
 0001:0001ff70       ?deallocate@?$allocator@D@std@@QAEXPADI@Z 10020f70 f i libcpmtd:xthrow.obj
 0001:0001ff90       ?default_error_condition@_System_error_category@std@@UBE?AVerror_condition@2@H@Z 10020f90 f i libcpmtd:xthrow.obj
 0001:0001ffe0       ?default_error_condition@error_category@std@@UBE?AVerror_condition@2@H@Z 10020fe0 f i libcpmtd:xthrow.obj
 0001:00020000       ?equivalent@error_category@std@@UBE_NABVerror_code@2@H@Z 10021000 f i libcpmtd:xthrow.obj
 0001:00020050       ?equivalent@error_category@std@@UBE_NHABVerror_condition@2@@Z 10021050 f i libcpmtd:xthrow.obj
 0001:00020080       ?erase@?$basic_string@DU?$char_traits@D@std@@V?$allocator@D@2@@std@@QAEAAV12@I@Z 10021080 f i libcpmtd:xthrow.obj
 0001:000200b0       ?erase@?$basic_string@DU?$char_traits@D@std@@V?$allocator@D@2@@std@@QAEAAV12@II@Z 100210b0 f i libcpmtd:xthrow.obj
 0001:00020140       ?generic_category@std@@YAABVerror_category@1@XZ 10021140 f i libcpmtd:xthrow.obj
 0001:00020150       ?length@?$char_traits@D@std@@SAIPBD@Z 10021150 f i libcpmtd:xthrow.obj
 0001:00020180       ?max_size@?$_Wrap_alloc@V?$allocator@D@std@@@std@@QBEIXZ 10021180 f i libcpmtd:xthrow.obj
 0001:000201a0       ?max_size@?$allocator@D@std@@QBEIXZ 100211a0 f i libcpmtd:xthrow.obj
 0001:000201b0       ?max_size@?$allocator_traits@V?$allocator@D@std@@@std@@SAIABV?$allocator@D@2@@Z 100211b0 f i libcpmtd:xthrow.obj
 0001:000201c0       ?max_size@?$basic_string@DU?$char_traits@D@std@@V?$allocator@D@2@@std@@QBEIXZ 100211c0 f i libcpmtd:xthrow.obj
 0001:00020200       ?message@_Generic_error_category@std@@UBE?AV?$basic_string@DU?$char_traits@D@std@@V?$allocator@D@2@@2@H@Z 10021200 f i libcpmtd:xthrow.obj
 0001:00020260       ?message@_Iostream_error_category@std@@UBE?AV?$basic_string@DU?$char_traits@D@std@@V?$allocator@D@2@@2@H@Z 10021260 f i libcpmtd:xthrow.obj
 0001:000202c0       ?message@_System_error_category@std@@UBE?AV?$basic_string@DU?$char_traits@D@std@@V?$allocator@D@2@@2@H@Z 100212c0 f i libcpmtd:xthrow.obj
 0001:00020320       ?move@?$char_traits@D@std@@SAPADPADPBDI@Z 10021320 f i libcpmtd:xthrow.obj
 0001:00020350       ?name@_Generic_error_category@std@@UBEPBDXZ 10021350 f i libcpmtd:xthrow.obj
 0001:00020360       ?name@_Iostream_error_category@std@@UBEPBDXZ 10021360 f i libcpmtd:xthrow.obj
 0001:00020370       ?name@_System_error_category@std@@UBEPBDXZ 10021370 f i libcpmtd:xthrow.obj
 0001:00020380       ?size@?$basic_string@DU?$char_traits@D@std@@V?$allocator@D@2@@std@@QBEIXZ 10021380 f i libcpmtd:xthrow.obj
 0001:000203a0       ?system_category@std@@YAABVerror_category@1@XZ 100213a0 f i libcpmtd:xthrow.obj
 0001:000203b0       ?value@error_code@std@@QBEHXZ 100213b0 f i libcpmtd:xthrow.obj
 0001:000203c0       ?value@error_condition@std@@QBEHXZ 100213c0 f i libcpmtd:xthrow.obj
 0001:000203d0       ?what@bad_function_call@std@@UBEPBDXZ 100213d0 f i libcpmtd:xthrow.obj
 0001:000203e0       __Mtxdst                   100213e0 f   libcpmtd:xmtx.obj
 0001:000203f0       __Mtxinit                  100213f0 f   libcpmtd:xmtx.obj
 0001:00020410       __Mtxlock                  10021410 f   libcpmtd:xmtx.obj
 0001:00020420       __Mtxunlock                10021420 f   libcpmtd:xmtx.obj
 0001:00020430       __Once                     10021430 f   libcpmtd:xmtx.obj
 0001:00020490       ?_Syserror_map@std@@YAPBDH@Z 10021490 f   libcpmtd:syserror.obj
 0001:000204e0       ?_Winerror_map@std@@YAPBDH@Z 100214e0 f   libcpmtd:syserror.obj
 0001:00020530       _exp                       10021530 f   LIBCMTD:87ctran.obj
 0001:0002056c       __CIexp                    1002156c f   LIBCMTD:87ctran.obj
 0001:000205a7       __exp_default              100215a7 f   LIBCMTD:87ctran.obj
 0001:000205b1       __CIexp_default            100215b1 f   LIBCMTD:87ctran.obj
 0001:000205c0       _pow                       100215c0 f   LIBCMTD:pow.obj
 0001:00020600       __CIpow                    10021600 f   LIBCMTD:pow.obj
 0001:0002063b       __CIpow_default            1002163b f   LIBCMTD:pow.obj
 0001:00020654       __pow_default              10021654     LIBCMTD:pow.obj
 0001:00020850       __CIsqrt                   10021850 f   LIBCMTD:sqrt.obj
 0001:00020864       _sqrt                      10021864     LIBCMTD:sqrt.obj
 0001:00020910       __cabs                     10021910 f   LIBCMTD:hypot.obj
 0001:00020940       __hypot                    10021940 f   LIBCMTD:hypot.obj
 0001:00020ca0       __invoke_watson_if_error   10021ca0 f i LIBCMTD:wassert.obj
 0001:00020cd0       __wassert                  10021cd0 f   LIBCMTD:wassert.obj
 0001:00021910       @_RTC_AllocaHelper@12      10022910 f   LIBCMTD:stack.obj
 0001:00021950       @_RTC_CheckStackVars2@12   10022950 f   LIBCMTD:stack.obj
 0001:00021a30       @_RTC_CheckStackVars@8     10022a30 f   LIBCMTD:stack.obj
 0001:00021a90       __RTC_CheckEsp             10022a90 f   LIBCMTD:stack.obj
 0001:00021ac0       __RTC_InitBase             10022ac0 f   LIBCMTD:init.obj
 0001:00021af0       __RTC_Shutdown             10022af0 f   LIBCMTD:init.obj
 0001:00021b10       __fpmath                   10022b10 f   LIBCMTD:fpinit.obj
 0001:00021b30       ___setfflag                10022b30 f   LIBCMTD:fpinit.obj
 0001:00021b50       __cfltcvt_init             10022b50 f   LIBCMTD:fpinit.obj
 0001:00021c10       ??2@YAPAXI@Z               10022c10 f   LIBCMTD:new.obj
 0001:00021c60       ??3@YAXPAX@Z               10022c60 f   LIBCMTD:dbgdel.obj
 0001:00021d50       _cos                       10022d50 f   LIBCMTD:cos.obj
 0001:00021d90       __CIcos                    10022d90 f   LIBCMTD:cos.obj
 0001:00021dcb       __CIcos_default            10022dcb f   LIBCMTD:cos.obj
 0001:00021ddf       __cos_default              10022ddf     LIBCMTD:cos.obj
 0001:00021e80       _sin                       10022e80 f   LIBCMTD:sin.obj
 0001:00021ec0       __CIsin                    10022ec0 f   LIBCMTD:sin.obj
 0001:00021efb       __CIsin_default            10022efb f   LIBCMTD:sin.obj
 0001:00021f0f       __sin_default              10022f0f     LIBCMTD:sin.obj
 0001:00021fb0       @__security_check_cookie@4 10022fb0 f   LIBCMTD:secchk.obj
 0001:000220c0       ?_CallCatchBlock2@@YAPAXPAUEHRegistrationNode@@PBU_s_FuncInfo@@PAXHK@Z 100230c0 f   LIBCMTD:_trnsctrl_.obj
 0001:00022130       ?_CallMemberFunction0@@YGXPAX0@Z 10023130 f   LIBCMTD:_trnsctrl_.obj
 0001:00022140       ?_CallMemberFunction1@@YGXPAX00@Z 10023140 f   LIBCMTD:_trnsctrl_.obj
 0001:00022150       ?_CallMemberFunction2@@YGXPAX00H@Z 10023150 f   LIBCMTD:_trnsctrl_.obj
 0001:00022160       ?_CallSETranslator@@YAHPAUEHExceptionRecord@@PAUEHRegistrationNode@@PAX2PBU_s_FuncInfo@@H1@Z 10023160 f   LIBCMTD:_trnsctrl_.obj
 0001:00022250       ?_GetRangeOfTrysToCheck@@YAPBU_s_TryBlockMapEntry@@PBU_s_FuncInfo@@HHPAI1@Z 10023250 f   LIBCMTD:_trnsctrl_.obj
 0001:000222e0       ?_JumpToContinuation@@YGXPAXPAUEHRegistrationNode@@@Z 100232e0 f   LIBCMTD:_trnsctrl_.obj
 0001:00022320       ?_UnwindNestedFrames@@YGXPAUEHRegistrationNode@@PAUEHExceptionRecord@@@Z 10023320 f   LIBCMTD:_trnsctrl_.obj
 0001:00022380       __CreateFrameInfo          10023380 f   LIBCMTD:_trnsctrl_.obj
 0001:000223b0       __FindAndUnlinkFrame       100233b0 f   LIBCMTD:_trnsctrl_.obj
 0001:00022410       __IsExceptionObjectToBeDestroyed 10023410 f   LIBCMTD:_trnsctrl_.obj
 0001:00022440       ___CxxFrameHandler         10023440 f   LIBCMTD:_trnsctrl_.obj
 0001:00022480       ___CxxFrameHandler2        10023480 f   LIBCMTD:_trnsctrl_.obj
 0001:000224c0       ___CxxFrameHandler3        100234c0 f   LIBCMTD:_trnsctrl_.obj
 0001:00022500       ___CxxLongjmpUnwind@4      10023500 f   LIBCMTD:_trnsctrl_.obj
 0001:00022530       ?_invalid_parameter@@YAXPBG00II@Z 10023530 f   LIBCMTD:invarg.obj
 0001:00022560       ?_invoke_watson@@YAXPBG00II@Z 10023560 f   LIBCMTD:invarg.obj
 0001:00022580       __call_reportfault         10023580 f   LIBCMTD:invarg.obj
 0001:000226e0       __get_invalid_parameter_handler 100236e0 f   LIBCMTD:invarg.obj
 0001:00022710       __initp_misc_invarg        10023710 f   LIBCMTD:invarg.obj
 0001:00022720       __invalid_parameter        10023720 f   LIBCMTD:invarg.obj
 0001:00022780       __invoke_watson            10023780 f   LIBCMTD:invarg.obj
 0001:000227c0       __set_invalid_parameter_handler 100237c0 f   LIBCMTD:invarg.obj
 0001:00022800       __fclose_nolock            10023800 f   LIBCMTD:fclose.obj
 0001:00022910       _fclose                    10023910 f   LIBCMTD:fclose.obj
 0001:00022a30       __fsopen                   10023a30 f   LIBCMTD:fopen.obj
 0001:00022c80       _fopen                     10023c80 f   LIBCMTD:fopen.obj
 0001:00022ca0       _fopen_s                   10023ca0 f   LIBCMTD:fopen.obj
 0001:00022d60       __fprintf_l                10023d60 f   LIBCMTD:fprintf.obj
 0001:00022d90       __fprintf_p                10023d90 f   LIBCMTD:fprintf.obj
 0001:00022dc0       __fprintf_p_l              10023dc0 f   LIBCMTD:fprintf.obj
 0001:00022df0       __fprintf_s_l              10023df0 f   LIBCMTD:fprintf.obj
 0001:00022e20       _fprintf                   10023e20 f   LIBCMTD:fprintf.obj
 0001:000230f0       _fprintf_s                 100240f0 f   LIBCMTD:fprintf.obj
 0001:00023120       __get_printf_count_output  10024120 f   LIBCMTD:printf.obj
 0001:00023150       __printf_l                 10024150 f   LIBCMTD:printf.obj
 0001:00023180       __printf_p                 10024180 f   LIBCMTD:printf.obj
 0001:000231a0       __printf_p_l               100241a0 f   LIBCMTD:printf.obj
 0001:000231d0       __printf_s_l               100241d0 f   LIBCMTD:printf.obj
 0001:00023200       __set_printf_count_output  10024200 f   LIBCMTD:printf.obj
 0001:00023260       _printf                    10024260 f   LIBCMTD:printf.obj
 0001:000233e0       _printf_s                  100243e0 f   LIBCMTD:printf.obj
 0001:00023400       __snprintf                 10024400 f   LIBCMTD:snprintf.obj
 0001:000235e0       __snprintf_l               100245e0 f   LIBCMTD:snprintf.obj
 0001:00023610       _atan2                     10024610 f   LIBCMTD:87ctriga.obj
 0001:0002361a       __CIatan2                  1002461a f   LIBCMTD:87ctriga.obj
 0001:00023630       _fabs                      10024630 f   LIBCMTD:fabs.obj
 0001:00023730       _log                       10024730 f   LIBCMTD:log.obj
 0001:00023770       __CIlog                    10024770 f   LIBCMTD:log.obj
 0001:000237ab       __CIlog_default            100247ab f   LIBCMTD:log.obj
 0001:000237bf       __log_default              100247bf     LIBCMTD:log.obj
 0001:00023880       _sinh                      10024880 f   LIBCMTD:87ctrigh.obj
 0001:0002388a       _cosh                      1002488a f   LIBCMTD:87ctrigh.obj
 0001:00023891       _tanh                      10024891 f   LIBCMTD:87ctrigh.obj
 0001:00023898       __CIsinh                   10024898 f   LIBCMTD:87ctrigh.obj
 0001:000238a2       __CIcosh                   100248a2 f   LIBCMTD:87ctrigh.obj
 0001:000238a9       __CItanh                   100248a9 f   LIBCMTD:87ctrigh.obj
 0001:000238b0       _memset                    100248b0 f   LIBCMTD:memset.obj
 0001:00023940       _strcmp                    10024940 f   LIBCMTD:strcmp.obj
 0001:000239d0       _memmove                   100249d0 f   LIBCMTD:memmove.obj
 0001:00024020       _strrchr                   10025020 f   LIBCMTD:strrchr.obj
 0001:00024160       __chgsign                  10025160 f   LIBCMTD:ieeemisc.obj
 0001:000241a0       __chgsignf                 100251a0 f   LIBCMTD:ieeemisc.obj
 0001:000241e0       __copysign                 100251e0 f   LIBCMTD:ieeemisc.obj
 0001:00024210       __copysignf                10025210 f   LIBCMTD:ieeemisc.obj
 0001:00024250       __finite                   10025250 f   LIBCMTD:ieeemisc.obj
 0001:00024270       __fpclass                  10025270 f   LIBCMTD:ieeemisc.obj
 0001:00024360       __isnan                    10025360 f   LIBCMTD:ieeemisc.obj
 0001:000243a0       __logb                     100253a0 f   LIBCMTD:ieeemisc.obj
 0001:000244d0       __nextafter                100254d0 f   LIBCMTD:ieeemisc.obj
 0001:000247f0       __scalb                    100257f0 f   LIBCMTD:ieeemisc.obj
 0001:00024810       ??_V@YAXPAX@Z              10025810 f   LIBCMTD:delete2.obj
 0001:00024830       ?_CrtDbgReportW@@YAHHPBGH00ZZ 10025830 f   LIBCMTD:dbgrptw.obj
 0001:00024880       __CrtDbgReportW            10025880 f   LIBCMTD:dbgrptw.obj
 0001:000248d0       __CrtDbgReportWV           100258d0 f i LIBCMTD:dbgrptw.obj
 0001:00024900       __CrtSetReportHookW2       10025900 f   LIBCMTD:dbgrptw.obj
 0001:00024c50       ___crtMessageWindowW       10025c50 f   LIBCMTD:dbgrptw.obj
 0001:00025100       __invoke_watson_if_oneof   10026100 f i LIBCMTD:dbgrptw.obj
 0001:00025140       __CxxThrowException@8      10026140 f   LIBCMTD:throw.obj
 0001:000251e0       _free                      100261e0 f   LIBCMTD:dbgfree.obj
 0001:00025200       _malloc                    10026200 f   LIBCMTD:dbgmalloc.obj
 0001:00025230       _realloc                   10026230 f   LIBCMTD:dbgrealloc.obj
 0001:00025260       ??0__non_rtti_object@std@@QAE@ABV01@@Z 10026260 f   LIBCMTD:stdexcpt.obj
 0001:00025290       ??0__non_rtti_object@std@@QAE@PBD@Z 10026290 f   LIBCMTD:stdexcpt.obj
 0001:000252c0       ??0bad_cast@std@@QAE@ABV01@@Z 100262c0 f   LIBCMTD:stdexcpt.obj
 0001:000252f0       ??0bad_cast@std@@QAE@PBD@Z 100262f0 f   LIBCMTD:stdexcpt.obj
 0001:00025320       ??0bad_typeid@std@@QAE@ABV01@@Z 10026320 f   LIBCMTD:stdexcpt.obj
 0001:00025350       ??0bad_typeid@std@@QAE@PBD@Z 10026350 f   LIBCMTD:stdexcpt.obj
 0001:00025380       ??0exception@std@@QAE@ABQBD@Z 10026380 f   LIBCMTD:stdexcpt.obj
 0001:000253c0       ??0exception@std@@QAE@ABQBDH@Z 100263c0 f   LIBCMTD:stdexcpt.obj
 0001:000253f0       ??0exception@std@@QAE@ABV01@@Z 100263f0 f   LIBCMTD:stdexcpt.obj
 0001:00025430       ??0exception@std@@QAE@XZ   10026430 f   LIBCMTD:stdexcpt.obj
 0001:00025460       ??1__non_rtti_object@std@@UAE@XZ 10026460 f   LIBCMTD:stdexcpt.obj
 0001:00025480       ??1bad_cast@std@@UAE@XZ    10026480 f   LIBCMTD:stdexcpt.obj
 0001:000254a0       ??1bad_typeid@std@@UAE@XZ  100264a0 f   LIBCMTD:stdexcpt.obj
 0001:000254c0       ??1exception@std@@UAE@XZ   100264c0 f   LIBCMTD:stdexcpt.obj
 0001:000254e0       ??4exception@std@@QAEAAV01@ABV01@@Z 100264e0 f   LIBCMTD:stdexcpt.obj
 0001:00025530       ??_G__non_rtti_object@std@@UAEPAXI@Z 10026530 f i LIBCMTD:stdexcpt.obj
 0001:00025530       ??_E__non_rtti_object@std@@UAEPAXI@Z 10026530 f i LIBCMTD:stdexcpt.obj
 0001:00025560       ??_Ebad_cast@std@@UAEPAXI@Z 10026560 f i LIBCMTD:stdexcpt.obj
 0001:00025560       ??_Gbad_cast@std@@UAEPAXI@Z 10026560 f i LIBCMTD:stdexcpt.obj
 0001:00025590       ??_Gbad_typeid@std@@UAEPAXI@Z 10026590 f i LIBCMTD:stdexcpt.obj
 0001:00025590       ??_Ebad_typeid@std@@UAEPAXI@Z 10026590 f i LIBCMTD:stdexcpt.obj
 0001:000255c0       ??_Gexception@std@@UAEPAXI@Z 100265c0 f i LIBCMTD:stdexcpt.obj
 0001:000255c0       ??_Eexception@std@@UAEPAXI@Z 100265c0 f i LIBCMTD:stdexcpt.obj
 0001:000255f0       ?_Copy_str@exception@std@@AAEXPBD@Z 100265f0 f   LIBCMTD:stdexcpt.obj
 0001:00025650       ?_Tidy@exception@std@@AAEXXZ 10026650 f   LIBCMTD:stdexcpt.obj
 0001:00025690       ?what@exception@std@@UBEPBDXZ 10026690 f   LIBCMTD:stdexcpt.obj
 0001:000256c0       ??0type_info@@AAE@ABV0@@Z  100266c0 f   LIBCMTD:typinfo.obj
 0001:000256e0       ??1type_info@@UAE@XZ       100266e0 f   LIBCMTD:typinfo.obj
 0001:00025700       ??4type_info@@AAEAAV0@ABV0@@Z 10026700 f   LIBCMTD:typinfo.obj
 0001:00025710       ??8type_info@@QBE_NABV0@@Z 10026710 f   LIBCMTD:typinfo.obj
 0001:00025750       ??9type_info@@QBE_NABV0@@Z 10026750 f   LIBCMTD:typinfo.obj
 0001:00025790       ??_Gtype_info@@UAEPAXI@Z   10026790 f i LIBCMTD:typinfo.obj
 0001:00025790       ??_Etype_info@@UAEPAXI@Z   10026790 f i LIBCMTD:typinfo.obj
 0001:000257c0       ?_name_internal_method@type_info@@QBEPBDPAU__type_info_node@@@Z 100267c0 f   LIBCMTD:typinfo.obj
 0001:000257e0       ?_type_info_dtor_internal_method@type_info@@QAEXXZ 100267e0 f   LIBCMTD:typinfo.obj
 0001:00025800       ?before@type_info@@QBE_NABV1@@Z 10026800 f   LIBCMTD:typinfo.obj
 0001:00025840       ?name@type_info@@QBEPBDPAU__type_info_node@@@Z 10026840 f   LIBCMTD:typinfo.obj
 0001:00025860       ?raw_name@type_info@@QBEPBDXZ 10026860 f   LIBCMTD:typinfo.obj
 0001:00025880       ___initstdio               10026880 f   LIBCMTD:_file.obj
 0001:00025950       ___endstdio                10026950 f   LIBCMTD:_file.obj
 0001:00025990       ___iob_func                10026990 f   LIBCMTD:_file.obj
 0001:000259a0       __lock_file                100269a0 f   LIBCMTD:_file.obj
 0001:00025a00       __lock_file2               10026a00 f   LIBCMTD:_file.obj
 0001:00025a40       __unlock_file              10026a40 f   LIBCMTD:_file.obj
 0001:00025aa0       __unlock_file2             10026aa0 f   LIBCMTD:_file.obj
 0001:00025ae0       __fread_nolock             10026ae0 f   LIBCMTD:fread.obj
 0001:00025b00       __fread_nolock_s           10026b00 f   LIBCMTD:fread.obj
 0001:00026130       _fread                     10027130 f   LIBCMTD:fread.obj
 0001:00026150       _fread_s                   10027150 f   LIBCMTD:fread.obj
 0001:000262a0       __fwrite_nolock            100272a0 f   LIBCMTD:fwrite.obj
 0001:000266b0       _fwrite                    100276b0 f   LIBCMTD:fwrite.obj
 0001:000267d0       _strlen                    100277d0 f   LIBCMTD:strlen.obj
 0001:00026860       __get_purecall_handler     10027860 f   LIBCMTD:purevirt.obj
 0001:00026880       __purecall                 10027880 f   LIBCMTD:purevirt.obj
 0001:000268c0       __set_purecall_handler     100278c0 f   LIBCMTD:purevirt.obj
 0001:000268f0       _floor                     100278f0 f   LIBCMTD:floor_pentium4.obj
 0001:00026930       __floor_pentium4           10027930 f   LIBCMTD:floor_pentium4.obj
 0001:00026a20       _rand                      10027a20 f   LIBCMTD:rand.obj
 0001:00026a60       _srand                     10027a60 f   LIBCMTD:rand.obj
 0001:00026a70       ___inittime                10027a70 f   LIBCMTD:clock.obj
 0001:00026ab0       _clock                     10027ab0 f   LIBCMTD:clock.obj
 0001:00026b10       __CRT_INIT@12              10027b10 f   LIBCMTD:dllcrt0.obj
 0001:00026d60       __DllMainCRTStartup@12     10027d60 f   LIBCMTD:dllcrt0.obj
 0001:00026f50       ___DllXcptFilter           10027f50 f   LIBCMTD:dllcrt0.obj
 0001:00026f80       _asin                      10027f80 f   LIBCMTD:asin.obj
 0001:00026fc0       __CIasin                   10027fc0 f   LIBCMTD:asin.obj
 0001:00026ffb       __CIasin_default           10027ffb f   LIBCMTD:asin.obj
 0001:0002700f       __asin_default             1002800f     LIBCMTD:asin.obj
 0001:000270d0       _acos                      100280d0 f   LIBCMTD:acos.obj
 0001:00027110       __CIacos                   10028110 f   LIBCMTD:acos.obj
 0001:0002714b       __CIacos_default           1002814b f   LIBCMTD:acos.obj
 0001:0002715f       __acos_default             1002815f     LIBCMTD:acos.obj
 0001:00027220       _tan                       10028220 f   LIBCMTD:tan.obj
 0001:00027260       __CItan                    10028260 f   LIBCMTD:tan.obj
 0001:0002729b       __CItan_default            1002829b f   LIBCMTD:tan.obj
 0001:000272af       __tan_default              100282af     LIBCMTD:tan.obj
 0001:00027350       ___copy_path_to_wide_string 10028350 f   LIBCMTD:crt0dat.obj
 0001:00027540       ___copy_to_char            10028540 f   LIBCMTD:crt0dat.obj
 0001:00027730       ___crtCorExitProcess       10028730 f   LIBCMTD:crt0dat.obj
 0001:00027770       ___crtExitProcess          10028770 f   LIBCMTD:crt0dat.obj
 0001:00027790       ___freeCrtMemory           10028790 f   LIBCMTD:crt0dat.obj
 0001:00027960       __amsg_exit                10028960 f   LIBCMTD:crt0dat.obj
 0001:00027980       __c_exit                   10028980 f   LIBCMTD:crt0dat.obj
 0001:000279a0       __cexit                    100289a0 f   LIBCMTD:crt0dat.obj
 0001:000279c0       __cinit                    100289c0 f   LIBCMTD:crt0dat.obj
 0001:00027a60       __exit                     10028a60 f   LIBCMTD:crt0dat.obj
 0001:00027a80       __exit_app                 10028a80 f   LIBCMTD:crt0dat.obj
 0001:00027aa0       __get_pgmptr               10028aa0 f   LIBCMTD:crt0dat.obj
 0001:00027bc0       __get_wpgmptr              10028bc0 f   LIBCMTD:crt0dat.obj
 0001:00027ce0       __init_pointers            10028ce0 f   LIBCMTD:crt0dat.obj
 0001:00027d70       __initterm_e               10028d70 f   LIBCMTD:crt0dat.obj
 0001:00027db0       __lockexit                 10028db0 f   LIBCMTD:crt0dat.obj
 0001:00027dc0       __unlockexit               10028dc0 f   LIBCMTD:crt0dat.obj
 0001:00027fc0       _exit                      10028fc0 f   LIBCMTD:crt0dat.obj
 0001:00027fe0       __vscprintf                10028fe0 f   LIBCMTD:vsprintf.obj
 0001:00028000       __vscprintf_helper         10029000 f   LIBCMTD:vsprintf.obj
 0001:000280f0       __vscprintf_l              100290f0 f   LIBCMTD:vsprintf.obj
 0001:00028110       __vscprintf_p              10029110 f   LIBCMTD:vsprintf.obj
 0001:00028130       __vscprintf_p_l            10029130 f   LIBCMTD:vsprintf.obj
 0001:00028150       __vsprintf_l               10029150 f   LIBCMTD:vsprintf.obj
 0001:00028310       _vsprintf                  10029310 f   LIBCMTD:vsprintf.obj
 0001:00028330       ___onexitinit              10029330 f   LIBCMTD:onexit.obj
 0001:00028390       __onexit                   10029390 f   LIBCMTD:onexit.obj
 0001:00028550       _atexit                    10029550 f   LIBCMTD:onexit.obj
 0001:00028580       __lock                     10029580 f   LIBCMTD:mlock.obj
 0001:000285c0       __lockerr_exit             100295c0 f   LIBCMTD:mlock.obj
 0001:000285f0       __mtdeletelocks            100295f0 f   LIBCMTD:mlock.obj
 0001:000286b0       __mtinitlocknum            100296b0 f   LIBCMTD:mlock.obj
 0001:000287d0       __mtinitlocks              100297d0 f   LIBCMTD:mlock.obj
 0001:00028850       __unlock                   10029850 f   LIBCMTD:mlock.obj
 0001:00028870       _memcpy                    10029870 f   LIBCMTD:memcpy.obj
 0001:00028f10       ___crtCloseThreadpoolTimer 10029f10 f   LIBCMTD:winapisupp.obj
 0001:00028f40       ___crtCloseThreadpoolWait  10029f40 f   LIBCMTD:winapisupp.obj
 0001:00028f70       ___crtCreateEventExW       10029f70 f   LIBCMTD:winapisupp.obj
 0001:00028fd0       ___crtCreateSemaphoreExW   10029fd0 f   LIBCMTD:winapisupp.obj
 0001:00029030       ___crtCreateSymbolicLinkW  1002a030 f   LIBCMTD:winapisupp.obj
 0001:00029070       ___crtCreateThreadpoolTimer 1002a070 f   LIBCMTD:winapisupp.obj
 0001:000290b0       ___crtCreateThreadpoolWait 1002a0b0 f   LIBCMTD:winapisupp.obj
 0001:000290f0       ___crtFlsAlloc             1002a0f0 f   LIBCMTD:winapisupp.obj
 0001:00029120       ___crtFlsFree              1002a120 f   LIBCMTD:winapisupp.obj
 0001:00029160       ___crtFlsGetValue          1002a160 f   LIBCMTD:winapisupp.obj
 0001:000291a0       ___crtFlsSetValue          1002a1a0 f   LIBCMTD:winapisupp.obj
 0001:000291e0       ___crtFlushProcessWriteBuffers 1002a1e0 f   LIBCMTD:winapisupp.obj
 0001:00029210       ___crtFreeLibraryWhenCallbackReturns 1002a210 f   LIBCMTD:winapisupp.obj
 0001:00029240       ___crtGetCurrentProcessorNumber 1002a240 f   LIBCMTD:winapisupp.obj
 0001:00029270       ___crtGetFileInformationByHandleEx 1002a270 f   LIBCMTD:winapisupp.obj
 0001:000292b0       ___crtGetLogicalProcessorInformation 1002a2b0 f   LIBCMTD:winapisupp.obj
 0001:000292f0       ___crtGetShowWindowMode    1002a2f0 f   LIBCMTD:winapisupp.obj
 0001:00029320       ___crtGetTickCount64       1002a320 f   LIBCMTD:winapisupp.obj
 0001:00029350       ___crtInitializeCriticalSectionEx 1002a350 f   LIBCMTD:winapisupp.obj
 0001:000293a0       ___crtIsPackagedApp        1002a3a0 f   LIBCMTD:winapisupp.obj
 0001:000293e0       ___crtLoadWinApiPointers   1002a3e0 f   LIBCMTD:winapisupp.obj
 0001:00029880       ___crtSetFileInformationByHandle 1002a880 f   LIBCMTD:winapisupp.obj
 0001:000298c0       ___crtSetThreadStackGuarantee 1002a8c0 f   LIBCMTD:winapisupp.obj
 0001:000298f0       ___crtSetThreadpoolTimer   1002a8f0 f   LIBCMTD:winapisupp.obj
 0001:00029930       ___crtSetThreadpoolWait    1002a930 f   LIBCMTD:winapisupp.obj
 0001:00029960       ___crtSetUnhandledExceptionFilter 1002a960 f   LIBCMTD:winapisupp.obj
 0001:00029970       ___crtSleep                1002a970 f   LIBCMTD:winapisupp.obj
 0001:00029980       ___crtTerminateProcess     1002a980 f   LIBCMTD:winapisupp.obj
 0001:000299a0       ___crtUnhandledException   1002a9a0 f   LIBCMTD:winapisupp.obj
 0001:000299c0       ___crtWaitForThreadpoolTimerCallbacks 1002a9c0 f   LIBCMTD:winapisupp.obj
 0001:000299f0       __sse2_mathfcns_init       1002a9f0 f   LIBCMTD:mathfcns.obj
 0001:00029a10       __set_SSE2_enable          1002aa10 f   LIBCMTD:mathfcns.obj
 0001:00029a60       __CIexp_pentium4           1002aa60 f   LIBCMTD:exp_pentium4.obj
 0001:00029a78       __exp_pentium4             1002aa78     LIBCMTD:exp_pentium4.obj
 0001:00029d31       __fFEXP                    1002ad31     LIBCMTD:87tran.obj
 0001:00029d88       __rtinfpopse               1002ad88     LIBCMTD:87tran.obj
 0001:00029d8a       __rtinfnpopse              1002ad8a     LIBCMTD:87tran.obj
 0001:00029d9a       __fFLN                     1002ad9a     LIBCMTD:87tran.obj
 0001:00029e4f       __rtinfpop                 1002ae4f     LIBCMTD:87tran.obj
 0001:00029e51       __rtinfnpop                1002ae51     LIBCMTD:87tran.obj
 0001:00029e6e       __ffexpm1                  1002ae6e     LIBCMTD:87tran.obj
 0001:00029f20       __cintrindisp2             1002af20 f   LIBCMTD:87cdisp.obj
 0001:00029f5e       __cintrindisp1             1002af5e f   LIBCMTD:87cdisp.obj
 0001:00029f9b       __ctrandisp2               1002af9b f   LIBCMTD:87cdisp.obj
 0001:0002a12a       __ctrandisp1               1002b12a f   LIBCMTD:87cdisp.obj
 0001:0002a15d       __fload                    1002b15d f   LIBCMTD:87cdisp.obj
 0001:0002a1a0       __CIpow_pentium4           1002b1a0 f   LIBCMTD:pow_pentium4.obj
 0001:0002a1b9       __pow_pentium4             1002b1b9     LIBCMTD:pow_pentium4.obj
 0001:0002ad00       __trandisp1                1002bd00 f   LIBCMTD:87disp.obj
 0001:0002ad67       __trandisp2                1002bd67 f   LIBCMTD:87disp.obj
 0001:0002adf3       __rttospopde               1002bdf3     LIBCMTD:87disp.obj
 0001:0002adf8       __rttospop                 1002bdf8     LIBCMTD:87disp.obj
 0001:0002adfa       __rtnospop                 1002bdfa     LIBCMTD:87disp.obj
 0001:0002adfc       __rttosnpop                1002bdfc     LIBCMTD:87disp.obj
 0001:0002adfd       __rtnospopde               1002bdfd     LIBCMTD:87disp.obj
 0001:0002ae04       __rtzeropop                1002be04     LIBCMTD:87disp.obj
 0001:0002ae06       __rtzeronpop               1002be06     LIBCMTD:87disp.obj
 0001:0002ae0b       __rtonepop                 1002be0b     LIBCMTD:87disp.obj
 0001:0002ae0d       __rtonenpop                1002be0d     LIBCMTD:87disp.obj
 0001:0002ae12       __tosnan1                  1002be12     LIBCMTD:87disp.obj
 0001:0002ae3d       __nosnan2                  1002be3d     LIBCMTD:87disp.obj
 0001:0002ae3f       __tosnan2                  1002be3f     LIBCMTD:87disp.obj
 0001:0002ae67       __nan2                     1002be67     LIBCMTD:87disp.obj
 0001:0002aea6       __rtindfpop                1002bea6     LIBCMTD:87disp.obj
 0001:0002aea8       __rtindfnpop               1002bea8     LIBCMTD:87disp.obj
 0001:0002aeb9       __rttosnpopde              1002beb9     LIBCMTD:87disp.obj
 0001:0002aec3       __rtchsifneg               1002bec3     LIBCMTD:87disp.obj
 0001:0002aed0       __startTwoArgErrorHandling 1002bed0 f   LIBCMTD:genexcep.obj
 0001:0002aee7       __startOneArgErrorHandling 1002bee7 f   LIBCMTD:genexcep.obj
 0001:0002af30       __twoToTOS                 1002bf30 f   LIBCMTD:common.obj
 0001:0002af45       __load_CW                  1002bf45 f   LIBCMTD:common.obj
 0001:0002af5c       __convertTOStoQNaN         1002bf5c f   LIBCMTD:common.obj
 0001:0002af75       __fload_withFB             1002bf75 f   LIBCMTD:common.obj
 0001:0002afb8       __checkTOS_withFB          1002bfb8 f   LIBCMTD:common.obj
 0001:0002afce       __fast_exit                1002bfce f   LIBCMTD:common.obj
 0001:0002afdb       __math_exit                1002bfdb f   LIBCMTD:common.obj
 0001:0002b005       __check_overflow_exit      1002c005 f   LIBCMTD:common.obj
 0001:0002b019       __check_range_exit         1002c019 f   LIBCMTD:common.obj
 0001:0002b0c0       __d_inttype                1002c0c0 f   LIBCMTD:powhlp.obj
 0001:0002b150       __powhlp                   1002c150 f   LIBCMTD:powhlp.obj
 0001:0002b300       __add_exp                  1002c300 f   LIBCMTD:util.obj
 0001:0002b330       __decomp                   1002c330 f   LIBCMTD:util.obj
 0001:0002b450       __get_exp                  1002c450 f   LIBCMTD:util.obj
 0001:0002b480       __set_bexp                 1002c480 f   LIBCMTD:util.obj
 0001:0002b4b0       __set_exp                  1002c4b0 f   LIBCMTD:util.obj
 0001:0002b4f0       __sptype                   1002c4f0 f   LIBCMTD:util.obj
 0001:0002b570       __errcode                  1002c570 f   LIBCMTD:fpexcept.obj
 0001:0002b5e0       __except1                  1002c5e0 f   LIBCMTD:fpexcept.obj
 0001:0002b6e0       __except2                  1002c6e0 f   LIBCMTD:fpexcept.obj
 0001:0002b830       __handle_exc               1002c830 f   LIBCMTD:fpexcept.obj
 0001:0002bb50       __handle_qnan1             1002cb50 f   LIBCMTD:fpexcept.obj
 0001:0002bbb0       __handle_qnan2             1002cbb0 f   LIBCMTD:fpexcept.obj
 0001:0002bc20       __raise_exc                1002cc20 f   LIBCMTD:fpexcept.obj
 0001:0002bc50       __raise_exc_ex             1002cc50 f   LIBCMTD:fpexcept.obj
 0001:0002c1d0       __raise_excf               1002d1d0 f   LIBCMTD:fpexcept.obj
 0001:0002c200       __set_errno_from_matherr   1002d200 f   LIBCMTD:fpexcept.obj
 0001:0002c240       __umatherr                 1002d240 f   LIBCMTD:fpexcept.obj
 0001:0002c2e0       ___clrfp_sse2              1002d2e0 f   LIBCMTD:fpctrl.obj
 0001:0002c320       ___ctrlfp_sse2             1002d320 f   LIBCMTD:fpctrl.obj
 0001:0002c380       ___fclrf_sse2              1002d380 f   LIBCMTD:fpctrl.obj
 0001:0002c3a0       ___get_fpsr_sse2           1002d3a0 f   LIBCMTD:fpctrl.obj
 0001:0002c3d0       ___set_fpsr_sse2           1002d3d0 f   LIBCMTD:fpctrl.obj
 0001:0002c4b0       ___set_statfp_sse2         1002d4b0 f   LIBCMTD:fpctrl.obj
 0001:0002c4e0       ___statfp_sse2             1002d4e0 f   LIBCMTD:fpctrl.obj
 0001:0002c510       __clrfp                    1002d510 f   LIBCMTD:fpctrl.obj
 0001:0002c530       __ctrlfp                   1002d530 f   LIBCMTD:fpctrl.obj
 0001:0002c560       __set_statfp               1002d560 f   LIBCMTD:fpctrl.obj
 0001:0002c5d0       __statfp                   1002d5d0 f   LIBCMTD:fpctrl.obj
 0001:0002c5e0       ___raise_securityfailure   1002d5e0 f   LIBCMTD:gs_report.obj
 0001:0002c630       ___report_gsfailure        1002d630 f   LIBCMTD:gs_report.obj
 0001:0002c740       ___report_rangecheckfailure 1002d740 f   LIBCMTD:gs_report.obj
 0001:0002c750       ___report_securityfailure  1002d750 f   LIBCMTD:gs_report.obj
 0001:0002c830       ___report_securityfailureEx 1002d830 f   LIBCMTD:gs_report.obj
 0001:0002c960       _memcpy_s                  1002d960 f   LIBCMTD:memcpy_s.obj
 0001:0002cb30       _wcscat_s                  1002db30 f   LIBCMTD:wcscat_s.obj
 0001:0002cf40       _wcscpy_s                  1002df40 f   LIBCMTD:wcscpy_s.obj
 0001:0002d250       _wcslen                    1002e250 f   LIBCMTD:wcslen.obj
 0001:0002d290       _wcsncat_s                 1002e290 f   LIBCMTD:wcsncat_s.obj
 0001:0002d780       __set_abort_behavior       1002e780 f   LIBCMTD:abort.obj
 0001:0002d7b0       _abort                     1002e7b0 f   LIBCMTD:abort.obj
 0001:0002d820       ___set_app_type            1002e820 f   LIBCMTD:errmode.obj
 0001:0002d830       __set_error_mode           1002e830 f   LIBCMTD:errmode.obj
 0001:0002dd30       __i64tow_s                 1002ed30 f   LIBCMTD:xtows.obj
 0001:0002dd80       __itow_s                   1002ed80 f   LIBCMTD:xtows.obj
 0001:0002dde0       __ltow_s                   1002ede0 f   LIBCMTD:xtows.obj
 0001:0002de20       __ui64tow_s                1002ee20 f   LIBCMTD:xtows.obj
 0001:0002de40       __ultow_s                  1002ee40 f   LIBCMTD:xtows.obj
 0001:0002e260       __fflush_nolock            1002f260 f   LIBCMTD:fflush.obj
 0001:0002e2d0       __flush                    1002f2d0 f   LIBCMTD:fflush.obj
 0001:0002e390       __flushall                 1002f390 f   LIBCMTD:fflush.obj
 0001:0002e3a0       _fflush                    1002f3a0 f   LIBCMTD:fflush.obj
 0001:0002e5e0       _setvbuf                   1002f5e0 f   LIBCMTD:setvbuf.obj
 0001:0002e8e0       __fwprintf_l               1002f8e0 f   LIBCMTD:fwprintf.obj
 0001:0002e910       __fwprintf_p               1002f910 f   LIBCMTD:fwprintf.obj
 0001:0002e940       __fwprintf_p_l             1002f940 f   LIBCMTD:fwprintf.obj
 0001:0002e970       __fwprintf_s_l             1002f970 f   LIBCMTD:fwprintf.obj
 0001:0002e9a0       _fwprintf                  1002f9a0 f   LIBCMTD:fwprintf.obj
 0001:0002eb50       _fwprintf_s                1002fb50 f   LIBCMTD:fwprintf.obj
 0001:0002eb80       __vsnwprintf_s             1002fb80 f   LIBCMTD:vswprnc.obj
 0001:0002ebb0       __vsnwprintf_s_l           1002fbb0 f   LIBCMTD:vswprnc.obj
 0001:0002ef80       __vswprintf_c              1002ff80 f   LIBCMTD:vswprnc.obj
 0001:0002efd0       __vswprintf_c_l            1002ffd0 f   LIBCMTD:vswprnc.obj
 0001:0002f020       __vswprintf_helper         10030020 f   LIBCMTD:vswprnc.obj
 0001:0002f290       __vswprintf_p              10030290 f   LIBCMTD:vswprnc.obj
 0001:0002f2e0       __vswprintf_p_l            100302e0 f   LIBCMTD:vswprnc.obj
 0001:0002f330       __vswprintf_s_l            10030330 f   LIBCMTD:vswprnc.obj
 0001:0002f5c0       _vswprintf_s               100305c0 f   LIBCMTD:vswprnc.obj
 0001:0002f5e0       ___fpecode                 100305e0 f   LIBCMTD:winsig.obj
 0001:0002f5f0       ___get_sigabrt             100305f0 f   LIBCMTD:winsig.obj
 0001:0002f610       ___pxcptinfoptrs           10030610 f   LIBCMTD:winsig.obj
 0001:0002f620       __initp_misc_winsig        10030620 f   LIBCMTD:winsig.obj
 0001:0002f750       _raise                     10030750 f   LIBCMTD:winsig.obj
 0001:0002fae0       _signal                    10030ae0 f   LIBCMTD:winsig.obj
 0001:0002fe90       ___crtMessageBoxW          10030e90 f   LIBCMTD:crtmboxw.obj
 0001:000301a0       ___crtMessageBoxWaitThreadW@4 100311a0 f   LIBCMTD:crtmboxw.obj
 0001:000301e0       __FF_MSGBANNER             100311e0 f   LIBCMTD:crt0msg.obj
 0001:00030230       __GET_RTERRMSG             10031230 f   LIBCMTD:crt0msg.obj
 0001:00030270       __NMSG_WRITE               10031270 f   LIBCMTD:crt0msg.obj
 0001:00030780       ?_RTC_AllocaFailure@@YAXPAXPAU_RTC_ALLOCA_NODE@@H@Z 10031780 f   LIBCMTD:error.obj
 0001:00030900       ?_RTC_Failure@@YAXPAXH@Z   10031900 f   LIBCMTD:error.obj
 0001:00030950       ?_RTC_StackFailure@@YAXPAXPBD@Z 10031950 f   LIBCMTD:error.obj
 0001:00030cd0       __RTC_UninitUse            10031cd0 f   LIBCMTD:error.obj
 0001:00030dc0       ?_RTC_GetErrorFunc@@YAP6AHHPBDH00ZZPBX@Z 10031dc0 f   LIBCMTD:userapi.obj
 0001:00030dd0       ?_RTC_GetErrorFuncW@@YAP6AHHPB_WH00ZZPBX@Z 10031dd0 f   LIBCMTD:userapi.obj
 0001:00030de0       __RTC_GetErrDesc           10031de0 f   LIBCMTD:userapi.obj
 0001:00030e00       __RTC_NumErrors            10031e00 f   LIBCMTD:userapi.obj
 0001:00030e10       __RTC_SetErrorFunc         10031e10 f   LIBCMTD:userapi.obj
 0001:00030e30       __RTC_SetErrorFuncW        10031e30 f   LIBCMTD:userapi.obj
 0001:00030e50       __RTC_SetErrorType         10031e50 f   LIBCMTD:userapi.obj
 0001:00030e80       __CRT_RTC_INIT             10031e80 f   LIBCMTD:chkesp.obj
 0001:00030e90       __CRT_RTC_INITW            10031e90 f   LIBCMTD:chkesp.obj
 0001:00030ea0       __chkesp                   10031ea0 f   LIBCMTD:chkesp.obj
 0001:00030ee0       ??0_LocaleUpdate@@QAE@PAUlocaleinfo_struct@@@Z 10031ee0 f i LIBCMTD:cvt.obj
 0001:00030fc0       ??1_LocaleUpdate@@QAE@XZ   10031fc0 f i LIBCMTD:cvt.obj
 0001:00030ff0       ?GetLocaleT@_LocaleUpdate@@QAEPAUlocaleinfo_struct@@XZ 10031ff0 f i LIBCMTD:cvt.obj
 0001:00031000       __cfltcvt                  10032000 f   LIBCMTD:cvt.obj
 0001:00031030       __cfltcvt_l                10032030 f   LIBCMTD:cvt.obj
 0001:000310f0       __cftoa                    100320f0 f   LIBCMTD:cvt.obj
 0001:00031120       __cftoa_l                  10032120 f   LIBCMTD:cvt.obj
 0001:00031990       __cftoe                    10032990 f   LIBCMTD:cvt.obj
 0001:00031dd0       __cftoe_l                  10032dd0 f   LIBCMTD:cvt.obj
 0001:00032000       __cftof                    10033000 f   LIBCMTD:cvt.obj
 0001:000322b0       __cftof_l                  100332b0 f   LIBCMTD:cvt.obj
 0001:000324b0       __cftog                    100334b0 f   LIBCMTD:cvt.obj
 0001:000324e0       __cftog_l                  100334e0 f   LIBCMTD:cvt.obj
 0001:00032770       __cropzeros                10033770 f   LIBCMTD:cvt.obj
 0001:00032790       __cropzeros_l              10033790 f   LIBCMTD:cvt.obj
 0001:000328b0       __fassign                  100338b0 f   LIBCMTD:cvt.obj
 0001:000328d0       __fassign_l                100338d0 f   LIBCMTD:cvt.obj
 0001:00032920       __forcdecpt                10033920 f   LIBCMTD:cvt.obj
 0001:00032940       __forcdecpt_l              10033940 f   LIBCMTD:cvt.obj
 0001:00032a10       __positive                 10033a10 f   LIBCMTD:cvt.obj
 0001:00032a70       __setdefaultprecision      10033a70 f   LIBCMTD:fp8.obj
 0001:00032ab0       __initp_misc_cfltcvt_tab   10033ab0 f   LIBCMTD:cmiscdat.obj
 0001:00032af0       ?_query_new_handler@@YAP6AHI@ZXZ 10033af0 f   LIBCMTD:handler.obj
 0001:00032b10       ?_set_new_handler@@YAP6AHI@ZH@Z 10033b10 f   LIBCMTD:handler.obj
 0001:00032b50       ?_set_new_handler@@YAP6AHI@ZP6AHI@Z@Z 10033b50 f   LIBCMTD:handler.obj
 0001:00032b90       __callnewh                 10033b90 f   LIBCMTD:handler.obj
 0001:00032bd0       __initp_heap_handler       10033bd0 f   LIBCMTD:handler.obj
 0001:00033070       __CrtCheckMemory           10034070 f   LIBCMTD:dbgheap.obj
 0001:000334d0       __CrtDoForAllClientObjects 100344d0 f   LIBCMTD:dbgheap.obj
 0001:00033600       __CrtDumpMemoryLeaks       10034600 f   LIBCMTD:dbgheap.obj
 0001:000336a0       __CrtGetAllocHook          100346a0 f   LIBCMTD:dbgheap.obj
 0001:000336b0       __CrtGetCheckCount         100346b0 f   LIBCMTD:dbgheap.obj
 0001:000336c0       __CrtGetDumpClient         100346c0 f   LIBCMTD:dbgheap.obj
 0001:000336d0       __CrtIsMemoryBlock         100346d0 f   LIBCMTD:dbgheap.obj
 0001:00033840       __CrtIsValidHeapPointer    10034840 f   LIBCMTD:dbgheap.obj
 0001:00033880       __CrtIsValidPointer        10034880 f   LIBCMTD:dbgheap.obj
 0001:000338b0       __CrtMemCheckpoint         100348b0 f   LIBCMTD:dbgheap.obj
 0001:00033ae0       __CrtMemDifference         10034ae0 f   LIBCMTD:dbgheap.obj
 0001:00033d40       __CrtMemDumpAllObjectsSince 10034d40 f   LIBCMTD:dbgheap.obj
 0001:00033d80       __CrtMemDumpStatistics     10034d80 f   LIBCMTD:dbgheap.obj
 0001:00033ea0       __CrtReportBlockType       10034ea0 f   LIBCMTD:dbgheap.obj
 0001:00033ed0       __CrtSetAllocHook          10034ed0 f   LIBCMTD:dbgheap.obj
 0001:00033ef0       __CrtSetBreakAlloc         10034ef0 f   LIBCMTD:dbgheap.obj
 0001:00033f10       __CrtSetCheckCount         10034f10 f   LIBCMTD:dbgheap.obj
 0001:00033f30       __CrtSetDbgBlockType       10034f30 f   LIBCMTD:dbgheap.obj
 0001:00034020       __CrtSetDbgFlag            10035020 f   LIBCMTD:dbgheap.obj
 0001:00034170       __CrtSetDebugFillThreshold 10035170 f   LIBCMTD:dbgheap.obj
 0001:00034190       __CrtSetDumpClient         10035190 f   LIBCMTD:dbgheap.obj
 0001:000341b0       __aligned_free             100351b0 f   LIBCMTD:dbgheap.obj
 0001:000341d0       __aligned_free_dbg         100351d0 f   LIBCMTD:dbgheap.obj
 0001:00034280       __aligned_malloc           10035280 f   LIBCMTD:dbgheap.obj
 0001:000342a0       __aligned_malloc_dbg       100352a0 f   LIBCMTD:dbgheap.obj
 0001:000342c0       __aligned_msize            100352c0 f   LIBCMTD:dbgheap.obj
 0001:000342e0       __aligned_msize_dbg        100352e0 f   LIBCMTD:dbgheap.obj
 0001:00034400       __aligned_offset_malloc    10035400 f   LIBCMTD:dbgheap.obj
 0001:00034420       __aligned_offset_malloc_dbg 10035420 f   LIBCMTD:dbgheap.obj
 0001:00034600       __aligned_offset_realloc   10035600 f   LIBCMTD:dbgheap.obj
 0001:00034630       __aligned_offset_realloc_dbg 10035630 f   LIBCMTD:dbgheap.obj
 0001:00034940       __aligned_offset_recalloc  10035940 f   LIBCMTD:dbgheap.obj
 0001:00034970       __aligned_offset_recalloc_dbg 10035970 f   LIBCMTD:dbgheap.obj
 0001:00034a30       __aligned_realloc          10035a30 f   LIBCMTD:dbgheap.obj
 0001:00034a50       __aligned_realloc_dbg      10035a50 f   LIBCMTD:dbgheap.obj
 0001:00034a80       __aligned_recalloc         10035a80 f   LIBCMTD:dbgheap.obj
 0001:00034ab0       __aligned_recalloc_dbg     10035ab0 f   LIBCMTD:dbgheap.obj
 0001:00034ae0       __calloc_dbg               10035ae0 f   LIBCMTD:dbgheap.obj
 0001:00034b40       __calloc_dbg_impl          10035b40 f   LIBCMTD:dbgheap.obj
 0001:00034bc0       __expand                   10035bc0 f   LIBCMTD:dbgheap.obj
 0001:00034bf0       __expand_dbg               10035bf0 f   LIBCMTD:dbgheap.obj
 0001:00034d20       __free_dbg                 10035d20 f   LIBCMTD:dbgheap.obj
 0001:00034da0       __free_dbg_nolock          10035da0 f   LIBCMTD:dbgheap.obj
 0001:000352a0       __free_nolock              100362a0 f   LIBCMTD:dbgheap.obj
 0001:000352c0       __heap_alloc               100362c0 f   LIBCMTD:dbgheap.obj
 0001:000352e0       __heap_alloc_dbg           100362e0 f   LIBCMTD:dbgheap.obj
 0001:00035700       __malloc_dbg               10036700 f   LIBCMTD:dbgheap.obj
 0001:00035730       __msize                    10036730 f   LIBCMTD:dbgheap.obj
 0001:00035750       __msize_dbg                10036750 f   LIBCMTD:dbgheap.obj
 0001:00035960       __nh_malloc                10036960 f   LIBCMTD:dbgheap.obj
 0001:00035980       __nh_malloc_dbg            10036980 f   LIBCMTD:dbgheap.obj
 0001:00035c10       __realloc_dbg              10036c10 f   LIBCMTD:dbgheap.obj
 0001:00035cb0       __recalloc                 10036cb0 f   LIBCMTD:dbgheap.obj
 0001:00035ce0       __recalloc_dbg             10036ce0 f   LIBCMTD:dbgheap.obj
 0001:00036400       __except_handler4          10037400 f   LIBCMTD:chandler4.obj
 0001:000365c0       __CIcos_pentium4           100375c0 f   LIBCMTD:cos_pentium4.obj
 0001:000365d8       __cos_pentium4             100375d8     LIBCMTD:cos_pentium4.obj
 0001:00036770       __CIsin_pentium4           10037770 f   LIBCMTD:sin_pentium4.obj
 0001:00036788       __sin_pentium4             10037788     LIBCMTD:sin_pentium4.obj
 0001:00036940       ___get_flsindex            10037940 f   LIBCMTD:tidtable.obj
 0001:00036950       ___threadhandle            10037950 f   LIBCMTD:tidtable.obj
 0001:00036960       ___threadid                10037960 f   LIBCMTD:tidtable.obj
 0001:00036970       __freefls@4                10037970 f   LIBCMTD:tidtable.obj
 0001:00036b70       __freeptd                  10037b70 f   LIBCMTD:tidtable.obj
 0001:00036bb0       __getptd                   10037bb0 f   LIBCMTD:tidtable.obj
 0001:00036be0       __getptd_noexit            10037be0 f   LIBCMTD:tidtable.obj
 0001:00036c90       __initptd                  10037c90 f   LIBCMTD:tidtable.obj
 0001:00036dd0       __mtinit                   10037dd0 f   LIBCMTD:tidtable.obj
 0001:00036e80       __mtterm                   10037e80 f   LIBCMTD:tidtable.obj
 0001:00036eb0       __CallSettingFrame@12      10037eb0 f   LIBCMTD:lowhelpr.obj
 0001:00036ed7       __NLG_Return               10037ed7     LIBCMTD:lowhelpr.obj
 0001:00036f00       ?_inconsistency@@YAXXZ     10037f00 f   LIBCMTD:hooks.obj
 0001:00036f90       ?terminate@@YAXXZ          10037f90 f   LIBCMTD:hooks.obj
 0001:00037010       ?unexpected@@YAXXZ         10038010 f   LIBCMTD:hooks.obj
 0001:00037040       __initp_eh_hooks           10038040 f   LIBCMTD:hooks.obj
 0001:00037060       ___DestructExceptionObject 10038060 f   LIBCMTD:frame.obj
 0001:00037180       ??0bad_exception@std@@QAE@ABV01@@Z 10038180 f i LIBCMTD:frame.obj
 0001:000371b0       ??0bad_exception@std@@QAE@PBD@Z 100381b0 f i LIBCMTD:frame.obj
 0001:000371e0       ??1bad_exception@std@@UAE@XZ 100381e0 f i LIBCMTD:frame.obj
 0001:00037200       ??_Ebad_exception@std@@UAEPAXI@Z 10038200 f i LIBCMTD:frame.obj
 0001:00037200       ??_Gbad_exception@std@@UAEPAXI@Z 10038200 f i LIBCMTD:frame.obj
 0001:00037df0       ?__uncaught_exception@@YA_NXZ 10038df0 f   LIBCMTD:frame.obj
 0001:00037e20       ?_is_exception_typeof@@YAHABVtype_info@@PAU_EXCEPTION_POINTERS@@@Z 10038e20 f   LIBCMTD:frame.obj
 0001:00037f00       __SetWinRTOutOfMemoryExceptionCallback 10038f00 f   LIBCMTD:frame.obj
 0001:00037f10       ___AdjustPointer           10038f10 f   LIBCMTD:frame.obj
 0001:00037f60       ___BuildCatchObject        10038f60 f   LIBCMTD:frame.obj
 0001:00038070       ___BuildCatchObjectHelper  10039070 f   LIBCMTD:frame.obj
 0001:00038370       ___CxxDetectRethrow        10039370 f   LIBCMTD:frame.obj
 0001:000383f0       ___CxxExceptionFilter      100393f0 f   LIBCMTD:frame.obj
 0001:000385f0       ___CxxQueryExceptionSize   100395f0 f   LIBCMTD:frame.obj
 0001:00038600       ___CxxRegisterExceptionObject 10039600 f   LIBCMTD:frame.obj
 0001:00038740       ___CxxUnregisterExceptionObject 10039740 f   LIBCMTD:frame.obj
 0001:000388c0       ___FrameUnwindFilter       100398c0 f   LIBCMTD:frame.obj
 0001:00038940       ___FrameUnwindToState      10039940 f   LIBCMTD:frame.obj
 0001:00038ac0       ___GetPlatformExceptionInfo 10039ac0 f   LIBCMTD:frame.obj
 0001:00038b80       ___InternalCxxFrameHandler 10039b80 f   LIBCMTD:frame.obj
 0001:00038cf0       ___TypeMatch               10039cf0 f   LIBCMTD:frame.obj
 0001:00038dd0       __CrtDefaultAllocHook      10039dd0 f   LIBCMTD:dbghook.obj
 0001:00038de0       __crt_debugger_hook        10039de0 f   LIBCMTD:dbghook.obj
 0001:00038df0       __fileno                   10039df0 f   LIBCMTD:fileno.obj
 0001:00038e80       __close                    10039e80 f   LIBCMTD:close.obj
 0001:000390c0       __close_nolock             1003a0c0 f   LIBCMTD:close.obj
 0001:000391a0       ___doserrno                1003a1a0 f   LIBCMTD:dosmap.obj
 0001:000391d0       __dosmaperr                1003a1d0 f   LIBCMTD:dosmap.obj
 0001:00039200       __errno                    1003a200 f   LIBCMTD:dosmap.obj
 0001:00039230       __get_doserrno             1003a230 f   LIBCMTD:dosmap.obj
 0001:000392c0       __get_errno                1003a2c0 f   LIBCMTD:dosmap.obj
 0001:00039350       __get_errno_from_oserr     1003a350 f   LIBCMTD:dosmap.obj
 0001:000393d0       __set_doserrno             1003a3d0 f   LIBCMTD:dosmap.obj
 0001:00039400       __set_errno                1003a400 f   LIBCMTD:dosmap.obj
 0001:00039430       __freebuf                  1003a430 f   LIBCMTD:_freebuf.obj
 0001:000394c0       __getstream                1003a4c0 f   LIBCMTD:stream.obj
 0001:000396f0       __openfile                 1003a6f0 f   LIBCMTD:_open.obj
 0001:00039ef0       __local_unwind4            1003aef0 f   LIBCMTD:exsup4.obj
 0001:00039fc6       __seh_longjmp_unwind4@4    1003afc6 f   LIBCMTD:exsup4.obj
 0001:00039fe2       @_EH4_CallFilterFunc@8     1003afe2 f   LIBCMTD:exsup4.obj
 0001:00039ff9       @_EH4_TransferToHandler@8  1003aff9 f   LIBCMTD:exsup4.obj
 0001:0003a012       @_EH4_GlobalUnwind2@8      1003b012 f   LIBCMTD:exsup4.obj
 0001:0003a02b       @_EH4_LocalUnwind@16       1003b02b f   LIBCMTD:exsup4.obj
 0001:0003a050       __vfprintf_l               1003b050 f   LIBCMTD:vfprintf.obj
 0001:0003a080       __vfprintf_p               1003b080 f   LIBCMTD:vfprintf.obj
 0001:0003a0a0       __vfprintf_p_l             1003b0a0 f   LIBCMTD:vfprintf.obj
 0001:0003a0d0       __vfprintf_s_l             1003b0d0 f   LIBCMTD:vfprintf.obj
 0001:0003a100       _vfprintf                  1003b100 f   LIBCMTD:vfprintf.obj
 0001:0003a120       _vfprintf_helper           1003b120 f   LIBCMTD:vfprintf.obj
 0001:0003a3f0       _vfprintf_s                1003b3f0 f   LIBCMTD:vfprintf.obj
 0001:0003a410       __ftbuf                    1003b410 f   LIBCMTD:_sftbuf.obj
 0001:0003a4a0       __stbuf                    1003b4a0 f   LIBCMTD:_sftbuf.obj
 0001:0003a610       __output_l                 1003b610 f   LIBCMTD:output.obj
 0001:0003bcc0       _get_int64_arg             1003ccc0 f i LIBCMTD:output.obj
 0001:0003bce0       _get_int_arg               1003cce0 f i LIBCMTD:output.obj
 0001:0003bd00       _get_short_arg             1003cd00 f i LIBCMTD:output.obj
 0001:0003bec0       __ioinit                   1003cec0 f   LIBCMTD:ioinit.obj
 0001:0003c3a0       __ioterm                   1003d3a0 f   LIBCMTD:ioinit.obj
 0001:0003c440       __vprintf_l                1003d440 f   LIBCMTD:vprintf.obj
 0001:0003c460       __vprintf_p                1003d460 f   LIBCMTD:vprintf.obj
 0001:0003c480       __vprintf_p_l              1003d480 f   LIBCMTD:vprintf.obj
 0001:0003c4a0       __vprintf_s_l              1003d4a0 f   LIBCMTD:vprintf.obj
 0001:0003c4c0       _vprintf                   1003d4c0 f   LIBCMTD:vprintf.obj
 0001:0003c4e0       _vprintf_helper            1003d4e0 f   LIBCMTD:vprintf.obj
 0001:0003c620       _vprintf_s                 1003d620 f   LIBCMTD:vprintf.obj
 0001:0003c640       __flsbuf                   1003d640 f   LIBCMTD:_flsbuf.obj
 0001:0003c910       __vsnprintf                1003d910 f   LIBCMTD:vsnprint.obj
 0001:0003c930       __vsnprintf_l              1003d930 f   LIBCMTD:vsnprint.obj
 0001:0003cb2c       __fFATN2                   1003db2c     LIBCMTD:87triga.obj
 0001:0003cb7c       __rtpiby2                  1003db7c     LIBCMTD:87triga.obj
 0001:0003cbc0       __CIlog_pentium4           1003dbc0 f   LIBCMTD:log_pentium4.obj
 0001:0003cbd8       __log_pentium4             1003dbd8     LIBCMTD:log_pentium4.obj
 0001:0003ce30       __fFSINH                   1003de30     LIBCMTD:87trigh.obj
 0001:0003ce82       __fFCOSH                   1003de82     LIBCMTD:87trigh.obj
 0001:0003cf30       __VEC_memset               1003df30 f   LIBCMTD:p4_memset.obj
 0001:0003d000       ___isa_available_init      1003e000 f   LIBCMTD:cpu_disp.obj
 0001:0003d2b0       _ldexp                     1003e2b0 f   LIBCMTD:ldexp.obj
 0001:0003d590       ___swprintf_l              1003e590 f   LIBCMTD:swprintf.obj
 0001:0003d5c0       __scwprintf                1003e5c0 f   LIBCMTD:swprintf.obj
 0001:0003d5e0       __scwprintf_l              1003e5e0 f   LIBCMTD:swprintf.obj
 0001:0003d610       __scwprintf_p              1003e610 f   LIBCMTD:swprintf.obj
 0001:0003d630       __scwprintf_p_l            1003e630 f   LIBCMTD:swprintf.obj
 0001:0003d660       __snwprintf_s              1003e660 f   LIBCMTD:swprintf.obj
 0001:0003d690       __snwprintf_s_l            1003e690 f   LIBCMTD:swprintf.obj
 0001:0003d6c0       __swprintf                 1003e6c0 f   LIBCMTD:swprintf.obj
 0001:0003d8e0       __swprintf_p               1003e8e0 f   LIBCMTD:swprintf.obj
 0001:0003d910       __swprintf_p_l             1003e910 f   LIBCMTD:swprintf.obj
 0001:0003d940       __swprintf_s_l             1003e940 f   LIBCMTD:swprintf.obj
 0001:0003d970       _swprintf_s                1003e970 f   LIBCMTD:swprintf.obj
 0001:0003d9a0       __CrtDbgBreak              1003e9a0 f   LIBCMTD:dbgrptt.obj
 0001:0003d9b0       __CrtGetReportHook         1003e9b0 f   LIBCMTD:dbgrptt.obj
 0001:0003d9c0       __CrtSetReportFile         1003e9c0 f   LIBCMTD:dbgrptt.obj
 0001:0003dac0       __CrtSetReportHook         1003eac0 f   LIBCMTD:dbgrptt.obj
 0001:0003dae0       __CrtSetReportMode         1003eae0 f   LIBCMTD:dbgrptt.obj
 0001:0003dc20       __VCrtDbgReportA           1003ec20 f   LIBCMTD:dbgrptt.obj
 0001:0003e490       __VCrtDbgReportW           1003f490 f   LIBCMTD:dbgrptt.obj
 0001:0003ee10       __chkstk                   1003fe10 f   LIBCMTD:chkstk.obj
 0001:0003ee10       __alloca_probe             1003fe10 f   LIBCMTD:chkstk.obj
 0001:0003ee40       _strcpy_s                  1003fe40 f   LIBCMTD:strcpy_s.obj
 0001:0003f140       ?_Name_base@type_info@@CAPBDPBV1@PAU__type_info_node@@@Z 10040140 f   LIBCMTD:typname.obj
 0001:0003f2f0       ?_Name_base_internal@type_info@@CAPBDPBV1@PAU__type_info_node@@@Z 100402f0 f   LIBCMTD:typname.obj
 0001:0003f4b0       ?_Type_info_dtor@type_info@@CAXPAV1@@Z 100404b0 f   LIBCMTD:typname.obj
 0001:0003f5c0       ?_Type_info_dtor_internal@type_info@@CAXPAV1@@Z 100405c0 f   LIBCMTD:typname.obj
 0001:0003f6d0       ___clean_type_info_names_internal 100406d0 f   LIBCMTD:typname.obj
 0001:0003f780       ___unDNameHelper           10040780 f   LIBCMTD:typname.obj
 0001:0003f7c0       __fcloseall                100407c0 f   LIBCMTD:closeall.obj
 0001:0003f8f0       __filbuf                   100408f0 f   LIBCMTD:_filbuf.obj
 0001:0003fb60       __read                     10040b60 f   LIBCMTD:read.obj
 0001:0003fe30       __read_nolock              10040e30 f   LIBCMTD:read.obj
 0001:00041070       __write                    10042070 f   LIBCMTD:write.obj
 0001:000412c0       __write_nolock             100422c0 f   LIBCMTD:write.obj
 0001:00042070       ___getlocaleinfo           10043070 f   LIBCMTD:inithelp.obj
 0001:00042370       __initp_misc_purevirt      10043370 f   LIBCMTD:inithelp.obj
 0001:00042380       ___libm_error_support      10043380 f   LIBCMTD:libm_error.obj
 0001:00042f50       ___libm_setusermatherr     10043f50 f   LIBCMTD:libm_error.obj
 0001:00042f80       __floor_default            10043f80 f   LIBCMTD:floor.obj
 0001:000430c0       __allshl                   100440c0 f   LIBCMTD:llshl.obj
 0001:000430e0       __aulldiv                  100440e0 f   LIBCMTD:ulldiv.obj
 0001:00043150       __XcptFilter               10044150 f   LIBCMTD:winxfltr.obj
 0001:00043350       ___CppXcptFilter           10044350 f   LIBCMTD:winxfltr.obj
 0001:000433e0       __get_heap_handle          100443e0 f   LIBCMTD:heapinit.obj
 0001:00043420       __heap_init                10044420 f   LIBCMTD:heapinit.obj
 0001:00043450       __heap_term                10044450 f   LIBCMTD:heapinit.obj
 0001:00043460       __set_pgmptr               10044460 f i LIBCMTD:stdargv.obj
 0001:00043470       __setargv                  10044470 f   LIBCMTD:stdargv.obj
 0001:00043940       __setenvp                  10044940 f   LIBCMTD:stdenvp.obj
 0001:00043ae0       ___security_init_cookie    10044ae0 f   LIBCMTD:gs_support.obj
 0001:00043bc0       _DllMain@12                10044bc0 f   LIBCMTD:dllmain.obj
 0001:00043bd0       ___crtGetEnvironmentStringsA 10044bd0 f   LIBCMTD:a_env.obj
 0001:00043cd0       __RTC_Initialize           10044cd0 f   LIBCMTD:initsect.obj
 0001:00043d00       __RTC_Terminate            10044d00 f   LIBCMTD:initsect.obj
 0001:00043d30       __CIasin_pentium4          10044d30 f   LIBCMTD:asin_pentium4.obj
 0001:00043d48       __asin_pentium4            10044d48     LIBCMTD:asin_pentium4.obj
 0001:000442b0       __CIacos_pentium4          100452b0 f   LIBCMTD:acos_pentium4.obj
 0001:000442c8       __acos_pentium4            100452c8     LIBCMTD:acos_pentium4.obj
 0001:00044810       __CItan_pentium4           10045810 f   LIBCMTD:tan_pentium4.obj
 0001:00044828       __tan_pentium4             10045828     LIBCMTD:tan_pentium4.obj
 0001:00044a70       __FindPESection            10045a70 f   LIBCMTD:pesect.obj
 0001:00044af0       __IsNonwritableInCurrentImage 10045af0 f   LIBCMTD:pesect.obj
 0001:00044c20       __ValidateImageBase        10045c20 f   LIBCMTD:pesect.obj
 0001:00044c80       __initp_misc_rand_s        10045c80 f   LIBCMTD:rand_s.obj
 0001:00044c90       _rand_s                    10045c90 f   LIBCMTD:rand_s.obj
 0001:00044ef0       ___initmbctable            10045ef0 f   LIBCMTD:mbctype.obj
 0001:00045510       ___updatetmbcinfo          10046510 f   LIBCMTD:mbctype.obj
 0001:00045630       __getmbcp                  10046630 f   LIBCMTD:mbctype.obj
 0001:000456a0       __setmbcp                  100466a0 f   LIBCMTD:mbctype.obj
 0001:00045940       __setmbcp_nolock           10046940 f   LIBCMTD:mbctype.obj
 0001:00045cc0       __output_p_l               10046cc0 f   LIBCMTD:outputp.obj
 0001:00049ac0       __validate_param_reuseA    1004aac0 f   LIBCMTD:outputp.obj
 0001:00049db0       _get_crtdouble_arg         1004adb0 f i LIBCMTD:outputp.obj
 0001:00049f70       __87except                 1004af70 f   LIBCMTD:87except.obj
 0001:0004a170       __frnd                     1004b170 f   LIBCMTD:frnd.obj
 0001:0004a190       __matherr                  1004b190 f   LIBCMTD:matherr.obj
 0001:0004a1a0       __aullrem                  1004b1a0 f   LIBCMTD:ullrem.obj
 0001:0004a220       __commit                   1004b220 f   LIBCMTD:commit.obj
 0001:0004a460       __vfwprintf_l              1004b460 f   LIBCMTD:vfwprint.obj
 0001:0004a490       __vfwprintf_p              1004b490 f   LIBCMTD:vfwprint.obj
 0001:0004a4b0       __vfwprintf_p_l            1004b4b0 f   LIBCMTD:vfwprint.obj
 0001:0004a4e0       __vfwprintf_s_l            1004b4e0 f   LIBCMTD:vfwprint.obj
 0001:0004a510       _vfwprintf                 1004b510 f   LIBCMTD:vfwprint.obj
 0001:0004a530       _vfwprintf_helper          1004b530 f   LIBCMTD:vfwprint.obj
 0001:0004a6e0       _vfwprintf_s               1004b6e0 f   LIBCMTD:vfwprint.obj
 0001:0004a700       __woutput_l                1004b700 f   LIBCMTD:woutput.obj
 0001:0004bcf0       __woutput_s_l              1004ccf0 f   LIBCMTD:woutputs.obj
 0001:0004d440       __validate_param_reuseW    1004e440 f   LIBCMTD:woutputp.obj
 0001:0004d720       __woutput_p_l              1004e720 f   LIBCMTD:woutputp.obj
 0001:00051220       _wcsncpy_s                 10052220 f   LIBCMTD:wcsncpy_s.obj
 0001:00051a90       ?_RTC_GetSrcLine@@YAHPAEPA_WKPAH1K@Z 10052a90 f   LIBCMTD:pdblkup.obj
 0001:00051d40       __CrtDbgReport             10052d40 f   LIBCMTD:dbgrpt.obj
 0001:00051d90       __CrtDbgReportV            10052d90 f i LIBCMTD:dbgrpt.obj
 0001:00051dc0       __CrtSetReportHook2        10052dc0 f   LIBCMTD:dbgrpt.obj
 0001:00052110       ___crtMessageWindowA       10053110 f   LIBCMTD:dbgrpt.obj
 0001:000525c0       ___addlocaleref            100535c0 f   LIBCMTD:localref.obj
 0001:000526e0       ___freetlocinfo            100536e0 f   LIBCMTD:localref.obj
 0001:000529d0       ___removelocaleref         100539d0 f   LIBCMTD:localref.obj
 0001:00052af0       ___updatetlocinfo          10053af0 f   LIBCMTD:localref.obj
 0001:00052bc0       __updatetlocinfoEx_nolock  10053bc0 f   LIBCMTD:localref.obj
 0001:00052c40       ___isascii                 10053c40 f i LIBCMTD:_ctype.obj
 0001:00052c70       ___iscsym                  10053c70 f i LIBCMTD:_ctype.obj
 0001:00052cb0       ___iscsymf                 10053cb0 f i LIBCMTD:_ctype.obj
 0001:00052cf0       ___toascii                 10053cf0 f i LIBCMTD:_ctype.obj
 0001:00052d00       __isalnum_l                10053d00 f i LIBCMTD:_ctype.obj
 0001:00052d80       __isalpha_l                10053d80 f i LIBCMTD:_ctype.obj
 0001:00052e00       __isblank_l                10053e00 f i LIBCMTD:_ctype.obj
 0001:00052e90       __iscntrl_l                10053e90 f i LIBCMTD:_ctype.obj
 0001:00052f10       __iscsym_l                 10053f10 f i LIBCMTD:_ctype.obj
 0001:00052f50       __iscsymf_l                10053f50 f i LIBCMTD:_ctype.obj
 0001:00052f90       __isdigit_l                10053f90 f i LIBCMTD:_ctype.obj
 0001:00053010       __isgraph_l                10054010 f i LIBCMTD:_ctype.obj
 0001:00053090       __islower_l                10054090 f i LIBCMTD:_ctype.obj
 0001:00053110       __isprint_l                10054110 f i LIBCMTD:_ctype.obj
 0001:00053190       __ispunct_l                10054190 f i LIBCMTD:_ctype.obj
 0001:00053210       __isspace_l                10054210 f i LIBCMTD:_ctype.obj
 0001:00053290       __isupper_l                10054290 f i LIBCMTD:_ctype.obj
 0001:00053310       __isxdigit_l               10054310 f i LIBCMTD:_ctype.obj
 0001:00053390       _isalnum                   10054390 f i LIBCMTD:_ctype.obj
 0001:000533d0       _isalpha                   100543d0 f i LIBCMTD:_ctype.obj
 0001:00053410       _isblank                   10054410 f i LIBCMTD:_ctype.obj
 0001:00053460       _iscntrl                   10054460 f i LIBCMTD:_ctype.obj
 0001:00053490       _isdigit                   10054490 f i LIBCMTD:_ctype.obj
 0001:000534c0       _isgraph                   100544c0 f i LIBCMTD:_ctype.obj
 0001:00053500       _islower                   10054500 f i LIBCMTD:_ctype.obj
 0001:00053530       _isprint                   10054530 f i LIBCMTD:_ctype.obj
 0001:00053570       _ispunct                   10054570 f i LIBCMTD:_ctype.obj
 0001:000535a0       _isspace                   100545a0 f i LIBCMTD:_ctype.obj
 0001:000535d0       _isupper                   100545d0 f i LIBCMTD:_ctype.obj
 0001:00053600       _isxdigit                  10054600 f i LIBCMTD:_ctype.obj
 0001:00053640       __tolower                  10054640 f   LIBCMTD:tolower.obj
 0001:00053650       __tolower_l                10054650 f   LIBCMTD:tolower.obj
 0001:00053890       _tolower                   10054890 f   LIBCMTD:tolower.obj
 0001:000538e0       __fptostr                  100548e0 f   LIBCMTD:_fptostr.obj
 0001:00053c00       ___crt_atoflt_l            10054c00 f   LIBCMTD:atodbl.obj
 0001:00053d10       __atodbl                   10054d10 f   LIBCMTD:atodbl.obj
 0001:00053d30       __atodbl_l                 10054d30 f   LIBCMTD:atodbl.obj
 0001:00053e30       __atoflt                   10054e30 f   LIBCMTD:atodbl.obj
 0001:00053e50       __atoflt_l                 10054e50 f   LIBCMTD:atodbl.obj
 0001:00053e70       __atoldbl                  10054e70 f   LIBCMTD:atodbl.obj
 0001:00053e90       __atoldbl_l                10054e90 f   LIBCMTD:atodbl.obj
 0001:00053f90       ___dtold                   10054f90 f   LIBCMTD:cfout.obj
 0001:000540f0       __fltout2                  100550f0 f   LIBCMTD:cfout.obj
 0001:000541a0       __alldiv                   100551a0 f   LIBCMTD:lldiv.obj
 0001:00054250       __allrem                   10055250 f   LIBCMTD:llrem.obj
 0001:00054310       __aullshr                  10055310 f   LIBCMTD:ullshr.obj
 0001:00054330       __get_output_format        10055330 f   LIBCMTD:outputformat.obj
 0001:00054340       __set_output_format        10055340 f   LIBCMTD:outputformat.obj
 0001:000543e0       __controlfp_s              100553e0 f   LIBCMTD:contrlfp.obj
 0001:000544d0       __fptrap                   100554d0 f   LIBCMTD:crt0fp.obj
 0001:000544e0       __chvalidator              100554e0 f   LIBCMTD:isctype.obj
 0001:00054530       __chvalidator_l            10055530 f   LIBCMTD:isctype.obj
 0001:000545f0       __isctype                  100555f0 f   LIBCMTD:isctype.obj
 0001:00054630       __isctype_l                10055630 f   LIBCMTD:isctype.obj
 0001:00054780       __free_base                10055780 f   LIBCMTD:free.obj
 0001:000547d0       __realloc_base             100557d0 f   LIBCMTD:realloc.obj
 0001:000548d0       __expand_base              100558d0 f   LIBCMTD:expand.obj
 0001:00054a40       __heapchk                  10055a40 f   LIBCMTD:heapchk.obj
 0001:00054a70       __heapset                  10055a70 f   LIBCMTD:heapchk.obj
 0001:00054a80       __scprintf                 10055a80 f   LIBCMTD:sprintf.obj
 0001:00054aa0       __scprintf_l               10055aa0 f   LIBCMTD:sprintf.obj
 0001:00054ad0       __scprintf_p               10055ad0 f   LIBCMTD:sprintf.obj
 0001:00054af0       __scprintf_p_l             10055af0 f   LIBCMTD:sprintf.obj
 0001:00054b20       __snprintf_s               10055b20 f   LIBCMTD:sprintf.obj
 0001:00054b50       __snprintf_s_l             10055b50 f   LIBCMTD:sprintf.obj
 0001:00054b80       __sprintf_l                10055b80 f   LIBCMTD:sprintf.obj
 0001:00054bb0       __sprintf_p                10055bb0 f   LIBCMTD:sprintf.obj
 0001:00054be0       __sprintf_p_l              10055be0 f   LIBCMTD:sprintf.obj
 0001:00054c10       __sprintf_s_l              10055c10 f   LIBCMTD:sprintf.obj
 0001:00054c40       _sprintf                   10055c40 f   LIBCMTD:sprintf.obj
 0001:00054e00       _sprintf_s                 10055e00 f   LIBCMTD:sprintf.obj
 0001:00054e30       __heap_alloc_base          10055e30 f i LIBCMTD:malloc.obj
 0001:00054e90       __malloc_base              10055e90 f   LIBCMTD:malloc.obj
 0001:00054f20       __global_unwind2           10055f20 f   LIBCMTD:exsup.obj
 0001:00054f85       __local_unwind2            10055f85 f   LIBCMTD:exsup.obj
 0001:00055009       __abnormal_termination     10056009 f   LIBCMTD:exsup.obj
 0001:0005502c       __NLG_Notify1              1005602c f   LIBCMTD:exsup.obj
 0001:00055035       __NLG_Notify               10056035 f   LIBCMTD:exsup.obj
 0001:0005504c       __NLG_Dispatch             1005604c     LIBCMTD:exsup.obj
 0001:0005504c       __NLG_Dispatch2            1005604c     LIBCMTD:exsup.obj
 0001:00055054       __NLG_Call                 10056054 f   LIBCMTD:exsup.obj
 0001:00055056       __NLG_Return2              10056056     LIBCMTD:exsup.obj
 0001:00055060       ?_ValidateExecute@@YAHP6GHXZ@Z 10056060 f   LIBCMTD:validate.obj
 0001:00055080       ?_ValidateRead@@YAHPBXI@Z  10056080 f   LIBCMTD:validate.obj
 0001:000550a0       ?_ValidateWrite@@YAHPAXI@Z 100560a0 f   LIBCMTD:validate.obj
 0001:000550c0       ___lock_fhandle            100560c0 f   LIBCMTD:osfinfo.obj
 0001:000551b0       __alloc_osfhnd             100561b0 f   LIBCMTD:osfinfo.obj
 0001:00055450       __free_osfhnd              10056450 f   LIBCMTD:osfinfo.obj
 0001:00055540       __get_osfhandle            10056540 f   LIBCMTD:osfinfo.obj
 0001:000556c0       __open_osfhandle           100566c0 f   LIBCMTD:osfinfo.obj
 0001:000558f0       __set_osfhnd               100568f0 f   LIBCMTD:osfinfo.obj
 0001:000559c0       __unlock_fhandle           100569c0 f   LIBCMTD:osfinfo.obj
 0001:000559f0       __open                     100569f0 f   LIBCMTD:open.obj
 0001:00055b90       __sopen                    10056b90 f   LIBCMTD:open.obj
 0001:00055c00       __sopen_helper             10056c00 f   LIBCMTD:open.obj
 0001:00055ea0       __sopen_nolock             10056ea0 f   LIBCMTD:open.obj
 0001:00055f10       __sopen_s                  10056f10 f   LIBCMTD:open.obj
 0001:00055f40       __mbsnbcmp                 10056f40 f   LIBCMTD:mbsnbcmp.obj
 0001:00055f60       __mbsnbcmp_l               10056f60 f   LIBCMTD:mbsnbcmp.obj
 0001:00056280       __mbsnbicmp                10057280 f   LIBCMTD:mbsnbicm.obj
 0001:000562a0       __mbsnbicmp_l              100572a0 f   LIBCMTD:mbsnbicm.obj
 0001:000567e0       __output_s_l               100577e0 f   LIBCMTD:outputs.obj
 0001:00058190       __isatty                   10059190 f   LIBCMTD:isatty.obj
 0001:00058250       ___iswcsym                 10059250 f i LIBCMTD:_wctype.obj
 0001:00058290       ___iswcsymf                10059290 f i LIBCMTD:_wctype.obj
 0001:000582d0       __isleadbyte_l             100592d0 f i LIBCMTD:_wctype.obj
 0001:00058320       __iswalnum_l               10059320 f i LIBCMTD:_wctype.obj
 0001:00058340       __iswalpha_l               10059340 f i LIBCMTD:_wctype.obj
 0001:00058360       __iswblank_l               10059360 f i LIBCMTD:_wctype.obj
 0001:00058390       __iswcntrl_l               10059390 f i LIBCMTD:_wctype.obj
 0001:000583b0       __iswcsym_l                100593b0 f i LIBCMTD:_wctype.obj
 0001:000583f0       __iswcsymf_l               100593f0 f i LIBCMTD:_wctype.obj
 0001:00058430       __iswdigit_l               10059430 f i LIBCMTD:_wctype.obj
 0001:00058450       __iswgraph_l               10059450 f i LIBCMTD:_wctype.obj
 0001:00058470       __iswlower_l               10059470 f i LIBCMTD:_wctype.obj
 0001:00058490       __iswprint_l               10059490 f i LIBCMTD:_wctype.obj
 0001:000584b0       __iswpunct_l               100594b0 f i LIBCMTD:_wctype.obj
 0001:000584d0       __iswspace_l               100594d0 f i LIBCMTD:_wctype.obj
 0001:000584f0       __iswupper_l               100594f0 f i LIBCMTD:_wctype.obj
 0001:00058510       __iswxdigit_l              10059510 f i LIBCMTD:_wctype.obj
 0001:00058530       _isleadbyte                10059530 f i LIBCMTD:_wctype.obj
 0001:00058550       _iswalnum                  10059550 f i LIBCMTD:_wctype.obj
 0001:00058570       _iswalpha                  10059570 f i LIBCMTD:_wctype.obj
 0001:00058590       _iswascii                  10059590 f i LIBCMTD:_wctype.obj
 0001:000585c0       _iswblank                  100595c0 f i LIBCMTD:_wctype.obj
 0001:000585f0       _iswcntrl                  100595f0 f i LIBCMTD:_wctype.obj
 0001:00058610       _iswdigit                  10059610 f i LIBCMTD:_wctype.obj
 0001:00058630       _iswgraph                  10059630 f i LIBCMTD:_wctype.obj
 0001:00058650       _iswlower                  10059650 f i LIBCMTD:_wctype.obj
 0001:00058670       _iswprint                  10059670 f i LIBCMTD:_wctype.obj
 0001:00058690       _iswpunct                  10059690 f i LIBCMTD:_wctype.obj
 0001:000586b0       _iswspace                  100596b0 f i LIBCMTD:_wctype.obj
 0001:000586d0       _iswupper                  100596d0 f i LIBCMTD:_wctype.obj
 0001:000586f0       _iswxdigit                 100596f0 f i LIBCMTD:_wctype.obj
 0001:00058710       __wctomb_l                 10059710 f   LIBCMTD:wctomb.obj
 0001:00058790       __wctomb_s_l               10059790 f   LIBCMTD:wctomb.obj
 0001:00058ae0       _wctomb                    10059ae0 f   LIBCMTD:wctomb.obj
 0001:00058b30       _wctomb_s                  10059b30 f   LIBCMTD:wctomb.obj
 0001:00058b50       __lseeki64                 10059b50 f   LIBCMTD:lseeki64.obj
 0001:00058dc0       __lseeki64_nolock          10059dc0 f   LIBCMTD:lseeki64.obj
 0001:00058e90       __getbuf                   10059e90 f   LIBCMTD:_getbuf.obj
 0001:00058f60       ___vswprintf_l             10059f60 f   LIBCMTD:vswprint.obj
 0001:00058f80       __vscwprintf               10059f80 f   LIBCMTD:vswprint.obj
 0001:00058fa0       __vscwprintf_helper        10059fa0 f   LIBCMTD:vswprint.obj
 0001:00059090       __vscwprintf_l             1005a090 f   LIBCMTD:vswprint.obj
 0001:000590b0       __vscwprintf_p             1005a0b0 f   LIBCMTD:vswprint.obj
 0001:000590d0       __vscwprintf_p_l           1005a0d0 f   LIBCMTD:vswprint.obj
 0001:000590f0       __vswprintf                1005a0f0 f   LIBCMTD:vswprint.obj
 0001:00059110       __vswprintf_l              1005a110 f   LIBCMTD:vswprint.obj
 0001:00059330       _strcat_s                  1005a330 f   LIBCMTD:strcat_s.obj
 0001:00059b60       __i64toa_s                 1005ab60 f   LIBCMTD:xtoas.obj
 0001:00059bb0       __itoa_s                   1005abb0 f   LIBCMTD:xtoas.obj
 0001:00059c10       __ltoa_s                   1005ac10 f   LIBCMTD:xtoas.obj
 0001:00059c50       __ui64toa_s                1005ac50 f   LIBCMTD:xtoas.obj
 0001:00059c70       __ultoa_s                  1005ac70 f   LIBCMTD:xtoas.obj
 0001:0005a070       __mbstowcs_l               1005b070 f   LIBCMTD:mbstowcs.obj
 0001:0005a090       __mbstowcs_l_helper        1005b090 f   LIBCMTD:mbstowcs.obj
 0001:0005a420       __mbstowcs_s_l             1005b420 f   LIBCMTD:mbstowcs.obj
 0001:0005a7e0       _mbstowcs                  1005b7e0 f   LIBCMTD:mbstowcs.obj
 0001:0005a830       _mbstowcs_s                1005b830 f   LIBCMTD:mbstowcs.obj
 0001:0005a8c0       __wcstombs_l               1005b8c0 f   LIBCMTD:wcstombs.obj
 0001:0005a8e0       __wcstombs_l_helper        1005b8e0 f   LIBCMTD:wcstombs.obj
 0001:0005adf0       __wcstombs_s_l             1005bdf0 f   LIBCMTD:wcstombs.obj
 0001:0005b150       _wcstombs                  1005c150 f   LIBCMTD:wcstombs.obj
 0001:0005b170       _wcstombs_s                1005c170 f   LIBCMTD:wcstombs.obj
 0001:0005b1a0       __vsnprintf_c              1005c1a0 f   LIBCMTD:vsnprnc.obj
 0001:0005b1f0       __vsnprintf_c_l            1005c1f0 f   LIBCMTD:vsnprnc.obj
 0001:0005b240       __vsnprintf_helper         1005c240 f   LIBCMTD:vsnprnc.obj
 0001:0005b440       __vsnprintf_s              1005c440 f   LIBCMTD:vsnprnc.obj
 0001:0005b470       __vsnprintf_s_l            1005c470 f   LIBCMTD:vsnprnc.obj
 0001:0005b830       __vsprintf_p               1005c830 f   LIBCMTD:vsnprnc.obj
 0001:0005b880       __vsprintf_p_l             1005c880 f   LIBCMTD:vsnprnc.obj
 0001:0005b8d0       __vsprintf_s_l             1005c8d0 f   LIBCMTD:vsnprnc.obj
 0001:0005bb60       _vsprintf_s                1005cb60 f   LIBCMTD:vsnprnc.obj
 0001:0005bb80       ??0Block@_HeapManager@@QAE@XZ 1005cb80 f i LIBCMTD:undname.obj
 0001:0005bba0       ??0DName@@QAE@AAPBDD@Z     1005cba0 f   LIBCMTD:undname.obj
 0001:0005be60       ??0DName@@QAE@ABV0@@Z      1005ce60 f i LIBCMTD:undname.obj
 0001:0005be80       ??0DName@@QAE@D@Z          1005ce80 f   LIBCMTD:undname.obj
 0001:0005bf60       ??0DName@@QAE@PAV0@@Z      1005cf60 f   LIBCMTD:undname.obj
 0001:0005c0a0       ??0DName@@QAE@PBD@Z        1005d0a0 f   LIBCMTD:undname.obj
 0001:0005c190       ??0DName@@QAE@W4DNameStatus@@@Z 1005d190 f   LIBCMTD:undname.obj
 0001:0005c2b0       ??0DName@@QAE@XZ           1005d2b0 f i LIBCMTD:undname.obj
 0001:0005c370       ??0DName@@QAE@_J@Z         1005d370 f   LIBCMTD:undname.obj
 0001:0005c4f0       ??0DName@@QAE@_K@Z         1005d4f0 f   LIBCMTD:undname.obj
 0001:0005c630       ??0DNameNode@@IAE@XZ       1005d630 f   LIBCMTD:undname.obj
 0001:0005c650       ??0DNameStatusNode@@AAE@W4DNameStatus@@@Z 1005d650 f   LIBCMTD:undname.obj
 0001:0005c6a0       ??0Replicator@@QAE@XZ      1005d6a0 f i LIBCMTD:undname.obj
 0001:0005c6c0       ??0UnDecorator@@QAE@PADPBDHP6APADJ@ZK@Z 1005d6c0 f i LIBCMTD:undname.obj
 0001:0005c760       ??0charNode@@QAE@D@Z       1005d760 f   LIBCMTD:undname.obj
 0001:0005c790       ??0pDNameNode@@QAE@PAVDName@@@Z 1005d790 f   LIBCMTD:undname.obj
 0001:0005c7f0       ??0pairNode@@QAE@PAVDNameNode@@0@Z 1005d7f0 f   LIBCMTD:undname.obj
 0001:0005c830       ??0pcharNode@@QAE@PBDH@Z   1005d830 f   LIBCMTD:undname.obj
 0001:0005c8d0       ??2@YAPAXIAAV_HeapManager@@H@Z 1005d8d0 f i LIBCMTD:undname.obj
 0001:0005c8f0       ??4DName@@QAEAAV0@ABV0@@Z  1005d8f0 f   LIBCMTD:undname.obj
 0001:0005c910       ??4DName@@QAEAAV0@D@Z      1005d910 f i LIBCMTD:undname.obj
 0001:0005c9f0       ??4DName@@QAEAAV0@PAV0@@Z  1005d9f0 f   LIBCMTD:undname.obj
 0001:0005cb20       ??4DName@@QAEAAV0@PBD@Z    1005db20 f   LIBCMTD:undname.obj
 0001:0005cc00       ??4DName@@QAEAAV0@W4DNameStatus@@@Z 1005dc00 f   LIBCMTD:undname.obj
 0001:0005cd00       ??AReplicator@@QBE?AVDName@@H@Z 1005dd00 f   LIBCMTD:undname.obj
 0001:0005cd70       ??BUnDecorator@@QAEPADXZ   1005dd70 f i LIBCMTD:undname.obj
 0001:0005d020       ??H@YA?AVDName@@DABV0@@Z   1005e020 f i LIBCMTD:undname.obj
 0001:0005d050       ??H@YA?AVDName@@PBDABV0@@Z 1005e050 f i LIBCMTD:undname.obj
 0001:0005d080       ??H@YA?AVDName@@W4DNameStatus@@ABV0@@Z 1005e080 f i LIBCMTD:undname.obj
 0001:0005d0b0       ??HDName@@QBE?AV0@ABV0@@Z  1005e0b0 f   LIBCMTD:undname.obj
 0001:0005d0f0       ??HDName@@QBE?AV0@D@Z      1005e0f0 f   LIBCMTD:undname.obj
 0001:0005d130       ??HDName@@QBE?AV0@PAV0@@Z  1005e130 f   LIBCMTD:undname.obj
 0001:0005d170       ??HDName@@QBE?AV0@PBD@Z    1005e170 f   LIBCMTD:undname.obj
 0001:0005d1b0       ??HDName@@QBE?AV0@W4DNameStatus@@@Z 1005e1b0 f   LIBCMTD:undname.obj
 0001:0005d1f0       ??YDName@@QAEAAV0@ABV0@@Z  1005e1f0 f   LIBCMTD:undname.obj
 0001:0005d260       ??YDName@@QAEAAV0@D@Z      1005e260 f   LIBCMTD:undname.obj
 0001:0005d2e0       ??YDName@@QAEAAV0@PAV0@@Z  1005e2e0 f   LIBCMTD:undname.obj
 0001:0005d390       ??YDName@@QAEAAV0@PBD@Z    1005e390 f   LIBCMTD:undname.obj
 0001:0005d430       ??YDName@@QAEAAV0@W4DNameStatus@@@Z 1005e430 f   LIBCMTD:undname.obj
 0001:0005d490       ??YReplicator@@QAEAAV0@ABVDName@@@Z 1005e490 f   LIBCMTD:undname.obj
 0001:0005d520       ??_5DName@@QAEAAV0@ABV0@@Z 1005e520 f   LIBCMTD:undname.obj
 0001:0005d580       ?Constructor@_HeapManager@@QAEXP6APAXI@ZP6AXPAX@Z@Z 1005e580 f i LIBCMTD:undname.obj
 0001:0005d5c0       ?Destructor@_HeapManager@@QAEXXZ 1005e5c0 f i LIBCMTD:undname.obj
 0001:0005d610       ?UScore@UnDecorator@@SAPBDW4Tokens@@@Z 1005e610 f   LIBCMTD:undname.obj
 0001:0005d640       ?append@DName@@AAEXPAVDNameNode@@@Z 1005e640 f   LIBCMTD:undname.obj
 0001:0005d6d0       ?composeDeclaration@UnDecorator@@CA?AVDName@@ABV2@@Z 1005e6d0 f i LIBCMTD:undname.obj
 0001:0005f350       ?dbGetString@DName@@QBEPADXZ 10060350 f   LIBCMTD:undname.obj
 0001:0005f370       ?doAccessSpecifiers@UnDecorator@@SAHXZ 10060370 f i LIBCMTD:undname.obj
 0001:0005f3a0       ?doAllocationLanguage@UnDecorator@@SAHXZ 100603a0 f i LIBCMTD:undname.obj
 0001:0005f3d0       ?doAllocationModel@UnDecorator@@SAHXZ 100603d0 f i LIBCMTD:undname.obj
 0001:0005f400       ?doEcsu@UnDecorator@@SAHXZ 10060400 f i LIBCMTD:undname.obj
 0001:0005f430       ?doEllipsis@UnDecorator@@SAHXZ 10060430 f i LIBCMTD:undname.obj
 0001:0005f460       ?doFunctionReturns@UnDecorator@@SAHXZ 10060460 f i LIBCMTD:undname.obj
 0001:0005f490       ?doMSKeywords@UnDecorator@@SAHXZ 10060490 f i LIBCMTD:undname.obj
 0001:0005f4c0       ?doMemberTypes@UnDecorator@@SAHXZ 100604c0 f i LIBCMTD:undname.obj
 0001:0005f4f0       ?doNameOnly@UnDecorator@@SAHXZ 100604f0 f i LIBCMTD:undname.obj
 0001:0005f500       ?doNoIdentCharCheck@UnDecorator@@SAHXZ 10060500 f i LIBCMTD:undname.obj
 0001:0005f510       ?doPchar@DName@@AAEXPBDH@Z 10060510 f   LIBCMTD:undname.obj
 0001:0005f650       ?doPtr64@UnDecorator@@SAHXZ 10060650 f i LIBCMTD:undname.obj
 0001:0005f680       ?doRestrictionSpec@UnDecorator@@SAHXZ 10060680 f i LIBCMTD:undname.obj
 0001:0005f6b0       ?doThisTypes@UnDecorator@@SAHXZ 100606b0 f i LIBCMTD:undname.obj
 0001:0005f6e0       ?doThrowTypes@UnDecorator@@SAHXZ 100606e0 f i LIBCMTD:undname.obj
 0001:0005f710       ?doTypeOnly@UnDecorator@@SAHXZ 10060710 f i LIBCMTD:undname.obj
 0001:0005f720       ?doUnderScore@UnDecorator@@SAHXZ 10060720 f i LIBCMTD:undname.obj
 0001:0005f750       ?getArgumentList@UnDecorator@@CA?AVDName@@XZ 10060750 f   LIBCMTD:undname.obj
 0001:0005f8a0       ?getArgumentTypes@UnDecorator@@CA?AVDName@@XZ 100608a0 f   LIBCMTD:undname.obj
 0001:0005fa00       ?getArrayType@UnDecorator@@CA?AVDName@@ABV2@@Z 10060a00 f i LIBCMTD:undname.obj
 0001:0005fc40       ?getBasedType@UnDecorator@@CA?AVDName@@XZ 10060c40 f   LIBCMTD:undname.obj
 0001:0005fd00       ?getBasicDataType@UnDecorator@@CA?AVDName@@ABV2@@Z 10060d00 f   LIBCMTD:undname.obj
 0001:000602c0       ?getCallIndex@UnDecorator@@CA?AVDName@@XZ 100612c0 f i LIBCMTD:undname.obj
 0001:000602e0       ?getCallingConvention@UnDecorator@@CA?AVDName@@XZ 100612e0 f   LIBCMTD:undname.obj
 0001:00060470       ?getDataIndirectType@UnDecorator@@CA?AVDName@@ABV2@PBD0H@Z 10061470 f   LIBCMTD:undname.obj
 0001:00060b90       ?getDataIndirectType@UnDecorator@@CA?AVDName@@XZ 10061b90 f i LIBCMTD:undname.obj
 0001:00060bd0       ?getDataType@UnDecorator@@CA?AVDName@@PAV2@@Z 10061bd0 f   LIBCMTD:undname.obj
 0001:00060cf0       ?getDecoratedName@UnDecorator@@CA?AVDName@@XZ 10061cf0 f   LIBCMTD:undname.obj
 0001:00061010       ?getDimension@UnDecorator@@CA?AVDName@@_N@Z 10062010 f   LIBCMTD:undname.obj
 0001:000612c0       ?getDispatchTarget@UnDecorator@@CA?AVDName@@XZ 100622c0 f   LIBCMTD:undname.obj
 0001:00061360       ?getDisplacement@UnDecorator@@CA?AVDName@@XZ 10062360 f i LIBCMTD:undname.obj
 0001:00061380       ?getECSUDataType@UnDecorator@@CA?AVDName@@XZ 10062380 f   LIBCMTD:undname.obj
 0001:00061550       ?getECSUName@UnDecorator@@CA?AVDName@@XZ 10062550 f i LIBCMTD:undname.obj
 0001:00061570       ?getEnumType@UnDecorator@@CA?AVDName@@XZ 10062570 f i LIBCMTD:undname.obj
 0001:000616c0       ?getExtendedDataIndirectType@UnDecorator@@CA?AVDName@@AAPBDAA_NH@Z 100626c0 f   LIBCMTD:undname.obj
 0001:00061910       ?getExternalDataType@UnDecorator@@CA?AVDName@@ABV2@@Z 10062910 f i LIBCMTD:undname.obj
 0001:000619a0       ?getFunctionIndirectType@UnDecorator@@CA?AVDName@@ABV2@@Z 100629a0 f   LIBCMTD:undname.obj
 0001:00061e10       ?getGuardNumber@UnDecorator@@CA?AVDName@@XZ 10062e10 f i LIBCMTD:undname.obj
 0001:00061e30       ?getLastChar@DName@@QBEDXZ 10062e30 f i LIBCMTD:undname.obj
 0001:00061e60       ?getLastChar@DNameStatusNode@@UBEDXZ 10062e60 f i LIBCMTD:undname.obj
 0001:00061e90       ?getLastChar@charNode@@UBEDXZ 10062e90 f i LIBCMTD:undname.obj
 0001:00061eb0       ?getLastChar@pDNameNode@@UBEDXZ 10062eb0 f i LIBCMTD:undname.obj
 0001:00061ee0       ?getLastChar@pairNode@@UBEDXZ 10062ee0 f i LIBCMTD:undname.obj
 0001:00061f30       ?getLastChar@pcharNode@@UBEDXZ 10062f30 f i LIBCMTD:undname.obj
 0001:00061f70       ?getLexicalFrame@UnDecorator@@CA?AVDName@@XZ 10062f70 f i LIBCMTD:undname.obj
 0001:00061fb0       ?getMemory@_HeapManager@@QAEPAXIH@Z 10062fb0 f   LIBCMTD:undname.obj
 0001:000620c0       ?getNumberOfDimensions@UnDecorator@@CAHXZ 100630c0 f   LIBCMTD:undname.obj
 0001:000621c0       ?getOperatorName@UnDecorator@@CA?AVDName@@_NPA_N@Z 100631c0 f i LIBCMTD:undname.obj
 0001:00062b50       ?getPointerType@UnDecorator@@CA?AVDName@@ABV2@0@Z 10063b50 f i LIBCMTD:undname.obj
 0001:00062b80       ?getPointerTypeArray@UnDecorator@@CA?AVDName@@ABV2@0@Z 10063b80 f i LIBCMTD:undname.obj
 0001:00062bb0       ?getPrimaryDataType@UnDecorator@@CA?AVDName@@ABV2@@Z 10063bb0 f   LIBCMTD:undname.obj
 0001:00062f50       ?getPtrRefDataType@UnDecorator@@CA?AVDName@@ABV2@H@Z 10063f50 f i LIBCMTD:undname.obj
 0001:00063090       ?getPtrRefType@UnDecorator@@CA?AVDName@@ABV2@0PBD@Z 10064090 f   LIBCMTD:undname.obj
 0001:00063200       ?getReferenceType@UnDecorator@@CA?AVDName@@ABV2@0PBD@Z 10064200 f i LIBCMTD:undname.obj
 0001:00063220       ?getRestrictionSpec@UnDecorator@@CA?AVDName@@XZ 10064220 f   LIBCMTD:undname.obj
 0001:00063370       ?getReturnType@UnDecorator@@CA?AVDName@@PAV2@@Z 10064370 f   LIBCMTD:undname.obj
 0001:000633c0       ?getScope@UnDecorator@@CA?AVDName@@XZ 100643c0 f   LIBCMTD:undname.obj
 0001:000638b0       ?getScopedName@UnDecorator@@CA?AVDName@@XZ 100648b0 f   LIBCMTD:undname.obj
 0001:000639d0       ?getSignedDimension@UnDecorator@@CA?AVDName@@XZ 100649d0 f   LIBCMTD:undname.obj
 0001:00063a50       ?getStorageConvention@UnDecorator@@CA?AVDName@@XZ 10064a50 f i LIBCMTD:undname.obj
 0001:00063a70       ?getString@DName@@QBEPADPAD0@Z 10064a70 f i LIBCMTD:undname.obj
 0001:00063ab0       ?getString@DName@@QBEPADPADH@Z 10064ab0 f i LIBCMTD:undname.obj
 0001:00063b40       ?getString@DNameStatusNode@@UBEPADPAD0@Z 10064b40 f i LIBCMTD:undname.obj
 0001:00063b80       ?getString@charNode@@UBEPADPAD0@Z 10064b80 f i LIBCMTD:undname.obj
 0001:00063bb0       ?getString@pDNameNode@@UBEPADPAD0@Z 10064bb0 f i LIBCMTD:undname.obj
 0001:00063bf0       ?getString@pairNode@@UBEPADPAD0@Z 10064bf0 f i LIBCMTD:undname.obj
 0001:00063c50       ?getString@pcharNode@@UBEPADPAD0@Z 10064c50 f i LIBCMTD:undname.obj
 0001:00063c80       ?getStringEncoding@UnDecorator@@CA?AVDName@@PADH@Z 10064c80 f   LIBCMTD:undname.obj
 0001:00063d90       ?getStringHelper@@YAPADPAD00H@Z 10064d90 f i LIBCMTD:undname.obj
 0001:00063dd0       ?getSymbolName@UnDecorator@@CA?AVDName@@XZ 10064dd0 f i LIBCMTD:undname.obj
 0001:00063e60       ?getTemplateArgumentList@UnDecorator@@CA?AVDName@@XZ 10064e60 f   LIBCMTD:undname.obj
 0001:00064180       ?getTemplateConstant@UnDecorator@@CA?AVDName@@XZ 10065180 f   LIBCMTD:undname.obj
 0001:00064670       ?getTemplateName@UnDecorator@@CA?AVDName@@_N@Z 10065670 f   LIBCMTD:undname.obj
 0001:00064840       ?getThisType@UnDecorator@@CA?AVDName@@XZ 10065840 f i LIBCMTD:undname.obj
 0001:00064880       ?getThrowTypes@UnDecorator@@CA?AVDName@@XZ 10065880 f   LIBCMTD:undname.obj
 0001:00064930       ?getTypeEncoding@UnDecorator@@CAHXZ 10065930 f i LIBCMTD:undname.obj
 0001:00065370       ?getVCallThunkType@UnDecorator@@CA?AVDName@@XZ 10066370 f i LIBCMTD:undname.obj
 0001:000653d0       ?getVbTableType@UnDecorator@@CA?AVDName@@ABV2@@Z 100663d0 f i LIBCMTD:undname.obj
 0001:000653f0       ?getVdispMapType@UnDecorator@@CA?AVDName@@ABV2@@Z 100663f0 f i LIBCMTD:undname.obj
 0001:00065460       ?getVfTableType@UnDecorator@@CA?AVDName@@ABV2@@Z 10066460 f i LIBCMTD:undname.obj
 0001:00065620       ?getZName@UnDecorator@@CA?AVDName@@_N0@Z 10066620 f   LIBCMTD:undname.obj
 0001:000658d0       ?haveTemplateParameters@UnDecorator@@SAHXZ 100668d0 f i LIBCMTD:undname.obj
 0001:000658e0       ?isArray@DName@@QBEHXZ     100668e0 f i LIBCMTD:undname.obj
 0001:00065900       ?isComArray@DName@@QBEHXZ  10066900 f i LIBCMTD:undname.obj
 0001:00065920       ?isEmpty@DName@@QBEHXZ     10066920 f i LIBCMTD:undname.obj
 0001:00065950       ?isFull@Replicator@@QBEHXZ 10066950 f i LIBCMTD:undname.obj
 0001:00065980       ?isNoTE@DName@@QBEHXZ      10066980 f i LIBCMTD:undname.obj
 0001:000659a0       ?isPinPtr@DName@@QBEHXZ    100669a0 f i LIBCMTD:undname.obj
 0001:000659c0       ?isPtrRef@DName@@QBEHXZ    100669c0 f i LIBCMTD:undname.obj
 0001:000659e0       ?isUDC@DName@@QBEHXZ       100669e0 f i LIBCMTD:undname.obj
 0001:00065a20       ?isUDTThunk@DName@@QBEHXZ  10066a20 f i LIBCMTD:undname.obj
 0001:00065a60       ?isVCallThunk@DName@@QBEHXZ 10066a60 f i LIBCMTD:undname.obj
 0001:00065a80       ?isValid@DName@@QBEHXZ     10066a80 f i LIBCMTD:undname.obj
 0001:00065ac0       ?length@DName@@QBEHXZ      10066ac0 f i LIBCMTD:undname.obj
 0001:00065af0       ?length@DNameStatusNode@@UBEHXZ 10066af0 f i LIBCMTD:undname.obj
 0001:00065b10       ?length@charNode@@UBEHXZ   10066b10 f i LIBCMTD:undname.obj
 0001:00065b20       ?length@pDNameNode@@UBEHXZ 10066b20 f i LIBCMTD:undname.obj
 0001:00065b50       ?length@pairNode@@UBEHXZ   10066b50 f i LIBCMTD:undname.obj
 0001:00065ba0       ?length@pcharNode@@UBEHXZ  10066ba0 f i LIBCMTD:undname.obj
 0001:00065bc0       ?make@DNameStatusNode@@SAPAV1@W4DNameStatus@@@Z 10066bc0 f i LIBCMTD:undname.obj
 0001:00065c70       ?setIsArray@DName@@QAEXXZ  10066c70 f i LIBCMTD:undname.obj
 0001:00065c90       ?setIsComArray@DName@@QAEXXZ 10066c90 f i LIBCMTD:undname.obj
 0001:00065cb0       ?setIsNoTE@DName@@QAEXXZ   10066cb0 f i LIBCMTD:undname.obj
 0001:00065cd0       ?setIsPinPtr@DName@@QAEXXZ 10066cd0 f i LIBCMTD:undname.obj
 0001:00065cf0       ?setIsUDC@DName@@QAEXXZ    10066cf0 f i LIBCMTD:undname.obj
 0001:00065d20       ?setIsVCallThunk@DName@@QAEXXZ 10066d20 f i LIBCMTD:undname.obj
 0001:00065d40       ?setPtrRef@DName@@QAEAAV1@XZ 10066d40 f i LIBCMTD:undname.obj
 0001:00065d60       ?status@DName@@QBE?AW4DNameStatus@@XZ 10066d60 f i LIBCMTD:undname.obj
 0001:00065e60       ___unDName                 10066e60 f   LIBCMTD:undname.obj
 0001:00065f40       ___unDNameEx               10066f40 f   LIBCMTD:undname.obj
 0001:00066020       __mbtowc_l                 10067020 f   LIBCMTD:mbtowc.obj
 0001:00066260       _mbtowc                    10067260 f   LIBCMTD:mbtowc.obj
 0001:00066280       __putwch                   10067280 f   LIBCMTD:putwch.obj
 0001:00066310       __putwch_nolock            10067310 f   LIBCMTD:putwch.obj
 0001:00066360       _strncpy_s                 10067360 f   LIBCMTD:strncpy_s.obj
 0001:000668b0       __MallocaIsSizeInRange     100678b0 f i LIBCMTD:a_loc.obj
 0001:000668e0       __MarkAllocaS              100678e0 f i LIBCMTD:a_loc.obj
 0001:00066900       ___crtGetLocaleInfoA       10067900 f   LIBCMTD:a_loc.obj
 0001:00066950       __freea                    10067950 f i LIBCMTD:a_loc.obj
 0001:000669c0       _GetTableIndexFromLcid     100679c0 f   LIBCMTD:winapinls.obj
 0001:00066a30       _GetTableIndexFromLocaleName 10067a30 f   LIBCMTD:winapinls.obj
 0001:00066ac0       ___crtCompareStringEx      10067ac0 f   LIBCMTD:winapinls.obj
 0001:00066b30       ___crtDownlevelLCIDToLocaleName 10067b30 f   LIBCMTD:winapinls.obj
 0001:00066c00       ___crtDownlevelLocaleNameToLCID 10067c00 f   LIBCMTD:winapinls.obj
 0001:00066c60       ___crtEnumSystemLocalesEx  10067c60 f   LIBCMTD:winapinls.obj
 0001:00066cd0       ___crtGetDateFormatEx      10067cd0 f   LIBCMTD:winapinls.obj
 0001:00066d40       ___crtGetLocaleInfoEx      10067d40 f   LIBCMTD:winapinls.obj
 0001:00066da0       ___crtGetTimeFormatEx      10067da0 f   LIBCMTD:winapinls.obj
 0001:00066e10       ___crtGetUserDefaultLocaleName 10067e10 f   LIBCMTD:winapinls.obj
 0001:00066e60       ___crtIsValidLocaleName    10067e60 f   LIBCMTD:winapinls.obj
 0001:00066ea0       ___crtLCMapStringEx        10067ea0 f   LIBCMTD:winapinls.obj
 0001:00066f10       ___wcsnicmp_ascii          10067f10 f   LIBCMTD:winapinls.obj
 0001:000670a0       __ismbbalnum               100680a0 f   LIBCMTD:ismbbyte.obj
 0001:000670c0       __ismbbalnum_l             100680c0 f   LIBCMTD:ismbbyte.obj
 0001:000670e0       __ismbbalpha               100680e0 f   LIBCMTD:ismbbyte.obj
 0001:00067100       __ismbbalpha_l             10068100 f   LIBCMTD:ismbbyte.obj
 0001:00067120       __ismbbblank               10068120 f   LIBCMTD:ismbbyte.obj
 0001:00067150       __ismbbblank_l             10068150 f   LIBCMTD:ismbbyte.obj
 0001:00067190       __ismbbgraph               10068190 f   LIBCMTD:ismbbyte.obj
 0001:000671b0       __ismbbgraph_l             100681b0 f   LIBCMTD:ismbbyte.obj
 0001:000671d0       __ismbbkalnum              100681d0 f   LIBCMTD:ismbbyte.obj
 0001:000671f0       __ismbbkalnum_l            100681f0 f   LIBCMTD:ismbbyte.obj
 0001:00067210       __ismbbkana                10068210 f   LIBCMTD:ismbbyte.obj
 0001:00067230       __ismbbkana_l              10068230 f   LIBCMTD:ismbbyte.obj
 0001:000672a0       __ismbbkprint              100682a0 f   LIBCMTD:ismbbyte.obj
 0001:000672c0       __ismbbkprint_l            100682c0 f   LIBCMTD:ismbbyte.obj
 0001:000672e0       __ismbbkpunct              100682e0 f   LIBCMTD:ismbbyte.obj
 0001:00067300       __ismbbkpunct_l            10068300 f   LIBCMTD:ismbbyte.obj
 0001:00067320       __ismbblead                10068320 f   LIBCMTD:ismbbyte.obj
 0001:00067340       __ismbblead_l              10068340 f   LIBCMTD:ismbbyte.obj
 0001:00067360       __ismbbprint               10068360 f   LIBCMTD:ismbbyte.obj
 0001:00067380       __ismbbprint_l             10068380 f   LIBCMTD:ismbbyte.obj
 0001:000673a0       __ismbbpunct               100683a0 f   LIBCMTD:ismbbyte.obj
 0001:000673c0       __ismbbpunct_l             100683c0 f   LIBCMTD:ismbbyte.obj
 0001:000673e0       __ismbbtrail               100683e0 f   LIBCMTD:ismbbyte.obj
 0001:00067400       __ismbbtrail_l             10068400 f   LIBCMTD:ismbbyte.obj
 0001:00067750       ___crtLCMapStringA         10068750 f   LIBCMTD:a_map.obj
 0001:000678f0       ___crtGetStringTypeA       100688f0 f   LIBCMTD:a_str.obj
 0001:00067e40       __strtol_l                 10068e40 f   LIBCMTD:strtol.obj
 0001:00067e60       __strtoul_l                10068e60 f   LIBCMTD:strtol.obj
 0001:00067e80       _strtol                    10068e80 f   LIBCMTD:strtol.obj
 0001:00067ed0       _strtoul                   10068ed0 f   LIBCMTD:strtol.obj
 0001:00067f20       __fputwc_nolock            10068f20 f   LIBCMTD:fputwc.obj
 0001:00068210       _fputwc                    10069210 f   LIBCMTD:fputwc.obj
 0001:00068320       _putwc                     10069320 f   LIBCMTD:fputwc.obj
 0001:00068700       __wcstol_l                 10069700 f   LIBCMTD:wcstol.obj
 0001:00068720       __wcstoul_l                10069720 f   LIBCMTD:wcstol.obj
 0001:00068740       _wcstol                    10069740 f   LIBCMTD:wcstol.obj
 0001:00068760       _wcstoul                   10069760 f   LIBCMTD:wcstol.obj
 0001:00068780       __wmakepath_s              10069780 f   LIBCMTD:wmakepath_s.obj
 0001:00068b40       __wsplitpath_s             10069b40 f   LIBCMTD:wsplitpath_s.obj
 0001:00069180       ___free_lconv_mon          1006a180 f   LIBCMTD:initmon.obj
 0001:00069330       ___init_monetary           1006a330 f   LIBCMTD:initmon.obj
 0001:00069940       ___free_lconv_num          1006a940 f   LIBCMTD:initnum.obj
 0001:000699f0       ___init_numeric            1006a9f0 f   LIBCMTD:initnum.obj
 0001:00069dc0       ___free_lc_time            1006adc0 f   LIBCMTD:inittime.obj
 0001:0006a6f0       ___init_time               1006b6f0 f   LIBCMTD:inittime.obj
 0001:0006b6f0       _localeconv                1006c6f0 f   LIBCMTD:lconv.obj
 0001:0006b740       ___init_dummy              1006c740 f   LIBCMTD:wsetloca.obj
 0001:0006b750       __locterm                  1006c750 f   LIBCMTD:wsetloca.obj
 0001:0006b7e0       ____setlc_active_func      1006c7e0 f   LIBCMTD:wsetloca.obj
 0001:0006b7f0       ____unguarded_readlc_active_add_func 1006c7f0 f   LIBCMTD:wsetloca.obj
 0001:0006b800       ___copy_locale_name        1006c800 f   LIBCMTD:wsetloca.obj
 0001:0006b8a0       ___create_locale           1006c8a0 f   LIBCMTD:wsetloca.obj
 0001:0006b8c0       ___free_locale             1006c8c0 f   LIBCMTD:wsetloca.obj
 0001:0006b8e0       ___get_current_locale      1006c8e0 f   LIBCMTD:wsetloca.obj
 0001:0006b8f0       ___lc_lctowcs              1006c8f0 f   LIBCMTD:wsetloca.obj
 0001:0006b9a0       ___lc_wcstolc              1006c9a0 f   LIBCMTD:wsetloca.obj
 0001:0006bbc0       __configthreadlocale       1006cbc0 f   LIBCMTD:wsetloca.obj
 0001:0006bd20       __create_locale            1006cd20 f   LIBCMTD:wsetloca.obj
 0001:0006bd90       __expandlocale             1006cd90 f   LIBCMTD:wsetloca.obj
 0001:0006c280       __free_locale              1006d280 f   LIBCMTD:wsetloca.obj
 0001:0006c3b0       __get_current_locale       1006d3b0 f   LIBCMTD:wsetloca.obj
 0001:0006c4d0       __wcreate_locale           1006d4d0 f   LIBCMTD:wsetloca.obj
 0001:0006c6c0       __wcscats                  1006d6c0 f   LIBCMTD:wsetloca.obj
 0001:0006c740       __wsetlocale               1006d740 f   LIBCMTD:wsetloca.obj
 0001:0006d7d0       __CopyMan                  1006e7d0 f i LIBCMTD:intrncvt.obj
 0001:0006d820       __FillZeroMan              1006e820 f i LIBCMTD:intrncvt.obj
 0001:0006d850       __IncMan                   1006e850 f i LIBCMTD:intrncvt.obj
 0001:0006d900       __IsZeroMan                1006e900 f i LIBCMTD:intrncvt.obj
 0001:0006d940       __RoundMan                 1006e940 f i LIBCMTD:intrncvt.obj
 0001:0006da20       __ShrMan                   1006ea20 f i LIBCMTD:intrncvt.obj
 0001:0006db10       __ZeroTail                 1006eb10 f i LIBCMTD:intrncvt.obj
 0001:0006dba0       ___addl                    1006eba0 f i LIBCMTD:intrncvt.obj
 0001:0006dbe0       __ld12cvt                  1006ebe0 f i LIBCMTD:intrncvt.obj
 0001:0006dea0       __ld12tod                  1006eea0 f   LIBCMTD:intrncvt.obj
 0001:0006dec0       __ld12tof                  1006eec0 f   LIBCMTD:intrncvt.obj
 0001:0006dee0       __ld12told                 1006eee0 f   LIBCMTD:intrncvt.obj
 0001:0006dfe0       ___STRINGTOLD_L            1006efe0 f   LIBCMTD:strgtold.obj
 0001:0006e050       ___ld12mul                 1006f050 f i LIBCMTD:strgtold.obj
 0001:0006e460       ___multtenpow12            1006f460 f i LIBCMTD:strgtold.obj
 0001:0006e540       ___shl_12                  1006f540 f i LIBCMTD:strgtold.obj
 0001:0006e5c0       ___shr_12                  1006f5c0 f i LIBCMTD:strgtold.obj
 0001:0006e640       ___strgtold12_l            1006f640 f   LIBCMTD:strgtold.obj
 0001:0006f130       _$I10_OUTPUT               10070130 f   LIBCMTD:x10fout.obj
 0001:0006f740       ___add_12                  10070740 f i LIBCMTD:x10fout.obj
 0001:0006f7f0       ___pctype_func             100707f0 f   LIBCMTD:ctype.obj
 0001:0006f840       ___pwctype_func            10070840 f   LIBCMTD:ctype.obj
 0001:0006fa50       ___control87_2             10070a50 f   LIBCMTD:ieee87.obj
 0001:0006fef0       __clearfp                  10070ef0 f   LIBCMTD:ieee87.obj
 0001:0006ff30       __control87                10070f30 f i LIBCMTD:ieee87.obj
 0001:0006ffe0       __controlfp                10070fe0 f   LIBCMTD:ieee87.obj
 0001:00070000       __fpreset                  10071000 f   LIBCMTD:ieee87.obj
 0001:000701c0       __set_controlfp            100711c0 f   LIBCMTD:ieee87.obj
 0001:00070250       __statusfp                 10071250 f   LIBCMTD:ieee87.obj
 0001:00070290       __statusfp2                10071290 f   LIBCMTD:ieee87.obj
 0001:00070370       __wopen                    10071370 f   LIBCMTD:wopen.obj
 0001:00070510       __wsopen                   10071510 f   LIBCMTD:wopen.obj
 0001:00070580       __wsopen_helper            10071580 f   LIBCMTD:wopen.obj
 0001:00070820       __wsopen_nolock            10071820 f   LIBCMTD:wopen.obj
 0001:000718a0       __wsopen_s                 100728a0 f   LIBCMTD:wopen.obj
 0001:000718d0       _strncmp                   100728d0 f   LIBCMTD:strncmp.obj
 0001:00071950       __strnicmp                 10072950 f   LIBCMTD:strnicmp.obj
 0001:00071b20       __strnicmp_l               10072b20 f   LIBCMTD:strnicmp.obj
 0001:00071db0       __iswctype_l               10072db0 f   LIBCMTD:iswctype.obj
 0001:00071dd0       _is_wctype                 10072dd0 f   LIBCMTD:iswctype.obj
 0001:00071df0       _iswctype                  10072df0 f   LIBCMTD:iswctype.obj
 0001:00071e50       ____lc_codepage_func       10072e50 f   LIBCMTD:initctyp.obj
 0001:00071ea0       ____lc_collate_cp_func     10072ea0 f   LIBCMTD:initctyp.obj
 0001:00071ef0       ____lc_locale_name_func    10072ef0 f   LIBCMTD:initctyp.obj
 0001:00071f40       ____mb_cur_max_func        10072f40 f   LIBCMTD:initctyp.obj
 0001:00071f90       ____mb_cur_max_l_func      10072f90 f   LIBCMTD:initctyp.obj
 0001:00071fc0       ___init_ctype              10072fc0 f   LIBCMTD:initctyp.obj
 0001:00072600       __atoi64                   10073600 f   LIBCMTD:atox.obj
 0001:00072620       __atoi64_l                 10073620 f   LIBCMTD:atox.obj
 0001:00072640       __atoi_l                   10073640 f   LIBCMTD:atox.obj
 0001:00072660       __atol_l                   10073660 f   LIBCMTD:atox.obj
 0001:00072680       __atoll_l                  10073680 f   LIBCMTD:atox.obj
 0001:000726a0       _atoi                      100736a0 f   LIBCMTD:atox.obj
 0001:000726c0       _atol                      100736c0 f   LIBCMTD:atox.obj
 0001:000726e0       _atoll                     100736e0 f   LIBCMTD:atox.obj
 0001:00072700       ___termconout              10073700 f   LIBCMTD:initcon.obj
 0001:00072730       ___initconout              10073730 f   LIBCMTD:initcon.obj
 0001:00072760       _wcsnlen                   10073760 f   LIBCMTD:wcslen_s.obj
 0001:000727a0       __flswbuf                  100737a0 f   LIBCMTD:_flswbuf.obj
 0001:00072a90       __wchartodigit             10073a90 f   LIBCMTD:wchtodig.obj
 0001:00072db0       ___init_collate            10073db0 f   LIBCMTD:initcoll.obj
 0001:00072f70       _memcmp                    10073f70 f   LIBCMTD:memcmp.obj
 0001:00073840       _wcscmp                    10074840 f   LIBCMTD:wcscmp.obj
 0001:000738a0       _wcscspn                   100748a0 f   LIBCMTD:wcscspn.obj
 0001:00073910       _wcsncmp                   10074910 f   LIBCMTD:wcsncmp.obj
 0001:00073970       _wcspbrk                   10074970 f   LIBCMTD:wcspbrk.obj
 0001:00074500       ___get_qualified_locale    10075500 f   LIBCMTD:getqloc.obj
 0001:000754d0       ___get_qualified_locale_downlevel 100764d0 f   LIBCMTD:getqloc_downlevel.obj
 0001:000757a0       ___mtold12                 100767a0 f   LIBCMTD:mantold.obj
 0001:000758f0       __chsize                   100768f0 f   LIBCMTD:chsize.obj
 0001:00075930       __chsize_nolock            10076930 f   LIBCMTD:chsize.obj
 0001:00075be0       __chsize_s                 10076be0 f   LIBCMTD:chsize.obj
 0001:00075eb0       __get_fmode                10076eb0 f   LIBCMTD:setmode.obj
 0001:00075f50       __set_fmode                10076f50 f   LIBCMTD:setmode.obj
 0001:00076000       __setmode                  10077000 f   LIBCMTD:setmode.obj
 0001:000762c0       __setmode_nolock           100772c0 f   LIBCMTD:setmode.obj
 0001:00076530       ___ascii_strnicmp          10077530 f   LIBCMTD:_strnicm.obj
 0001:00076ad0       __strtof_l                 10077ad0 f   LIBCMTD:strtoq.obj
 0001:00076b00       __strtoi64                 10077b00 f   LIBCMTD:strtoq.obj
 0001:00076b50       __strtoi64_l               10077b50 f   LIBCMTD:strtoq.obj
 0001:00076b70       __strtoimax_l              10077b70 f   LIBCMTD:strtoq.obj
 0001:00076b90       __strtold_l                10077b90 f   LIBCMTD:strtoq.obj
 0001:00076bb0       __strtoll_l                10077bb0 f   LIBCMTD:strtoq.obj
 0001:00076bd0       __strtoui64                10077bd0 f   LIBCMTD:strtoq.obj
 0001:00076c20       __strtoui64_l              10077c20 f   LIBCMTD:strtoq.obj
 0001:00076c40       __strtoull_l               10077c40 f   LIBCMTD:strtoq.obj
 0001:00076c60       __strtoumax_l              10077c60 f   LIBCMTD:strtoq.obj
 0001:00076c80       _strtof                    10077c80 f   LIBCMTD:strtoq.obj
 0001:00076cb0       _strtoimax                 10077cb0 f   LIBCMTD:strtoq.obj
 0001:00076cd0       _strtold                   10077cd0 f   LIBCMTD:strtoq.obj
 0001:00076cf0       _strtoll                   10077cf0 f   LIBCMTD:strtoq.obj
 0001:00076d10       _strtoull                  10077d10 f   LIBCMTD:strtoq.obj
 0001:00076d30       _strtoumax                 10077d30 f   LIBCMTD:strtoq.obj
 0001:00076d50       __wtoi                     10077d50 f   LIBCMTD:wtox.obj
 0001:00076d70       __wtoi64                   10077d70 f   LIBCMTD:wtox.obj
 0001:00076d90       __wtoi64_l                 10077d90 f   LIBCMTD:wtox.obj
 0001:00076db0       __wtoi_l                   10077db0 f   LIBCMTD:wtox.obj
 0001:00076dd0       __wtol                     10077dd0 f   LIBCMTD:wtox.obj
 0001:00076df0       __wtol_l                   10077df0 f   LIBCMTD:wtox.obj
 0001:00076e10       __wtoll                    10077e10 f   LIBCMTD:wtox.obj
 0001:00076e30       __wtoll_l                  10077e30 f   LIBCMTD:wtox.obj
 0001:00076e50       _wcschr                    10077e50 f   LIBCMTD:wcschr.obj
 0001:00076fd0       __wcsicmp                  10077fd0 f   LIBCMTD:wcsicmp.obj
 0001:000771a0       __wcsicmp_l                100781a0 f   LIBCMTD:wcsicmp.obj
 0001:00077410       __wcsnicmp                 10078410 f   LIBCMTD:wcsnicmp.obj
 0001:00077600       __wcsnicmp_l               10078600 f   LIBCMTD:wcsnicmp.obj
 0001:00077860       __strtod_l                 10078860 f   LIBCMTD:strtod.obj
 0001:00077a70       _strtod                    10078a70 f   LIBCMTD:strtod.obj
 0001:00077a90       __allmul                   10078a90 f   LIBCMTD:llmul.obj
 0001:00078020       __wcstof_l                 10079020 f   LIBCMTD:wcstoq.obj
 0001:00078130       __wcstoi64                 10079130 f   LIBCMTD:wcstoq.obj
 0001:00078180       __wcstoi64_l               10079180 f   LIBCMTD:wcstoq.obj
 0001:000781a0       __wcstoimax_l              100791a0 f   LIBCMTD:wcstoq.obj
 0001:000781c0       __wcstold_l                100791c0 f   LIBCMTD:wcstoq.obj
 0001:000781e0       __wcstoll_l                100791e0 f   LIBCMTD:wcstoq.obj
 0001:00078200       __wcstoui64                10079200 f   LIBCMTD:wcstoq.obj
 0001:00078250       __wcstoui64_l              10079250 f   LIBCMTD:wcstoq.obj
 0001:00078270       __wcstoull_l               10079270 f   LIBCMTD:wcstoq.obj
 0001:00078290       __wcstoumax_l              10079290 f   LIBCMTD:wcstoq.obj
 0001:000782b0       _wcstof                    100792b0 f   LIBCMTD:wcstoq.obj
 0001:000782d0       _wcstoimax                 100792d0 f   LIBCMTD:wcstoq.obj
 0001:000782f0       _wcstold                   100792f0 f   LIBCMTD:wcstoq.obj
 0001:00078310       _wcstoll                   10079310 f   LIBCMTD:wcstoq.obj
 0001:00078330       _wcstoull                  10079330 f   LIBCMTD:wcstoq.obj
 0001:00078350       _wcstoumax                 10079350 f   LIBCMTD:wcstoq.obj
 0001:00078370       __towlower_l               10079370 f   LIBCMTD:towlower.obj
 0001:000784c0       _towlower                  100794c0 f   LIBCMTD:towlower.obj
 0001:000784e0       __fltin2                   100794e0 f   LIBCMTD:cfin.obj
 0001:000785c0       __wcstod_l                 100795c0 f   LIBCMTD:wcstod.obj
 0001:00078780       _wcstod                    10079780 f   LIBCMTD:wcstod.obj
 0001:000787a0       ___crtLCMapStringW         100797a0 f   LIBCMTD:w_map.obj
 0001:000787e0       __wfltin2                  100797e0 f   LIBCMTD:wcfin.obj
 0001:000788c0       ___WSTRINGTOLD_L           100798c0 f   LIBCMTD:wstrgtold.obj
 0001:00078930       ___wstrgtold12_l           10079930 f   LIBCMTD:wstrgtold.obj
 0001:00079428       _EnterCriticalSection@4    1007a428 f   kernel32:KERNEL32.dll
 0001:0007942e       _LeaveCriticalSection@4    1007a42e f   kernel32:KERNEL32.dll
 0001:00079434       _DeleteCriticalSection@4   1007a434 f   kernel32:KERNEL32.dll
 0001:0007943a       _GetStdHandle@4            1007a43a f   kernel32:KERNEL32.dll
 0001:00079440       _GetFileType@4             1007a440 f   kernel32:KERNEL32.dll
 0001:00079446       _GetModuleFileNameW@12     1007a446 f   kernel32:KERNEL32.dll
 0001:0007944c       _GetModuleHandleExW@12     1007a44c f   kernel32:KERNEL32.dll
 0001:00079452       _WriteConsoleW@20          1007a452 f   kernel32:KERNEL32.dll
 0001:00079458       _RtlUnwind@16              1007a458 f   kernel32:KERNEL32.dll
 0001:0007945e       _IsDebuggerPresent@0       1007a45e f   kernel32:KERNEL32.dll
 0001:00079464       _EncodePointer@4           1007a464 f   kernel32:KERNEL32.dll
 0001:0007946a       _DecodePointer@4           1007a46a f   kernel32:KERNEL32.dll
 0001:00079470       _IsProcessorFeaturePresent@4 1007a470 f   kernel32:KERNEL32.dll
 0001:00079476       _RaiseException@16         1007a476 f   kernel32:KERNEL32.dll
 0001:0007947c       _GetSystemTimeAsFileTime@4 1007a47c f   kernel32:KERNEL32.dll
 0001:00079482       _GetCommandLineA@0         1007a482 f   kernel32:KERNEL32.dll
 0001:00079488       _GetCurrentThreadId@0      1007a488 f   kernel32:KERNEL32.dll
 0001:0007948e       _GetLastError@0            1007a48e f   kernel32:KERNEL32.dll
 0001:00079494       _ExitProcess@4             1007a494 f   kernel32:KERNEL32.dll
 0001:0007949a       _GetProcAddress@8          1007a49a f   kernel32:KERNEL32.dll
 0001:000794a0       _AreFileApisANSI@0         1007a4a0 f   kernel32:KERNEL32.dll
 0001:000794a6       _MultiByteToWideChar@24    1007a4a6 f   kernel32:KERNEL32.dll
 0001:000794ac       _WideCharToMultiByte@32    1007a4ac f   kernel32:KERNEL32.dll
 0001:000794b2       _FatalAppExitA@8           1007a4b2 f   kernel32:KERNEL32.dll
 0001:000794b8       _UnhandledExceptionFilter@4 1007a4b8 f   kernel32:KERNEL32.dll
 0001:000794be       _SetUnhandledExceptionFilter@4 1007a4be f   kernel32:KERNEL32.dll
 0001:000794c4       _SetLastError@4            1007a4c4 f   kernel32:KERNEL32.dll
 0001:000794ca       _InitializeCriticalSectionAndSpinCount@8 1007a4ca f   kernel32:KERNEL32.dll
 0001:000794d0       _CreateEventW@16           1007a4d0 f   kernel32:KERNEL32.dll
 0001:000794d6       _Sleep@4                   1007a4d6 f   kernel32:KERNEL32.dll
 0001:000794dc       _GetCurrentProcess@0       1007a4dc f   kernel32:KERNEL32.dll
 0001:000794e2       _TerminateProcess@8        1007a4e2 f   kernel32:KERNEL32.dll
 0001:000794e8       _TlsAlloc@0                1007a4e8 f   kernel32:KERNEL32.dll
 0001:000794ee       _TlsGetValue@4             1007a4ee f   kernel32:KERNEL32.dll
 0001:000794f4       _TlsSetValue@8             1007a4f4 f   kernel32:KERNEL32.dll
 0001:000794fa       _TlsFree@4                 1007a4fa f   kernel32:KERNEL32.dll
 0001:00079500       _GetStartupInfoW@4         1007a500 f   kernel32:KERNEL32.dll
 0001:00079506       _GetTickCount@0            1007a506 f   kernel32:KERNEL32.dll
 0001:0007950c       _GetModuleHandleW@4        1007a50c f   kernel32:KERNEL32.dll
 0001:00079512       _CreateSemaphoreW@16       1007a512 f   kernel32:KERNEL32.dll
 0001:00079518       _SetConsoleCtrlHandler@8   1007a518 f   kernel32:KERNEL32.dll
 0001:0007951e       _OutputDebugStringW@4      1007a51e f   kernel32:KERNEL32.dll
 0001:00079524       _WaitForSingleObjectEx@12  1007a524 f   kernel32:KERNEL32.dll
 0001:0007952a       _CreateThread@24           1007a52a f   kernel32:KERNEL32.dll
 0001:00079530       _LoadLibraryExW@12         1007a530 f   kernel32:KERNEL32.dll
 0001:00079536       _WriteFile@20              1007a536 f   kernel32:KERNEL32.dll
 0001:0007953c       _HeapValidate@12           1007a53c f   kernel32:KERNEL32.dll
 0001:00079542       _GetSystemInfo@4           1007a542 f   kernel32:KERNEL32.dll
 0001:00079548       _GetCurrentThread@0        1007a548 f   kernel32:KERNEL32.dll
 0001:0007954e       _CloseHandle@4             1007a54e f   kernel32:KERNEL32.dll
 0001:00079554       _OutputDebugStringA@4      1007a554 f   kernel32:KERNEL32.dll
 0001:0007955a       _ReadFile@20               1007a55a f   kernel32:KERNEL32.dll
 0001:00079560       _GetConsoleMode@8          1007a560 f   kernel32:KERNEL32.dll
 0001:00079566       _ReadConsoleW@20           1007a566 f   kernel32:KERNEL32.dll
 0001:0007956c       _GetConsoleCP@0            1007a56c f   kernel32:KERNEL32.dll
 0001:00079572       _GetProcessHeap@0          1007a572 f   kernel32:KERNEL32.dll
 0001:00079578       _GetModuleFileNameA@12     1007a578 f   kernel32:KERNEL32.dll
 0001:0007957e       _QueryPerformanceCounter@4 1007a57e f   kernel32:KERNEL32.dll
 0001:00079584       _GetCurrentProcessId@0     1007a584 f   kernel32:KERNEL32.dll
 0001:0007958a       _GetEnvironmentStringsW@0  1007a58a f   kernel32:KERNEL32.dll
 0001:00079590       _FreeEnvironmentStringsW@4 1007a590 f   kernel32:KERNEL32.dll
 0001:00079596       _FreeLibrary@4             1007a596 f   kernel32:KERNEL32.dll
 0001:0007959c       _IsValidCodePage@4         1007a59c f   kernel32:KERNEL32.dll
 0001:000795a2       _GetACP@0                  1007a5a2 f   kernel32:KERNEL32.dll
 0001:000795a8       _GetOEMCP@0                1007a5a8 f   kernel32:KERNEL32.dll
 0001:000795ae       _GetCPInfo@8               1007a5ae f   kernel32:KERNEL32.dll
 0001:000795b4       _FlushFileBuffers@4        1007a5b4 f   kernel32:KERNEL32.dll
 0001:000795ba       _HeapAlloc@12              1007a5ba f   kernel32:KERNEL32.dll
 0001:000795c0       _HeapFree@12               1007a5c0 f   kernel32:KERNEL32.dll
 0001:000795c6       _VirtualQuery@12           1007a5c6 f   kernel32:KERNEL32.dll
 0001:000795cc       _HeapReAlloc@16            1007a5cc f   kernel32:KERNEL32.dll
 0001:000795d2       _HeapSize@12               1007a5d2 f   kernel32:KERNEL32.dll
 0001:000795d8       _HeapQueryInformation@20   1007a5d8 f   kernel32:KERNEL32.dll
 0001:000795de       _SetStdHandle@8            1007a5de f   kernel32:KERNEL32.dll
 0001:000795e4       _SetFilePointerEx@20       1007a5e4 f   kernel32:KERNEL32.dll
 0001:000795ea       _GetDateFormatW@24         1007a5ea f   kernel32:KERNEL32.dll
 0001:000795f0       _GetTimeFormatW@24         1007a5f0 f   kernel32:KERNEL32.dll
 0001:000795f6       _CompareStringW@24         1007a5f6 f   kernel32:KERNEL32.dll
 0001:000795fc       _LCMapStringW@24           1007a5fc f   kernel32:KERNEL32.dll
 0001:00079602       _GetLocaleInfoW@16         1007a602 f   kernel32:KERNEL32.dll
 0001:00079608       _IsValidLocale@8           1007a608 f   kernel32:KERNEL32.dll
 0001:0007960e       _GetUserDefaultLCID@0      1007a60e f   kernel32:KERNEL32.dll
 0001:00079614       _EnumSystemLocalesW@8      1007a614 f   kernel32:KERNEL32.dll
 0001:0007961a       _GetStringTypeW@16         1007a61a f   kernel32:KERNEL32.dll
 0001:00079620       _CreateFileW@28            1007a620 f   kernel32:KERNEL32.dll
 0001:00079626       _SetEndOfFile@4            1007a626 f   kernel32:KERNEL32.dll
 0002:00000000       __imp__GetStartupInfoW@4   1007c000     kernel32:KERNEL32.dll
 0002:00000004       __imp__SetEndOfFile@4      1007c004     kernel32:KERNEL32.dll
 0002:00000008       __imp__CreateFileW@28      1007c008     kernel32:KERNEL32.dll
 0002:0000000c       __imp__GetStringTypeW@16   1007c00c     kernel32:KERNEL32.dll
 0002:00000010       __imp__EnumSystemLocalesW@8 1007c010     kernel32:KERNEL32.dll
 0002:00000014       __imp__GetUserDefaultLCID@0 1007c014     kernel32:KERNEL32.dll
 0002:00000018       __imp__IsValidLocale@8     1007c018     kernel32:KERNEL32.dll
 0002:0000001c       __imp__GetLocaleInfoW@16   1007c01c     kernel32:KERNEL32.dll
 0002:00000020       __imp__LCMapStringW@24     1007c020     kernel32:KERNEL32.dll
 0002:00000024       __imp__CompareStringW@24   1007c024     kernel32:KERNEL32.dll
 0002:00000028       __imp__GetTimeFormatW@24   1007c028     kernel32:KERNEL32.dll
 0002:0000002c       __imp__GetDateFormatW@24   1007c02c     kernel32:KERNEL32.dll
 0002:00000030       __imp__SetFilePointerEx@20 1007c030     kernel32:KERNEL32.dll
 0002:00000034       __imp__SetStdHandle@8      1007c034     kernel32:KERNEL32.dll
 0002:00000038       __imp__HeapQueryInformation@20 1007c038     kernel32:KERNEL32.dll
 0002:0000003c       __imp__EnterCriticalSection@4 1007c03c     kernel32:KERNEL32.dll
 0002:00000040       __imp__LeaveCriticalSection@4 1007c040     kernel32:KERNEL32.dll
 0002:00000044       __imp__DeleteCriticalSection@4 1007c044     kernel32:KERNEL32.dll
 0002:00000048       __imp__GetStdHandle@4      1007c048     kernel32:KERNEL32.dll
 0002:0000004c       __imp__GetFileType@4       1007c04c     kernel32:KERNEL32.dll
 0002:00000050       __imp__GetModuleFileNameW@12 1007c050     kernel32:KERNEL32.dll
 0002:00000054       __imp__GetModuleHandleExW@12 1007c054     kernel32:KERNEL32.dll
 0002:00000058       __imp__WriteConsoleW@20    1007c058     kernel32:KERNEL32.dll
 0002:0000005c       __imp__RtlUnwind@16        1007c05c     kernel32:KERNEL32.dll
 0002:00000060       __imp__IsDebuggerPresent@0 1007c060     kernel32:KERNEL32.dll
 0002:00000064       __imp__EncodePointer@4     1007c064     kernel32:KERNEL32.dll
 0002:00000068       __imp__DecodePointer@4     1007c068     kernel32:KERNEL32.dll
 0002:0000006c       __imp__IsProcessorFeaturePresent@4 1007c06c     kernel32:KERNEL32.dll
 0002:00000070       __imp__RaiseException@16   1007c070     kernel32:KERNEL32.dll
 0002:00000074       __imp__GetSystemTimeAsFileTime@4 1007c074     kernel32:KERNEL32.dll
 0002:00000078       __imp__GetCommandLineA@0   1007c078     kernel32:KERNEL32.dll
 0002:0000007c       __imp__GetCurrentThreadId@0 1007c07c     kernel32:KERNEL32.dll
 0002:00000080       __imp__GetLastError@0      1007c080     kernel32:KERNEL32.dll
 0002:00000084       __imp__ExitProcess@4       1007c084     kernel32:KERNEL32.dll
 0002:00000088       __imp__GetProcAddress@8    1007c088     kernel32:KERNEL32.dll
 0002:0000008c       __imp__AreFileApisANSI@0   1007c08c     kernel32:KERNEL32.dll
 0002:00000090       __imp__MultiByteToWideChar@24 1007c090     kernel32:KERNEL32.dll
 0002:00000094       __imp__WideCharToMultiByte@32 1007c094     kernel32:KERNEL32.dll
 0002:00000098       __imp__FatalAppExitA@8     1007c098     kernel32:KERNEL32.dll
 0002:0000009c       __imp__UnhandledExceptionFilter@4 1007c09c     kernel32:KERNEL32.dll
 0002:000000a0       __imp__SetUnhandledExceptionFilter@4 1007c0a0     kernel32:KERNEL32.dll
 0002:000000a4       __imp__SetLastError@4      1007c0a4     kernel32:KERNEL32.dll
 0002:000000a8       __imp__InitializeCriticalSectionAndSpinCount@8 1007c0a8     kernel32:KERNEL32.dll
 0002:000000ac       __imp__CreateEventW@16     1007c0ac     kernel32:KERNEL32.dll
 0002:000000b0       __imp__Sleep@4             1007c0b0     kernel32:KERNEL32.dll
 0002:000000b4       __imp__GetCurrentProcess@0 1007c0b4     kernel32:KERNEL32.dll
 0002:000000b8       __imp__TerminateProcess@8  1007c0b8     kernel32:KERNEL32.dll
 0002:000000bc       __imp__TlsAlloc@0          1007c0bc     kernel32:KERNEL32.dll
 0002:000000c0       __imp__TlsGetValue@4       1007c0c0     kernel32:KERNEL32.dll
 0002:000000c4       __imp__TlsSetValue@8       1007c0c4     kernel32:KERNEL32.dll
 0002:000000c8       __imp__TlsFree@4           1007c0c8     kernel32:KERNEL32.dll
 0002:000000cc       __imp__GetTickCount@0      1007c0cc     kernel32:KERNEL32.dll
 0002:000000d0       __imp__GetModuleHandleW@4  1007c0d0     kernel32:KERNEL32.dll
 0002:000000d4       __imp__CreateSemaphoreW@16 1007c0d4     kernel32:KERNEL32.dll
 0002:000000d8       __imp__SetConsoleCtrlHandler@8 1007c0d8     kernel32:KERNEL32.dll
 0002:000000dc       __imp__OutputDebugStringW@4 1007c0dc     kernel32:KERNEL32.dll
 0002:000000e0       __imp__WaitForSingleObjectEx@12 1007c0e0     kernel32:KERNEL32.dll
 0002:000000e4       __imp__CreateThread@24     1007c0e4     kernel32:KERNEL32.dll
 0002:000000e8       __imp__LoadLibraryExW@12   1007c0e8     kernel32:KERNEL32.dll
 0002:000000ec       __imp__WriteFile@20        1007c0ec     kernel32:KERNEL32.dll
 0002:000000f0       __imp__HeapValidate@12     1007c0f0     kernel32:KERNEL32.dll
 0002:000000f4       __imp__GetSystemInfo@4     1007c0f4     kernel32:KERNEL32.dll
 0002:000000f8       __imp__GetCurrentThread@0  1007c0f8     kernel32:KERNEL32.dll
 0002:000000fc       __imp__CloseHandle@4       1007c0fc     kernel32:KERNEL32.dll
 0002:00000100       __imp__OutputDebugStringA@4 1007c100     kernel32:KERNEL32.dll
 0002:00000104       __imp__ReadFile@20         1007c104     kernel32:KERNEL32.dll
 0002:00000108       __imp__GetConsoleMode@8    1007c108     kernel32:KERNEL32.dll
 0002:0000010c       __imp__ReadConsoleW@20     1007c10c     kernel32:KERNEL32.dll
 0002:00000110       __imp__GetConsoleCP@0      1007c110     kernel32:KERNEL32.dll
 0002:00000114       __imp__GetProcessHeap@0    1007c114     kernel32:KERNEL32.dll
 0002:00000118       __imp__GetModuleFileNameA@12 1007c118     kernel32:KERNEL32.dll
 0002:0000011c       __imp__QueryPerformanceCounter@4 1007c11c     kernel32:KERNEL32.dll
 0002:00000120       __imp__GetCurrentProcessId@0 1007c120     kernel32:KERNEL32.dll
 0002:00000124       __imp__GetEnvironmentStringsW@0 1007c124     kernel32:KERNEL32.dll
 0002:00000128       __imp__FreeEnvironmentStringsW@4 1007c128     kernel32:KERNEL32.dll
 0002:0000012c       __imp__FreeLibrary@4       1007c12c     kernel32:KERNEL32.dll
 0002:00000130       __imp__IsValidCodePage@4   1007c130     kernel32:KERNEL32.dll
 0002:00000134       __imp__GetACP@0            1007c134     kernel32:KERNEL32.dll
 0002:00000138       __imp__GetOEMCP@0          1007c138     kernel32:KERNEL32.dll
 0002:0000013c       __imp__GetCPInfo@8         1007c13c     kernel32:KERNEL32.dll
 0002:00000140       __imp__FlushFileBuffers@4  1007c140     kernel32:KERNEL32.dll
 0002:00000144       __imp__HeapAlloc@12        1007c144     kernel32:KERNEL32.dll
 0002:00000148       __imp__HeapFree@12         1007c148     kernel32:KERNEL32.dll
 0002:0000014c       __imp__VirtualQuery@12     1007c14c     kernel32:KERNEL32.dll
 0002:00000150       __imp__HeapReAlloc@16      1007c150     kernel32:KERNEL32.dll
 0002:00000154       __imp__HeapSize@12         1007c154     kernel32:KERNEL32.dll
 0002:00000158       \177KERNEL32_NULL_THUNK_DATA 1007c158     kernel32:KERNEL32.dll
 0002:0000015c       __imp_?SetStringBufferLength@@YAPAUStringBuffer_@@PAU1@I@Z 1007c15c     learning:learning.dll
 0002:00000160       __imp_?FreeStringBuffer@@YAXPAPAUStringBuffer_@@@Z 1007c160     learning:learning.dll
 0002:00000164       __imp_?NewStringBuffer@@YAPAUStringBuffer_@@H@Z 1007c164     learning:learning.dll
 0002:00000168       \177learning_NULL_THUNK_DATA 1007c168     learning:learning.dll
 0002:0000016c       __imp_?RtDistToPit@@YAHPAUCarElt@@PAUtTrack@@PAM2@Z 1007c16c     robottools:robottools.dll
 0002:00000170       __imp_?RtTrackSideTgAngleL@@YAMPAUtTrkLocPos@@@Z 1007c170     robottools:robottools.dll
 0002:00000174       \177robottools_NULL_THUNK_DATA 1007c174     robottools:robottools.dll
 0002:00000178       __imp_?GfParmSetNum@@YAHPAXPBD11M@Z 1007c178     tgf:tgf.dll
 0002:0000017c       __imp_?_tgf_win_strdup@@YAPADPBD@Z 1007c17c     tgf:tgf.dll
 0002:00000180       __imp_?GfCreateDir@@YAHPAD@Z 1007c180     tgf:tgf.dll
 0002:00000184       __imp_?GetLocalDir@@YAPADXZ 1007c184     tgf:tgf.dll
 0002:00000188       __imp_?GfParmGetNum@@YAMPAXPBD11M@Z 1007c188     tgf:tgf.dll
 0002:0000018c       __imp_?GfParmGetStr@@YAPBDPAXPBD11@Z 1007c18c     tgf:tgf.dll
 0002:00000190       __imp_?GfParmReadFile@@YAPAXPBDH@Z 1007c190     tgf:tgf.dll
 0002:00000194       \177tgf_NULL_THUNK_DATA    1007c194     tgf:tgf.dll
 0002:00000198       ___xc_a                    1007c198     LIBCMTD:crt0init.obj
 0002:00000218       ___xc_z                    1007c218     LIBCMTD:crt0init.obj
 0002:0000021c       ___xi_a                    1007c21c     LIBCMTD:crt0init.obj
 0002:00000238       ___xi_z                    1007c238     LIBCMTD:crt0init.obj
 0002:0000023c       ___xp_a                    1007c23c     LIBCMTD:crt0init.obj
 0002:0000024c       ___xp_z                    1007c24c     LIBCMTD:crt0init.obj
 0002:00000250       ___xt_a                    1007c250     LIBCMTD:crt0init.obj
 0002:00000254       ___xt_z                    1007c254     LIBCMTD:crt0init.obj
 0002:0000041c       __real@00000000            1007c41c     MathFunctions.obj
 0002:00000420       __real@3f800000            1007c420     MathFunctions.obj
 0002:00000428       __real@3ff0000000000000    1007c428     MathFunctions.obj
 0002:00000430       __real@40000000            1007c430     MathFunctions.obj
 0002:00000440       __xmm@80000000800000008000000080000000 1007c440     MathFunctions.obj
 0002:00000460       __real@4000000000000000    1007c460     cardata.obj
 0002:00000470       __xmm@80000000000000008000000000000000 1007c470     cardata.obj
 0002:00000484       ?UNSTUCK_TIME_LIMIT@Driver@@1MB 1007c484     driver.obj
 0002:00000490       ?MAX_UNSTUCK_SPEED@Driver@@1MB 1007c490     driver.obj
 0002:00000494       ?MIN_UNSTUCK_DIST@Driver@@1MB 1007c494     driver.obj
 0002:00000498       ?G@Driver@@1MB             1007c498     driver.obj
 0002:0000049c       ?FULL_ACCEL_MARGIN@Driver@@1MB 1007c49c     driver.obj
 0002:000004a0       ?SHIFT@Driver@@1MB         1007c4a0     driver.obj
 0002:000004a4       ?SHIFT_MARGIN@Driver@@1MB  1007c4a4     driver.obj
 0002:000004a8       ?ABS_SLIP@Driver@@1MB      1007c4a8     driver.obj
 0002:000004ac       ?ABS_RANGE@Driver@@1MB     1007c4ac     driver.obj
 0002:000004b0       ?ABS_MINSPEED@Driver@@1MB  1007c4b0     driver.obj
 0002:000004b4       ?TCL_SLIP@Driver@@1MB      1007c4b4     driver.obj
 0002:000004b8       ?LOOKAHEAD_CONST@Driver@@1MB 1007c4b8     driver.obj
 0002:000004bc       ?LOOKAHEAD_FACTOR@Driver@@1MB 1007c4bc     driver.obj
 0002:000004c0       ?WIDTHDIV@Driver@@1MB      1007c4c0     driver.obj
 0002:000004c4       ?SIDECOLL_MARGIN@Driver@@1MB 1007c4c4     driver.obj
 0002:000004da       ?USE_NEW_ALPHA@Driver@@1_NB 1007c4da     driver.obj
 0002:000004f0       ?BORDER_OVERTAKE_MARGIN@Driver@@1MB 1007c4f0     driver.obj
 0002:00000518       ?OVERTAKE_OFFSET_SPEED@Driver@@1MB 1007c518     driver.obj
 0002:0000051c       ?OVERTAKE_TIME@Driver@@1MB 1007c51c     driver.obj
 0002:00000534       ?PIT_LOOKAHEAD@Driver@@1MB 1007c534     driver.obj
 0002:00000538       ?PIT_BRAKE_AHEAD@Driver@@1MB 1007c538     driver.obj
 0002:00000550       ?PIT_MU@Driver@@1MB        1007c550     driver.obj
 0002:00000554       ?MAX_SPEED@Driver@@1MB     1007c554     driver.obj
 0002:00000558       ?TCL_RANGE@Driver@@1MB     1007c558     driver.obj
 0002:00000578       ?MAX_FUEL_PER_METER@Driver@@1MB 1007c578     driver.obj
 0002:00000598       ?CLUTCH_SPEED@Driver@@1MB  1007c598     driver.obj
 0002:0000059c       ?CENTERDIV@Driver@@1MB     1007c59c     driver.obj
 0002:000005a0       ?DISTCUTOFF@Driver@@1MB    1007c5a0     driver.obj
 0002:000005a4       ?MAX_INC_FACTOR@Driver@@1MB 1007c5a4     driver.obj
 0002:000005b4       ?CATCH_FACTOR@Driver@@1MB  1007c5b4     driver.obj
 0002:000005b8       ?CLUTCH_FULL_MAX_TIME@Driver@@1MB 1007c5b8     driver.obj
 0002:000005bc       ?USE_LEARNED_OFFSET_RANGE@Driver@@1MB 1007c5bc     driver.obj
 0002:000005d4       ?ACCELERATOR_LETGO_TIME@Driver@@1MB 1007c5d4     driver.obj
 0002:000005d8       ?MIN_BRAKE_FOLLOW_DISTANCE@Driver@@1MB 1007c5d8     driver.obj
 0002:000005f8       ?MAX_BRAKE_FOLLOW_DISTANCE@Driver@@1MB 1007c5f8     driver.obj
 0002:000005fc       ?STEER_DIRECTION_GAIN@Driver@@1MB 1007c5fc     driver.obj
 0002:00000600       ?STEER_PREDICT_GAIN@Driver@@1MB 1007c600     driver.obj
 0002:0000062c       ?STEER_DRIFT_GAIN@Driver@@1MB 1007c62c     driver.obj
 0002:00000654       ?STEER_AVOIDANCE_GAIN@Driver@@1MB 1007c654     driver.obj
 0002:00000658       ?STEER_EMERGENCY_GAIN@Driver@@1MB 1007c658     driver.obj
 0002:0000065c       ?FILTER_STEER_FEEDBACK@Driver@@1MB 1007c65c     driver.obj
 0002:00000660       ?FILTER_PREDICT_FEEDBACK@Driver@@1MB 1007c660     driver.obj
 0002:00000668       ?FILTER_TARGET_FEEDBACK@Driver@@1MB 1007c668     driver.obj
 0002:00000828       ??_C@_1JA@EADLBAJ@?$AAC?$AA?3?$AA?2?$AAP?$AAr?$AAo?$AAg?$AAr?$AAa?$AAm?$AA?5?$AAF?$AAi?$AAl?$AAe?$AAs?$AA?5?$AA?$CI?$AAx?$AA8?$AA6?$AA?$CJ?$AA?2?$AAM?$AAi?$AAc?$AAr?$AAo?$AAs?$AAo?$AAf?$AAt@ 1007c828     driver.obj
 0002:000008b8       ??_C@_1DC@POOIKBAO@?$AAI?$AAT?$AAE?$AAR?$AAA?$AAT?$AAO?$AAR?$AA?5?$AAL?$AAI?$AAS?$AAT?$AA?5?$AAC?$AAO?$AAR?$AAR?$AAU?$AAP?$AAT?$AAE?$AAD?$AA?$CB?$AA?$AA@ 1007c8b8     driver.obj
 0002:000008f0       ??_C@_1IM@EINEHPHE@?$AAC?$AA?3?$AA?2?$AAP?$AAr?$AAo?$AAg?$AAr?$AAa?$AAm?$AA?5?$AAF?$AAi?$AAl?$AAe?$AAs?$AA?5?$AA?$CI?$AAx?$AA8?$AA6?$AA?$CJ?$AA?2?$AAM?$AAi?$AAc?$AAr?$AAo?$AAs?$AAo?$AAf?$AAt@ 1007c8f0     driver.obj
 0002:0000097c       ??_C@_1DM@LHGCHCBA@?$AAv?$AAe?$AAc?$AAt?$AAo?$AAr?$AA?5?$AAs?$AAu?$AAb?$AAs?$AAc?$AAr?$AAi?$AAp?$AAt?$AA?5?$AAo?$AAu?$AAt?$AA?5?$AAo?$AAf?$AA?5?$AAr?$AAa?$AAn?$AAg?$AAe?$AA?$AA@ 1007c97c     driver.obj
 0002:000009b8       ??_C@_0CE@OFMIGAMM@Standard?5C?$CL?$CL?5Libraries?5Out?5of?5Ra@ 1007c9b8     driver.obj
 0002:000009e0       ??_C@_1FG@IBPIFFN@?$AA?$CC?$AAS?$AAt?$AAa?$AAn?$AAd?$AAa?$AAr?$AAd?$AA?5?$AAC?$AA?$CL?$AA?$CL?$AA?5?$AAL?$AAi?$AAb?$AAr?$AAa?$AAr?$AAi?$AAe?$AAs?$AA?5?$AAO?$AAu?$AAt?$AA?5?$AAo?$AAf?$AA?5?$AAR@ 1007c9e0     driver.obj
 0002:00000a38       ??_C@_15GANGMFKL@?$AA?$CF?$AAs?$AA?$AA@ 1007ca38     driver.obj
 0002:00000a40       ??_C@_1BO@MEPPHOO@?$AA?$CC?$AAo?$AAu?$AAt?$AA?5?$AAo?$AAf?$AA?5?$AAr?$AAa?$AAn?$AAg?$AAe?$AA?$CC?$AA?$AA@ 1007ca40     driver.obj
 0002:00000a60       ??_C@_1HK@EJDBECKJ@?$AAs?$AAt?$AAd?$AA?3?$AA?3?$AAv?$AAe?$AAc?$AAt?$AAo?$AAr?$AA?$DM?$AAf?$AAl?$AAo?$AAa?$AAt?$AA?0?$AAc?$AAl?$AAa?$AAs?$AAs?$AA?5?$AAs?$AAt?$AAd?$AA?3?$AA?3?$AAa?$AAl?$AAl@ 1007ca60     driver.obj
 0002:00000adc       ??_C@_0BD@OLBABOEK@vector?$DMT?$DO?5too?5long?$AA@ 1007cadc     driver.obj
 0002:00000af0       ??_C@_1IO@LKIDJAMC@?$AAC?$AA?3?$AA?2?$AAP?$AAr?$AAo?$AAg?$AAr?$AAa?$AAm?$AA?5?$AAF?$AAi?$AAl?$AAe?$AAs?$AA?5?$AA?$CI?$AAx?$AA8?$AA6?$AA?$CJ?$AA?2?$AAM?$AAi?$AAc?$AAr?$AAo?$AAs?$AAo?$AAf?$AAt@ 1007caf0     driver.obj
 0002:00000b80       ??_C@_1CK@EOPGIILJ@?$AAi?$AAn?$AAv?$AAa?$AAl?$AAi?$AAd?$AA?5?$AAn?$AAu?$AAl?$AAl?$AA?5?$AAp?$AAo?$AAi?$AAn?$AAt?$AAe?$AAr?$AA?$AA@ 1007cb80     driver.obj
 0002:00000bac       ??_C@_1CO@DGLIKNHI@?$AAi?$AAn?$AAv?$AAa?$AAl?$AAi?$AAd?$AA?5?$AAi?$AAt?$AAe?$AAr?$AAa?$AAt?$AAo?$AAr?$AA?5?$AAr?$AAa?$AAn?$AAg?$AAe?$AA?$AA@ 1007cbac     driver.obj
 0002:00000be0       __real@0000000000000000    1007cbe0     driver.obj
 0002:00000be8       __real@3a83126f            1007cbe8     driver.obj
 0002:00000bec       __real@3ba3d70a            1007cbec     driver.obj
 0002:00000bf0       __real@3c23d70a            1007cbf0     driver.obj
 0002:00000bf4       __real@3ca3d70a            1007cbf4     driver.obj
 0002:00000bf8       __real@3dcccccd            1007cbf8     driver.obj
 0002:00000bfc       __real@3e4ccccd            1007cbfc     driver.obj
 0002:00000c00       __real@3f000000            1007cc00     driver.obj
 0002:00000c04       __real@3f30a3d7            1007cc04     driver.obj
 0002:00000c08       __real@3f50624dd2f1a9fc    1007cc08     driver.obj
 0002:00000c10       __real@3f847ae147ae147b    1007cc10     driver.obj
 0002:00000c18       __real@3f947ae147ae147b    1007cc18     driver.obj
 0002:00000c20       __real@3f99999a            1007cc20     driver.obj
 0002:00000c28       __real@3fb5555555555555    1007cc28     driver.obj
 0002:00000c30       __real@3fb999999999999a    1007cc30     driver.obj
 0002:00000c38       __real@3fc999999999999a    1007cc38     driver.obj
 0002:00000c40       __real@3fd0000000000000    1007cc40     driver.obj
 0002:00000c48       __real@3fe0000000000000    1007cc48     driver.obj
 0002:00000c50       __real@3fe4a3d70a3d70a4    1007cc50     driver.obj
 0002:00000c58       __real@3fe8000000000000    1007cc58     driver.obj
 0002:00000c60       __real@3feccccccccccccd    1007cc60     driver.obj
 0002:00000c68       __real@3ff3ae147ae147ae    1007cc68     driver.obj
 0002:00000c70       __real@3ff8000000000000    1007cc70     driver.obj
 0002:00000c78       __real@4010000000000000    1007cc78     driver.obj
 0002:00000c80       __real@4014000000000000    1007cc80     driver.obj
 0002:00000c88       __real@4024000000000000    1007cc88     driver.obj
 0002:00000c90       __real@40a00000            1007cc90     driver.obj
 0002:00000c98       __real@40c3880000000000    1007cc98     driver.obj
 0002:00000ca0       __real@41200000            1007cca0     driver.obj
 0002:00000ca4       __real@42480000            1007cca4     driver.obj
 0002:00000ca8       __real@42c80000            1007cca8     driver.obj
 0002:00000cac       __real@447a0000            1007ccac     driver.obj
 0002:00000cb0       __real@461c4000            1007ccb0     driver.obj
 0002:00000cb4       __real@7f7fffff            1007ccb4     driver.obj
 0002:00000cb8       __real@bdcccccd            1007ccb8     driver.obj
 0002:00000cbc       __real@bf000000            1007ccbc     driver.obj
 0002:00000cc0       __real@bf800000            1007ccc0     driver.obj
 0002:00000cc8       __real@bfb999999999999a    1007ccc8     driver.obj
 0002:00000cd0       __real@bfd0000000000000    1007ccd0     driver.obj
 0002:00000cd8       __real@bfe0000000000000    1007ccd8     driver.obj
 0002:00000ce0       __real@bff0000000000000    1007cce0     driver.obj
 0002:00000ce8       __real@c0000000            1007cce8     driver.obj
 0002:00000cf0       __real@c000000000000000    1007ccf0     driver.obj
 0002:00000cf8       __real@c008000000000000    1007ccf8     driver.obj
 0002:00000d00       __real@c47a0000            1007cd00     driver.obj
 0002:00000d58       ??_7logic_error@std@@6B@   1007cd58     geometry.obj
 0002:00000d64       ??_7invalid_argument@std@@6B@ 1007cd64     geometry.obj
 0002:00000d70       ??_7out_of_range@std@@6B@  1007cd70     geometry.obj
 0002:00000d78       ??_C@_1JG@JBCANLMD@?$AAs?$AAt?$AAd?$AA?3?$AA?3?$AAv?$AAe?$AAc?$AAt?$AAo?$AAr?$AA?$DM?$AAc?$AAl?$AAa?$AAs?$AAs?$AA?5?$AAV?$AAe?$AAc?$AAt?$AAo?$AAr?$AA?0?$AAc?$AAl?$AAa?$AAs?$AAs?$AA?5?$AAs@ 1007cd78     geometry.obj
 0002:00000e10       __real@38d1b717            1007ce10     geometry.obj
 0002:00000e14       __real@40800000            1007ce14     geometry.obj
 0002:00000ee4       ??_C@_0CA@LEKEMFDO@Expected?5tag?5?$DM?$CFs?$DO?0?5found?5?$DM?$CFs?$DO?4?6?$AA@ 1007cee4     learn.obj
 0002:00000f04       __real@3b03126f            1007cf04     learn.obj
 0002:00000f08       __real@3d4ccccd            1007cf08     learn.obj
 0002:00000f0c       __real@3f400000            1007cf0c     learn.obj
 0002:00000f10       __real@3f947ae140000000    1007cf10     learn.obj
 0002:00000f18       __real@408f400000000000    1007cf18     learn.obj
 0002:00000f20       __real@43480000            1007cf20     learn.obj
 0002:00000f24       __real@43c80000            1007cf24     learn.obj
 0002:00001020       ?FRONTCOLLDIST@Opponent@@0MB 1007d020     opponent.obj
 0002:00001024       ?BACKCOLLDIST@Opponent@@0MB 1007d024     opponent.obj
 0002:00001028       ?LENGTH_MARGIN@Opponent@@0MB 1007d028     opponent.obj
 0002:0000102c       ?SIDE_MARGIN@Opponent@@0MB 1007d02c     opponent.obj
 0002:00001030       ?EXACT_DIST@Opponent@@0MB  1007d030     opponent.obj
 0002:00001034       ?LAP_BACK_TIME_PENALTY@Opponent@@0MB 1007d034     opponent.obj
 0002:00001038       ?OVERLAP_WAIT_TIME@Opponent@@0MB 1007d038     opponent.obj
 0002:0000103c       ?SPEED_PASS_MARGIN@Opponent@@0MB 1007d03c     opponent.obj
 0002:00001040       ?TIME_MARGIN@Opponent@@0MB 1007d040     opponent.obj
 0002:00001048       ?SPEED_LIMIT_MARGIN@Pit@@0MB 1007d048     pit.obj
 0002:00001050       __real@4008000000000000    1007d050     pit.obj
 0002:00001058       __real@40400000            1007d058     pit.obj
 0002:00001060       __real@4049000000000000    1007d060     pit.obj
 0002:0000106c       ?MAX_FUEL_PER_METER@SimpleStrategy@@1MB 1007d06c     strategy.obj
 0002:00001070       ?PIT_DAMMAGE@SimpleStrategy@@1HB 1007d070     strategy.obj
 0002:000010e8       ??_7AbstractStrategy@@6B@  1007d0e8     strategy.obj
 0002:00001108       ??_7SimpleStrategy@@6B@    1007d108     strategy.obj
 0002:00001128       ??_7ManagedStrategy@@6B@   1007d128     strategy.obj
 0002:00001148       __real@3f666666            1007d148     strategy.obj
 0002:00001150       __real@3fb99999a0000000    1007d150     strategy.obj
 0002:00001158       __real@403e000000000000    1007d158     strategy.obj
 0002:00001160       __real@41f00000            1007d160     strategy.obj
 0002:00001168       __real@bfb99999a0000000    1007d168     strategy.obj
 0002:00001278       __real@4066800000000000    1007d278     TrackData.obj
 0002:00001280       ??_C@_1JK@BJAAMGFH@?$AAs?$AAt?$AAd?$AA?3?$AA?3?$AAv?$AAe?$AAc?$AAt?$AAo?$AAr?$AA?$DM?$AAc?$AAl?$AAa?$AAs?$AAs?$AA?5?$AAS?$AAe?$AAg?$AAm?$AAe?$AAn?$AAt?$AA?0?$AAc?$AAl?$AAa?$AAs?$AAs?$AA?5@ 1007d280     Trajectory.obj
 0002:00001320       ??_C@_1HC@HBCEAHKD@?$AAs?$AAt?$AAd?$AA?3?$AA?3?$AAv?$AAe?$AAc?$AAt?$AAo?$AAr?$AA?$DM?$AAi?$AAn?$AAt?$AA?0?$AAc?$AAl?$AAa?$AAs?$AAs?$AA?5?$AAs?$AAt?$AAd?$AA?3?$AA?3?$AAa?$AAl?$AAl?$AAo?$AAc@ 1007d320     Trajectory.obj
 0002:00001398       __real@404ca5dc1a63c1f8    1007d398     sg_vs2008_32:sgd.obj
 0002:000013a0       __real@3f91df46a2529d39    1007d3a0     sg_vs2008_32:sgd.obj
 0002:000013a8       __real@4022d97c7f3321d2    1007d3a8     sg_vs2008_32:sgd.obj
 0002:000013b0       __real@400921fb54442d18    1007d3b0     sg_vs2008_32:sgd.obj
 0002:000013b8       __real@401921fb54442d18    1007d3b8     sg_vs2008_32:sgd.obj
 0002:000013c0       __real@3ff921fb54442d18    1007d3c0     sg_vs2008_32:sgd.obj
 0002:000013c8       __real@3fefffeb074a771d    1007d3c8     sg_vs2008_32:sgd.obj
 0002:000013d0       __real@bff921fb54442d18    1007d3d0     sg_vs2008_32:sgd.obj
 0002:000013d8       __real@bfefffeb074a771d    1007d3d8     sg_vs2008_32:sgd.obj
 0002:000013e0       ??_C@_0CL@MFADICKC@sgdGetAngleBetweenVectors?3?5Norma@ 1007d3e0     sg_vs2008_32:sgd.obj
 0002:00001410       ??_C@_0ED@LKGOFPEJ@sgFrustum?3?5Can?8t?5support?5fields?5@ 1007d410     sg_vs2008_32:sgd.obj
 0002:00001454       ??_C@_0DF@MFOAFILF@sgFrustum?3?5Can?8t?5support?5width?5o@ 1007d454     sg_vs2008_32:sgd.obj
 0002:0000148c       ??_C@_0DE@FLABMHND@sgdFrustum?3?5Can?8t?5support?5depth?5@ 1007d48c     sg_vs2008_32:sgd.obj
 0002:000014c0       __real@bee4f8b588e368f1    1007d4c0     sg_vs2008_32:sgd.obj
 0002:000014c8       ??_C@_0CE@HBHLABFJ@sgdMat4ToCoord?3?5ERROR?5?9?5Bad?5Matr@ 1007d4c8     sg_vs2008_32:sgd.obj
 0002:000014f0       __real@3ee4f8b588e368f1    1007d4f0     sg_vs2008_32:sgd.obj
 0002:000014f8       ??_C@_0CJ@BEEFNIHJ@sg?3?5ERROR?5?9?5Singular?5matrix?0?5no?5@ 1007d4f8     sg_vs2008_32:sgd.obj
 0002:00001528       __real@3cb0000000000000    1007d528     sg_vs2008_32:sgd.obj
 0002:00001530       __real@c04ca5dc1a63c1f8    1007d530     sg_vs2008_32:sgd.obj
 0002:00001538       __real@3feffffde7210be9    1007d538     sg_vs2008_32:sgd.obj
 0002:00001540       __real@3eb0c6f7a0b5ed8d    1007d540     sg_vs2008_32:sgd.obj
 0002:00001548       __real@404e000000000000    1007d548     sg_vs2008_32:sgd.obj
 0002:00001550       __real@4056800000000000    1007d550     sg_vs2008_32:sgd.obj
 0002:00001558       ??_C@_05JLFELJNP@FATAL?$AA@ 1007d558     ul_vs2008_32:ulError.obj
 0002:00001560       ??_C@_07KCOHIFOP@WARNING?$AA@ 1007d560     ul_vs2008_32:ulError.obj
 0002:00001568       ??_C@_05KOLFGEDA@DEBUG?$AA@ 1007d568     ul_vs2008_32:ulError.obj
 0002:00001574       ??_C@_07KJFPOMFC@?$CFs?3?5?$CFs?6?$AA@ 1007d574     ul_vs2008_32:ulError.obj
 0002:0000157c       ?value@?$integral_constant@_N$0A@@std@@2_NB 1007d57c     libcpmtd:newaop.obj
 0002:0000157d       ?value@?$integral_constant@_N$00@std@@2_NB 1007d57d     libcpmtd:newaop.obj
 0002:0000157e       ?has_quiet_NaN@_Num_float_base@std@@2_NB 1007d57e     libcpmtd:xthrow.obj
 0002:0000157f       ?has_signaling_NaN@_Num_float_base@std@@2_NB 1007d57f     libcpmtd:xthrow.obj
 0002:00001580       ?is_bounded@_Num_float_base@std@@2_NB 1007d580     libcpmtd:xthrow.obj
 0002:00001581       ?is_exact@_Num_float_base@std@@2_NB 1007d581     libcpmtd:xthrow.obj
 0002:00001582       ?is_iec559@_Num_float_base@std@@2_NB 1007d582     libcpmtd:xthrow.obj
 0002:00001583       ?is_integer@_Num_float_base@std@@2_NB 1007d583     libcpmtd:xthrow.obj
 0002:00001584       ?is_modulo@_Num_float_base@std@@2_NB 1007d584     libcpmtd:xthrow.obj
 0002:00001585       ?is_signed@_Num_float_base@std@@2_NB 1007d585     libcpmtd:xthrow.obj
 0002:00001586       ?is_specialized@_Num_float_base@std@@2_NB 1007d586     libcpmtd:xthrow.obj
 0002:00001587       ?tinyness_before@_Num_float_base@std@@2_NB 1007d587     libcpmtd:xthrow.obj
 0002:00001588       ?traps@_Num_float_base@std@@2_NB 1007d588     libcpmtd:xthrow.obj
 0002:0000158c       ?round_style@_Num_float_base@std@@2W4float_round_style@2@B 1007d58c     libcpmtd:xthrow.obj
 0002:00001590       ?radix@_Num_float_base@std@@2HB 1007d590     libcpmtd:xthrow.obj
 0002:00001594       ?value@?$integral_constant@I$01@std@@2IB 1007d594     libcpmtd:xthrow.obj
 0002:00001598       ?is_signed@?$numeric_limits@D@std@@2_NB 1007d598     libcpmtd:xthrow.obj
 0002:0000159c       ?digits@?$numeric_limits@D@std@@2HB 1007d59c     libcpmtd:xthrow.obj
 0002:000015a0       ?digits10@?$numeric_limits@D@std@@2HB 1007d5a0     libcpmtd:xthrow.obj
 0002:000015a4       ?is_signed@?$numeric_limits@_W@std@@2_NB 1007d5a4     libcpmtd:xthrow.obj
 0002:000015a8       ?digits@?$numeric_limits@_W@std@@2HB 1007d5a8     libcpmtd:xthrow.obj
 0002:000015ac       ?table_size@?$ctype@D@std@@2IB 1007d5ac     libcpmtd:xthrow.obj
 0002:000015b0       ?value@?$integral_constant@I$00@std@@2IB 1007d5b0     libcpmtd:xthrow.obj
 0002:000015b4       ?digits10@?$numeric_limits@_W@std@@2HB 1007d5b4     libcpmtd:xthrow.obj
 0002:000015b8       ?value@?$_Maximum@$S@std@@2IB 1007d5b8     libcpmtd:xthrow.obj
 0002:000015bc       ?is_modulo@?$numeric_limits@_N@std@@2_NB 1007d5bc     libcpmtd:xthrow.obj
 0002:000015bd       ?is_signed@?$numeric_limits@_N@std@@2_NB 1007d5bd     libcpmtd:xthrow.obj
 0002:000015c0       ?digits@?$numeric_limits@_N@std@@2HB 1007d5c0     libcpmtd:xthrow.obj
 0002:000015c4       ?digits10@?$numeric_limits@_N@std@@2HB 1007d5c4     libcpmtd:xthrow.obj
 0002:000015c8       ?value@?$integral_constant@I$0A@@std@@2IB 1007d5c8     libcpmtd:xthrow.obj
 0002:000015cc       ?is_signed@?$numeric_limits@C@std@@2_NB 1007d5cc     libcpmtd:xthrow.obj
 0002:000015d0       ?digits@?$numeric_limits@C@std@@2HB 1007d5d0     libcpmtd:xthrow.obj
 0002:000015d4       ?digits10@?$numeric_limits@C@std@@2HB 1007d5d4     libcpmtd:xthrow.obj
 0002:000015d8       ?is_signed@?$numeric_limits@E@std@@2_NB 1007d5d8     libcpmtd:xthrow.obj
 0002:000015dc       ?digits@?$numeric_limits@E@std@@2HB 1007d5dc     libcpmtd:xthrow.obj
 0002:000015e0       ?digits10@?$numeric_limits@E@std@@2HB 1007d5e0     libcpmtd:xthrow.obj
 0002:000015e4       ?is_signed@?$numeric_limits@F@std@@2_NB 1007d5e4     libcpmtd:xthrow.obj
 0002:000015e8       ?digits@?$numeric_limits@F@std@@2HB 1007d5e8     libcpmtd:xthrow.obj
 0002:000015ec       ?digits10@?$numeric_limits@F@std@@2HB 1007d5ec     libcpmtd:xthrow.obj
 0002:000015f0       ?is_signed@?$numeric_limits@G@std@@2_NB 1007d5f0     libcpmtd:xthrow.obj
 0002:000015f4       ?digits@?$numeric_limits@G@std@@2HB 1007d5f4     libcpmtd:xthrow.obj
 0002:000015f8       ?digits10@?$numeric_limits@G@std@@2HB 1007d5f8     libcpmtd:xthrow.obj
 0002:000015fc       ?is_signed@?$numeric_limits@H@std@@2_NB 1007d5fc     libcpmtd:xthrow.obj
 0002:00001600       ?digits@?$numeric_limits@H@std@@2HB 1007d600     libcpmtd:xthrow.obj
 0002:00001604       ?digits10@?$numeric_limits@H@std@@2HB 1007d604     libcpmtd:xthrow.obj
 0002:00001608       ?is_signed@?$numeric_limits@I@std@@2_NB 1007d608     libcpmtd:xthrow.obj
 0002:0000160c       ?digits@?$numeric_limits@I@std@@2HB 1007d60c     libcpmtd:xthrow.obj
 0002:00001610       ?digits10@?$numeric_limits@I@std@@2HB 1007d610     libcpmtd:xthrow.obj
 0002:00001614       ?is_signed@?$numeric_limits@J@std@@2_NB 1007d614     libcpmtd:xthrow.obj
 0002:00001618       ?digits@?$numeric_limits@J@std@@2HB 1007d618     libcpmtd:xthrow.obj
 0002:0000161c       ?digits10@?$numeric_limits@J@std@@2HB 1007d61c     libcpmtd:xthrow.obj
 0002:00001620       ?_Names@?$_Regex_traits@D@std@@0QBU?$_Cl_names@D@2@B 1007d620     libcpmtd:xthrow.obj
 0002:000016e0       ?is_signed@?$numeric_limits@K@std@@2_NB 1007d6e0     libcpmtd:xthrow.obj
 0002:000016e4       ?digits@?$numeric_limits@K@std@@2HB 1007d6e4     libcpmtd:xthrow.obj
 0002:000016e8       ?digits10@?$numeric_limits@K@std@@2HB 1007d6e8     libcpmtd:xthrow.obj
 0002:000016ec       ??_C@_05IIMHCHIO@alnum?$AA@ 1007d6ec     libcpmtd:xthrow.obj
 0002:000016f4       ??_C@_05IAEKHIAN@alpha?$AA@ 1007d6f4     libcpmtd:xthrow.obj
 0002:000016fc       ??_C@_05BABJKOGB@blank?$AA@ 1007d6fc     libcpmtd:xthrow.obj
 0002:00001704       ??_C@_05JMDPEFNK@cntrl?$AA@ 1007d704     libcpmtd:xthrow.obj
 0002:0000170c       ??_C@_01LPLHEDKD@d?$AA@    1007d70c     libcpmtd:xthrow.obj
 0002:00001710       ??_C@_05ODNOIFML@digit?$AA@ 1007d710     libcpmtd:xthrow.obj
 0002:00001718       ??_C@_05KCJBMLII@graph?$AA@ 1007d718     libcpmtd:xthrow.obj
 0002:00001720       ??_C@_05IPJEPLHL@lower?$AA@ 1007d720     libcpmtd:xthrow.obj
 0002:00001728       ??_C@_05IJDJACGD@print?$AA@ 1007d728     libcpmtd:xthrow.obj
 0002:00001730       ??_C@_05KOBGHFJJ@punct?$AA@ 1007d730     libcpmtd:xthrow.obj
 0002:00001738       ??_C@_05OLNILLAB@space?$AA@ 1007d738     libcpmtd:xthrow.obj
 0002:0000173e       ?is_signed@?$numeric_limits@_J@std@@2_NB 1007d73e     libcpmtd:xthrow.obj
 0002:00001740       ??_C@_01LKDEMHDF@s?$AA@    1007d740     libcpmtd:xthrow.obj
 0002:00001744       ??_C@_05NECKJAMC@upper?$AA@ 1007d744     libcpmtd:xthrow.obj
 0002:0000174c       ??_C@_01NOFIACDB@w?$AA@    1007d74c     libcpmtd:xthrow.obj
 0002:00001750       ??_C@_06BAPHGFFK@xdigit?$AA@ 1007d750     libcpmtd:xthrow.obj
 0002:00001758       ?digits@?$numeric_limits@_J@std@@2HB 1007d758     libcpmtd:xthrow.obj
 0002:0000175c       ?digits10@?$numeric_limits@_J@std@@2HB 1007d75c     libcpmtd:xthrow.obj
 0002:00001760       ?is_signed@?$numeric_limits@_K@std@@2_NB 1007d760     libcpmtd:xthrow.obj
 0002:00001764       ?digits@?$numeric_limits@_K@std@@2HB 1007d764     libcpmtd:xthrow.obj
 0002:00001768       ?digits10@?$numeric_limits@_K@std@@2HB 1007d768     libcpmtd:xthrow.obj
 0002:00001770       ?_Names@?$_Regex_traits@_W@std@@0QBU?$_Cl_names@_W@2@B 1007d770     libcpmtd:xthrow.obj
 0002:00001830       ?digits@?$numeric_limits@M@std@@2HB 1007d830     libcpmtd:xthrow.obj
 0002:00001834       ?digits10@?$numeric_limits@M@std@@2HB 1007d834     libcpmtd:xthrow.obj
 0002:00001838       ?max_digits10@?$numeric_limits@M@std@@2HB 1007d838     libcpmtd:xthrow.obj
 0002:0000183c       ?max_exponent@?$numeric_limits@M@std@@2HB 1007d83c     libcpmtd:xthrow.obj
 0002:00001840       ?max_exponent10@?$numeric_limits@M@std@@2HB 1007d840     libcpmtd:xthrow.obj
 0002:00001844       ?min_exponent@?$numeric_limits@M@std@@2HB 1007d844     libcpmtd:xthrow.obj
 0002:00001848       ??_C@_1M@KLMEPMCM@?$AAa?$AAl?$AAn?$AAu?$AAm?$AA?$AA@ 1007d848     libcpmtd:xthrow.obj
 0002:00001854       ??_C@_1M@DHGLHBMI@?$AAa?$AAl?$AAp?$AAh?$AAa?$AA?$AA@ 1007d854     libcpmtd:xthrow.obj
 0002:00001860       ?min_exponent10@?$numeric_limits@M@std@@2HB 1007d860     libcpmtd:xthrow.obj
 0002:00001864       ??_C@_1M@EJAAJBPE@?$AAb?$AAl?$AAa?$AAn?$AAk?$AA?$AA@ 1007d864     libcpmtd:xthrow.obj
 0002:00001870       ??_C@_1M@LMIMILA@?$AAc?$AAn?$AAt?$AAr?$AAl?$AA?$AA@ 1007d870     libcpmtd:xthrow.obj
 0002:0000187c       ??_C@_13GKPPEALH@?$AAd?$AA?$AA@ 1007d87c     libcpmtd:xthrow.obj
 0002:00001880       ??_C@_1M@JDAEIBKG@?$AAd?$AAi?$AAg?$AAi?$AAt?$AA?$AA@ 1007d880     libcpmtd:xthrow.obj
 0002:0000188c       ??_C@_1M@MDKNJLLK@?$AAg?$AAr?$AAa?$AAp?$AAh?$AA?$AA@ 1007d88c     libcpmtd:xthrow.obj
 0002:00001898       ??_C@_1M@LGAECJJD@?$AAl?$AAo?$AAw?$AAe?$AAr?$AA?$AA@ 1007d898     libcpmtd:xthrow.obj
 0002:000018a4       ??_C@_1M@ELNLAPLA@?$AAp?$AAr?$AAi?$AAn?$AAt?$AA?$AA@ 1007d8a4     libcpmtd:xthrow.obj
 0002:000018b0       ??_C@_1M@BPFMAOAO@?$AAp?$AAu?$AAn?$AAc?$AAt?$AA?$AA@ 1007d8b0     libcpmtd:xthrow.obj
 0002:000018bc       ??_C@_1M@LPGODFOM@?$AAs?$AAp?$AAa?$AAc?$AAe?$AA?$AA@ 1007d8bc     libcpmtd:xthrow.obj
 0002:000018c8       ??_C@_13KHDBCPJB@?$AAs?$AA?$AA@ 1007d8c8     libcpmtd:xthrow.obj
 0002:000018cc       ??_C@_1M@PLNFCNIC@?$AAu?$AAp?$AAp?$AAe?$AAr?$AA?$AA@ 1007d8cc     libcpmtd:xthrow.obj
 0002:000018d8       ??_C@_13CIFDLIMG@?$AAw?$AA?$AA@ 1007d8d8     libcpmtd:xthrow.obj
 0002:000018dc       ??_C@_1O@OAFMJDHN@?$AAx?$AAd?$AAi?$AAg?$AAi?$AAt?$AA?$AA@ 1007d8dc     libcpmtd:xthrow.obj
 0002:000018ec       ?digits@?$numeric_limits@N@std@@2HB 1007d8ec     libcpmtd:xthrow.obj
 0002:000018f0       ?digits10@?$numeric_limits@N@std@@2HB 1007d8f0     libcpmtd:xthrow.obj
 0002:000018f4       ?max_digits10@?$numeric_limits@N@std@@2HB 1007d8f4     libcpmtd:xthrow.obj
 0002:000018f8       ?max_exponent@?$numeric_limits@N@std@@2HB 1007d8f8     libcpmtd:xthrow.obj
 0002:000018fc       ?max_exponent10@?$numeric_limits@N@std@@2HB 1007d8fc     libcpmtd:xthrow.obj
 0002:00001900       ?min_exponent@?$numeric_limits@N@std@@2HB 1007d900     libcpmtd:xthrow.obj
 0002:00001904       ?min_exponent10@?$numeric_limits@N@std@@2HB 1007d904     libcpmtd:xthrow.obj
 0002:00001908       ?digits@?$numeric_limits@O@std@@2HB 1007d908     libcpmtd:xthrow.obj
 0002:0000190c       ?digits10@?$numeric_limits@O@std@@2HB 1007d90c     libcpmtd:xthrow.obj
 0002:00001910       ?max_digits10@?$numeric_limits@O@std@@2HB 1007d910     libcpmtd:xthrow.obj
 0002:00001914       ?max_exponent@?$numeric_limits@O@std@@2HB 1007d914     libcpmtd:xthrow.obj
 0002:00001918       ?max_exponent10@?$numeric_limits@O@std@@2HB 1007d918     libcpmtd:xthrow.obj
 0002:0000191c       ?min_exponent@?$numeric_limits@O@std@@2HB 1007d91c     libcpmtd:xthrow.obj
 0002:00001920       ?min_exponent10@?$numeric_limits@O@std@@2HB 1007d920     libcpmtd:xthrow.obj
 0002:00001924       ?skipws@?$_Iosb@H@std@@2W4_Fmtflags@12@B 1007d924     libcpmtd:xthrow.obj
 0002:00001928       ?unitbuf@?$_Iosb@H@std@@2W4_Fmtflags@12@B 1007d928     libcpmtd:xthrow.obj
 0002:0000192c       ?uppercase@?$_Iosb@H@std@@2W4_Fmtflags@12@B 1007d92c     libcpmtd:xthrow.obj
 0002:00001930       ?showbase@?$_Iosb@H@std@@2W4_Fmtflags@12@B 1007d930     libcpmtd:xthrow.obj
 0002:00001934       ?showpoint@?$_Iosb@H@std@@2W4_Fmtflags@12@B 1007d934     libcpmtd:xthrow.obj
 0002:00001938       ?showpos@?$_Iosb@H@std@@2W4_Fmtflags@12@B 1007d938     libcpmtd:xthrow.obj
 0002:0000193c       ?left@?$_Iosb@H@std@@2W4_Fmtflags@12@B 1007d93c     libcpmtd:xthrow.obj
 0002:00001940       ?right@?$_Iosb@H@std@@2W4_Fmtflags@12@B 1007d940     libcpmtd:xthrow.obj
 0002:00001944       ?internal@?$_Iosb@H@std@@2W4_Fmtflags@12@B 1007d944     libcpmtd:xthrow.obj
 0002:00001948       ?dec@?$_Iosb@H@std@@2W4_Fmtflags@12@B 1007d948     libcpmtd:xthrow.obj
 0002:0000194c       ?oct@?$_Iosb@H@std@@2W4_Fmtflags@12@B 1007d94c     libcpmtd:xthrow.obj
 0002:00001950       ?hex@?$_Iosb@H@std@@2W4_Fmtflags@12@B 1007d950     libcpmtd:xthrow.obj
 0002:00001954       ?_VBITS@?$vector@_NV?$allocator@_N@std@@@std@@2HB 1007d954     libcpmtd:xthrow.obj
 0002:00001958       ?scientific@?$_Iosb@H@std@@2W4_Fmtflags@12@B 1007d958     libcpmtd:xthrow.obj
 0002:0000195c       ?fixed@?$_Iosb@H@std@@2W4_Fmtflags@12@B 1007d95c     libcpmtd:xthrow.obj
 0002:00001960       ?hexfloat@?$_Iosb@H@std@@2W4_Fmtflags@12@B 1007d960     libcpmtd:xthrow.obj
 0002:00001964       ?boolalpha@?$_Iosb@H@std@@2W4_Fmtflags@12@B 1007d964     libcpmtd:xthrow.obj
 0002:00001968       ?_Stdio@?$_Iosb@H@std@@2W4_Fmtflags@12@B 1007d968     libcpmtd:xthrow.obj
 0002:0000196c       ?adjustfield@?$_Iosb@H@std@@2W4_Fmtflags@12@B 1007d96c     libcpmtd:xthrow.obj
 0002:00001970       ?basefield@?$_Iosb@H@std@@2W4_Fmtflags@12@B 1007d970     libcpmtd:xthrow.obj
 0002:00001974       ?floatfield@?$_Iosb@H@std@@2W4_Fmtflags@12@B 1007d974     libcpmtd:xthrow.obj
 0002:00001978       ?goodbit@?$_Iosb@H@std@@2W4_Iostate@12@B 1007d978     libcpmtd:xthrow.obj
 0002:0000197c       ?eofbit@?$_Iosb@H@std@@2W4_Iostate@12@B 1007d97c     libcpmtd:xthrow.obj
 0002:00001980       ?failbit@?$_Iosb@H@std@@2W4_Iostate@12@B 1007d980     libcpmtd:xthrow.obj
 0002:00001984       ?badbit@?$_Iosb@H@std@@2W4_Iostate@12@B 1007d984     libcpmtd:xthrow.obj
 0002:00001988       ?_Hardfail@?$_Iosb@H@std@@2W4_Iostate@12@B 1007d988     libcpmtd:xthrow.obj
 0002:0000198c       ?in@?$_Iosb@H@std@@2W4_Openmode@12@B 1007d98c     libcpmtd:xthrow.obj
 0002:00001990       ?out@?$_Iosb@H@std@@2W4_Openmode@12@B 1007d990     libcpmtd:xthrow.obj
 0002:00001994       ?ate@?$_Iosb@H@std@@2W4_Openmode@12@B 1007d994     libcpmtd:xthrow.obj
 0002:00001998       ?app@?$_Iosb@H@std@@2W4_Openmode@12@B 1007d998     libcpmtd:xthrow.obj
 0002:0000199c       ?trunc@?$_Iosb@H@std@@2W4_Openmode@12@B 1007d99c     libcpmtd:xthrow.obj
 0002:000019a0       ?_Nocreate@?$_Iosb@H@std@@2W4_Openmode@12@B 1007d9a0     libcpmtd:xthrow.obj
 0002:000019a4       ?_Noreplace@?$_Iosb@H@std@@2W4_Openmode@12@B 1007d9a4     libcpmtd:xthrow.obj
 0002:000019a8       ?binary@?$_Iosb@H@std@@2W4_Openmode@12@B 1007d9a8     libcpmtd:xthrow.obj
 0002:000019ac       ?beg@?$_Iosb@H@std@@2W4_Seekdir@12@B 1007d9ac     libcpmtd:xthrow.obj
 0002:000019b0       ?cur@?$_Iosb@H@std@@2W4_Seekdir@12@B 1007d9b0     libcpmtd:xthrow.obj
 0002:000019b4       ?end@?$_Iosb@H@std@@2W4_Seekdir@12@B 1007d9b4     libcpmtd:xthrow.obj
 0002:000019b8       ?has_denorm@_Num_base@std@@2W4float_denorm_style@2@B 1007d9b8     libcpmtd:xthrow.obj
 0002:000019bc       ?collate@?$_Locbase@H@std@@2HB 1007d9bc     libcpmtd:xthrow.obj
 0002:000019c0       ?ctype@?$_Locbase@H@std@@2HB 1007d9c0     libcpmtd:xthrow.obj
 0002:000019c4       ?has_denorm_loss@_Num_base@std@@2_NB 1007d9c4     libcpmtd:xthrow.obj
 0002:000019c8       ?monetary@?$_Locbase@H@std@@2HB 1007d9c8     libcpmtd:xthrow.obj
 0002:000019cc       ?has_infinity@_Num_base@std@@2_NB 1007d9cc     libcpmtd:xthrow.obj
 0002:000019d0       ?numeric@?$_Locbase@H@std@@2HB 1007d9d0     libcpmtd:xthrow.obj
 0002:000019d4       ?has_quiet_NaN@_Num_base@std@@2_NB 1007d9d4     libcpmtd:xthrow.obj
 0002:000019d8       ?time@?$_Locbase@H@std@@2HB 1007d9d8     libcpmtd:xthrow.obj
 0002:000019dc       ?messages@?$_Locbase@H@std@@2HB 1007d9dc     libcpmtd:xthrow.obj
 0002:000019e0       ?has_signaling_NaN@_Num_base@std@@2_NB 1007d9e0     libcpmtd:xthrow.obj
 0002:000019e4       ?all@?$_Locbase@H@std@@2HB 1007d9e4     libcpmtd:xthrow.obj
 0002:000019e8       ?none@?$_Locbase@H@std@@2HB 1007d9e8     libcpmtd:xthrow.obj
 0002:000019ec       ?is_bounded@_Num_base@std@@2_NB 1007d9ec     libcpmtd:xthrow.obj
 0002:000019ed       ?is_exact@_Num_base@std@@2_NB 1007d9ed     libcpmtd:xthrow.obj
 0002:000019ee       ?is_iec559@_Num_base@std@@2_NB 1007d9ee     libcpmtd:xthrow.obj
 0002:000019ef       ?is_integer@_Num_base@std@@2_NB 1007d9ef     libcpmtd:xthrow.obj
 0002:000019f0       ?is_modulo@_Num_base@std@@2_NB 1007d9f0     libcpmtd:xthrow.obj
 0002:000019f1       ?is_signed@_Num_base@std@@2_NB 1007d9f1     libcpmtd:xthrow.obj
 0002:000019f2       ?is_specialized@_Num_base@std@@2_NB 1007d9f2     libcpmtd:xthrow.obj
 0002:000019f3       ?tinyness_before@_Num_base@std@@2_NB 1007d9f3     libcpmtd:xthrow.obj
 0002:000019f4       ?traps@_Num_base@std@@2_NB 1007d9f4     libcpmtd:xthrow.obj
 0002:000019f8       ?round_style@_Num_base@std@@2W4float_round_style@2@B 1007d9f8     libcpmtd:xthrow.obj
 0002:000019fc       ?digits@_Num_base@std@@2HB 1007d9fc     libcpmtd:xthrow.obj
 0002:00001a00       ?value@?$integral_constant@I$07@std@@2IB 1007da00     libcpmtd:xthrow.obj
 0002:00001a04       ?digits10@_Num_base@std@@2HB 1007da04     libcpmtd:xthrow.obj
 0002:00001a08       ?max_digits10@_Num_base@std@@2HB 1007da08     libcpmtd:xthrow.obj
 0002:00001a0c       ?max_exponent@_Num_base@std@@2HB 1007da0c     libcpmtd:xthrow.obj
 0002:00001a10       ?max_exponent10@_Num_base@std@@2HB 1007da10     libcpmtd:xthrow.obj
 0002:00001a14       ?min_exponent@_Num_base@std@@2HB 1007da14     libcpmtd:xthrow.obj
 0002:00001a18       ?value@?$integral_constant@H$0A@@std@@2HB 1007da18     libcpmtd:xthrow.obj
 0002:00001a1c       ?min_exponent10@_Num_base@std@@2HB 1007da1c     libcpmtd:xthrow.obj
 0002:00001a20       ?radix@_Num_base@std@@2HB  1007da20     libcpmtd:xthrow.obj
 0002:00001a24       ?is_bounded@_Num_int_base@std@@2_NB 1007da24     libcpmtd:xthrow.obj
 0002:00001a25       ?is_exact@_Num_int_base@std@@2_NB 1007da25     libcpmtd:xthrow.obj
 0002:00001a26       ?is_integer@_Num_int_base@std@@2_NB 1007da26     libcpmtd:xthrow.obj
 0002:00001a27       ?is_modulo@_Num_int_base@std@@2_NB 1007da27     libcpmtd:xthrow.obj
 0002:00001a28       ?value@?$integral_constant@I$03@std@@2IB 1007da28     libcpmtd:xthrow.obj
 0002:00001a2c       ?is_specialized@_Num_int_base@std@@2_NB 1007da2c     libcpmtd:xthrow.obj
 0002:00001a30       ?radix@_Num_int_base@std@@2HB 1007da30     libcpmtd:xthrow.obj
 0002:00001a34       ?has_denorm@_Num_float_base@std@@2W4float_denorm_style@2@B 1007da34     libcpmtd:xthrow.obj
 0002:00001a38       ?has_denorm_loss@_Num_float_base@std@@2_NB 1007da38     libcpmtd:xthrow.obj
 0002:00001a39       ?has_infinity@_Num_float_base@std@@2_NB 1007da39     libcpmtd:xthrow.obj
 0002:00001a40       ??_7bad_alloc@std@@6B@     1007da40     libcpmtd:xthrow.obj
 0002:00001a48       ??_C@_0P@GHFPNOJB@bad?5allocation?$AA@ 1007da48     libcpmtd:xthrow.obj
 0002:00001a5c       ??_7length_error@std@@6B@  1007da5c     libcpmtd:xthrow.obj
 0002:00001a68       ??_7runtime_error@std@@6B@ 1007da68     libcpmtd:xthrow.obj
 0002:00001a74       ??_7overflow_error@std@@6B@ 1007da74     libcpmtd:xthrow.obj
 0002:00001a80       ??_7bad_function_call@std@@6B@ 1007da80     libcpmtd:xthrow.obj
 0002:00001a88       ??_C@_0BC@DPJNKNAF@bad?5function?5call?$AA@ 1007da88     libcpmtd:xthrow.obj
 0002:00001aa0       ??_7error_category@std@@6B@ 1007daa0     libcpmtd:xthrow.obj
 0002:00001abc       ??_7_Generic_error_category@std@@6B@ 1007dabc     libcpmtd:xthrow.obj
 0002:00001ad4       ??_C@_07DCLBNMLN@generic?$AA@ 1007dad4     libcpmtd:xthrow.obj
 0002:00001adc       ??_C@_0O@BFJCFAAK@unknown?5error?$AA@ 1007dadc     libcpmtd:xthrow.obj
 0002:00001af0       ??_7_Iostream_error_category@std@@6B@ 1007daf0     libcpmtd:xthrow.obj
 0002:00001b08       ??_C@_08LLGCOLLL@iostream?$AA@ 1007db08     libcpmtd:xthrow.obj
 0002:00001b14       ??_C@_0BG@PADBLCHM@iostream?5stream?5error?$AA@ 1007db14     libcpmtd:xthrow.obj
 0002:00001b30       ??_7_System_error_category@std@@6B@ 1007db30     libcpmtd:xthrow.obj
 0002:00001b48       ??_C@_06FHFOAHML@system?$AA@ 1007db48     libcpmtd:xthrow.obj
 0002:00001b54       ??_7regex_error@std@@6B@   1007db54     libcpmtd:xthrow.obj
 0002:00001b60       ??_C@_0FI@CMNGHIFF@regex_error?$CIerror_collate?$CJ?3?5The?5@ 1007db60     libcpmtd:xthrow.obj
 0002:00001bb8       ??_C@_0FE@LJMHKIOC@regex_error?$CIerror_ctype?$CJ?3?5The?5ex@ 1007dbb8     libcpmtd:xthrow.obj
 0002:00001c10       ??_C@_0GI@HEGGMMDL@regex_error?$CIerror_escape?$CJ?3?5The?5e@ 1007dc10     libcpmtd:xthrow.obj
 0002:00001c78       ??_C@_0FA@HFMLPGNN@regex_error?$CIerror_backref?$CJ?3?5The?5@ 1007dc78     libcpmtd:xthrow.obj
 0002:00001cc8       ??_C@_0EH@LGEANNAL@regex_error?$CIerror_brack?$CJ?3?5The?5ex@ 1007dcc8     libcpmtd:xthrow.obj
 0002:00001d10       ??_C@_0EH@CAGOJGLE@regex_error?$CIerror_paren?$CJ?3?5The?5ex@ 1007dd10     libcpmtd:xthrow.obj
 0002:00001d58       ??_C@_0EH@DICJJKLO@regex_error?$CIerror_brace?$CJ?3?5The?5ex@ 1007dd58     libcpmtd:xthrow.obj
 0002:00001da0       ??_C@_0FM@BLDIHIBB@regex_error?$CIerror_badbrace?$CJ?3?5The@ 1007dda0     libcpmtd:xthrow.obj
 0002:00001e00       ??_C@_0HA@ICNJLCMC@regex_error?$CIerror_range?$CJ?3?5The?5ex@ 1007de00     libcpmtd:xthrow.obj
 0002:00001e70       ??_C@_0GP@PICOBCHA@regex_error?$CIerror_space?$CJ?3?5There?5@ 1007de70     libcpmtd:xthrow.obj
 0002:00001ee0       ??_C@_0FK@LCHHHEOA@regex_error?$CIerror_badrepeat?$CJ?3?5On@ 1007dee0     libcpmtd:xthrow.obj
 0002:00001f40       ??_C@_0HL@NEKOFBJA@regex_error?$CIerror_complexity?$CJ?3?5T@ 1007df40     libcpmtd:xthrow.obj
 0002:00001fc0       ??_C@_0JC@HCDLJLGO@regex_error?$CIerror_stack?$CJ?3?5There?5@ 1007dfc0     libcpmtd:xthrow.obj
 0002:00002054       ??_C@_0BJ@CHBLKGNM@regex_error?$CIerror_parse?$CJ?$AA@ 1007e054     libcpmtd:xthrow.obj
 0002:00002070       ??_C@_0BK@DFJCACNI@regex_error?$CIerror_syntax?$CJ?$AA@ 1007e070     libcpmtd:xthrow.obj
 0002:0000208c       ??_C@_0M@KGKAAGCA@regex_error?$AA@ 1007e08c     libcpmtd:xthrow.obj
 0002:00002098       ??_C@_1FA@OCLBCAFA@?$AAf?$AA?3?$AA?2?$AAd?$AAd?$AA?2?$AAv?$AAc?$AAt?$AAo?$AAo?$AAl?$AAs?$AA?2?$AAc?$AAr?$AAt?$AA?2?$AAc?$AAr?$AAt?$AAw?$AA3?$AA2?$AA?2?$AAs?$AAt?$AAd?$AAh?$AAp?$AAp?$AA?2@ 1007e098     libcpmtd:xthrow.obj
 0002:000020e8       ??_C@_0BA@JFNIOLAK@string?5too?5long?$AA@ 1007e0e8     libcpmtd:xthrow.obj
 0002:000020f8       ??_C@_0BI@CFPLBAOH@invalid?5string?5position?$AA@ 1007e0f8     libcpmtd:xthrow.obj
 0002:000025e0       ??_C@_0BC@CIJDGCDI@permission?5denied?$AA@ 1007e5e0     libcpmtd:syserror.obj
 0002:000025f4       ??_C@_0M@MIDIAGJP@file?5exists?$AA@ 1007e5f4     libcpmtd:syserror.obj
 0002:00002600       ??_C@_0P@FDINDDOK@no?5such?5device?$AA@ 1007e600     libcpmtd:syserror.obj
 0002:00002610       ??_C@_0BC@EJHOMAAK@filename?5too?5long?$AA@ 1007e610     libcpmtd:syserror.obj
 0002:00002624       ??_C@_0BI@NGCEHDD@device?5or?5resource?5busy?$AA@ 1007e624     libcpmtd:syserror.obj
 0002:0000263c       ??_C@_08GLNPIFBN@io?5error?$AA@ 1007e63c     libcpmtd:syserror.obj
 0002:00002648       ??_C@_0BE@JIDOCPHM@directory?5not?5empty?$AA@ 1007e648     libcpmtd:syserror.obj
 0002:0000265c       ??_C@_0BB@FCMFBGOM@invalid?5argument?$AA@ 1007e65c     libcpmtd:syserror.obj
 0002:00002670       ??_C@_0BD@IJDJKDEA@no?5space?5on?5device?$AA@ 1007e670     libcpmtd:syserror.obj
 0002:00002684       ??_C@_0BK@NDOCBPGE@no?5such?5file?5or?5directory?$AA@ 1007e684     libcpmtd:syserror.obj
 0002:000026a0       ??_C@_0BH@KEFGLDAF@function?5not?5supported?$AA@ 1007e6a0     libcpmtd:syserror.obj
 0002:000026b8       ??_C@_0BC@NJECKMKE@no?5lock?5available?$AA@ 1007e6b8     libcpmtd:syserror.obj
 0002:000026cc       ??_C@_0BC@ENOOLCNF@not?5enough?5memory?$AA@ 1007e6cc     libcpmtd:syserror.obj
 0002:000026e0       ??_C@_0BP@LKNGHENJ@resource?5unavailable?5try?5again?$AA@ 1007e6e0     libcpmtd:syserror.obj
 0002:00002700       ??_C@_0BC@PPHBOELF@cross?5device?5link?$AA@ 1007e700     libcpmtd:syserror.obj
 0002:00002714       ??_C@_0BD@MOLBPMEA@operation?5canceled?$AA@ 1007e714     libcpmtd:syserror.obj
 0002:00002728       ??_C@_0BE@GHAFMPAH@too?5many?5files?5open?$AA@ 1007e728     libcpmtd:syserror.obj
 0002:0000273c       ??_C@_0BC@FNODOBAE@permission_denied?$AA@ 1007e73c     libcpmtd:syserror.obj
 0002:00002750       ??_C@_0P@LNDJPBFK@address_in_use?$AA@ 1007e750     libcpmtd:syserror.obj
 0002:00002760       ??_C@_0BG@IPMGOJF@address_not_available?$AA@ 1007e760     libcpmtd:syserror.obj
 0002:00002778       ??_C@_0BN@LCBDHODA@address_family_not_supported?$AA@ 1007e778     libcpmtd:syserror.obj
 0002:00002798       ??_C@_0BP@FOJJHMCC@connection_already_in_progress?$AA@ 1007e798     libcpmtd:syserror.obj
 0002:000027b8       ??_C@_0BE@DLHHIBGN@bad_file_descriptor?$AA@ 1007e7b8     libcpmtd:syserror.obj
 0002:000027cc       ??_C@_0BD@OJMJDIGI@connection_aborted?$AA@ 1007e7cc     libcpmtd:syserror.obj
 0002:000027e0       ??_C@_0BD@NGKCIFEP@connection_refused?$AA@ 1007e7e0     libcpmtd:syserror.obj
 0002:000027f4       ??_C@_0BB@JOANDNCK@connection_reset?$AA@ 1007e7f4     libcpmtd:syserror.obj
 0002:00002808       ??_C@_0BN@JLJNLKLK@destination_address_required?$AA@ 1007e808     libcpmtd:syserror.obj
 0002:00002828       ??_C@_0M@IJGMGFGP@bad_address?$AA@ 1007e828     libcpmtd:syserror.obj
 0002:00002834       ??_C@_0BB@KKNHPPIN@host_unreachable?$AA@ 1007e834     libcpmtd:syserror.obj
 0002:00002848       ??_C@_0BG@DJGBJIIK@operation_in_progress?$AA@ 1007e848     libcpmtd:syserror.obj
 0002:00002860       ??_C@_0M@EGEKIIMP@interrupted?$AA@ 1007e860     libcpmtd:syserror.obj
 0002:0000286c       ??_C@_0BB@FFIHMIPJ@invalid_argument?$AA@ 1007e86c     libcpmtd:syserror.obj
 0002:00002880       ??_C@_0BC@FIFLCHLO@already_connected?$AA@ 1007e880     libcpmtd:syserror.obj
 0002:00002894       ??_C@_0BE@GJJJJDDA@too_many_files_open?$AA@ 1007e894     libcpmtd:syserror.obj
 0002:000028a8       ??_C@_0N@HPMLKHPL@message_size?$AA@ 1007e8a8     libcpmtd:syserror.obj
 0002:000028b8       ??_C@_0BC@LEEIKBAL@filename_too_long?$AA@ 1007e8b8     libcpmtd:syserror.obj
 0002:000028cc       ??_C@_0N@FCPALPJK@network_down?$AA@ 1007e8cc     libcpmtd:syserror.obj
 0002:000028dc       ??_C@_0O@EHNDLHIG@network_reset?$AA@ 1007e8dc     libcpmtd:syserror.obj
 0002:000028ec       ??_C@_0BE@JFNJIDNF@network_unreachable?$AA@ 1007e8ec     libcpmtd:syserror.obj
 0002:00002900       ??_C@_0BA@FDIJKJCL@no_buffer_space?$AA@ 1007e900     libcpmtd:syserror.obj
 0002:00002910       ??_C@_0BD@JHIHCGKP@no_protocol_option?$AA@ 1007e910     libcpmtd:syserror.obj
 0002:00002924       ??_C@_0O@GBCLHHD@not_connected?$AA@ 1007e924     libcpmtd:syserror.obj
 0002:00002934       ??_C@_0N@IMHKKLEM@not_a_socket?$AA@ 1007e934     libcpmtd:syserror.obj
 0002:00002944       ??_C@_0BI@ICEIDKLJ@operation_not_supported?$AA@ 1007e944     libcpmtd:syserror.obj
 0002:0000295c       ??_C@_0BH@KAPBAIJF@protocol_not_supported?$AA@ 1007e95c     libcpmtd:syserror.obj
 0002:00002974       ??_C@_0BE@GAOJJFPC@wrong_protocol_type?$AA@ 1007e974     libcpmtd:syserror.obj
 0002:00002988       ??_C@_09NCHNLHPG@timed_out?$AA@ 1007e988     libcpmtd:syserror.obj
 0002:00002994       ??_C@_0BG@GDGHKFDH@operation_would_block?$AA@ 1007e994     libcpmtd:syserror.obj
 0002:000029ac       ??_C@_0BN@LKKBCCDB@address?5family?5not?5supported?$AA@ 1007e9ac     libcpmtd:syserror.obj
 0002:000029cc       ??_C@_0P@LDMLAFHI@address?5in?5use?$AA@ 1007e9cc     libcpmtd:syserror.obj
 0002:000029dc       ??_C@_0BG@DHPCNBJB@address?5not?5available?$AA@ 1007e9dc     libcpmtd:syserror.obj
 0002:000029f4       ??_C@_0BC@DFIBIBIL@already?5connected?$AA@ 1007e9f4     libcpmtd:syserror.obj
 0002:00002a08       ??_C@_0BH@CAKOHOMI@argument?5list?5too?5long?$AA@ 1007ea08     libcpmtd:syserror.obj
 0002:00002a20       ??_C@_0BH@CGIMPKIM@argument?5out?5of?5domain?$AA@ 1007ea20     libcpmtd:syserror.obj
 0002:00002a38       ??_C@_0M@KGHGGJGL@bad?5address?$AA@ 1007ea38     libcpmtd:syserror.obj
 0002:00002a44       ??_C@_0BE@MPJPGCEO@bad?5file?5descriptor?$AA@ 1007ea44     libcpmtd:syserror.obj
 0002:00002a58       ??_C@_0M@PMMIEFCP@bad?5message?$AA@ 1007ea58     libcpmtd:syserror.obj
 0002:00002a64       ??_C@_0M@KPHOFDBE@broken?5pipe?$AA@ 1007ea64     libcpmtd:syserror.obj
 0002:00002a70       ??_C@_0BD@MGNDDEGM@connection?5aborted?$AA@ 1007ea70     libcpmtd:syserror.obj
 0002:00002a84       ??_C@_0BP@KAIHPOGN@connection?5already?5in?5progress?$AA@ 1007ea84     libcpmtd:syserror.obj
 0002:00002aa4       ??_C@_0BD@PJLIIJEL@connection?5refused?$AA@ 1007eaa4     libcpmtd:syserror.obj
 0002:00002ab8       ??_C@_0BB@IECNJNOI@connection?5reset?$AA@ 1007eab8     libcpmtd:syserror.obj
 0002:00002acc       ??_C@_0BN@KDMIFEIP@destination?5address?5required?$AA@ 1007eacc     libcpmtd:syserror.obj
 0002:00002aec       ??_C@_0BI@BNCLIGPB@executable?5format?5error?$AA@ 1007eaec     libcpmtd:syserror.obj
 0002:00002b04       ??_C@_0P@DNAJLBJK@file?5too?5large?$AA@ 1007eb04     libcpmtd:syserror.obj
 0002:00002b14       ??_C@_0BB@DHFDFGDM@host?5unreachable?$AA@ 1007eb14     libcpmtd:syserror.obj
 0002:00002b28       ??_C@_0BD@JPHBMONG@identifier?5removed?$AA@ 1007eb28     libcpmtd:syserror.obj
 0002:00002b3c       ??_C@_0BG@CDNPAGJK@illegal?5byte?5sequence?$AA@ 1007eb3c     libcpmtd:syserror.obj
 0002:00002b54       ??_C@_0CD@BNPLBMNA@inappropriate?5io?5control?5operati@ 1007eb54     libcpmtd:syserror.obj
 0002:00002b78       ??_C@_0N@OHAFKDEK@invalid?5seek?$AA@ 1007eb78     libcpmtd:syserror.obj
 0002:00002b88       ??_C@_0P@FLLDBIDK@is?5a?5directory?$AA@ 1007eb88     libcpmtd:syserror.obj
 0002:00002b98       ??_C@_0N@IFLPBIOP@message?5size?$AA@ 1007eb98     libcpmtd:syserror.obj
 0002:00002ba8       ??_C@_0N@KIIEAAIO@network?5down?$AA@ 1007eba8     libcpmtd:syserror.obj
 0002:00002bb8       ??_C@_0O@FNPDBHEE@network?5reset?$AA@ 1007ebb8     libcpmtd:syserror.obj
 0002:00002bc8       ??_C@_0BE@IFNCKGE@network?5unreachable?$AA@ 1007ebc8     libcpmtd:syserror.obj
 0002:00002bdc       ??_C@_0BA@PFFCAOFK@no?5buffer?5space?$AA@ 1007ebdc     libcpmtd:syserror.obj
 0002:00002bec       ??_C@_0BB@IEPBLJHK@no?5child?5process?$AA@ 1007ebec     libcpmtd:syserror.obj
 0002:00002c00       ??_C@_07PLECNNKG@no?5link?$AA@ 1007ec00     libcpmtd:syserror.obj
 0002:00002c08       ??_C@_0BF@PBGGPKKE@no?5message?5available?$AA@ 1007ec08     libcpmtd:syserror.obj
 0002:00002c20       ??_C@_0L@EDOLMPAK@no?5message?$AA@ 1007ec20     libcpmtd:syserror.obj
 0002:00002c2c       ??_C@_0BD@EAMBFIDF@no?5protocol?5option?$AA@ 1007ec2c     libcpmtd:syserror.obj
 0002:00002c40       ??_C@_0BE@MKFDAFMP@no?5stream?5resources?$AA@ 1007ec40     libcpmtd:syserror.obj
 0002:00002c54       ??_C@_0BK@IMCPHCBI@no?5such?5device?5or?5address?$AA@ 1007ec54     libcpmtd:syserror.obj
 0002:00002c70       ??_C@_0BA@ENLPPKBN@no?5such?5process?$AA@ 1007ec70     libcpmtd:syserror.obj
 0002:00002c80       ??_C@_0BA@DOCPFFJG@not?5a?5directory?$AA@ 1007ec80     libcpmtd:syserror.obj
 0002:00002c90       ??_C@_0N@POEIPGGF@not?5a?5socket?$AA@ 1007ec90     libcpmtd:syserror.obj
 0002:00002ca0       ??_C@_0N@LGAPMMPI@not?5a?5stream?$AA@ 1007eca0     libcpmtd:syserror.obj
 0002:00002cb0       ??_C@_0O@GLMIBBEG@not?5connected?$AA@ 1007ecb0     libcpmtd:syserror.obj
 0002:00002cc0       ??_C@_0O@NHEDABJP@not?5supported?$AA@ 1007ecc0     libcpmtd:syserror.obj
 0002:00002cd0       ??_C@_0BG@KDKHOPCO@operation?5in?5progress?$AA@ 1007ecd0     libcpmtd:syserror.obj
 0002:00002ce8       ??_C@_0BI@OHIEJAAB@operation?5not?5permitted?$AA@ 1007ece8     libcpmtd:syserror.obj
 0002:00002d00       ??_C@_0BI@LNEGIFLN@operation?5not?5supported?$AA@ 1007ed00     libcpmtd:syserror.obj
 0002:00002d18       ??_C@_0BG@OEMDKMEE@operation?5would?5block?$AA@ 1007ed18     libcpmtd:syserror.obj
 0002:00002d30       ??_C@_0L@BLPOFLNJ@owner?5dead?$AA@ 1007ed30     libcpmtd:syserror.obj
 0002:00002d3c       ??_C@_0P@FNPOCJBE@protocol?5error?$AA@ 1007ed3c     libcpmtd:syserror.obj
 0002:00002d4c       ??_C@_0BH@JPPPLHJB@protocol?5not?5supported?$AA@ 1007ed4c     libcpmtd:syserror.obj
 0002:00002d64       ??_C@_0BG@EICBIHDP@read?5only?5file?5system?$AA@ 1007ed64     libcpmtd:syserror.obj
 0002:00002d7c       ??_C@_0BO@BJBOMOEJ@resource?5deadlock?5would?5occur?$AA@ 1007ed7c     libcpmtd:syserror.obj
 0002:00002d9c       ??_C@_0BE@GOIPJJHG@result?5out?5of?5range?$AA@ 1007ed9c     libcpmtd:syserror.obj
 0002:00002db0       ??_C@_0BG@MPLKFPAE@state?5not?5recoverable?$AA@ 1007edb0     libcpmtd:syserror.obj
 0002:00002dc8       ??_C@_0P@DIIFGFCG@stream?5timeout?$AA@ 1007edc8     libcpmtd:syserror.obj
 0002:00002dd8       ??_C@_0P@IPFDMIFL@text?5file?5busy?$AA@ 1007edd8     libcpmtd:syserror.obj
 0002:00002de8       ??_C@_09KJPPMAOI@timed?5out?$AA@ 1007ede8     libcpmtd:syserror.obj
 0002:00002df4       ??_C@_0BO@HACHBEKI@too?5many?5files?5open?5in?5system?$AA@ 1007edf4     libcpmtd:syserror.obj
 0002:00002e14       ??_C@_0P@HCOMKFCC@too?5many?5links?$AA@ 1007ee14     libcpmtd:syserror.obj
 0002:00002e24       ??_C@_0BO@EFGOJEF@too?5many?5symbolic?5link?5levels?$AA@ 1007ee24     libcpmtd:syserror.obj
 0002:00002e44       ??_C@_0BA@KGKGOOJA@value?5too?5large?$AA@ 1007ee44     libcpmtd:syserror.obj
 0002:00002e54       ??_C@_0BE@MIEJDDNH@wrong?5protocol?5type?$AA@ 1007ee54     libcpmtd:syserror.obj
 0002:00002e68       ??_C@_17LGKOMLJ@?$AA?4?$AA?4?$AA?4?$AA?$AA@ 1007ee68     LIBCMTD:wassert.obj
 0002:00002e70       ??_C@_13LBAGMAIH@?$AA?6?$AA?$AA@ 1007ee70     LIBCMTD:wassert.obj
 0002:00002e74       ??_C@_15IABLJNFO@?$AA?6?$AA?6?$AA?$AA@ 1007ee74     LIBCMTD:wassert.obj
 0002:00002e80       ??_C@_1EO@DPPHNOPL@?$AAf?$AA?3?$AA?2?$AAd?$AAd?$AA?2?$AAv?$AAc?$AAt?$AAo?$AAo?$AAl?$AAs?$AA?2?$AAc?$AAr?$AAt?$AA?2?$AAc?$AAr?$AAt?$AAw?$AA3?$AA2?$AA?2?$AAm?$AAi?$AAs?$AAc?$AA?2?$AAa?$AAs@ 1007ee80     LIBCMTD:wassert.obj
 0002:00002ed0       ??_C@_1BC@LNOOMFNA@?$AA_?$AAw?$AAa?$AAs?$AAs?$AAe?$AAr?$AAt?$AA?$AA@ 1007eed0     LIBCMTD:wassert.obj
 0002:00002ee8       ??_C@_1GM@PANFFKAD@?$AAw?$AAc?$AAs?$AAc?$AAp?$AAy?$AA_?$AAs?$AA?$CI?$AA?5?$AAa?$AAs?$AAs?$AAe?$AAr?$AAt?$AAb?$AAu?$AAf?$AA?0?$AA?5?$AA?$CI?$AA6?$AA4?$AA?5?$AA?$CK?$AA?5?$AA9?$AA?$CJ?$AA?0?$AA?5?$AAL@ 1007eee8     LIBCMTD:wassert.obj
 0002:00002f54       ??_C@_1CE@OJBNHDMO@?$AAA?$AAs?$AAs?$AAe?$AAr?$AAt?$AAi?$AAo?$AAn?$AA?5?$AAf?$AAa?$AAi?$AAl?$AAe?$AAd?$AA?$CB?$AA?$AA@ 1007ef54     LIBCMTD:wassert.obj
 0002:00002f78       ??_C@_1FI@OJONHFCN@?$AAw?$AAc?$AAs?$AAc?$AAa?$AAt?$AA_?$AAs?$AA?$CI?$AA?5?$AAa?$AAs?$AAs?$AAe?$AAr?$AAt?$AAb?$AAu?$AAf?$AA?0?$AA?5?$AA?$CI?$AA6?$AA4?$AA?5?$AA?$CK?$AA?5?$AA9?$AA?$CJ?$AA?0?$AA?5?$AAd@ 1007ef78     LIBCMTD:wassert.obj
 0002:00002fd0       ??_C@_1FM@JONFCKBO@?$AAw?$AAc?$AAs?$AAc?$AAa?$AAt?$AA_?$AAs?$AA?$CI?$AA?5?$AAa?$AAs?$AAs?$AAe?$AAr?$AAt?$AAb?$AAu?$AAf?$AA?0?$AA?5?$AA?$CI?$AA6?$AA4?$AA?5?$AA?$CK?$AA?5?$AA9?$AA?$CJ?$AA?0?$AA?5?$AAL@ 1007efd0     LIBCMTD:wassert.obj
 0002:0000302c       ??_C@_1BE@PHKBBGE@?$AAP?$AAr?$AAo?$AAg?$AAr?$AAa?$AAm?$AA?3?$AA?5?$AA?$AA@ 1007f02c     LIBCMTD:wassert.obj
 0002:00003040       ??_C@_1HA@EPFCONEE@?$AAw?$AAc?$AAs?$AAc?$AAp?$AAy?$AA_?$AAs?$AA?$CI?$AA?5?$AAp?$AAr?$AAo?$AAg?$AAn?$AAa?$AAm?$AAe?$AA?0?$AA?5?$AA2?$AA6?$AA0?$AA?5?$AA?$CL?$AA?5?$AA1?$AA?0?$AA?5?$AAL?$AA?$CC?$AA?$DM@ 1007f040     LIBCMTD:wassert.obj
 0002:000030b0       ??_C@_1CO@EAEJAADC@?$AA?$DM?$AAp?$AAr?$AAo?$AAg?$AAr?$AAa?$AAm?$AA?5?$AAn?$AAa?$AAm?$AAe?$AA?5?$AAu?$AAn?$AAk?$AAn?$AAo?$AAw?$AAn?$AA?$DO?$AA?$AA@ 1007f0b0     LIBCMTD:wassert.obj
 0002:000030e0       ??_C@_1LK@LGFOFOMH@?$AAm?$AAe?$AAm?$AAc?$AAp?$AAy?$AA_?$AAs?$AA?$CI?$AAp?$AAc?$AAh?$AA?0?$AA?5?$AAs?$AAi?$AAz?$AAe?$AAo?$AAf?$AA?$CI?$AAT?$AAC?$AAH?$AAA?$AAR?$AA?$CJ?$AA?5?$AA?$CK?$AA?5?$AA?$CI?$AA?$CI@ 1007f0e0     LIBCMTD:wassert.obj
 0002:000031a0       ??_C@_1EK@BFAHOLDO@?$AAw?$AAc?$AAs?$AAc?$AAa?$AAt?$AA_?$AAs?$AA?$CI?$AA?5?$AAa?$AAs?$AAs?$AAe?$AAr?$AAt?$AAb?$AAu?$AAf?$AA?0?$AA?5?$AA?$CI?$AA6?$AA4?$AA?5?$AA?$CK?$AA?5?$AA9?$AA?$CJ?$AA?0?$AA?5?$AAp@ 1007f1a0     LIBCMTD:wassert.obj
 0002:000031f0       ??_C@_1FC@GNPGDADJ@?$AAw?$AAc?$AAs?$AAc?$AAa?$AAt?$AA_?$AAs?$AA?$CI?$AA?5?$AAa?$AAs?$AAs?$AAe?$AAr?$AAt?$AAb?$AAu?$AAf?$AA?0?$AA?5?$AA?$CI?$AA6?$AA4?$AA?5?$AA?$CK?$AA?5?$AA9?$AA?$CJ?$AA?0?$AA?5?$AAn@ 1007f1f0     LIBCMTD:wassert.obj
 0002:00003248       ??_C@_1FG@NHACFNEK@?$AAw?$AAc?$AAs?$AAc?$AAa?$AAt?$AA_?$AAs?$AA?$CI?$AA?5?$AAa?$AAs?$AAs?$AAe?$AAr?$AAt?$AAb?$AAu?$AAf?$AA?0?$AA?5?$AA?$CI?$AA6?$AA4?$AA?5?$AA?$CK?$AA?5?$AA9?$AA?$CJ?$AA?0?$AA?5?$AAL@ 1007f248     LIBCMTD:wassert.obj
 0002:000032a0       ??_C@_1O@HEMHKNDC@?$AAF?$AAi?$AAl?$AAe?$AA?3?$AA?5?$AA?$AA@ 1007f2a0     LIBCMTD:wassert.obj
 0002:000032b0       ??_C@_1GG@PKOIFPHI@?$AAw?$AAc?$AAs?$AAn?$AAc?$AAa?$AAt?$AA_?$AAs?$AA?$CI?$AA?5?$AAa?$AAs?$AAs?$AAe?$AAr?$AAt?$AAb?$AAu?$AAf?$AA?0?$AA?5?$AA?$CI?$AA6?$AA4?$AA?5?$AA?$CK?$AA?5?$AA9?$AA?$CJ?$AA?0?$AA?5@ 1007f2b0     LIBCMTD:wassert.obj
 0002:00003318       ??_C@_1FG@PLMFGJFG@?$AAw?$AAc?$AAs?$AAc?$AAa?$AAt?$AA_?$AAs?$AA?$CI?$AA?5?$AAa?$AAs?$AAs?$AAe?$AAr?$AAt?$AAb?$AAu?$AAf?$AA?0?$AA?5?$AA?$CI?$AA6?$AA4?$AA?5?$AA?$CK?$AA?5?$AA9?$AA?$CJ?$AA?0?$AA?5?$AAd@ 1007f318     LIBCMTD:wassert.obj
 0002:00003370       ??_C@_1FO@HPHMICDB@?$AAw?$AAc?$AAs?$AAc?$AAa?$AAt?$AA_?$AAs?$AA?$CI?$AA?5?$AAa?$AAs?$AAs?$AAe?$AAr?$AAt?$AAb?$AAu?$AAf?$AA?0?$AA?5?$AA?$CI?$AA6?$AA4?$AA?5?$AA?$CK?$AA?5?$AA9?$AA?$CJ?$AA?0?$AA?5?$AAp@ 1007f370     LIBCMTD:wassert.obj
 0002:000033d0       ??_C@_1GO@KNIHEHNA@?$AAw?$AAc?$AAs?$AAn?$AAc?$AAa?$AAt?$AA_?$AAs?$AA?$CI?$AA?5?$AAa?$AAs?$AAs?$AAe?$AAr?$AAt?$AAb?$AAu?$AAf?$AA?0?$AA?5?$AA?$CI?$AA6?$AA4?$AA?5?$AA?$CK?$AA?5?$AA9?$AA?$CJ?$AA?0?$AA?5@ 1007f3d0     LIBCMTD:wassert.obj
 0002:00003440       ??_C@_1HG@FHHFPPED@?$AAw?$AAc?$AAs?$AAn?$AAc?$AAa?$AAt?$AA_?$AAs?$AA?$CI?$AA?5?$AAa?$AAs?$AAs?$AAe?$AAr?$AAt?$AAb?$AAu?$AAf?$AA?0?$AA?5?$AA?$CI?$AA6?$AA4?$AA?5?$AA?$CK?$AA?5?$AA9?$AA?$CJ?$AA?0?$AA?5@ 1007f440     LIBCMTD:wassert.obj
 0002:000034b8       ??_C@_1IC@JGCGJJHO@?$AAw?$AAc?$AAs?$AAc?$AAa?$AAt?$AA_?$AAs?$AA?$CI?$AA?5?$AAa?$AAs?$AAs?$AAe?$AAr?$AAt?$AAb?$AAu?$AAf?$AA?0?$AA?5?$AA?$CI?$AA6?$AA4?$AA?5?$AA?$CK?$AA?5?$AA9?$AA?$CJ?$AA?0?$AA?5?$AAp@ 1007f4b8     LIBCMTD:wassert.obj
 0002:00003540       ??_C@_1FE@NDOBOCBD@?$AAw?$AAc?$AAs?$AAc?$AAa?$AAt?$AA_?$AAs?$AA?$CI?$AA?5?$AAa?$AAs?$AAs?$AAe?$AAr?$AAt?$AAb?$AAu?$AAf?$AA?0?$AA?5?$AA?$CI?$AA6?$AA4?$AA?5?$AA?$CK?$AA?5?$AA9?$AA?$CJ?$AA?0?$AA?5?$AAf@ 1007f540     LIBCMTD:wassert.obj
 0002:00003598       ??_C@_1FG@HLHNIBH@?$AAw?$AAc?$AAs?$AAc?$AAa?$AAt?$AA_?$AAs?$AA?$CI?$AA?5?$AAa?$AAs?$AAs?$AAe?$AAr?$AAt?$AAb?$AAu?$AAf?$AA?0?$AA?5?$AA?$CI?$AA6?$AA4?$AA?5?$AA?$CK?$AA?5?$AA9?$AA?$CJ?$AA?0?$AA?5?$AAL@ 1007f598     LIBCMTD:wassert.obj
 0002:000035f0       ??_C@_1O@KCAFKHJE@?$AAL?$AAi?$AAn?$AAe?$AA?3?$AA?5?$AA?$AA@ 1007f5f0     LIBCMTD:wassert.obj
 0002:00003600       ??_C@_1KG@NJJPHNOK@?$AA_?$AAi?$AAt?$AAo?$AAw?$AA_?$AAs?$AA?$CI?$AA?5?$AAl?$AAi?$AAn?$AAe?$AAn?$AAo?$AA?0?$AA?5?$AAa?$AAs?$AAs?$AAe?$AAr?$AAt?$AAb?$AAu?$AAf?$AA?5?$AA?$CL?$AA?5?$AAw?$AAc?$AAs@ 1007f600     LIBCMTD:wassert.obj
 0002:000036a8       ??_C@_1GC@CFDADAM@?$AAw?$AAc?$AAs?$AAc?$AAa?$AAt?$AA_?$AAs?$AA?$CI?$AA?5?$AAa?$AAs?$AAs?$AAe?$AAr?$AAt?$AAb?$AAu?$AAf?$AA?0?$AA?5?$AA?$CI?$AA6?$AA4?$AA?5?$AA?$CK?$AA?5?$AA9?$AA?$CJ?$AA?0?$AA?5?$AAL@ 1007f6a8     LIBCMTD:wassert.obj
 0002:0000370c       ??_C@_1BK@PEDCIPMA@?$AAE?$AAx?$AAp?$AAr?$AAe?$AAs?$AAs?$AAi?$AAo?$AAn?$AA?3?$AA?5?$AA?$AA@ 1007f70c     LIBCMTD:wassert.obj
 0002:00003728       ??_C@_1CHM@HIHGOMKE@?$AAw?$AAc?$AAs?$AAn?$AAc?$AAa?$AAt?$AA_?$AAs?$AA?$CI?$AA?5?$AAa?$AAs?$AAs?$AAe?$AAr?$AAt?$AAb?$AAu?$AAf?$AA?0?$AA?5?$AA?$CI?$AA6?$AA4?$AA?5?$AA?$CK?$AA?5?$AA9?$AA?$CJ?$AA?0?$AA?5@ 1007f728     LIBCMTD:wassert.obj
 0002:000039a8       ??_C@_1EM@DAMJKKKC@?$AAw?$AAc?$AAs?$AAc?$AAa?$AAt?$AA_?$AAs?$AA?$CI?$AA?5?$AAa?$AAs?$AAs?$AAe?$AAr?$AAt?$AAb?$AAu?$AAf?$AA?0?$AA?5?$AA?$CI?$AA6?$AA4?$AA?5?$AA?$CK?$AA?5?$AA9?$AA?$CJ?$AA?0?$AA?5?$AAe@ 1007f9a8     LIBCMTD:wassert.obj
 0002:000039f8       ??_C@_1BCO@GAGHDLIF@?$AAw?$AAc?$AAs?$AAc?$AAa?$AAt?$AA_?$AAs?$AA?$CI?$AAa?$AAs?$AAs?$AAe?$AAr?$AAt?$AAb?$AAu?$AAf?$AA?0?$AA?5?$AA?$CI?$AA6?$AA4?$AA?5?$AA?$CK?$AA?5?$AA9?$AA?$CJ?$AA?0?$AA?5?$AAL?$AA?$CC@ 1007f9f8     LIBCMTD:wassert.obj
 0002:00003b28       ??_C@_1OA@EGMLFBHJ@?$AAF?$AAo?$AAr?$AA?5?$AAi?$AAn?$AAf?$AAo?$AAr?$AAm?$AAa?$AAt?$AAi?$AAo?$AAn?$AA?5?$AAo?$AAn?$AA?5?$AAh?$AAo?$AAw?$AA?5?$AAy?$AAo?$AAu?$AAr?$AA?5?$AAp?$AAr?$AAo?$AAg@ 1007fb28     LIBCMTD:wassert.obj
 0002:00003c08       ??_C@_1FG@IFIHHMNM@?$AAw?$AAc?$AAs?$AAc?$AAa?$AAt?$AA_?$AAs?$AA?$CI?$AAa?$AAs?$AAs?$AAe?$AAr?$AAt?$AAb?$AAu?$AAf?$AA?0?$AA?5?$AA?$CI?$AA6?$AA4?$AA?5?$AA?$CK?$AA?5?$AA9?$AA?$CJ?$AA?0?$AA?5?$AAd?$AAb@ 1007fc08     LIBCMTD:wassert.obj
 0002:00003c60       ??_C@_1LO@CHAFGADE@?$AAw?$AAc?$AAs?$AAc?$AAa?$AAt?$AA_?$AAs?$AA?$CI?$AAa?$AAs?$AAs?$AAe?$AAr?$AAt?$AAb?$AAu?$AAf?$AA?0?$AA?5?$AA?$CI?$AA6?$AA4?$AA?5?$AA?$CK?$AA?5?$AA9?$AA?$CJ?$AA?0?$AA?5?$AAL?$AA?$CC@ 1007fc60     LIBCMTD:wassert.obj
 0002:00003d20       ??_C@_1HK@POCJMFGK@?$AA?$CI?$AAP?$AAr?$AAe?$AAs?$AAs?$AA?5?$AAR?$AAe?$AAt?$AAr?$AAy?$AA?5?$AAt?$AAo?$AA?5?$AAd?$AAe?$AAb?$AAu?$AAg?$AA?5?$AAt?$AAh?$AAe?$AA?5?$AAa?$AAp?$AAp?$AAl?$AAi?$AAc@ 1007fd20     LIBCMTD:wassert.obj
 0002:00003da0       ??_C@_1EK@MBDPDCGA@?$AAM?$AAi?$AAc?$AAr?$AAo?$AAs?$AAo?$AAf?$AAt?$AA?5?$AAV?$AAi?$AAs?$AAu?$AAa?$AAl?$AA?5?$AAC?$AA?$CL?$AA?$CL?$AA?5?$AAR?$AAu?$AAn?$AAt?$AAi?$AAm?$AAe?$AA?5?$AAL?$AAi?$AAb@ 1007fda0     LIBCMTD:wassert.obj
 0002:00003dec       __FPinit                   1007fdec     LIBCMTD:fpinit.obj
 0002:00003df0       ??_C@_1EO@LHDAJOCM@?$AA_?$AAB?$AAL?$AAO?$AAC?$AAK?$AA_?$AAT?$AAY?$AAP?$AAE?$AA_?$AAI?$AAS?$AA_?$AAV?$AAA?$AAL?$AAI?$AAD?$AA?$CI?$AAp?$AAH?$AAe?$AAa?$AAd?$AA?9?$AA?$DO?$AAn?$AAB?$AAl?$AAo@ 1007fdf0     LIBCMTD:dbgdel.obj
 0002:00003e40       ??_C@_1FC@BHNGAOAE@?$AAf?$AA?3?$AA?2?$AAd?$AAd?$AA?2?$AAv?$AAc?$AAt?$AAo?$AAo?$AAl?$AAs?$AA?2?$AAc?$AAr?$AAt?$AA?2?$AAc?$AAr?$AAt?$AAw?$AA3?$AA2?$AA?2?$AAm?$AAi?$AAs?$AAc?$AA?2?$AAd?$AAb@ 1007fe40     LIBCMTD:dbgdel.obj
 0002:00003e94       ?ProcessDetach@NativeDll@<CrtImplementationDetails>@@0IB 1007fe94     LIBCMTD:_trnsctrl_.obj
 0002:00003e98       ?ProcessAttach@NativeDll@<CrtImplementationDetails>@@0IB 1007fe98     LIBCMTD:_trnsctrl_.obj
 0002:00003e9c       ?ThreadAttach@NativeDll@<CrtImplementationDetails>@@0IB 1007fe9c     LIBCMTD:_trnsctrl_.obj
 0002:00003ea0       ?ThreadDetach@NativeDll@<CrtImplementationDetails>@@0IB 1007fea0     LIBCMTD:_trnsctrl_.obj
 0002:00003ea4       ?ProcessVerifier@NativeDll@<CrtImplementationDetails>@@0IB 1007fea4     LIBCMTD:_trnsctrl_.obj
 0002:00003ea8       ??_C@_1CC@FADMNIL@?$AA?$CI?$AAs?$AAt?$AAr?$AAe?$AAa?$AAm?$AA?5?$AA?$CB?$AA?$DN?$AA?5?$AAN?$AAU?$AAL?$AAL?$AA?$CJ?$AA?$AA@ 1007fea8     LIBCMTD:fclose.obj
 0002:00003ed0       ??_C@_1FA@HHFEGMDA@?$AAf?$AA?3?$AA?2?$AAd?$AAd?$AA?2?$AAv?$AAc?$AAt?$AAo?$AAo?$AAl?$AAs?$AA?2?$AAc?$AAr?$AAt?$AA?2?$AAc?$AAr?$AAt?$AAw?$AA3?$AA2?$AA?2?$AAs?$AAt?$AAd?$AAi?$AAo?$AA?2?$AAf@ 1007fed0     LIBCMTD:fclose.obj
 0002:00003f20       ??_C@_1O@EGMJNCOI@?$AAf?$AAc?$AAl?$AAo?$AAs?$AAe?$AA?$AA@ 1007ff20     LIBCMTD:fclose.obj
 0002:00003f30       ??_C@_1BM@JMKHIAHP@?$AA?$CI?$AAs?$AAt?$AAr?$AA?5?$AA?$CB?$AA?$DN?$AA?5?$AAN?$AAU?$AAL?$AAL?$AA?$CJ?$AA?$AA@ 1007ff30     LIBCMTD:fclose.obj
 0002:00003f4c       ??_C@_1BO@JINCABEC@?$AA_?$AAf?$AAc?$AAl?$AAo?$AAs?$AAe?$AA_?$AAn?$AAo?$AAl?$AAo?$AAc?$AAk?$AA?$AA@ 1007ff4c     LIBCMTD:fclose.obj
 0002:00003f6c       ??_C@_1BO@CLGIAEOJ@?$AA?$CI?$AAf?$AAi?$AAl?$AAe?$AA?5?$AA?$CB?$AA?$DN?$AA?5?$AAN?$AAU?$AAL?$AAL?$AA?$CJ?$AA?$AA@ 1007ff6c     LIBCMTD:fopen.obj
 0002:00003f90       ??_C@_1EO@HOHPPGLK@?$AAf?$AA?3?$AA?2?$AAd?$AAd?$AA?2?$AAv?$AAc?$AAt?$AAo?$AAo?$AAl?$AAs?$AA?2?$AAc?$AAr?$AAt?$AA?2?$AAc?$AAr?$AAt?$AAw?$AA3?$AA2?$AA?2?$AAs?$AAt?$AAd?$AAi?$AAo?$AA?2?$AAf@ 1007ff90     LIBCMTD:fopen.obj
 0002:00003fe0       ??_C@_1BA@HNEAFMNL@?$AA_?$AAf?$AAs?$AAo?$AAp?$AAe?$AAn?$AA?$AA@ 1007ffe0     LIBCMTD:fopen.obj
 0002:00003ff0       ??_C@_1BO@MJMKAKCJ@?$AA?$CI?$AAm?$AAo?$AAd?$AAe?$AA?5?$AA?$CB?$AA?$DN?$AA?5?$AAN?$AAU?$AAL?$AAL?$AA?$CJ?$AA?$AA@ 1007fff0     LIBCMTD:fopen.obj
 0002:00004010       ??_C@_1CI@HBNALCBB@?$AA?$CI?$AA?$CK?$AAm?$AAo?$AAd?$AAe?$AA?5?$AA?$CB?$AA?$DN?$AA?5?$AA_?$AAT?$AA?$CI?$AA?8?$AA?2?$AA0?$AA?8?$AA?$CJ?$AA?$CJ?$AA?$AA@ 10080010     LIBCMTD:fopen.obj
 0002:00004038       ??_C@_1CA@LLJLFCDN@?$AA?$CI?$AAp?$AAf?$AAi?$AAl?$AAe?$AA?5?$AA?$CB?$AA?$DN?$AA?5?$AAN?$AAU?$AAL?$AAL?$AA?$CJ?$AA?$AA@ 10080038     LIBCMTD:fopen.obj
 0002:00004058       ??_C@_1BA@PBGKCCAP@?$AAf?$AAo?$AAp?$AAe?$AAn?$AA_?$AAs?$AA?$AA@ 10080058     LIBCMTD:fopen.obj
 0002:00004068       ??_C@_1FC@FLPGPAOO@?$AAf?$AA?3?$AA?2?$AAd?$AAd?$AA?2?$AAv?$AAc?$AAt?$AAo?$AAo?$AAl?$AAs?$AA?2?$AAc?$AAr?$AAt?$AA?2?$AAc?$AAr?$AAt?$AAw?$AA3?$AA2?$AA?2?$AAs?$AAt?$AAd?$AAi?$AAo?$AA?2?$AAf@ 10080068     LIBCMTD:fprintf.obj
 0002:000040bc       ??_C@_1BA@DNOHIGNM@?$AAf?$AAp?$AAr?$AAi?$AAn?$AAt?$AAf?$AA?$AA@ 100800bc     LIBCMTD:fprintf.obj
 0002:000040cc       ??_C@_1CC@MGIEJOME@?$AA?$CI?$AAf?$AAo?$AAr?$AAm?$AAa?$AAt?$AA?5?$AA?$CB?$AA?$DN?$AA?5?$AAN?$AAU?$AAL?$AAL?$AA?$CJ?$AA?$AA@ 100800cc     LIBCMTD:fprintf.obj
 0002:000040f0       ??_C@_1BAA@ODEGEDCK@?$AA?$CI?$AA?5?$AA?$CI?$AA_?$AAS?$AAt?$AAr?$AAe?$AAa?$AAm?$AA?9?$AA?$DO?$AA_?$AAf?$AAl?$AAa?$AAg?$AA?5?$AA?$CG?$AA?5?$AA_?$AAI?$AAO?$AAS?$AAT?$AAR?$AAG?$AA?$CJ?$AA?5?$AA?$HM?$AA?$HM?$AA?5@ 100800f0     LIBCMTD:fprintf.obj
 0002:000041f0       ??_C@_1FA@GMJBBNDK@?$AAf?$AA?3?$AA?2?$AAd?$AAd?$AA?2?$AAv?$AAc?$AAt?$AAo?$AAo?$AAl?$AAs?$AA?2?$AAc?$AAr?$AAt?$AA?2?$AAc?$AAr?$AAt?$AAw?$AA3?$AA2?$AA?2?$AAs?$AAt?$AAd?$AAi?$AAo?$AA?2?$AAp@ 100801f0     LIBCMTD:printf.obj
 0002:00004240       ??_C@_1O@GKDHFACN@?$AAp?$AAr?$AAi?$AAn?$AAt?$AAf?$AA?$AA@ 10080240     LIBCMTD:printf.obj
 0002:00004250       ??_C@_1FC@JALKILNE@?$AAf?$AA?3?$AA?2?$AAd?$AAd?$AA?2?$AAv?$AAc?$AAt?$AAo?$AAo?$AAl?$AAs?$AA?2?$AAc?$AAr?$AAt?$AA?2?$AAc?$AAr?$AAt?$AAw?$AA3?$AA2?$AA?2?$AAs?$AAt?$AAd?$AAi?$AAo?$AA?2?$AAs@ 10080250     LIBCMTD:snprintf.obj
 0002:000042a4       ??_C@_1BE@CHNFPLHD@?$AA_?$AAs?$AAn?$AAp?$AAr?$AAi?$AAn?$AAt?$AAf?$AA?$AA@ 100802a4     LIBCMTD:snprintf.obj
 0002:000042b8       ??_C@_1EC@FABAOFFO@?$AA?$CI?$AAc?$AAo?$AAu?$AAn?$AAt?$AA?5?$AA?$DN?$AA?$DN?$AA?5?$AA0?$AA?$CJ?$AA?5?$AA?$HM?$AA?$HM?$AA?5?$AA?$CI?$AAs?$AAt?$AAr?$AAi?$AAn?$AAg?$AA?5?$AA?$CB?$AA?$DN?$AA?5?$AAN?$AAU?$AAL?$AAL?$AA?$CJ@ 100802b8     LIBCMTD:snprintf.obj
 0002:00004308       ??_C@_1BA@GLMCNLEM@?$AAW?$AAa?$AAr?$AAn?$AAi?$AAn?$AAg?$AA?$AA@ 10080308     LIBCMTD:dbgrptw.obj
 0002:00004318       ??_C@_1M@ILHOPKA@?$AAE?$AAr?$AAr?$AAo?$AAr?$AA?$AA@ 10080318     LIBCMTD:dbgrptw.obj
 0002:00004324       ??_C@_1CC@CGHMNGDG@?$AAA?$AAs?$AAs?$AAe?$AAr?$AAt?$AAi?$AAo?$AAn?$AA?5?$AAF?$AAa?$AAi?$AAl?$AAe?$AAd?$AA?$AA@ 10080324     LIBCMTD:dbgrptw.obj
 0002:00004348       ??_C@_1HI@OFEHGPPC@?$AAm?$AAo?$AAd?$AAe?$AA?5?$AA?$DN?$AA?$DN?$AA?5?$AA_?$AAC?$AAR?$AAT?$AA_?$AAR?$AAP?$AAT?$AAH?$AAO?$AAO?$AAK?$AA_?$AAI?$AAN?$AAS?$AAT?$AAA?$AAL?$AAL?$AA?5?$AA?$HM?$AA?$HM?$AA?5@ 10080348     LIBCMTD:dbgrptw.obj
 0002:000043c0       ??_C@_1EO@JACJHHCK@?$AAf?$AA?3?$AA?2?$AAd?$AAd?$AA?2?$AAv?$AAc?$AAt?$AAo?$AAo?$AAl?$AAs?$AA?2?$AAc?$AAr?$AAt?$AA?2?$AAc?$AAr?$AAt?$AAw?$AA3?$AA2?$AA?2?$AAm?$AAi?$AAs?$AAc?$AA?2?$AAd?$AAb@ 100803c0     LIBCMTD:dbgrptw.obj
 0002:00004410       ??_C@_1CI@IIHEAKEI@?$AA_?$AAC?$AAr?$AAt?$AAS?$AAe?$AAt?$AAR?$AAe?$AAp?$AAo?$AAr?$AAt?$AAH?$AAo?$AAo?$AAk?$AAW?$AA2?$AA?$AA@ 10080410     LIBCMTD:dbgrptw.obj
 0002:00004438       ??_C@_1CG@JBJEFOCM@?$AAp?$AAf?$AAn?$AAN?$AAe?$AAw?$AAH?$AAo?$AAo?$AAk?$AA?5?$AA?$CB?$AA?$DN?$AA?5?$AAN?$AAU?$AAL?$AAL?$AA?$AA@ 10080438     LIBCMTD:dbgrptw.obj
 0002:00004460       ??_C@_1FI@PHIAFFHM@?$AA?$CI?$AA?$CC?$AAT?$AAh?$AAe?$AA?5?$AAh?$AAo?$AAo?$AAk?$AA?5?$AAf?$AAu?$AAn?$AAc?$AAt?$AAi?$AAo?$AAn?$AA?5?$AAi?$AAs?$AA?5?$AAn?$AAo?$AAt?$AA?5?$AAi?$AAn?$AA?5?$AAt?$AAh@ 10080460     LIBCMTD:dbgrptw.obj
 0002:000044b8       ??_C@_0CH@BBGAHGHC@f?3?2dd?2vctools?2crt?2crtw32?2misc?2db@ 100804b8     LIBCMTD:dbgrptw.obj
 0002:000044e0       ??_C@_1CI@PGJIFDEK@?$AA_?$AA_?$AAc?$AAr?$AAt?$AAM?$AAe?$AAs?$AAs?$AAa?$AAg?$AAe?$AAW?$AAi?$AAn?$AAd?$AAo?$AAw?$AAW?$AA?$AA@ 100804e0     LIBCMTD:dbgrptw.obj
 0002:00004508       ??_C@_1GI@DEDNNLCI@?$AAw?$AAc?$AAs?$AAc?$AAp?$AAy?$AA_?$AAs?$AA?$CI?$AAs?$AAz?$AAE?$AAx?$AAe?$AAN?$AAa?$AAm?$AAe?$AA?0?$AA?5?$AA2?$AA6?$AA0?$AA?0?$AA?5?$AAL?$AA?$CC?$AA?$DM?$AAp?$AAr?$AAo?$AAg@ 10080508     LIBCMTD:dbgrptw.obj
 0002:00004570       ??_C@_1NO@LECLLHOL@?$AAm?$AAe?$AAm?$AAc?$AAp?$AAy?$AA_?$AAs?$AA?$CI?$AAs?$AAz?$AAS?$AAh?$AAo?$AAr?$AAt?$AAP?$AAr?$AAo?$AAg?$AAN?$AAa?$AAm?$AAe?$AA?0?$AA?5?$AAs?$AAi?$AAz?$AAe?$AAo?$AAf@ 10080570     LIBCMTD:dbgrptw.obj
 0002:00004650       ??_C@_1OG@PMPPFHAF@?$AA?6?$AA?6?$AAF?$AAo?$AAr?$AA?5?$AAi?$AAn?$AAf?$AAo?$AAr?$AAm?$AAa?$AAt?$AAi?$AAo?$AAn?$AA?5?$AAo?$AAn?$AA?5?$AAh?$AAo?$AAw?$AA?5?$AAy?$AAo?$AAu?$AAr?$AA?5?$AAp?$AAr@ 10080650     LIBCMTD:dbgrptw.obj
 0002:00004738       ??_C@_11LOCGONAA@?$AA?$AA@ 10080738     LIBCMTD:dbgrptw.obj
 0002:0000473c       ??_C@_1BA@GLLGCPCK@?$AA?6?$AAL?$AAi?$AAn?$AAe?$AA?3?$AA?5?$AA?$AA@ 1008073c     LIBCMTD:dbgrptw.obj
 0002:0000474c       ??_C@_1BA@LNHECFIM@?$AA?6?$AAF?$AAi?$AAl?$AAe?$AA?3?$AA?5?$AA?$AA@ 1008074c     LIBCMTD:dbgrptw.obj
 0002:0000475c       ??_C@_1BE@CGCJKGHI@?$AA?6?$AAM?$AAo?$AAd?$AAu?$AAl?$AAe?$AA?3?$AA?5?$AA?$AA@ 1008075c     LIBCMTD:dbgrptw.obj
 0002:00004770       ??_C@_1KM@HNMIBKJH@?$AAD?$AAe?$AAb?$AAu?$AAg?$AA?5?$AA?$CF?$AAs?$AA?$CB?$AA?6?$AA?6?$AAP?$AAr?$AAo?$AAg?$AAr?$AAa?$AAm?$AA?3?$AA?5?$AA?$CF?$AAs?$AA?$CF?$AAs?$AA?$CF?$AAs?$AA?$CF?$AAs?$AA?$CF?$AAs?$AA?$CF?$AAs@ 10080770     LIBCMTD:dbgrptw.obj
 0002:0000481c       ??_C@_1BI@KALLJECN@?$AA?$CI?$AA?$CK?$AA_?$AAe?$AAr?$AAr?$AAn?$AAo?$AA?$CI?$AA?$CJ?$AA?$CJ?$AA?$AA@ 1008081c     LIBCMTD:dbgrptw.obj
 0002:00004838       ??_C@_1JI@EACPGHID@?$AAw?$AAc?$AAs?$AAc?$AAp?$AAy?$AA_?$AAs?$AA?$CI?$AAs?$AAz?$AAO?$AAu?$AAt?$AAM?$AAe?$AAs?$AAs?$AAa?$AAg?$AAe?$AA?0?$AA?5?$AA4?$AA0?$AA9?$AA6?$AA?0?$AA?5?$AAL?$AA?$CC?$AA_@ 10080838     LIBCMTD:dbgrptw.obj
 0002:000048d0       ??_C@_1FG@BBOLDHGF@?$AA_?$AAC?$AAr?$AAt?$AAD?$AAb?$AAg?$AAR?$AAe?$AAp?$AAo?$AAr?$AAt?$AA?3?$AA?5?$AAS?$AAt?$AAr?$AAi?$AAn?$AAg?$AA?5?$AAt?$AAo?$AAo?$AA?5?$AAl?$AAo?$AAn?$AAg?$AA?5?$AAo@ 100808d0     LIBCMTD:dbgrptw.obj
 0002:0000494c       ??_7exception@std@@6B@     1008094c     LIBCMTD:stdexcpt.obj
 0002:00004954       ??_C@_0BC@EOODALEL@Unknown?5exception?$AA@ 10080954     LIBCMTD:stdexcpt.obj
 0002:0000496c       ??_7bad_cast@std@@6B@      1008096c     LIBCMTD:stdexcpt.obj
 0002:00004978       ??_7bad_typeid@std@@6B@    10080978     LIBCMTD:stdexcpt.obj
 0002:00004984       ??_7__non_rtti_object@std@@6B@ 10080984     LIBCMTD:stdexcpt.obj
 0002:00004990       ??_7type_info@@6B@         10080990     LIBCMTD:typinfo.obj
 0002:00004994       ??_C@_0CH@FPHLCLAF@f?3?2dd?2vctools?2crt?2crtw32?2stdio?2_@ 10080994     LIBCMTD:_file.obj
 0002:000049c0       ??_C@_1EO@KDKHJMND@?$AAf?$AA?3?$AA?2?$AAd?$AAd?$AA?2?$AAv?$AAc?$AAt?$AAo?$AAo?$AAl?$AAs?$AA?2?$AAc?$AAr?$AAt?$AA?2?$AAc?$AAr?$AAt?$AAw?$AA3?$AA2?$AA?2?$AAs?$AAt?$AAd?$AAi?$AAo?$AA?2?$AAf@ 100809c0     LIBCMTD:fread.obj
 0002:00004a10       ??_C@_1BA@CMLCEIGG@?$AAf?$AAr?$AAe?$AAa?$AAd?$AA_?$AAs?$AA?$AA@ 10080a10     LIBCMTD:fread.obj
 0002:00004a20       ??_C@_1CC@CGFEEBMC@?$AA?$CI?$AAb?$AAu?$AAf?$AAf?$AAe?$AAr?$AA?5?$AA?$CB?$AA?$DN?$AA?5?$AAN?$AAU?$AAL?$AAL?$AA?$CJ?$AA?$AA@ 10080a20     LIBCMTD:fread.obj
 0002:00004a44       ??_C@_1CA@IDPOGFL@?$AA_?$AAf?$AAr?$AAe?$AAa?$AAd?$AA_?$AAn?$AAo?$AAl?$AAo?$AAc?$AAk?$AA_?$AAs?$AA?$AA@ 10080a44     LIBCMTD:fread.obj
 0002:00004a68       ??_C@_1EA@FAMECDND@?$AAn?$AAu?$AAm?$AA?5?$AA?$DM?$AA?$DN?$AA?5?$AA?$CI?$AAS?$AAI?$AAZ?$AAE?$AA_?$AAM?$AAA?$AAX?$AA?5?$AA?1?$AA?5?$AAe?$AAl?$AAe?$AAm?$AAe?$AAn?$AAt?$AAS?$AAi?$AAz?$AAe?$AA?$CJ?$AA?$AA@ 10080a68     LIBCMTD:fread.obj
 0002:00004aa8       ??_C@_1LG@DCNDJCHK@?$AA?$CI?$AA?$CC?$AAI?$AAn?$AAc?$AAo?$AAn?$AAs?$AAi?$AAs?$AAt?$AAe?$AAn?$AAt?$AA?5?$AAS?$AAt?$AAr?$AAe?$AAa?$AAm?$AA?5?$AAC?$AAo?$AAu?$AAn?$AAt?$AA?4?$AA?5?$AAF?$AAl?$AAu@ 10080aa8     LIBCMTD:fread.obj
 0002:00004b60       ??_C@_1DA@DKEFLDMG@?$AA?$CI?$AA?$CC?$AAb?$AAu?$AAf?$AAf?$AAe?$AAr?$AA?5?$AAt?$AAo?$AAo?$AA?5?$AAs?$AAm?$AAa?$AAl?$AAl?$AA?$CC?$AA?0?$AA?5?$AA0?$AA?$CJ?$AA?$AA@ 10080b60     LIBCMTD:fread.obj
 0002:00004b90       ??_C@_1FA@OFIKMJFM@?$AAf?$AA?3?$AA?2?$AAd?$AAd?$AA?2?$AAv?$AAc?$AAt?$AAo?$AAo?$AAl?$AAs?$AA?2?$AAc?$AAr?$AAt?$AA?2?$AAc?$AAr?$AAt?$AAw?$AA3?$AA2?$AA?2?$AAs?$AAt?$AAd?$AAi?$AAo?$AA?2?$AAf@ 10080b90     LIBCMTD:fwrite.obj
 0002:00004be0       ??_C@_1O@KLNKIMAP@?$AAf?$AAw?$AAr?$AAi?$AAt?$AAe?$AA?$AA@ 10080be0     LIBCMTD:fwrite.obj
 0002:00004bf0       ??_C@_1BO@JGPKCBCE@?$AA_?$AAf?$AAw?$AAr?$AAi?$AAt?$AAe?$AA_?$AAn?$AAo?$AAl?$AAo?$AAc?$AAk?$AA?$AA@ 10080bf0     LIBCMTD:fwrite.obj
 0002:00004c10       ??_C@_1DC@FHEPNAPF@?$AAn?$AAu?$AAm?$AA?5?$AA?$DM?$AA?$DN?$AA?5?$AA?$CI?$AAS?$AAI?$AAZ?$AAE?$AA_?$AAM?$AAA?$AAX?$AA?5?$AA?1?$AA?5?$AAs?$AAi?$AAz?$AAe?$AA?$CJ?$AA?$AA@ 10080c10     LIBCMTD:fwrite.obj
 0002:00004ca0       __pDefaultRawDllMain       10080ca0     LIBCMTD:dllcrt0.obj
 0002:00004ca0       __pRawDllMain              10080ca0     LIBCMTD:dllcrt0.obj
 0002:00004ca4       ??_C@_0CL@OOIKPIHN@f?3?2dd?2vctools?2crt?2crtw32?2startup@ 10080ca4     LIBCMTD:dllcrt0.obj
 0002:00004cd0       ??_C@_1BI@BGOHAHKC@?$AAm?$AAs?$AAc?$AAo?$AAr?$AAe?$AAe?$AA?4?$AAd?$AAl?$AAl?$AA?$AA@ 10080cd0     LIBCMTD:crt0dat.obj
 0002:00004ce8       ??_C@_0P@MIGLKIOC@CorExitProcess?$AA@ 10080ce8     LIBCMTD:crt0dat.obj
 0002:00004cf8       ??_C@_1BO@LKEBEKJP@?$AAp?$AAV?$AAa?$AAl?$AAu?$AAe?$AA?5?$AA?$CB?$AA?$DN?$AA?5?$AAN?$AAU?$AAL?$AAL?$AA?$AA@ 10080cf8     LIBCMTD:crt0dat.obj
 0002:00004d18       ??_C@_1FG@MHCBBJEK@?$AAf?$AA?3?$AA?2?$AAd?$AAd?$AA?2?$AAv?$AAc?$AAt?$AAo?$AAo?$AAl?$AAs?$AA?2?$AAc?$AAr?$AAt?$AA?2?$AAc?$AAr?$AAt?$AAw?$AA3?$AA2?$AA?2?$AAs?$AAt?$AAa?$AAr?$AAt?$AAu?$AAp@ 10080d18     LIBCMTD:crt0dat.obj
 0002:00004d70       ??_C@_1BK@PNLDCCDP@?$AA_?$AAg?$AAe?$AAt?$AA_?$AAw?$AAp?$AAg?$AAm?$AAp?$AAt?$AAr?$AA?$AA@ 10080d70     LIBCMTD:crt0dat.obj
 0002:00004d8c       ??_C@_1CC@CDIPMFPD@?$AA_?$AAw?$AAp?$AAg?$AAm?$AAp?$AAt?$AAr?$AA?5?$AA?$CB?$AA?$DN?$AA?5?$AAN?$AAU?$AAL?$AAL?$AA?$AA@ 10080d8c     LIBCMTD:crt0dat.obj
 0002:00004db0       ??_C@_1BI@COAAPHJK@?$AA_?$AAg?$AAe?$AAt?$AA_?$AAp?$AAg?$AAm?$AAp?$AAt?$AAr?$AA?$AA@ 10080db0     LIBCMTD:crt0dat.obj
 0002:00004dc8       ??_C@_1CA@BBNAFCKO@?$AA_?$AAp?$AAg?$AAm?$AAp?$AAt?$AAr?$AA?5?$AA?$CB?$AA?$DN?$AA?5?$AAN?$AAU?$AAL?$AAL?$AA?$AA@ 10080dc8     LIBCMTD:crt0dat.obj
 0002:00004de8       ??_C@_1BK@DJNILIMN@?$AAp?$AAa?$AAt?$AAh?$AA?5?$AA?$CB?$AA?$DN?$AA?5?$AAN?$AAU?$AAL?$AAL?$AA?$AA@ 10080de8     LIBCMTD:crt0dat.obj
 0002:00004e04       ??_C@_1DG@KANBJOCK@?$AA_?$AA_?$AAc?$AAo?$AAp?$AAy?$AA_?$AAp?$AAa?$AAt?$AAh?$AA_?$AAt?$AAo?$AA_?$AAw?$AAi?$AAd?$AAe?$AA_?$AAs?$AAt?$AAr?$AAi?$AAn?$AAg?$AA?$AA@ 10080e04     LIBCMTD:crt0dat.obj
 0002:00004e3c       ??_C@_1CA@BGODLPHH@?$AAo?$AAu?$AAt?$AAP?$AAa?$AAt?$AAh?$AA?5?$AA?$CB?$AA?$DN?$AA?5?$AAN?$AAU?$AAL?$AAL?$AA?$AA@ 10080e3c     LIBCMTD:crt0dat.obj
 0002:00004e5c       ??_C@_0CL@LMMOJFEN@f?3?2dd?2vctools?2crt?2crtw32?2startup@ 10080e5c     LIBCMTD:crt0dat.obj
 0002:00004e88       ??_C@_1CC@NLGECIOD@?$AAi?$AAn?$AAS?$AAt?$AAr?$AAi?$AAn?$AAg?$AA?5?$AA?$CB?$AA?$DN?$AA?5?$AAN?$AAU?$AAL?$AAL?$AA?$AA@ 10080e88     LIBCMTD:crt0dat.obj
 0002:00004eac       ??_C@_1BO@PNPLHAEP@?$AA_?$AA_?$AAc?$AAo?$AAp?$AAy?$AA_?$AAt?$AAo?$AA_?$AAc?$AAh?$AAa?$AAr?$AA?$AA@ 10080eac     LIBCMTD:crt0dat.obj
 0002:00004ecc       ??_C@_1CE@HIPDKGHC@?$AAo?$AAu?$AAt?$AAS?$AAt?$AAr?$AAi?$AAn?$AAg?$AA?5?$AA?$CB?$AA?$DN?$AA?5?$AAN?$AAU?$AAL?$AAL?$AA?$AA@ 10080ecc     LIBCMTD:crt0dat.obj
 0002:00004ef0       ??_C@_1FE@CKCGICM@?$AAf?$AA?3?$AA?2?$AAd?$AAd?$AA?2?$AAv?$AAc?$AAt?$AAo?$AAo?$AAl?$AAs?$AA?2?$AAc?$AAr?$AAt?$AA?2?$AAc?$AAr?$AAt?$AAw?$AA3?$AA2?$AA?2?$AAs?$AAt?$AAd?$AAi?$AAo?$AA?2?$AAv@ 10080ef0     LIBCMTD:vsprintf.obj
 0002:00004f44       ??_C@_1BI@IGILPKD@?$AA_?$AAv?$AAs?$AAp?$AAr?$AAi?$AAn?$AAt?$AAf?$AA_?$AAl?$AA?$AA@ 10080f44     LIBCMTD:vsprintf.obj
 0002:00004f5c       ??_C@_1CC@OLIJCKA@?$AA?$CI?$AAs?$AAt?$AAr?$AAi?$AAn?$AAg?$AA?5?$AA?$CB?$AA?$DN?$AA?5?$AAN?$AAU?$AAL?$AAL?$AA?$CJ?$AA?$AA@ 10080f5c     LIBCMTD:vsprintf.obj
 0002:00004f80       ??_C@_1CE@HMKDJHB@?$AA_?$AAv?$AAs?$AAc?$AAp?$AAr?$AAi?$AAn?$AAt?$AAf?$AA_?$AAh?$AAe?$AAl?$AAp?$AAe?$AAr?$AA?$AA@ 10080f80     LIBCMTD:vsprintf.obj
 0002:00004fa4       ??_C@_0CH@JPGODKFM@f?3?2dd?2vctools?2crt?2crtw32?2misc?2on@ 10080fa4     LIBCMTD:onexit.obj
 0002:00004fcc       ??_C@_0CJ@LPLBAFNO@f?3?2dd?2vctools?2crt?2crtw32?2startup@ 10080fcc     LIBCMTD:mlock.obj
 0002:00004ff8       ??_C@_1BK@MGMFAEKH@?$AAk?$AAe?$AAr?$AAn?$AAe?$AAl?$AA3?$AA2?$AA?4?$AAd?$AAl?$AAl?$AA?$AA@ 10080ff8     LIBCMTD:winapisupp.obj
 0002:00005014       ??_C@_08KNHFBNJ@FlsAlloc?$AA@ 10081014     LIBCMTD:winapisupp.obj
 0002:00005020       ??_C@_07PEJMOBNF@FlsFree?$AA@ 10081020     LIBCMTD:winapisupp.obj
 0002:00005028       ??_C@_0M@GDNOONDI@FlsGetValue?$AA@ 10081028     LIBCMTD:winapisupp.obj
 0002:00005034       ??_C@_0M@JCPCPOEF@FlsSetValue?$AA@ 10081034     LIBCMTD:winapisupp.obj
 0002:00005040       ??_C@_0BM@HCFOFFN@InitializeCriticalSectionEx?$AA@ 10081040     LIBCMTD:winapisupp.obj
 0002:0000505c       ??_C@_0P@DLHPPCNH@CreateEventExW?$AA@ 1008105c     LIBCMTD:winapisupp.obj
 0002:0000506c       ??_C@_0BD@KIEEOEEH@CreateSemaphoreExW?$AA@ 1008106c     LIBCMTD:winapisupp.obj
 0002:00005080       ??_C@_0BI@BKLFFAPO@SetThreadStackGuarantee?$AA@ 10081080     LIBCMTD:winapisupp.obj
 0002:00005098       ??_C@_0BG@OGFAJCKC@CreateThreadpoolTimer?$AA@ 10081098     LIBCMTD:winapisupp.obj
 0002:000050b0       ??_C@_0BD@LPLEMMDI@SetThreadpoolTimer?$AA@ 100810b0     LIBCMTD:winapisupp.obj
 0002:000050c4       ??_C@_0CA@FMNJENH@WaitForThreadpoolTimerCallbacks?$AA@ 100810c4     LIBCMTD:winapisupp.obj
 0002:000050e4       ??_C@_0BF@DCFCCNOC@CloseThreadpoolTimer?$AA@ 100810e4     LIBCMTD:winapisupp.obj
 0002:000050fc       ??_C@_0BF@FLABGKKM@CreateThreadpoolWait?$AA@ 100810fc     LIBCMTD:winapisupp.obj
 0002:00005114       ??_C@_0BC@MGCOHNA@SetThreadpoolWait?$AA@ 10081114     LIBCMTD:winapisupp.obj
 0002:00005128       ??_C@_0BE@OCIOMIMP@CloseThreadpoolWait?$AA@ 10081128     LIBCMTD:winapisupp.obj
 0002:0000513c       ??_C@_0BJ@LKGHFHBO@FlushProcessWriteBuffers?$AA@ 1008113c     LIBCMTD:winapisupp.obj
 0002:00005158       ??_C@_0BP@KALKKPMO@FreeLibraryWhenCallbackReturns?$AA@ 10081158     LIBCMTD:winapisupp.obj
 0002:00005178       ??_C@_0BK@DFNBACLA@GetCurrentProcessorNumber?$AA@ 10081178     LIBCMTD:winapisupp.obj
 0002:00005194       ??_C@_0BP@KHGALBC@GetLogicalProcessorInformation?$AA@ 10081194     LIBCMTD:winapisupp.obj
 0002:000051b4       ??_C@_0BE@FKKLLFLM@CreateSymbolicLinkW?$AA@ 100811b4     LIBCMTD:winapisupp.obj
 0002:000051c8       ??_C@_0BJ@OHNKDLIJ@SetDefaultDllDirectories?$AA@ 100811c8     LIBCMTD:winapisupp.obj
 0002:000051e4       ??_C@_0BE@LJANKFHF@EnumSystemLocalesEx?$AA@ 100811e4     LIBCMTD:winapisupp.obj
 0002:000051f8       ??_C@_0BA@IHGNDAEB@CompareStringEx?$AA@ 100811f8     LIBCMTD:winapisupp.obj
 0002:00005208       ??_C@_0BA@EPCJIIPD@GetDateFormatEx?$AA@ 10081208     LIBCMTD:winapisupp.obj
 0002:00005218       ??_C@_0BA@ONOKGCMP@GetLocaleInfoEx?$AA@ 10081218     LIBCMTD:winapisupp.obj
 0002:00005228       ??_C@_0BA@CIJJKCJJ@GetTimeFormatEx?$AA@ 10081228     LIBCMTD:winapisupp.obj
 0002:00005238       ??_C@_0BJ@PBCCBIPI@GetUserDefaultLocaleName?$AA@ 10081238     LIBCMTD:winapisupp.obj
 0002:00005254       ??_C@_0BC@CELBKLLA@IsValidLocaleName?$AA@ 10081254     LIBCMTD:winapisupp.obj
 0002:00005268       ??_C@_0O@KKBNKAPF@LCMapStringEx?$AA@ 10081268     LIBCMTD:winapisupp.obj
 0002:00005278       ??_C@_0BE@JOGNEJCI@GetCurrentPackageId?$AA@ 10081278     LIBCMTD:winapisupp.obj
 0002:0000528c       ??_C@_0P@CDHHOHKP@GetTickCount64?$AA@ 1008128c     LIBCMTD:winapisupp.obj
 0002:0000529c       ??_C@_0BO@KPCLFDJJ@GetFileInformationByHandleExW?$AA@ 1008129c     LIBCMTD:winapisupp.obj
 0002:000052bc       ??_C@_0BM@MHIDLABK@SetFileInformationByHandleW?$AA@ 100812bc     LIBCMTD:winapisupp.obj
 0002:000057e0       __infinity                 100817e0     LIBCMTD:87tran.obj
 0002:000057ea       __minfinity                100817ea     LIBCMTD:87tran.obj
 0002:000057f4       __logemax                  100817f4     LIBCMTD:87tran.obj
 0002:0000581a       __OP_EXPjmptab             1008181a     LIBCMTD:87tran.obj
 0002:000091b0       __indefinite               100851b0     LIBCMTD:87disp.obj
 0002:000091ba       __piby2                    100851ba     LIBCMTD:87disp.obj
 0002:000091e8       __DEFAULT_CW_in_mem        100851e8     LIBCMTD:common.obj
 0002:000091ea       __pi_by_2_to_61            100851ea     LIBCMTD:common.obj
 0002:00009224       ??_C@_03KHJOGHMM@exp?$AA@  10085224     LIBCMTD:fpexcept.obj
 0002:00009228       ??_C@_03JGHBODFD@pow?$AA@  10085228     LIBCMTD:fpexcept.obj
 0002:0000922c       ??_C@_03MGHMBJCF@log?$AA@  1008522c     LIBCMTD:fpexcept.obj
 0002:00009230       ??_C@_05HGHHAHAP@log10?$AA@ 10085230     LIBCMTD:fpexcept.obj
 0002:00009238       ??_C@_04COOMCNPB@sinh?$AA@ 10085238     LIBCMTD:fpexcept.obj
 0002:00009240       ??_C@_04HPJJNFIM@cosh?$AA@ 10085240     LIBCMTD:fpexcept.obj
 0002:00009248       ??_C@_04FJHINJAO@tanh?$AA@ 10085248     LIBCMTD:fpexcept.obj
 0002:00009250       ??_C@_04FIHNOPOL@asin?$AA@ 10085250     LIBCMTD:fpexcept.obj
 0002:00009258       ??_C@_04PDIFKINK@acos?$AA@ 10085258     LIBCMTD:fpexcept.obj
 0002:00009260       ??_C@_04MLLJIGOK@atan?$AA@ 10085260     LIBCMTD:fpexcept.obj
 0002:00009268       ??_C@_05KNGEOGJB@atan2?$AA@ 10085268     LIBCMTD:fpexcept.obj
 0002:00009270       ??_C@_04EIAKFFMI@sqrt?$AA@ 10085270     LIBCMTD:fpexcept.obj
 0002:00009278       ??_C@_03BLEJJJBH@sin?$AA@  10085278     LIBCMTD:fpexcept.obj
 0002:0000927c       ??_C@_03LALBNOCG@cos?$AA@  1008527c     LIBCMTD:fpexcept.obj
 0002:00009280       ??_C@_03IIINPABG@tan?$AA@  10085280     LIBCMTD:fpexcept.obj
 0002:00009284       ??_C@_04GFPJNGEK@ceil?$AA@ 10085284     LIBCMTD:fpexcept.obj
 0002:0000928c       ??_C@_05PBJFFIGL@floor?$AA@ 1008528c     LIBCMTD:fpexcept.obj
 0002:00009294       ??_C@_04ODHECPBC@fabs?$AA@ 10085294     LIBCMTD:fpexcept.obj
 0002:0000929c       ??_C@_04EHEDPDJG@modf?$AA@ 1008529c     LIBCMTD:fpexcept.obj
 0002:000092a4       ??_C@_05CEJMAHNP@ldexp?$AA@ 100852a4     LIBCMTD:fpexcept.obj
 0002:000092ac       ??_C@_05KBKMEMPO@_cabs?$AA@ 100852ac     LIBCMTD:fpexcept.obj
 0002:000092b4       ??_C@_06MEIMCGCF@_hypot?$AA@ 100852b4     LIBCMTD:fpexcept.obj
 0002:000092bc       ??_C@_04KEPJIHGP@fmod?$AA@ 100852bc     LIBCMTD:fpexcept.obj
 0002:000092c4       ??_C@_05GKKHEGJL@frexp?$AA@ 100852c4     LIBCMTD:fpexcept.obj
 0002:000092cc       ??_C@_03MJLDFKDL@_y0?$AA@  100852cc     LIBCMTD:fpexcept.obj
 0002:000092d0       ??_C@_03NAKIGLHK@_y1?$AA@  100852d0     LIBCMTD:fpexcept.obj
 0002:000092d4       ??_C@_03ONILCKOB@_yn?$AA@  100852d4     LIBCMTD:fpexcept.obj
 0002:000092d8       ??_C@_05JGDBENOH@_logb?$AA@ 100852d8     LIBCMTD:fpexcept.obj
 0002:000092e0       ??_C@_0L@KDOEJCKC@_nextafter?$AA@ 100852e0     LIBCMTD:fpexcept.obj
 0002:000092f4       ??_C@_1BI@GKKCBDMD@?$AAd?$AAs?$AAt?$AA?5?$AA?$CB?$AA?$DN?$AA?5?$AAN?$AAU?$AAL?$AAL?$AA?$AA@ 100852f4     LIBCMTD:memcpy_s.obj
 0002:00009310       ??_C@_1FG@COJCEIPE@?$AAf?$AA?3?$AA?2?$AAd?$AAd?$AA?2?$AAv?$AAc?$AAt?$AAo?$AAo?$AAl?$AAs?$AA?2?$AAc?$AAr?$AAt?$AA?2?$AAc?$AAr?$AAt?$AAw?$AA3?$AA2?$AA?2?$AAs?$AAt?$AAr?$AAi?$AAn?$AAg?$AA?2@ 10085310     LIBCMTD:memcpy_s.obj
 0002:00009368       ??_C@_1BC@GKHDJMGB@?$AAm?$AAe?$AAm?$AAc?$AAp?$AAy?$AA_?$AAs?$AA?$AA@ 10085368     LIBCMTD:memcpy_s.obj
 0002:0000937c       ??_C@_1BI@DCHLDCPP@?$AAs?$AAr?$AAc?$AA?5?$AA?$CB?$AA?$DN?$AA?5?$AAN?$AAU?$AAL?$AAL?$AA?$AA@ 1008537c     LIBCMTD:memcpy_s.obj
 0002:00009394       ??_C@_1CK@DDKKOLAN@?$AAs?$AAi?$AAz?$AAe?$AAI?$AAn?$AAB?$AAy?$AAt?$AAe?$AAs?$AA?5?$AA?$DO?$AA?$DN?$AA?5?$AAc?$AAo?$AAu?$AAn?$AAt?$AA?$AA@ 10085394     LIBCMTD:memcpy_s.obj
 0002:000093c0       ??_C@_1FC@PFMLEHKI@?$AA?$CI?$AA?$CI?$AA_?$AAD?$AAs?$AAt?$AA?$CJ?$AA?$CJ?$AA?5?$AA?$CB?$AA?$DN?$AA?5?$AAN?$AAU?$AAL?$AAL?$AA?5?$AA?$CG?$AA?$CG?$AA?5?$AA?$CI?$AA?$CI?$AA_?$AAS?$AAi?$AAz?$AAe?$AAI?$AAn?$AAW?$AAo?$AAr@ 100853c0     LIBCMTD:wcscat_s.obj
 0002:00009418       ??_C@_1FA@EDIAPAPE@?$AAf?$AA?3?$AA?2?$AAd?$AAd?$AA?2?$AAv?$AAc?$AAt?$AAo?$AAo?$AAl?$AAs?$AA?2?$AAc?$AAr?$AAt?$AA?2?$AAc?$AAr?$AAt?$AAw?$AA3?$AA2?$AA?2?$AAh?$AA?2?$AAt?$AAc?$AAs?$AAc?$AAa@ 10085418     LIBCMTD:wcscat_s.obj
 0002:00009468       ??_C@_1BC@PLIEPKPJ@?$AAw?$AAc?$AAs?$AAc?$AAa?$AAt?$AA_?$AAs?$AA?$AA@ 10085468     LIBCMTD:wcscat_s.obj
 0002:0000947c       ??_C@_1CG@OFBJMIGJ@?$AA?$CI?$AA?$CI?$AA?$CI?$AA_?$AAS?$AAr?$AAc?$AA?$CJ?$AA?$CJ?$AA?$CJ?$AA?5?$AA?$CB?$AA?$DN?$AA?5?$AAN?$AAU?$AAL?$AAL?$AA?$AA@ 1008547c     LIBCMTD:wcscat_s.obj
 0002:000094a4       ??_C@_1DM@FHLMIEG@?$AAS?$AAt?$AAr?$AAi?$AAn?$AAg?$AA?5?$AAi?$AAs?$AA?5?$AAn?$AAo?$AAt?$AA?5?$AAn?$AAu?$AAl?$AAl?$AA?5?$AAt?$AAe?$AAr?$AAm?$AAi?$AAn?$AAa?$AAt?$AAe?$AAd?$AA?$AA@ 100854a4     LIBCMTD:wcscat_s.obj
 0002:000094e0       ??_C@_1FA@MJKDNFFB@?$AA?$CI?$AAL?$AA?$CC?$AAS?$AAt?$AAr?$AAi?$AAn?$AAg?$AA?5?$AAi?$AAs?$AA?5?$AAn?$AAo?$AAt?$AA?5?$AAn?$AAu?$AAl?$AAl?$AA?5?$AAt?$AAe?$AAr?$AAm?$AAi?$AAn?$AAa?$AAt?$AAe?$AAd@ 100854e0     LIBCMTD:wcscat_s.obj
 0002:00009530       ??_C@_1CI@HCPHDDLE@?$AAB?$AAu?$AAf?$AAf?$AAe?$AAr?$AA?5?$AAi?$AAs?$AA?5?$AAt?$AAo?$AAo?$AA?5?$AAs?$AAm?$AAa?$AAl?$AAl?$AA?$AA@ 10085530     LIBCMTD:wcscat_s.obj
 0002:00009558       ??_C@_1DM@MADKGDLO@?$AA?$CI?$AAL?$AA?$CC?$AAB?$AAu?$AAf?$AAf?$AAe?$AAr?$AA?5?$AAi?$AAs?$AA?5?$AAt?$AAo?$AAo?$AA?5?$AAs?$AAm?$AAa?$AAl?$AAl?$AA?$CC?$AA?5?$AA?$CG?$AA?$CG?$AA?5?$AA0?$AA?$CJ?$AA?$AA@ 10085558     LIBCMTD:wcscat_s.obj
 0002:00009598       ??_C@_1FA@ILDLFIFE@?$AAf?$AA?3?$AA?2?$AAd?$AAd?$AA?2?$AAv?$AAc?$AAt?$AAo?$AAo?$AAl?$AAs?$AA?2?$AAc?$AAr?$AAt?$AA?2?$AAc?$AAr?$AAt?$AAw?$AA3?$AA2?$AA?2?$AAh?$AA?2?$AAt?$AAc?$AAs?$AAc?$AAp@ 10085598     LIBCMTD:wcscpy_s.obj
 0002:000095e8       ??_C@_1BC@KIONAFPO@?$AAw?$AAc?$AAs?$AAc?$AAp?$AAy?$AA_?$AAs?$AA?$AA@ 100855e8     LIBCMTD:wcscpy_s.obj
 0002:00009600       ??_C@_1FC@HNAKBBDB@?$AAf?$AA?3?$AA?2?$AAd?$AAd?$AA?2?$AAv?$AAc?$AAt?$AAo?$AAo?$AAl?$AAs?$AA?2?$AAc?$AAr?$AAt?$AA?2?$AAc?$AAr?$AAt?$AAw?$AA3?$AA2?$AA?2?$AAh?$AA?2?$AAt?$AAc?$AAs?$AAn?$AAc@ 10085600     LIBCMTD:wcsncat_s.obj
 0002:00009654       ??_C@_1BE@KPKIKKCF@?$AAw?$AAc?$AAs?$AAn?$AAc?$AAa?$AAt?$AA_?$AAs?$AA?$AA@ 10085654     LIBCMTD:wcsncat_s.obj
 0002:00009668       ??_C@_1DE@BCNCAIK@?$AA?$CI?$AA?$CC?$AAI?$AAn?$AAv?$AAa?$AAl?$AAi?$AAd?$AA?5?$AAe?$AAr?$AAr?$AAo?$AAr?$AA_?$AAm?$AAo?$AAd?$AAe?$AA?$CC?$AA?0?$AA?5?$AA0?$AA?$CJ?$AA?$AA@ 10085668     LIBCMTD:errmode.obj
 0002:000096a0       ??_C@_1FA@PBBGNIFD@?$AAf?$AA?3?$AA?2?$AAd?$AAd?$AA?2?$AAv?$AAc?$AAt?$AAo?$AAo?$AAl?$AAs?$AA?2?$AAc?$AAr?$AAt?$AA?2?$AAc?$AAr?$AAt?$AAw?$AA3?$AA2?$AA?2?$AAm?$AAi?$AAs?$AAc?$AA?2?$AAe?$AAr@ 100856a0     LIBCMTD:errmode.obj
 0002:000096f0       ??_C@_1CA@LFDHAMEM@?$AA_?$AAs?$AAe?$AAt?$AA_?$AAe?$AAr?$AAr?$AAo?$AAr?$AA_?$AAm?$AAo?$AAd?$AAe?$AA?$AA@ 100856f0     LIBCMTD:errmode.obj
 0002:00009710       ??_C@_1BI@ICGGMGLK@?$AAb?$AAu?$AAf?$AA?5?$AA?$CB?$AA?$DN?$AA?5?$AAN?$AAU?$AAL?$AAL?$AA?$AA@ 10085710     LIBCMTD:xtows.obj
 0002:00009728       ??_C@_1FA@LEFFAILN@?$AAf?$AA?3?$AA?2?$AAd?$AAd?$AA?2?$AAv?$AAc?$AAt?$AAo?$AAo?$AAl?$AAs?$AA?2?$AAc?$AAr?$AAt?$AA?2?$AAc?$AAr?$AAt?$AAw?$AA3?$AA2?$AA?2?$AAc?$AAo?$AAn?$AAv?$AAe?$AAr?$AAt@ 10085728     LIBCMTD:xtows.obj
 0002:00009778       ??_C@_1O@NCBFODOE@?$AAx?$AAt?$AAo?$AAw?$AA_?$AAs?$AA?$AA@ 10085778     LIBCMTD:xtows.obj
 0002:00009788       ??_C@_1CC@JNJFIMGE@?$AAs?$AAi?$AAz?$AAe?$AAI?$AAn?$AAT?$AAC?$AAh?$AAa?$AAr?$AAs?$AA?5?$AA?$DO?$AA?5?$AA0?$AA?$AA@ 10085788     LIBCMTD:xtows.obj
 0002:000097b0       ??_C@_1FA@MKGGAGEI@?$AAs?$AAi?$AAz?$AAe?$AAI?$AAn?$AAT?$AAC?$AAh?$AAa?$AAr?$AAs?$AA?5?$AA?$DO?$AA?5?$AA?$CI?$AAs?$AAi?$AAz?$AAe?$AA_?$AAt?$AA?$CJ?$AA?$CI?$AAi?$AAs?$AA_?$AAn?$AAe?$AAg?$AA?5?$AA?$DP@ 100857b0     LIBCMTD:xtows.obj
 0002:00009800       ??_C@_1DE@PCJGDBBD@?$AA2?$AA?5?$AA?$DM?$AA?$DN?$AA?5?$AAr?$AAa?$AAd?$AAi?$AAx?$AA?5?$AA?$CG?$AA?$CG?$AA?5?$AAr?$AAa?$AAd?$AAi?$AAx?$AA?5?$AA?$DM?$AA?$DN?$AA?5?$AA3?$AA6?$AA?$AA@ 10085800     LIBCMTD:xtows.obj
 0002:00009834       ??_C@_1CM@HABGDNLJ@?$AAl?$AAe?$AAn?$AAg?$AAt?$AAh?$AA?5?$AA?$DM?$AA?5?$AAs?$AAi?$AAz?$AAe?$AAI?$AAn?$AAT?$AAC?$AAh?$AAa?$AAr?$AAs?$AA?$AA@ 10085834     LIBCMTD:xtows.obj
 0002:00009860       ??_C@_1BC@HDEJCFPB@?$AAx?$AA6?$AA4?$AAt?$AAo?$AAw?$AA_?$AAs?$AA?$AA@ 10085860     LIBCMTD:xtows.obj
 0002:00009878       ??_C@_1FC@NDJMHBOK@?$AAf?$AA?3?$AA?2?$AAd?$AAd?$AA?2?$AAv?$AAc?$AAt?$AAo?$AAo?$AAl?$AAs?$AA?2?$AAc?$AAr?$AAt?$AA?2?$AAc?$AAr?$AAt?$AAw?$AA3?$AA2?$AA?2?$AAs?$AAt?$AAd?$AAi?$AAo?$AA?2?$AAs@ 10085878     LIBCMTD:setvbuf.obj
 0002:000098cc       ??_C@_1BA@OGODIODK@?$AAs?$AAe?$AAt?$AAv?$AAb?$AAu?$AAf?$AA?$AA@ 100858cc     LIBCMTD:setvbuf.obj
 0002:000098e0       ??_C@_1HC@CBFEDAGG@?$AA?$CI?$AAt?$AAy?$AAp?$AAe?$AA?5?$AA?$DN?$AA?$DN?$AA?5?$AA_?$AAI?$AAO?$AAN?$AAB?$AAF?$AA?$CJ?$AA?5?$AA?$HM?$AA?$HM?$AA?5?$AA?$CI?$AAt?$AAy?$AAp?$AAe?$AA?5?$AA?$DN?$AA?$DN?$AA?5?$AA_?$AAI?$AAO@ 100858e0     LIBCMTD:setvbuf.obj
 0002:00009958       ??_C@_1EG@IJNJIDNB@?$AA?$CI?$AA?$CI?$AA2?$AA?5?$AA?$DM?$AA?$DN?$AA?5?$AAs?$AAi?$AAz?$AAe?$AA?$CJ?$AA?5?$AA?$CG?$AA?$CG?$AA?5?$AA?$CI?$AAs?$AAi?$AAz?$AAe?$AA?5?$AA?$DM?$AA?$DN?$AA?5?$AAI?$AAN?$AAT?$AA_?$AAM?$AAA?$AAX@ 10085958     LIBCMTD:setvbuf.obj
 0002:000099a0       ??_C@_0CJ@IACMAHEB@f?3?2dd?2vctools?2crt?2crtw32?2stdio?2s@ 100859a0     LIBCMTD:setvbuf.obj
 0002:000099d0       ??_C@_1FE@OFLIMJDE@?$AAf?$AA?3?$AA?2?$AAd?$AAd?$AA?2?$AAv?$AAc?$AAt?$AAo?$AAo?$AAl?$AAs?$AA?2?$AAc?$AAr?$AAt?$AA?2?$AAc?$AAr?$AAt?$AAw?$AA3?$AA2?$AA?2?$AAs?$AAt?$AAd?$AAi?$AAo?$AA?2?$AAf@ 100859d0     LIBCMTD:fwprintf.obj
 0002:00009a24       ??_C@_1BC@BHLPNJBO@?$AAf?$AAw?$AAp?$AAr?$AAi?$AAn?$AAt?$AAf?$AA?$AA@ 10085a24     LIBCMTD:fwprintf.obj
 0002:00009a38       ??_C@_1FE@DHCMIOFC@?$AAf?$AA?3?$AA?2?$AAd?$AAd?$AA?2?$AAv?$AAc?$AAt?$AAo?$AAo?$AAl?$AAs?$AA?2?$AAc?$AAr?$AAt?$AA?2?$AAc?$AAr?$AAt?$AAw?$AA3?$AA2?$AA?2?$AAs?$AAt?$AAd?$AAi?$AAo?$AA?2?$AAv@ 10085a38     LIBCMTD:vswprnc.obj
 0002:00009a8c       ??_C@_1CE@IGKFIJFD@?$AA_?$AAv?$AAs?$AAw?$AAp?$AAr?$AAi?$AAn?$AAt?$AAf?$AA_?$AAh?$AAe?$AAl?$AAp?$AAe?$AAr?$AA?$AA@ 10085a8c     LIBCMTD:vswprnc.obj
 0002:00009ab0       ??_C@_1BO@MLMCMBKN@?$AAf?$AAo?$AAr?$AAm?$AAa?$AAt?$AA?5?$AA?$CB?$AA?$DN?$AA?5?$AAN?$AAU?$AAL?$AAL?$AA?$AA@ 10085ab0     LIBCMTD:vswprnc.obj
 0002:00009ad0       ??_C@_1BO@OALHJLCI@?$AA_?$AAv?$AAs?$AAw?$AAp?$AAr?$AAi?$AAn?$AAt?$AAf?$AA_?$AAs?$AA_?$AAl?$AA?$AA@ 10085ad0     LIBCMTD:vswprnc.obj
 0002:00009af0       ??_C@_1EE@MPCHJFGP@?$AAs?$AAt?$AAr?$AAi?$AAn?$AAg?$AA?5?$AA?$CB?$AA?$DN?$AA?5?$AAN?$AAU?$AAL?$AAL?$AA?5?$AA?$CG?$AA?$CG?$AA?5?$AAs?$AAi?$AAz?$AAe?$AAI?$AAn?$AAW?$AAo?$AAr?$AAd?$AAs?$AA?5?$AA?$DO?$AA?5@ 10085af0     LIBCMTD:vswprnc.obj
 0002:00009b34       ??_C@_1DA@HPBFKMEB@?$AA?$CI?$AA?$CC?$AAB?$AAu?$AAf?$AAf?$AAe?$AAr?$AA?5?$AAt?$AAo?$AAo?$AA?5?$AAs?$AAm?$AAa?$AAl?$AAl?$AA?$CC?$AA?0?$AA?5?$AA0?$AA?$CJ?$AA?$AA@ 10085b34     LIBCMTD:vswprnc.obj
 0002:00009b64       ??_C@_1CA@BKFKMJFF@?$AA_?$AAv?$AAs?$AAn?$AAw?$AAp?$AAr?$AAi?$AAn?$AAt?$AAf?$AA_?$AAs?$AA_?$AAl?$AA?$AA@ 10085b64     LIBCMTD:vswprnc.obj
 0002:00009b84       ??_C@_0CH@KINPIPGE@f?3?2dd?2vctools?2crt?2crtw32?2misc?2wi@ 10085b84     LIBCMTD:winsig.obj
 0002:00009bac       ??_C@_1DO@MLNEDKGB@?$AA?$CI?$AA?$CC?$AAI?$AAn?$AAv?$AAa?$AAl?$AAi?$AAd?$AA?5?$AAs?$AAi?$AAg?$AAn?$AAa?$AAl?$AA?5?$AAo?$AAr?$AA?5?$AAe?$AAr?$AAr?$AAo?$AAr?$AA?$CC?$AA?0?$AA?5?$AA0?$AA?$CJ?$AA?$AA@ 10085bac     LIBCMTD:winsig.obj
 0002:00009bf0       ??_C@_1EO@BCKLPCCI@?$AAf?$AA?3?$AA?2?$AAd?$AAd?$AA?2?$AAv?$AAc?$AAt?$AAo?$AAo?$AAl?$AAs?$AA?2?$AAc?$AAr?$AAt?$AA?2?$AAc?$AAr?$AAt?$AAw?$AA3?$AA2?$AA?2?$AAm?$AAi?$AAs?$AAc?$AA?2?$AAw?$AAi@ 10085bf0     LIBCMTD:winsig.obj
 0002:00009c40       ??_C@_1O@EJLDHPPL@?$AAs?$AAi?$AAg?$AAn?$AAa?$AAl?$AA?$AA@ 10085c40     LIBCMTD:winsig.obj
 0002:00009c50       ??_C@_1M@DMJEIKHL@?$AAr?$AAa?$AAi?$AAs?$AAe?$AA?$AA@ 10085c50     LIBCMTD:winsig.obj
 0002:00009c5c       ??_C@_1BG@GOEBHBDC@?$AAU?$AAS?$AAE?$AAR?$AA3?$AA2?$AA?4?$AAD?$AAL?$AAL?$AA?$AA@ 10085c5c     LIBCMTD:crtmboxw.obj
 0002:00009c74       ??_C@_0M@DLDCCGNP@MessageBoxW?$AA@ 10085c74     LIBCMTD:crtmboxw.obj
 0002:00009c80       ??_C@_0BA@HNOPNCHB@GetActiveWindow?$AA@ 10085c80     LIBCMTD:crtmboxw.obj
 0002:00009c90       ??_C@_0BD@HHGDFDBJ@GetLastActivePopup?$AA@ 10085c90     LIBCMTD:crtmboxw.obj
 0002:00009ca4       ??_C@_0BK@DEKFELLI@GetUserObjectInformationW?$AA@ 10085ca4     LIBCMTD:crtmboxw.obj
 0002:00009cc0       ??_C@_0BI@DFKBFLJE@GetProcessWindowStation?$AA@ 10085cc0     LIBCMTD:crtmboxw.obj
 0002:00009d90       ??_C@_1FK@PGACCAFB@?$AAR?$AA6?$AA0?$AA0?$AA2?$AA?$AN?$AA?6?$AA?9?$AA?5?$AAf?$AAl?$AAo?$AAa?$AAt?$AAi?$AAn?$AAg?$AA?5?$AAp?$AAo?$AAi?$AAn?$AAt?$AA?5?$AAs?$AAu?$AAp?$AAp?$AAo?$AAr?$AAt?$AA?5@ 10085d90     LIBCMTD:crt0msg.obj
 0002:00009df0       ??_C@_1FE@LLNEDJMD@?$AAR?$AA6?$AA0?$AA0?$AA8?$AA?$AN?$AA?6?$AA?9?$AA?5?$AAn?$AAo?$AAt?$AA?5?$AAe?$AAn?$AAo?$AAu?$AAg?$AAh?$AA?5?$AAs?$AAp?$AAa?$AAc?$AAe?$AA?5?$AAf?$AAo?$AAr?$AA?5?$AAa?$AAr@ 10085df0     LIBCMTD:crt0msg.obj
 0002:00009e48       ??_C@_1FI@HONFMGBI@?$AAR?$AA6?$AA0?$AA0?$AA9?$AA?$AN?$AA?6?$AA?9?$AA?5?$AAn?$AAo?$AAt?$AA?5?$AAe?$AAn?$AAo?$AAu?$AAg?$AAh?$AA?5?$AAs?$AAp?$AAa?$AAc?$AAe?$AA?5?$AAf?$AAo?$AAr?$AA?5?$AAe?$AAn@ 10085e48     LIBCMTD:crt0msg.obj
 0002:00009ea0       ??_C@_1EG@BEHAGFJD@?$AAR?$AA6?$AA0?$AA1?$AA0?$AA?$AN?$AA?6?$AA?9?$AA?5?$AAa?$AAb?$AAo?$AAr?$AAt?$AA?$CI?$AA?$CJ?$AA?5?$AAh?$AAa?$AAs?$AA?5?$AAb?$AAe?$AAe?$AAn?$AA?5?$AAc?$AAa?$AAl?$AAl?$AAe?$AAd@ 10085ea0     LIBCMTD:crt0msg.obj
 0002:00009ee8       ??_C@_1FI@LOGNIKDM@?$AAR?$AA6?$AA0?$AA1?$AA6?$AA?$AN?$AA?6?$AA?9?$AA?5?$AAn?$AAo?$AAt?$AA?5?$AAe?$AAn?$AAo?$AAu?$AAg?$AAh?$AA?5?$AAs?$AAp?$AAa?$AAc?$AAe?$AA?5?$AAf?$AAo?$AAr?$AA?5?$AAt?$AAh@ 10085ee8     LIBCMTD:crt0msg.obj
 0002:00009f40       ??_C@_1FK@BEOGODMC@?$AAR?$AA6?$AA0?$AA1?$AA7?$AA?$AN?$AA?6?$AA?9?$AA?5?$AAu?$AAn?$AAe?$AAx?$AAp?$AAe?$AAc?$AAt?$AAe?$AAd?$AA?5?$AAm?$AAu?$AAl?$AAt?$AAi?$AAt?$AAh?$AAr?$AAe?$AAa?$AAd?$AA?5@ 10085f40     LIBCMTD:crt0msg.obj
 0002:00009fa0       ??_C@_1EC@JIBHAOPH@?$AAR?$AA6?$AA0?$AA1?$AA8?$AA?$AN?$AA?6?$AA?9?$AA?5?$AAu?$AAn?$AAe?$AAx?$AAp?$AAe?$AAc?$AAt?$AAe?$AAd?$AA?5?$AAh?$AAe?$AAa?$AAp?$AA?5?$AAe?$AAr?$AAr?$AAo?$AAr?$AA?$AN?$AA?6@ 10085fa0     LIBCMTD:crt0msg.obj
 0002:00009fe8       ??_C@_1FC@ECHBIFBC@?$AAR?$AA6?$AA0?$AA1?$AA9?$AA?$AN?$AA?6?$AA?9?$AA?5?$AAu?$AAn?$AAa?$AAb?$AAl?$AAe?$AA?5?$AAt?$AAo?$AA?5?$AAo?$AAp?$AAe?$AAn?$AA?5?$AAc?$AAo?$AAn?$AAs?$AAo?$AAl?$AAe?$AA?5@ 10085fe8     LIBCMTD:crt0msg.obj
 0002:0000a040       ??_C@_1GK@FHCKBEFA@?$AAR?$AA6?$AA0?$AA2?$AA4?$AA?$AN?$AA?6?$AA?9?$AA?5?$AAn?$AAo?$AAt?$AA?5?$AAe?$AAn?$AAo?$AAu?$AAg?$AAh?$AA?5?$AAs?$AAp?$AAa?$AAc?$AAe?$AA?5?$AAf?$AAo?$AAr?$AA?5?$AA_?$AAo@ 10086040     LIBCMTD:crt0msg.obj
 0002:0000a0b0       ??_C@_1EM@MAADIHMB@?$AAR?$AA6?$AA0?$AA2?$AA5?$AA?$AN?$AA?6?$AA?9?$AA?5?$AAp?$AAu?$AAr?$AAe?$AA?5?$AAv?$AAi?$AAr?$AAt?$AAu?$AAa?$AAl?$AA?5?$AAf?$AAu?$AAn?$AAc?$AAt?$AAi?$AAo?$AAn?$AA?5?$AAc@ 100860b0     LIBCMTD:crt0msg.obj
 0002:0000a100       ??_C@_1GK@MCAAGJMO@?$AAR?$AA6?$AA0?$AA2?$AA6?$AA?$AN?$AA?6?$AA?9?$AA?5?$AAn?$AAo?$AAt?$AA?5?$AAe?$AAn?$AAo?$AAu?$AAg?$AAh?$AA?5?$AAs?$AAp?$AAa?$AAc?$AAe?$AA?5?$AAf?$AAo?$AAr?$AA?5?$AAs?$AAt@ 10086100     LIBCMTD:crt0msg.obj
 0002:0000a170       ??_C@_1GK@MFGOKLAG@?$AAR?$AA6?$AA0?$AA2?$AA7?$AA?$AN?$AA?6?$AA?9?$AA?5?$AAn?$AAo?$AAt?$AA?5?$AAe?$AAn?$AAo?$AAu?$AAg?$AAh?$AA?5?$AAs?$AAp?$AAa?$AAc?$AAe?$AA?5?$AAf?$AAo?$AAr?$AA?5?$AAl?$AAo@ 10086170     LIBCMTD:crt0msg.obj
 0002:0000a1e0       ??_C@_1EK@HHFLMAOL@?$AAR?$AA6?$AA0?$AA2?$AA8?$AA?$AN?$AA?6?$AA?9?$AA?5?$AAu?$AAn?$AAa?$AAb?$AAl?$AAe?$AA?5?$AAt?$AAo?$AA?5?$AAi?$AAn?$AAi?$AAt?$AAi?$AAa?$AAl?$AAi?$AAz?$AAe?$AA?5?$AAh?$AAe@ 100861e0     LIBCMTD:crt0msg.obj
 0002:0000a22c       ??_C@_1DO@BMFCDCD@?$AAR?$AA6?$AA0?$AA3?$AA0?$AA?$AN?$AA?6?$AA?9?$AA?5?$AAC?$AAR?$AAT?$AA?5?$AAn?$AAo?$AAt?$AA?5?$AAi?$AAn?$AAi?$AAt?$AAi?$AAa?$AAl?$AAi?$AAz?$AAe?$AAd?$AA?$AN?$AA?6?$AA?$AA@ 1008622c     LIBCMTD:crt0msg.obj
 0002:0000a270       ??_C@_1MG@ENCOOIDF@?$AAR?$AA6?$AA0?$AA3?$AA1?$AA?$AN?$AA?6?$AA?9?$AA?5?$AAA?$AAt?$AAt?$AAe?$AAm?$AAp?$AAt?$AA?5?$AAt?$AAo?$AA?5?$AAi?$AAn?$AAi?$AAt?$AAi?$AAa?$AAl?$AAi?$AAz?$AAe?$AA?5?$AAt@ 10086270     LIBCMTD:crt0msg.obj
 0002:0000a338       ??_C@_1GG@GOPILAJP@?$AAR?$AA6?$AA0?$AA3?$AA2?$AA?$AN?$AA?6?$AA?9?$AA?5?$AAn?$AAo?$AAt?$AA?5?$AAe?$AAn?$AAo?$AAu?$AAg?$AAh?$AA?5?$AAs?$AAp?$AAa?$AAc?$AAe?$AA?5?$AAf?$AAo?$AAr?$AA?5?$AAl?$AAo@ 10086338     LIBCMTD:crt0msg.obj
 0002:0000a3a0       ??_C@_1BOO@KGEDBGAJ@?$AAR?$AA6?$AA0?$AA3?$AA3?$AA?$AN?$AA?6?$AA?9?$AA?5?$AAA?$AAt?$AAt?$AAe?$AAm?$AAp?$AAt?$AA?5?$AAt?$AAo?$AA?5?$AAu?$AAs?$AAe?$AA?5?$AAM?$AAS?$AAI?$AAL?$AA?5?$AAc?$AAo?$AAd@ 100863a0     LIBCMTD:crt0msg.obj
 0002:0000a590       ??_C@_1GG@MKFPEKFO@?$AAR?$AA6?$AA0?$AA3?$AA4?$AA?$AN?$AA?6?$AA?9?$AA?5?$AAi?$AAn?$AAc?$AAo?$AAn?$AAs?$AAi?$AAs?$AAt?$AAe?$AAn?$AAt?$AA?5?$AAo?$AAn?$AAe?$AAx?$AAi?$AAt?$AA?5?$AAb?$AAe?$AAg@ 10086590     LIBCMTD:crt0msg.obj
 0002:0000a5f8       ??_C@_1BO@BFCDCGC@?$AAD?$AAO?$AAM?$AAA?$AAI?$AAN?$AA?5?$AAe?$AAr?$AAr?$AAo?$AAr?$AA?$AN?$AA?6?$AA?$AA@ 100865f8     LIBCMTD:crt0msg.obj
 0002:0000a618       ??_C@_1BK@KMOMNAAI@?$AAS?$AAI?$AAN?$AAG?$AA?5?$AAe?$AAr?$AAr?$AAo?$AAr?$AA?$AN?$AA?6?$AA?$AA@ 10086618     LIBCMTD:crt0msg.obj
 0002:0000a634       ??_C@_1BM@JBBEPPHI@?$AAT?$AAL?$AAO?$AAS?$AAS?$AA?5?$AAe?$AAr?$AAr?$AAo?$AAr?$AA?$AN?$AA?6?$AA?$AA@ 10086634     LIBCMTD:crt0msg.obj
 0002:0000a650       ??_C@_15JNBOKNOG@?$AA?$AN?$AA?6?$AA?$AA@ 10086650     LIBCMTD:crt0msg.obj
 0002:0000a658       ??_C@_1BO@BKOMIGKJ@?$AAr?$AAu?$AAn?$AAt?$AAi?$AAm?$AAe?$AA?5?$AAe?$AAr?$AAr?$AAo?$AAr?$AA?5?$AA?$AA@ 10086658     LIBCMTD:crt0msg.obj
 0002:0000a678       ??_C@_1FG@ILOHEEMG@?$AAf?$AA?3?$AA?2?$AAd?$AAd?$AA?2?$AAv?$AAc?$AAt?$AAo?$AAo?$AAl?$AAs?$AA?2?$AAc?$AAr?$AAt?$AA?2?$AAc?$AAr?$AAt?$AAw?$AA3?$AA2?$AA?2?$AAs?$AAt?$AAa?$AAr?$AAt?$AAu?$AAp@ 10086678     LIBCMTD:crt0msg.obj
 0002:0000a6d0       ??_C@_1BI@EAHMBMEC@?$AA_?$AAN?$AAM?$AAS?$AAG?$AA_?$AAW?$AAR?$AAI?$AAT?$AAE?$AA?$AA@ 100866d0     LIBCMTD:crt0msg.obj
 0002:0000a6e8       ??_C@_1KO@BKLCKNFL@?$AAw?$AAc?$AAs?$AAc?$AAp?$AAy?$AA_?$AAs?$AA?$CI?$AAo?$AAu?$AAt?$AAm?$AAs?$AAg?$AA?0?$AA?5?$AA?$CI?$AAs?$AAi?$AAz?$AAe?$AAo?$AAf?$AA?$CI?$AAo?$AAu?$AAt?$AAm?$AAs?$AAg?$AA?$CJ@ 100866e8     LIBCMTD:crt0msg.obj
 0002:0000a798       ??_C@_1DE@JNGNBFGO@?$AAR?$AAu?$AAn?$AAt?$AAi?$AAm?$AAe?$AA?5?$AAE?$AAr?$AAr?$AAo?$AAr?$AA?$CB?$AA?6?$AA?6?$AAP?$AAr?$AAo?$AAg?$AAr?$AAa?$AAm?$AA?3?$AA?5?$AA?$AA@ 10086798     LIBCMTD:crt0msg.obj
 0002:0000a7d0       ??_C@_1HK@FJJNAABO@?$AAw?$AAc?$AAs?$AAc?$AAp?$AAy?$AA_?$AAs?$AA?$CI?$AAp?$AAr?$AAo?$AAg?$AAn?$AAa?$AAm?$AAe?$AA?0?$AA?5?$AAp?$AAr?$AAo?$AAg?$AAn?$AAa?$AAm?$AAe?$AA_?$AAs?$AAi?$AAz?$AAe@ 100867d0     LIBCMTD:crt0msg.obj
 0002:0000a850       ??_C@_1HI@FLHKGEBE@?$AAw?$AAc?$AAs?$AAn?$AAc?$AAp?$AAy?$AA_?$AAs?$AA?$CI?$AAp?$AAc?$AAh?$AA?0?$AA?5?$AAp?$AAr?$AAo?$AAg?$AAn?$AAa?$AAm?$AAe?$AA_?$AAs?$AAi?$AAz?$AAe?$AA?5?$AA?9?$AA?5?$AA?$CI@ 10086850     LIBCMTD:crt0msg.obj
 0002:0000a8c8       ??_C@_1IA@DCJGKHFO@?$AAw?$AAc?$AAs?$AAc?$AAa?$AAt?$AA_?$AAs?$AA?$CI?$AAo?$AAu?$AAt?$AAm?$AAs?$AAg?$AA?0?$AA?5?$AA?$CI?$AAs?$AAi?$AAz?$AAe?$AAo?$AAf?$AA?$CI?$AAo?$AAu?$AAt?$AAm?$AAs?$AAg?$AA?$CJ@ 100868c8     LIBCMTD:crt0msg.obj
 0002:0000a948       ??_C@_1IG@NMONDPP@?$AAw?$AAc?$AAs?$AAc?$AAa?$AAt?$AA_?$AAs?$AA?$CI?$AAo?$AAu?$AAt?$AAm?$AAs?$AAg?$AA?0?$AA?5?$AA?$CI?$AAs?$AAi?$AAz?$AAe?$AAo?$AAf?$AA?$CI?$AAo?$AAu?$AAt?$AAm?$AAs?$AAg?$AA?$CJ@ 10086948     LIBCMTD:crt0msg.obj
 0002:0000aa70       ??_C@_0NN@NGPKDKPD@The?5value?5of?5ESP?5was?5not?5properl@ 10086a70     LIBCMTD:error.obj
 0002:0000ab50       ??_C@_0BBN@GPMLNJCF@A?5cast?5to?5a?5smaller?5data?5type?5ha@ 10086b50     LIBCMTD:error.obj
 0002:0000ac70       ??_C@_0BN@FFOINMNJ@Stack?5memory?5was?5corrupted?6?$AN?$AA@ 10086c70     LIBCMTD:error.obj
 0002:0000ac90       ??_C@_0DG@HKJMLLLP@A?5local?5variable?5was?5used?5before@ 10086c90     LIBCMTD:error.obj
 0002:0000acc8       ??_C@_0CM@NGINOKPC@Stack?5memory?5around?5_alloca?5was?5@ 10086cc8     LIBCMTD:error.obj
 0002:0000acf4       ??_C@_0BO@GNIAFIKK@Unknown?5Runtime?5Check?5Error?6?$AN?$AA@ 10086cf4     LIBCMTD:error.obj
 0002:0000ad18       ??_C@_1GM@OLMCBDMB@?$AAR?$AAu?$AAn?$AAt?$AAi?$AAm?$AAe?$AA?5?$AAC?$AAh?$AAe?$AAc?$AAk?$AA?5?$AAE?$AAr?$AAr?$AAo?$AAr?$AA?4?$AA?6?$AA?$AN?$AA?5?$AAU?$AAn?$AAa?$AAb?$AAl?$AAe?$AA?5?$AAt?$AAo@ 10086d18     LIBCMTD:error.obj
 0002:0000ad88       ??_C@_1EA@NFKNIFJP@?$AAR?$AAu?$AAn?$AA?9?$AAT?$AAi?$AAm?$AAe?$AA?5?$AAC?$AAh?$AAe?$AAc?$AAk?$AA?5?$AAF?$AAa?$AAi?$AAl?$AAu?$AAr?$AAe?$AA?5?$AA?$CD?$AA?$CF?$AAd?$AA?5?$AA?9?$AA?5?$AA?$CF?$AAs?$AA?$AA@ 10086d88     LIBCMTD:error.obj
 0002:0000adc8       ??_C@_0BB@PFFGGCJP@Unknown?5Filename?$AA@ 10086dc8     LIBCMTD:error.obj
 0002:0000addc       ??_C@_0BE@GNBOBNCK@Unknown?5Module?5Name?$AA@ 10086ddc     LIBCMTD:error.obj
 0002:0000adf0       ??_C@_0CA@IODNCDPG@Run?9Time?5Check?5Failure?5?$CD?$CFd?5?9?5?$CFs?$AA@ 10086df0     LIBCMTD:error.obj
 0002:0000ae10       ??_C@_0CG@IAFNJNEE@Stack?5corrupted?5near?5unknown?5var@ 10086e10     LIBCMTD:error.obj
 0002:0000ae38       ??_C@_05MKKEDADM@?$CF?42X?5?$AA@ 10086e38     LIBCMTD:error.obj
 0002:0000ae40       ??_C@_1BG@OILDLIOJ@?$AAu?$AAs?$AAe?$AAr?$AA3?$AA2?$AA?4?$AAd?$AAl?$AAl?$AA?$AA@ 10086e40     LIBCMTD:error.obj
 0002:0000ae58       ??_C@_09FOPFMPEJ@wsprintfA?$AA@ 10086e58     LIBCMTD:error.obj
 0002:0000ae68       ??_C@_0EJ@LJKNEOLN@Stack?5area?5around?5_alloca?5memory@ 10086e68     LIBCMTD:error.obj
 0002:0000aeb4       ??_C@_08OMAHNMHJ@?6Data?3?5?$DM?$AA@ 10086eb4     LIBCMTD:error.obj
 0002:0000aec0       ??_C@_0CK@DKGBICFE@?6Allocation?5number?5within?5this?5f@ 10086ec0     LIBCMTD:error.obj
 0002:0000aeec       ??_C@_07DFDJCKFN@?6Size?3?5?$AA@ 10086eec     LIBCMTD:error.obj
 0002:0000aef4       ??_C@_0N@MHFFIMFG@?6Address?3?50x?$AA@ 10086ef4     LIBCMTD:error.obj
 0002:0000af08       ??_C@_0EI@CLEPFNGI@Stack?5area?5around?5_alloca?5memory@ 10086f08     LIBCMTD:error.obj
 0002:0000af50       ??_C@_0BC@KIBAILCI@?$CFs?$CFs?$CFp?$CFs?$CFld?$CFs?$CFd?$CFs?$AA@ 10086f50     LIBCMTD:error.obj
 0002:0000af64       ??_C@_01EEMJAFIK@?6?$AA@   10086f64     LIBCMTD:error.obj
 0002:0000af68       ??_C@_02LLMPMKNF@?$DO?5?$AA@ 10086f68     LIBCMTD:error.obj
 0002:0000af6c       ??_C@_08KJEDNCKC@?$CFs?$CFs?$CFs?$CFs?$AA@ 10086f6c     LIBCMTD:error.obj
 0002:0000af78       ??_C@_0DE@OHJBPMBP@A?5variable?5is?5being?5used?5without@ 10086f78     LIBCMTD:error.obj
 0002:0000afc0       ??_C@_0BJ@HEGAHDFO@Stack?5pointer?5corruption?$AA@ 10086fc0     LIBCMTD:userapi.obj
 0002:0000afdc       ??_C@_0CK@FEGOIOPB@Cast?5to?5smaller?5type?5causing?5los@ 10086fdc     LIBCMTD:userapi.obj
 0002:0000b008       ??_C@_0BI@CIGMDCBH@Stack?5memory?5corruption?$AA@ 10087008     LIBCMTD:userapi.obj
 0002:0000b020       ??_C@_0CK@CNLNOEPB@Local?5variable?5used?5before?5initi@ 10087020     LIBCMTD:userapi.obj
 0002:0000b04c       ??_C@_0BP@OGBCLIBO@Stack?5around?5_alloca?5corrupted?$AA@ 1008704c     LIBCMTD:userapi.obj
 0002:0000b070       ??_C@_0NM@DNEDKLDF@The?5value?5of?5ESP?5was?5not?5properl@ 10087070     LIBCMTD:chkesp.obj
 0002:0000b14c       ??_C@_00CNPNBAHC@?$AA@     1008714c     LIBCMTD:chkesp.obj
 0002:0000b150       ??_C@_0CM@CNHKCLGP@f?3?2dd?2vctools?2crt?2crtw32?2misc?2i3@ 10087150     LIBCMTD:chkesp.obj
 0002:0000b180       ??_C@_1EG@OHONNKNN@?$AAf?$AA?3?$AA?2?$AAd?$AAd?$AA?2?$AAv?$AAc?$AAt?$AAo?$AAo?$AAl?$AAs?$AA?2?$AAc?$AAr?$AAt?$AA?2?$AAf?$AAp?$AAw?$AA3?$AA2?$AA?2?$AAc?$AAo?$AAn?$AAv?$AA?2?$AAc?$AAv?$AAt@ 10087180     LIBCMTD:cvt.obj
 0002:0000b1c8       ??_C@_1BE@OLBNEILL@?$AA_?$AAc?$AAf?$AAt?$AAo?$AAe?$AA2?$AA_?$AAl?$AA?$AA@ 100871c8     LIBCMTD:cvt.obj
 0002:0000b1dc       ??_C@_1CA@CBMNPEO@?$AAs?$AAi?$AAz?$AAe?$AAI?$AAn?$AAB?$AAy?$AAt?$AAe?$AAs?$AA?5?$AA?$DO?$AA?5?$AA0?$AA?$AA@ 100871dc     LIBCMTD:cvt.obj
 0002:0000b200       ??_C@_1HE@NACBNDPP@?$AAs?$AAi?$AAz?$AAe?$AAI?$AAn?$AAB?$AAy?$AAt?$AAe?$AAs?$AA?5?$AA?$DO?$AA?5?$AA?$CI?$AAs?$AAi?$AAz?$AAe?$AA_?$AAt?$AA?$CJ?$AA?$CI?$AA3?$AA?5?$AA?$CL?$AA?5?$AA?$CI?$AAn?$AAd?$AAe?$AAc@ 10087200     LIBCMTD:cvt.obj
 0002:0000b278       ??_C@_1LE@EOIFGNCJ@?$AAs?$AAt?$AAr?$AAc?$AAp?$AAy?$AA_?$AAs?$AA?$CI?$AAp?$AA?0?$AA?5?$AA?$CI?$AAs?$AAi?$AAz?$AAe?$AAI?$AAn?$AAB?$AAy?$AAt?$AAe?$AAs?$AA?5?$AA?$DN?$AA?$DN?$AA?5?$AA?$CI?$AAs?$AAi?$AAz@ 10087278     LIBCMTD:cvt.obj
 0002:0000b32c       ??_C@_05KLBDPFGC@e?$CL000?$AA@ 1008732c     LIBCMTD:cvt.obj
 0002:0000b334       ??_C@_1BC@INKAPMHI@?$AA_?$AAc?$AAf?$AAt?$AAo?$AAe?$AA_?$AAl?$AA?$AA@ 10087334     LIBCMTD:cvt.obj
 0002:0000b348       ??_C@_1BC@JOKPCIC@?$AA_?$AAc?$AAf?$AAt?$AAo?$AAa?$AA_?$AAl?$AA?$AA@ 10087348     LIBCMTD:cvt.obj
 0002:0000b360       ??_C@_1FC@IKIMAMJB@?$AAs?$AAi?$AAz?$AAe?$AAI?$AAn?$AAB?$AAy?$AAt?$AAe?$AAs?$AA?5?$AA?$DO?$AA?5?$AA?$CI?$AAs?$AAi?$AAz?$AAe?$AA_?$AAt?$AA?$CJ?$AA?$CI?$AA1?$AA?5?$AA?$CL?$AA?5?$AA4?$AA?5?$AA?$CL?$AA?5?$AAn@ 10087360     LIBCMTD:cvt.obj
 0002:0000b3b4       ??_C@_1BE@CKPDLI@?$AA_?$AAc?$AAf?$AAt?$AAo?$AAf?$AA2?$AA_?$AAl?$AA?$AA@ 100873b4     LIBCMTD:cvt.obj
 0002:0000b3c8       ??_C@_1BC@DCPPLJL@?$AA_?$AAc?$AAf?$AAt?$AAo?$AAf?$AA_?$AAl?$AA?$AA@ 100873c8     LIBCMTD:cvt.obj
 0002:0000b3dc       ??_C@_1BC@MPIFPLAF@?$AA_?$AAc?$AAf?$AAt?$AAo?$AAg?$AA_?$AAl?$AA?$AA@ 100873dc     LIBCMTD:cvt.obj
 0002:0000b3f0       ??_C@_1FI@JJOJLGLE@?$AAf?$AA?3?$AA?2?$AAd?$AAd?$AA?2?$AAv?$AAc?$AAt?$AAo?$AAo?$AAl?$AAs?$AA?2?$AAc?$AAr?$AAt?$AA?2?$AAc?$AAr?$AAt?$AAw?$AA3?$AA2?$AA?2?$AAs?$AAt?$AAa?$AAr?$AAt?$AAu?$AAp@ 100873f0     LIBCMTD:fp8.obj
 0002:0000b448       ??_C@_1CK@JMKHCBEI@?$AA_?$AAs?$AAe?$AAt?$AAd?$AAe?$AAf?$AAa?$AAu?$AAl?$AAt?$AAp?$AAr?$AAe?$AAc?$AAi?$AAs?$AAi?$AAo?$AAn?$AA?$AA@ 10087448     LIBCMTD:fp8.obj
 0002:0000b478       ??_C@_1GE@KOCFNGPB@?$AA_?$AAc?$AAo?$AAn?$AAt?$AAr?$AAo?$AAl?$AAf?$AAp?$AA_?$AAs?$AA?$CI?$AA?$CI?$AA?$CI?$AAv?$AAo?$AAi?$AAd?$AA?5?$AA?$CK?$AA?$CJ?$AA0?$AA?$CJ?$AA?0?$AA?5?$AA0?$AAx?$AA0?$AA0?$AA0?$AA1@ 10087478     LIBCMTD:fp8.obj
 0002:0000b4dc       ??_C@_1BC@JLLICHIC@?$AAp?$AAn?$AAh?$AA?5?$AA?$DN?$AA?$DN?$AA?5?$AA0?$AA?$AA@ 100874dc     LIBCMTD:handler.obj
 0002:0000b4f0       ??_C@_1FE@HELBPGKC@?$AAf?$AA?3?$AA?2?$AAd?$AAd?$AA?2?$AAv?$AAc?$AAt?$AAo?$AAo?$AAl?$AAs?$AA?2?$AAc?$AAr?$AAt?$AA?2?$AAc?$AAr?$AAt?$AAw?$AA3?$AA2?$AA?2?$AAh?$AAe?$AAa?$AAp?$AA?2?$AAh?$AAa@ 100874f0     LIBCMTD:handler.obj
 0002:0000b558       ??_C@_04HJMOFLDF@Free?$AA@ 10087558     LIBCMTD:dbgheap.obj
 0002:0000b560       ??_C@_06EFAGIKOH@Normal?$AA@ 10087560     LIBCMTD:dbgheap.obj
 0002:0000b568       ??_C@_03OGPFLFLO@CRT?$AA@  10087568     LIBCMTD:dbgheap.obj
 0002:0000b56c       ??_C@_06KMEJCCGM@Ignore?$AA@ 1008756c     LIBCMTD:dbgheap.obj
 0002:0000b574       ??_C@_06PJIGMIJB@Client?$AA@ 10087574     LIBCMTD:dbgheap.obj
 0002:0000b57c       ??_C@_1CE@LJFEPPMP@?$AA_?$AAC?$AAr?$AAt?$AAC?$AAh?$AAe?$AAc?$AAk?$AAM?$AAe?$AAm?$AAo?$AAr?$AAy?$AA?$CI?$AA?$CJ?$AA?$AA@ 1008757c     LIBCMTD:dbgheap.obj
 0002:0000b5a0       ??_C@_1FA@JKEKCOIC@?$AAf?$AA?3?$AA?2?$AAd?$AAd?$AA?2?$AAv?$AAc?$AAt?$AAo?$AAo?$AAl?$AAs?$AA?2?$AAc?$AAr?$AAt?$AA?2?$AAc?$AAr?$AAt?$AAw?$AA3?$AA2?$AA?2?$AAm?$AAi?$AAs?$AAc?$AA?2?$AAd?$AAb@ 100875a0     LIBCMTD:dbgheap.obj
 0002:0000b5f0       ??_C@_0DF@BBEGIFEK@Client?5hook?5allocation?5failure?5a@ 100875f0     LIBCMTD:dbgheap.obj
 0002:0000b628       ??_C@_0CB@CCLOLAHO@Client?5hook?5allocation?5failure?4?6@ 10087628     LIBCMTD:dbgheap.obj
 0002:0000b64c       ??_C@_02DKCKIIND@?$CFs?$AA@ 1008764c     LIBCMTD:dbgheap.obj
 0002:0000b650       ??_C@_0CF@BICKFLAF@Invalid?5allocation?5size?3?5?$CFIu?5byt@ 10087650     LIBCMTD:dbgheap.obj
 0002:0000b678       ??_C@_0DC@JEMAGEKG@Error?3?5memory?5allocation?3?5bad?5me@ 10087678     LIBCMTD:dbgheap.obj
 0002:0000b6ac       ??_C@_0DI@KKJPDPGM@Client?5hook?5re?9allocation?5failur@ 100876ac     LIBCMTD:dbgheap.obj
 0002:0000b6e4       ??_C@_0CE@DOFMDOL@Client?5hook?5re?9allocation?5failur@ 100876e4     LIBCMTD:dbgheap.obj
 0002:0000b708       ??_C@_0ED@GPCPBAGP@Invalid?5allocation?5size?3?5?$CFIu?5byt@ 10087708     LIBCMTD:dbgheap.obj
 0002:0000b750       ??_C@_0FA@EFEIGJKG@Error?3?5memory?5allocation?3?5bad?5me@ 10087750     LIBCMTD:dbgheap.obj
 0002:0000b7a0       ??_C@_0EM@LGFLMAGJ@The?5Block?5at?50x?$CFp?5was?5allocated?5@ 100877a0     LIBCMTD:dbgheap.obj
 0002:0000b7f0       ??_C@_1EE@GFOPCECE@?$AA_?$AAC?$AAr?$AAt?$AAI?$AAs?$AAV?$AAa?$AAl?$AAi?$AAd?$AAH?$AAe?$AAa?$AAp?$AAP?$AAo?$AAi?$AAn?$AAt?$AAe?$AAr?$AA?$CI?$AAp?$AAU?$AAs?$AAe?$AAr?$AAD?$AAa?$AAt?$AAa@ 100877f0     LIBCMTD:dbgheap.obj
 0002:0000b838       ??_C@_1IK@DCPKDGNH@?$AAp?$AAO?$AAl?$AAd?$AAB?$AAl?$AAo?$AAc?$AAk?$AA?9?$AA?$DO?$AAn?$AAL?$AAi?$AAn?$AAe?$AA?5?$AA?$DN?$AA?$DN?$AA?5?$AAI?$AAG?$AAN?$AAO?$AAR?$AAE?$AA_?$AAL?$AAI?$AAN?$AAE?$AA?5@ 10087838     LIBCMTD:dbgheap.obj
 0002:0000b8c4       ??_C@_0DA@HFBKENN@Error?3?5possible?5heap?5corruption?5@ 100878c4     LIBCMTD:dbgheap.obj
 0002:0000b8f8       ??_C@_1GE@PCKLOLAO@?$AAf?$AAR?$AAe?$AAa?$AAl?$AAl?$AAo?$AAc?$AA?5?$AA?$HM?$AA?$HM?$AA?5?$AA?$CI?$AA?$CB?$AAf?$AAR?$AAe?$AAa?$AAl?$AAl?$AAo?$AAc?$AA?5?$AA?$CG?$AA?$CG?$AA?5?$AAp?$AAN?$AAe?$AAw?$AAB?$AAl@ 100878f8     LIBCMTD:dbgheap.obj
 0002:0000b95c       ??_C@_1DC@GEFKNOOL@?$AA_?$AAp?$AAL?$AAa?$AAs?$AAt?$AAB?$AAl?$AAo?$AAc?$AAk?$AA?5?$AA?$DN?$AA?$DN?$AA?5?$AAp?$AAO?$AAl?$AAd?$AAB?$AAl?$AAo?$AAc?$AAk?$AA?$AA@ 1008795c     LIBCMTD:dbgheap.obj
 0002:0000b990       ??_C@_1DE@KOOKLFBB@?$AA_?$AAp?$AAF?$AAi?$AAr?$AAs?$AAt?$AAB?$AAl?$AAo?$AAc?$AAk?$AA?5?$AA?$DN?$AA?$DN?$AA?5?$AAp?$AAO?$AAl?$AAd?$AAB?$AAl?$AAo?$AAc?$AAk?$AA?$AA@ 10087990     LIBCMTD:dbgheap.obj
 0002:0000b9c4       ??_C@_1CE@CJACEFBA@?$AAp?$AAU?$AAs?$AAe?$AAr?$AAD?$AAa?$AAt?$AAa?$AA?5?$AA?$CB?$AA?$DN?$AA?5?$AAN?$AAU?$AAL?$AAL?$AA?$AA@ 100879c4     LIBCMTD:dbgheap.obj
 0002:0000b9e8       ??_C@_1BI@HAPNGHDP@?$AA_?$AAe?$AAx?$AAp?$AAa?$AAn?$AAd?$AA_?$AAd?$AAb?$AAg?$AA?$AA@ 100879e8     LIBCMTD:dbgheap.obj
 0002:0000ba00       ??_C@_0EJ@HEIBCIMJ@The?5Block?5at?50x?$CFp?5was?5allocated?5@ 10087a00     LIBCMTD:dbgheap.obj
 0002:0000ba4c       ??_C@_0BL@KEIPLFAC@Client?5hook?5free?5failure?4?6?$AA@ 10087a4c     LIBCMTD:dbgheap.obj
 0002:0000ba68       ??_C@_0KI@JGFOHMEB@HEAP?5CORRUPTION?5DETECTED?3?5before@ 10087a68     LIBCMTD:dbgheap.obj
 0002:0000bb10       ??_C@_0IK@PJCGLBOB@HEAP?5CORRUPTION?5DETECTED?3?5before@ 10087b10     LIBCMTD:dbgheap.obj
 0002:0000bba0       ??_C@_0KE@MBMNHHHN@HEAP?5CORRUPTION?5DETECTED?3?5after?5@ 10087ba0     LIBCMTD:dbgheap.obj
 0002:0000bc48       ??_C@_0IG@LEMBDCJK@HEAP?5CORRUPTION?5DETECTED?3?5after?5@ 10087c48     LIBCMTD:dbgheap.obj
 0002:0000bcd0       ??_C@_1HK@HPCBMDFG@?$AAp?$AAH?$AAe?$AAa?$AAd?$AA?9?$AA?$DO?$AAn?$AAL?$AAi?$AAn?$AAe?$AA?5?$AA?$DN?$AA?$DN?$AA?5?$AAI?$AAG?$AAN?$AAO?$AAR?$AAE?$AA_?$AAL?$AAI?$AAN?$AAE?$AA?5?$AA?$CG?$AA?$CG?$AA?5?$AAp@ 10087cd0     LIBCMTD:dbgheap.obj
 0002:0000bd4c       ??_C@_1DM@ODCJIDCP@?$AAp?$AAH?$AAe?$AAa?$AAd?$AA?9?$AA?$DO?$AAn?$AAB?$AAl?$AAo?$AAc?$AAk?$AAU?$AAs?$AAe?$AA?5?$AA?$DN?$AA?$DN?$AA?5?$AAn?$AAB?$AAl?$AAo?$AAc?$AAk?$AAU?$AAs?$AAe?$AA?$AA@ 10087d4c     LIBCMTD:dbgheap.obj
 0002:0000bd88       ??_C@_1CK@DMAGEMBG@?$AA_?$AAp?$AAL?$AAa?$AAs?$AAt?$AAB?$AAl?$AAo?$AAc?$AAk?$AA?5?$AA?$DN?$AA?$DN?$AA?5?$AAp?$AAH?$AAe?$AAa?$AAd?$AA?$AA@ 10087d88     LIBCMTD:dbgheap.obj
 0002:0000bdb4       ??_C@_1CM@MMAADDMD@?$AA_?$AAp?$AAF?$AAi?$AAr?$AAs?$AAt?$AAB?$AAl?$AAo?$AAc?$AAk?$AA?5?$AA?$DN?$AA?$DN?$AA?5?$AAp?$AAH?$AAe?$AAa?$AAd?$AA?$AA@ 10087db4     LIBCMTD:dbgheap.obj
 0002:0000bde0       ??_C@_1BG@MBKOGDLD@?$AA_?$AAm?$AAs?$AAi?$AAz?$AAe?$AA_?$AAd?$AAb?$AAg?$AA?$AA@ 10087de0     LIBCMTD:dbgheap.obj
 0002:0000bdf8       ??_C@_0CE@MKKHMBMK@_heapchk?5fails?5with?5_HEAPBADBEGI@ 10087df8     LIBCMTD:dbgheap.obj
 0002:0000be1c       ??_C@_0CD@CPKEAPBD@_heapchk?5fails?5with?5_HEAPBADNODE@ 10087e1c     LIBCMTD:dbgheap.obj
 0002:0000be40       ??_C@_0CC@MJGLGBDG@_heapchk?5fails?5with?5_HEAPBADEND?4@ 10087e40     LIBCMTD:dbgheap.obj
 0002:0000be64       ??_C@_0CC@MFFCHFHO@_heapchk?5fails?5with?5_HEAPBADPTR?4@ 10087e64     LIBCMTD:dbgheap.obj
 0002:0000be88       ??_C@_0CL@HNNNMKMJ@_heapchk?5fails?5with?5unknown?5retu@ 10087e88     LIBCMTD:dbgheap.obj
 0002:0000beb4       ??_C@_07OHKEFPKJ@DAMAGED?$AA@ 10087eb4     LIBCMTD:dbgheap.obj
 0002:0000bec0       ??_C@_0KA@IHNJJKPL@HEAP?5CORRUPTION?5DETECTED?3?5on?5top@ 10087ec0     LIBCMTD:dbgheap.obj
 0002:0000bf60       ??_C@_0IC@BBJIOOJH@HEAP?5CORRUPTION?5DETECTED?3?5on?5top@ 10087f60     LIBCMTD:dbgheap.obj
 0002:0000bfe8       ??_C@_0EG@DGJMPDBH@?$CFhs?5located?5at?50x?$CFp?5is?5?$CFIu?5bytes@ 10087fe8     LIBCMTD:dbgheap.obj
 0002:0000c030       ??_C@_0CI@JMLBEDHJ@?$CFhs?5located?5at?50x?$CFp?5is?5?$CFIu?5bytes@ 10088030     LIBCMTD:dbgheap.obj
 0002:0000c058       ??_C@_1BHO@NNANJNF@?$AA?$CI?$AAf?$AAN?$AAe?$AAw?$AAB?$AAi?$AAt?$AAs?$AA?$DN?$AA?$DN?$AA_?$AAC?$AAR?$AAT?$AAD?$AAB?$AAG?$AA_?$AAR?$AAE?$AAP?$AAO?$AAR?$AAT?$AA_?$AAF?$AAL?$AAA?$AAG?$AA?$CJ?$AA?5@ 10088058     LIBCMTD:dbgheap.obj
 0002:0000c1d8       ??_C@_1BO@GJFDNMNF@?$AA_?$AAC?$AAr?$AAt?$AAS?$AAe?$AAt?$AAD?$AAb?$AAg?$AAF?$AAl?$AAa?$AAg?$AA?$AA@ 100881d8     LIBCMTD:dbgheap.obj
 0002:0000c1f8       ??_C@_1BI@CJGCEEDL@?$AAp?$AAf?$AAn?$AA?5?$AA?$CB?$AA?$DN?$AA?5?$AAN?$AAU?$AAL?$AAL?$AA?$AA@ 100881f8     LIBCMTD:dbgheap.obj
 0002:0000c210       ??_C@_1DE@GJCKCKEC@?$AA_?$AAC?$AAr?$AAt?$AAD?$AAo?$AAF?$AAo?$AAr?$AAA?$AAl?$AAl?$AAC?$AAl?$AAi?$AAe?$AAn?$AAt?$AAO?$AAb?$AAj?$AAe?$AAc?$AAt?$AAs?$AA?$AA@ 10088210     LIBCMTD:dbgheap.obj
 0002:0000c244       ??_C@_1BM@MIMANDHC@?$AAs?$AAt?$AAa?$AAt?$AAe?$AA?5?$AA?$CB?$AA?$DN?$AA?5?$AAN?$AAU?$AAL?$AAL?$AA?$AA@ 10088244     LIBCMTD:dbgheap.obj
 0002:0000c260       ??_C@_1CE@NJJKELF@?$AA_?$AAC?$AAr?$AAt?$AAM?$AAe?$AAm?$AAC?$AAh?$AAe?$AAc?$AAk?$AAp?$AAo?$AAi?$AAn?$AAt?$AA?$AA@ 10088260     LIBCMTD:dbgheap.obj
 0002:0000c284       ??_C@_0DP@LEFMFBOD@Bad?5memory?5block?5found?5at?50x?$CFp?4?6@ 10088284     LIBCMTD:dbgheap.obj
 0002:0000c2c4       ??_C@_0CB@EAAIGELO@Bad?5memory?5block?5found?5at?50x?$CFp?4?6@ 100882c4     LIBCMTD:dbgheap.obj
 0002:0000c2e8       ??_C@_1CE@PDIENACM@?$AA_?$AAC?$AAr?$AAt?$AAM?$AAe?$AAm?$AAD?$AAi?$AAf?$AAf?$AAe?$AAr?$AAe?$AAn?$AAc?$AAe?$AA?$AA@ 100882e8     LIBCMTD:dbgheap.obj
 0002:0000c30c       ??_C@_1CC@DHPFEMMN@?$AAo?$AAl?$AAd?$AAS?$AAt?$AAa?$AAt?$AAe?$AA?5?$AA?$CB?$AA?$DN?$AA?5?$AAN?$AAU?$AAL?$AAL?$AA?$AA@ 1008830c     LIBCMTD:dbgheap.obj
 0002:0000c330       ??_C@_1CC@DFPEDFBP@?$AAn?$AAe?$AAw?$AAS?$AAt?$AAa?$AAt?$AAe?$AA?5?$AA?$CB?$AA?$DN?$AA?5?$AAN?$AAU?$AAL?$AAL?$AA?$AA@ 10088330     LIBCMTD:dbgheap.obj
 0002:0000c354       ??_C@_1CG@LPFIACGM@?$AA_?$AAp?$AAr?$AAi?$AAn?$AAt?$AAM?$AAe?$AAm?$AAB?$AAl?$AAo?$AAc?$AAk?$AAD?$AAa?$AAt?$AAa?$AA?$AA@ 10088354     LIBCMTD:dbgheap.obj
 0002:0000c37c       ??_C@_0BA@HJBKCELP@?5Data?3?5?$DM?$CFs?$DO?5?$CFs?6?$AA@ 1008837c     LIBCMTD:dbgheap.obj
 0002:0000c38c       ??_C@_0BE@KCIPKCIA@Dumping?5objects?5?9?$DO?6?$AA@ 1008838c     LIBCMTD:dbgheap.obj
 0002:0000c3a0       ??_C@_0BE@OIEFNFL@?$CDFile?5Error?$CD?$CI?$CFd?$CJ?5?3?5?$AA@ 100883a0     LIBCMTD:dbgheap.obj
 0002:0000c3b4       ??_C@_0L@JMEFFCCJ@?$CFhs?$CI?$CFd?$CJ?5?3?5?$AA@ 100883b4     LIBCMTD:dbgheap.obj
 0002:0000c3c0       ??_C@_06PKLGBFGM@?$HL?$CFld?$HN?5?$AA@ 100883c0     LIBCMTD:dbgheap.obj
 0002:0000c3c8       ??_C@_0DD@GHNAAKBB@client?5block?5at?50x?$CFp?0?5subtype?5?$CFx@ 100883c8     LIBCMTD:dbgheap.obj
 0002:0000c3fc       ??_C@_0CH@FAGDDGPN@normal?5block?5at?50x?$CFp?0?5?$CFIu?5bytes?5@ 100883fc     LIBCMTD:dbgheap.obj
 0002:0000c424       ??_C@_0DA@MDLBNIBM@crt?5block?5at?50x?$CFp?0?5subtype?5?$CFx?0?5?$CF@ 10088424     LIBCMTD:dbgheap.obj
 0002:0000c454       ??_C@_0BH@GFGKJDCO@Object?5dump?5complete?4?6?$AA@ 10088454     LIBCMTD:dbgheap.obj
 0002:0000c46c       ??_C@_0BI@JBFPOEJA@Detected?5memory?5leaks?$CB?6?$AA@ 1008846c     LIBCMTD:dbgheap.obj
 0002:0000c484       ??_C@_1CM@MPNIBKGK@?$AA_?$AAC?$AAr?$AAt?$AAM?$AAe?$AAm?$AAD?$AAu?$AAm?$AAp?$AAS?$AAt?$AAa?$AAt?$AAi?$AAs?$AAt?$AAi?$AAc?$AAs?$AA?$AA@ 10088484     LIBCMTD:dbgheap.obj
 0002:0000c4b0       ??_C@_0BO@DACNIABB@?$CFId?5bytes?5in?5?$CFId?5?$CFhs?5Blocks?4?6?$AA@ 100884b0     LIBCMTD:dbgheap.obj
 0002:0000c4d0       ??_C@_0CB@BLHDAFNE@Largest?5number?5used?3?5?$CFId?5bytes?4?6@ 100884d0     LIBCMTD:dbgheap.obj
 0002:0000c4f4       ??_C@_0BP@DEDHGGGI@Total?5allocations?3?5?$CFId?5bytes?4?6?$AA@ 100884f4     LIBCMTD:dbgheap.obj
 0002:0000c514       ??_C@_1CE@NPMGPNNP@?$AAI?$AAS?$AA_?$AA2?$AA_?$AAP?$AAO?$AAW?$AA_?$AAN?$AA?$CI?$AAa?$AAl?$AAi?$AAg?$AAn?$AA?$CJ?$AA?$AA@ 10088514     LIBCMTD:dbgheap.obj
 0002:0000c538       ??_C@_1DG@DONCJBBJ@?$AA_?$AAa?$AAl?$AAi?$AAg?$AAn?$AAe?$AAd?$AA_?$AAo?$AAf?$AAf?$AAs?$AAe?$AAt?$AA_?$AAm?$AAa?$AAl?$AAl?$AAo?$AAc?$AA_?$AAd?$AAb?$AAg?$AA?$AA@ 10088538     LIBCMTD:dbgheap.obj
 0002:0000c570       ??_C@_1DK@LFLKFPDA@?$AAo?$AAf?$AAf?$AAs?$AAe?$AAt?$AA?5?$AA?$DN?$AA?$DN?$AA?5?$AA0?$AA?5?$AA?$HM?$AA?$HM?$AA?5?$AAo?$AAf?$AAf?$AAs?$AAe?$AAt?$AA?5?$AA?$DM?$AA?5?$AAs?$AAi?$AAz?$AAe?$AA?$AA@ 10088570     LIBCMTD:dbgheap.obj
 0002:0000c5b0       ??_C@_0EI@NDNJMAJK@The?5block?5at?50x?$CFp?5was?5not?5alloca@ 100885b0     LIBCMTD:dbgheap.obj
 0002:0000c5f8       ??_C@_0DL@PGHMMKNE@Damage?5before?50x?$CFp?5which?5was?5all@ 100885f8     LIBCMTD:dbgheap.obj
 0002:0000c634       ??_C@_1DI@NINIKFFK@?$AA_?$AAa?$AAl?$AAi?$AAg?$AAn?$AAe?$AAd?$AA_?$AAo?$AAf?$AAf?$AAs?$AAe?$AAt?$AA_?$AAr?$AAe?$AAa?$AAl?$AAl?$AAo?$AAc?$AA_?$AAd?$AAb?$AAg?$AA?$AA@ 10088634     LIBCMTD:dbgheap.obj
 0002:0000c670       ??_C@_0EF@PGELACII@The?5block?5at?50x?$CFp?5was?5not?5alloca@ 10088670     LIBCMTD:dbgheap.obj
 0002:0000c6b8       ??_C@_1CC@MOBIKHH@?$AAm?$AAe?$AAm?$AAb?$AAl?$AAo?$AAc?$AAk?$AA?5?$AA?$CB?$AA?$DN?$AA?5?$AAN?$AAU?$AAL?$AAL?$AA?$AA@ 100886b8     LIBCMTD:dbgheap.obj
 0002:0000c6dc       ??_C@_1CG@CEGMHIMN@?$AA_?$AAa?$AAl?$AAi?$AAg?$AAn?$AAe?$AAd?$AA_?$AAm?$AAs?$AAi?$AAz?$AAe?$AA_?$AAd?$AAb?$AAg?$AA?$AA@ 100886dc     LIBCMTD:dbgheap.obj
 0002:0000d860       ??_C@_0CM@KPPOKOAI@f?3?2dd?2vctools?2crt?2crtw32?2startup@ 10089860     LIBCMTD:tidtable.obj
 0002:0000d88c       __pDestructExceptionObject 1008988c     LIBCMTD:frame.obj
 0002:0000d894       ??_7bad_exception@std@@6B@ 10089894     LIBCMTD:frame.obj
 0002:0000d89c       ??_C@_0O@DPKOEFFH@bad?5exception?$AA@ 1008989c     LIBCMTD:frame.obj
 0002:0000d8b0       ??_C@_1FA@CKEACION@?$AAf?$AA?3?$AA?2?$AAd?$AAd?$AA?2?$AAv?$AAc?$AAt?$AAo?$AAo?$AAl?$AAs?$AA?2?$AAc?$AAr?$AAt?$AA?2?$AAc?$AAr?$AAt?$AAw?$AA3?$AA2?$AA?2?$AAs?$AAt?$AAd?$AAi?$AAo?$AA?2?$AAf@ 100898b0     LIBCMTD:fileno.obj
 0002:0000d900       ??_C@_1BA@JGHIEKKM@?$AA_?$AAf?$AAi?$AAl?$AAe?$AAn?$AAo?$AA?$AA@ 10089900     LIBCMTD:fileno.obj
 0002:0000d910       ??_C@_1FO@LPCLHKGE@?$AA?$CI?$AAf?$AAh?$AA?5?$AA?$DO?$AA?$DN?$AA?5?$AA0?$AA?5?$AA?$CG?$AA?$CG?$AA?5?$AA?$CI?$AAu?$AAn?$AAs?$AAi?$AAg?$AAn?$AAe?$AAd?$AA?$CJ?$AAf?$AAh?$AA?5?$AA?$DM?$AA?5?$AA?$CI?$AAu?$AAn?$AAs?$AAi@ 10089910     LIBCMTD:close.obj
 0002:0000d970       ??_C@_1EO@EJLBBGEB@?$AAf?$AA?3?$AA?2?$AAd?$AAd?$AA?2?$AAv?$AAc?$AAt?$AAo?$AAo?$AAl?$AAs?$AA?2?$AAc?$AAr?$AAt?$AA?2?$AAc?$AAr?$AAt?$AAw?$AA3?$AA2?$AA?2?$AAl?$AAo?$AAw?$AAi?$AAo?$AA?2?$AAc@ 10089970     LIBCMTD:close.obj
 0002:0000d9c0       ??_C@_1O@EDEJGJBM@?$AA_?$AAc?$AAl?$AAo?$AAs?$AAe?$AA?$AA@ 100899c0     LIBCMTD:close.obj
 0002:0000d9d0       ??_C@_1CM@OKGMMMDH@?$AA?$CI?$AA_?$AAo?$AAs?$AAf?$AAi?$AAl?$AAe?$AA?$CI?$AAf?$AAh?$AA?$CJ?$AA?5?$AA?$CG?$AA?5?$AAF?$AAO?$AAP?$AAE?$AAN?$AA?$CJ?$AA?$AA@ 100899d0     LIBCMTD:close.obj
 0002:0000da00       ??_C@_1JE@ECKHFIFP@?$AA?$CI?$AA?$CC?$AAI?$AAn?$AAv?$AAa?$AAl?$AAi?$AAd?$AA?5?$AAf?$AAi?$AAl?$AAe?$AA?5?$AAd?$AAe?$AAs?$AAc?$AAr?$AAi?$AAp?$AAt?$AAo?$AAr?$AA?4?$AA?5?$AAF?$AAi?$AAl?$AAe?$AA?5@ 10089a00     LIBCMTD:close.obj
 0002:0000da98       ??_C@_1EM@IOHICOCC@?$AAf?$AA?3?$AA?2?$AAd?$AAd?$AA?2?$AAv?$AAc?$AAt?$AAo?$AAo?$AAl?$AAs?$AA?2?$AAc?$AAr?$AAt?$AA?2?$AAc?$AAr?$AAt?$AAw?$AA3?$AA2?$AA?2?$AAd?$AAo?$AAs?$AA?2?$AAd?$AAo?$AAs@ 10089a98     LIBCMTD:dosmap.obj
 0002:0000dae4       ??_C@_1BG@KCMPBBDK@?$AA_?$AAg?$AAe?$AAt?$AA_?$AAe?$AAr?$AAr?$AAn?$AAo?$AA?$AA@ 10089ae4     LIBCMTD:dosmap.obj
 0002:0000dafc       ??_C@_1BM@INIPHHDD@?$AA_?$AAg?$AAe?$AAt?$AA_?$AAd?$AAo?$AAs?$AAe?$AAr?$AAr?$AAn?$AAo?$AA?$AA@ 10089afc     LIBCMTD:dosmap.obj
 0002:0000db18       ??_C@_1BO@KIJENGPH@?$AAs?$AAt?$AAr?$AAe?$AAa?$AAm?$AA?5?$AA?$CB?$AA?$DN?$AA?5?$AAN?$AAU?$AAL?$AAL?$AA?$AA@ 10089b18     LIBCMTD:_freebuf.obj
 0002:0000db38       ??_C@_1FE@DBCNNJOP@?$AAf?$AA?3?$AA?2?$AAd?$AAd?$AA?2?$AAv?$AAc?$AAt?$AAo?$AAo?$AAl?$AAs?$AA?2?$AAc?$AAr?$AAt?$AA?2?$AAc?$AAr?$AAt?$AAw?$AA3?$AA2?$AA?2?$AAs?$AAt?$AAd?$AAi?$AAo?$AA?2?$AA_@ 10089b38     LIBCMTD:_freebuf.obj
 0002:0000db8c       ??_C@_0CI@CCALCGFN@f?3?2dd?2vctools?2crt?2crtw32?2stdio?2s@ 10089b8c     LIBCMTD:stream.obj
 0002:0000dbd4       ??_C@_1CC@JBMDNKJP@?$AAf?$AAi?$AAl?$AAe?$AAn?$AAa?$AAm?$AAe?$AA?5?$AA?$CB?$AA?$DN?$AA?5?$AAN?$AAU?$AAL?$AAL?$AA?$AA@ 10089bd4     LIBCMTD:_open.obj
 0002:0000dbf8       ??_C@_1EO@FCBMLNIH@?$AAf?$AA?3?$AA?2?$AAd?$AAd?$AA?2?$AAv?$AAc?$AAt?$AAo?$AAo?$AAl?$AAs?$AA?2?$AAc?$AAr?$AAt?$AA?2?$AAc?$AAr?$AAt?$AAw?$AA3?$AA2?$AA?2?$AAs?$AAt?$AAd?$AAi?$AAo?$AA?2?$AA_@ 10089bf8     LIBCMTD:_open.obj
 0002:0000dc48       ??_C@_1BK@HGLMNMEC@?$AAm?$AAo?$AAd?$AAe?$AA?5?$AA?$CB?$AA?$DN?$AA?5?$AAN?$AAU?$AAL?$AAL?$AA?$AA@ 10089c48     LIBCMTD:_open.obj
 0002:0000dc64       ??_C@_1BI@MFCLPIBM@?$AAs?$AAt?$AAr?$AA?5?$AA?$CB?$AA?$DN?$AA?5?$AAN?$AAU?$AAL?$AAL?$AA?$AA@ 10089c64     LIBCMTD:_open.obj
 0002:0000dc7c       ??_C@_1DK@PKMJBLLN@?$AA?$CI?$AA?$CC?$AAI?$AAn?$AAv?$AAa?$AAl?$AAi?$AAd?$AA?5?$AAf?$AAi?$AAl?$AAe?$AA?5?$AAo?$AAp?$AAe?$AAn?$AA?5?$AAm?$AAo?$AAd?$AAe?$AA?$CC?$AA?0?$AA0?$AA?$CJ?$AA?$AA@ 10089c7c     LIBCMTD:_open.obj
 0002:0000dcb8       ??_C@_1BE@DONHJJKE@?$AA_?$AAo?$AAp?$AAe?$AAn?$AAf?$AAi?$AAl?$AAe?$AA?$AA@ 10089cb8     LIBCMTD:_open.obj
 0002:0000dccc       ??_C@_1CI@KEDPFCAL@?$AA?$CI?$AA?$CK?$AAm?$AAo?$AAd?$AAe?$AA?5?$AA?$DN?$AA?$DN?$AA?5?$AA_?$AAT?$AA?$CI?$AA?8?$AA?2?$AA0?$AA?8?$AA?$CJ?$AA?$CJ?$AA?$AA@ 10089ccc     LIBCMTD:_open.obj
 0002:0000dcf8       ??_C@_1FE@MJOOBDBG@?$AAf?$AA?3?$AA?2?$AAd?$AAd?$AA?2?$AAv?$AAc?$AAt?$AAo?$AAo?$AAl?$AAs?$AA?2?$AAc?$AAr?$AAt?$AA?2?$AAc?$AAr?$AAt?$AAw?$AA3?$AA2?$AA?2?$AAs?$AAt?$AAd?$AAi?$AAo?$AA?2?$AAv@ 10089cf8     LIBCMTD:vfprintf.obj
 0002:0000dd4c       ??_C@_1CA@OEHMHBJF@?$AAv?$AAf?$AAp?$AAr?$AAi?$AAn?$AAt?$AAf?$AA_?$AAh?$AAe?$AAl?$AAp?$AAe?$AAr?$AA?$AA@ 10089d4c     LIBCMTD:vfprintf.obj
 0002:0000dd70       ??_C@_1FC@LKGACDMH@?$AAf?$AA?3?$AA?2?$AAd?$AAd?$AA?2?$AAv?$AAc?$AAt?$AAo?$AAo?$AAl?$AAs?$AA?2?$AAc?$AAr?$AAt?$AA?2?$AAc?$AAr?$AAt?$AAw?$AA3?$AA2?$AA?2?$AAs?$AAt?$AAd?$AAi?$AAo?$AA?2?$AA_@ 10089d70     LIBCMTD:_sftbuf.obj
 0002:0000ddc4       ??_C@_0CJ@KDJGPIJL@f?3?2dd?2vctools?2crt?2crtw32?2stdio?2_@ 10089dc4     LIBCMTD:_sftbuf.obj
 0002:0000ddf0       ??_C@_1CO@KCKAACMI@?$AAf?$AAl?$AAa?$AAg?$AA?5?$AA?$DN?$AA?$DN?$AA?5?$AA0?$AA?5?$AA?$HM?$AA?$HM?$AA?5?$AAf?$AAl?$AAa?$AAg?$AA?5?$AA?$DN?$AA?$DN?$AA?5?$AA1?$AA?$AA@ 10089df0     LIBCMTD:_sftbuf.obj
 0002:0000de20       ??_C@_06OJHGLDPL@?$CInull?$CJ?$AA@ 10089e20     LIBCMTD:output.obj
 0002:0000de28       ??_C@_1O@CEDCILHN@?$AA?$CI?$AAn?$AAu?$AAl?$AAl?$AA?$CJ?$AA?$AA@ 10089e28     LIBCMTD:output.obj
 0002:0000de38       ___lookuptable             10089e38     LIBCMTD:output.obj
 0002:0000de98       ??_C@_1FA@KMIJDCIC@?$AAf?$AA?3?$AA?2?$AAd?$AAd?$AA?2?$AAv?$AAc?$AAt?$AAo?$AAo?$AAl?$AAs?$AA?2?$AAc?$AAr?$AAt?$AA?2?$AAc?$AAr?$AAt?$AAw?$AA3?$AA2?$AA?2?$AAs?$AAt?$AAd?$AAi?$AAo?$AA?2?$AAo@ 10089e98     LIBCMTD:output.obj
 0002:0000dee8       ??_C@_1BE@IONLIDNC@?$AA_?$AAo?$AAu?$AAt?$AAp?$AAu?$AAt?$AA_?$AAl?$AA?$AA@ 10089ee8     LIBCMTD:output.obj
 0002:0000defc       ??_C@_1CC@IFFHEMNF@?$AA?$CI?$AAc?$AAh?$AA?5?$AA?$CB?$AA?$DN?$AA?5?$AA_?$AAT?$AA?$CI?$AA?8?$AA?2?$AA0?$AA?8?$AA?$CJ?$AA?$CJ?$AA?$AA@ 10089efc     LIBCMTD:output.obj
 0002:0000df20       ??_C@_1EK@PNGFDECN@?$AA?$CI?$AA?$CC?$AA?8?$AAn?$AA?8?$AA?5?$AAf?$AAo?$AAr?$AAm?$AAa?$AAt?$AA?5?$AAs?$AAp?$AAe?$AAc?$AAi?$AAf?$AAi?$AAe?$AAr?$AA?5?$AAd?$AAi?$AAs?$AAa?$AAb?$AAl?$AAe?$AAd?$AA?$CC@ 10089f20     LIBCMTD:output.obj
 0002:0000df6c       ??_C@_0CI@CMOPBIOD@f?3?2dd?2vctools?2crt?2crtw32?2stdio?2o@ 10089f6c     LIBCMTD:output.obj
 0002:0000df94       ??_C@_0CI@BIOGDJKL@f?3?2dd?2vctools?2crt?2crtw32?2lowio?2i@ 10089f94     LIBCMTD:ioinit.obj
 0002:0000dfc0       ??_C@_1FC@LLDAFLML@?$AAf?$AA?3?$AA?2?$AAd?$AAd?$AA?2?$AAv?$AAc?$AAt?$AAo?$AAo?$AAl?$AAs?$AA?2?$AAc?$AAr?$AAt?$AA?2?$AAc?$AAr?$AAt?$AAw?$AA3?$AA2?$AA?2?$AAs?$AAt?$AAd?$AAi?$AAo?$AA?2?$AAv@ 10089fc0     LIBCMTD:vprintf.obj
 0002:0000e014       ??_C@_1BO@JGFPDJCP@?$AAv?$AAp?$AAr?$AAi?$AAn?$AAt?$AAf?$AA_?$AAh?$AAe?$AAl?$AAp?$AAe?$AAr?$AA?$AA@ 1008a014     LIBCMTD:vprintf.obj
 0002:0000e038       ??_C@_1FC@OBEHAONE@?$AAf?$AA?3?$AA?2?$AAd?$AAd?$AA?2?$AAv?$AAc?$AAt?$AAo?$AAo?$AAl?$AAs?$AA?2?$AAc?$AAr?$AAt?$AA?2?$AAc?$AAr?$AAt?$AAw?$AA3?$AA2?$AA?2?$AAs?$AAt?$AAd?$AAi?$AAo?$AA?2?$AA_@ 1008a038     LIBCMTD:_flsbuf.obj
 0002:0000e090       ??_C@_1HO@MLMGPAFH@?$AA?$CI?$AA?$CC?$AAi?$AAn?$AAc?$AAo?$AAn?$AAs?$AAi?$AAs?$AAt?$AAe?$AAn?$AAt?$AA?5?$AAI?$AAO?$AAB?$AA?5?$AAf?$AAi?$AAe?$AAl?$AAd?$AAs?$AA?$CC?$AA?0?$AA?5?$AAs?$AAt?$AAr?$AAe@ 1008a090     LIBCMTD:_flsbuf.obj
 0002:0000e110       ??_C@_1BK@FHMHFMNL@?$AA_?$AAv?$AAs?$AAn?$AAp?$AAr?$AAi?$AAn?$AAt?$AAf?$AA_?$AAl?$AA?$AA@ 1008a110     LIBCMTD:vsnprint.obj
 0002:0000e130       __OP_ATAN2jmptab           1008a130     LIBCMTD:87triga.obj
 0002:0000ea8a       __OP_SINHjmptab            1008aa8a     LIBCMTD:87trigh.obj
 0002:0000eaaa       __OP_COSHjmptab            1008aaaa     LIBCMTD:87trigh.obj
 0002:0000eaca       __OP_TANHjmptab            1008aaca     LIBCMTD:87trigh.obj
 0002:0000eaf0       ??_C@_1FE@HMGHELF@?$AAf?$AA?3?$AA?2?$AAd?$AAd?$AA?2?$AAv?$AAc?$AAt?$AAo?$AAo?$AAl?$AAs?$AA?2?$AAc?$AAr?$AAt?$AA?2?$AAc?$AAr?$AAt?$AAw?$AA3?$AA2?$AA?2?$AAs?$AAt?$AAd?$AAi?$AAo?$AA?2?$AAs@ 1008aaf0     LIBCMTD:swprintf.obj
 0002:0000eb44       ??_C@_1BE@BMIJMLDD@?$AA_?$AAs?$AAw?$AAp?$AAr?$AAi?$AAn?$AAt?$AAf?$AA?$AA@ 1008ab44     LIBCMTD:swprintf.obj
 0002:0000eb58       ??_C@_1FA@IFFFOLDJ@?$AAn?$AAR?$AAp?$AAt?$AAT?$AAy?$AAp?$AAe?$AA?5?$AA?$DO?$AA?$DN?$AA?5?$AA0?$AA?5?$AA?$CG?$AA?$CG?$AA?5?$AAn?$AAR?$AAp?$AAt?$AAT?$AAy?$AAp?$AAe?$AA?5?$AA?$DM?$AA?5?$AA_?$AAC?$AAR?$AAT@ 1008ab58     LIBCMTD:dbgrptt.obj
 0002:0000eba8       ??_C@_1FA@PPLJBGMP@?$AAf?$AA?3?$AA?2?$AAd?$AAd?$AA?2?$AAv?$AAc?$AAt?$AAo?$AAo?$AAl?$AAs?$AA?2?$AAc?$AAr?$AAt?$AA?2?$AAc?$AAr?$AAt?$AAw?$AA3?$AA2?$AA?2?$AAm?$AAi?$AAs?$AAc?$AA?2?$AAd?$AAb@ 1008aba8     LIBCMTD:dbgrptt.obj
 0002:0000ebf8       ??_C@_1CE@FIHIECNJ@?$AA_?$AAC?$AAr?$AAt?$AAS?$AAe?$AAt?$AAR?$AAe?$AAp?$AAo?$AAr?$AAt?$AAM?$AAo?$AAd?$AAe?$AA?$AA@ 1008abf8     LIBCMTD:dbgrptt.obj
 0002:0000ec20       ??_C@_1NK@LOFHIHFC@?$AAf?$AAM?$AAo?$AAd?$AAe?$AA?5?$AA?$DN?$AA?$DN?$AA?5?$AA_?$AAC?$AAR?$AAT?$AAD?$AAB?$AAG?$AA_?$AAR?$AAE?$AAP?$AAO?$AAR?$AAT?$AA_?$AAM?$AAO?$AAD?$AAE?$AA?5?$AA?$HM?$AA?$HM?$AA?5@ 1008ac20     LIBCMTD:dbgrptt.obj
 0002:0000ecfc       ??_C@_1CE@IKKEDCME@?$AA_?$AAC?$AAr?$AAt?$AAS?$AAe?$AAt?$AAR?$AAe?$AAp?$AAo?$AAr?$AAt?$AAF?$AAi?$AAl?$AAe?$AA?$AA@ 1008acfc     LIBCMTD:dbgrptt.obj
 0002:0000ed20       ??_C@_1CA@KHJHLKA@?$AA_?$AAV?$AAC?$AAr?$AAt?$AAD?$AAb?$AAg?$AAR?$AAe?$AAp?$AAo?$AAr?$AAt?$AAA?$AA?$AA@ 1008ad20     LIBCMTD:dbgrptt.obj
 0002:0000ed40       ??_C@_1FA@JPHJBHEM@?$AA_?$AAi?$AAt?$AAo?$AAa?$AA_?$AAs?$AA?$CI?$AAn?$AAL?$AAi?$AAn?$AAe?$AA?0?$AA?5?$AAs?$AAz?$AAL?$AAi?$AAn?$AAe?$AAM?$AAe?$AAs?$AAs?$AAa?$AAg?$AAe?$AA?0?$AA?5?$AA4?$AA0@ 1008ad40     LIBCMTD:dbgrptt.obj
 0002:0000ed90       ??_C@_0CG@BNGLOCEO@Second?5Chance?5Assertion?5Failed?3?5@ 1008ad90     LIBCMTD:dbgrptt.obj
 0002:0000edb8       ??_C@_0P@DFJNDPOP@?$DMfile?5unknown?$DO?$AA@ 1008adb8     LIBCMTD:dbgrptt.obj
 0002:0000edc8       ??_C@_07BHGABMGB@?0?5Line?5?$AA@ 1008adc8     LIBCMTD:dbgrptt.obj
 0002:0000edd0       ??_C@_1JI@GAALPGBM@?$AAs?$AAt?$AAr?$AAc?$AAp?$AAy?$AA_?$AAs?$AA?$CI?$AAs?$AAz?$AAU?$AAs?$AAe?$AAr?$AAM?$AAe?$AAs?$AAs?$AAa?$AAg?$AAe?$AA?0?$AA?5?$AA4?$AA0?$AA9?$AA6?$AA?0?$AA?5?$AA?$CC?$AA_@ 1008add0     LIBCMTD:dbgrptt.obj
 0002:0000ee68       ??_C@_0CL@EACFGMNB@_CrtDbgReport?3?5String?5too?5long?5o@ 1008ae68     LIBCMTD:dbgrptt.obj
 0002:0000ee98       ??_C@_1KK@GIGAEDMO@?$AAs?$AAt?$AAr?$AAc?$AAp?$AAy?$AA_?$AAs?$AA?$CI?$AAs?$AAz?$AAL?$AAi?$AAn?$AAe?$AAM?$AAe?$AAs?$AAs?$AAa?$AAg?$AAe?$AA?0?$AA?5?$AA4?$AA0?$AA9?$AA6?$AA?0?$AA?5?$AAs?$AAz@ 1008ae98     LIBCMTD:dbgrptt.obj
 0002:0000ef44       ??_C@_0BD@CAENFOHP@Assertion?5failed?3?5?$AA@ 1008af44     LIBCMTD:dbgrptt.obj
 0002:0000ef58       ??_C@_0BC@LAIDCHCH@Assertion?5failed?$CB?$AA@ 1008af58     LIBCMTD:dbgrptt.obj
 0002:0000ef70       ??_C@_1FK@NPGBPOFO@?$AAs?$AAt?$AAr?$AAc?$AAa?$AAt?$AA_?$AAs?$AA?$CI?$AAs?$AAz?$AAL?$AAi?$AAn?$AAe?$AAM?$AAe?$AAs?$AAs?$AAa?$AAg?$AAe?$AA?0?$AA?5?$AA4?$AA0?$AA9?$AA6?$AA?0?$AA?5?$AAs?$AAz@ 1008af70     LIBCMTD:dbgrptt.obj
 0002:0000efd0       ??_C@_1EI@CACDLAFK@?$AAs?$AAt?$AAr?$AAc?$AAa?$AAt?$AA_?$AAs?$AA?$CI?$AAs?$AAz?$AAL?$AAi?$AAn?$AAe?$AAM?$AAe?$AAs?$AAs?$AAa?$AAg?$AAe?$AA?0?$AA?5?$AA4?$AA0?$AA9?$AA6?$AA?0?$AA?5?$AA?$CC?$AA?2@ 1008afd0     LIBCMTD:dbgrptt.obj
 0002:0000f018       ??_C@_01LIIJDEN@?$AN?$AA@  1008b018     LIBCMTD:dbgrptt.obj
 0002:0000f020       ??_C@_1EI@LDHJEDO@?$AAs?$AAt?$AAr?$AAc?$AAa?$AAt?$AA_?$AAs?$AA?$CI?$AAs?$AAz?$AAL?$AAi?$AAn?$AAe?$AAM?$AAe?$AAs?$AAs?$AAa?$AAg?$AAe?$AA?0?$AA?5?$AA4?$AA0?$AA9?$AA6?$AA?0?$AA?5?$AA?$CC?$AA?2@ 1008b020     LIBCMTD:dbgrptt.obj
 0002:0000f068       ??_C@_0M@IPILFDFN@?$CFs?$CI?$CFd?$CJ?5?3?5?$CFs?$AA@ 1008b068     LIBCMTD:dbgrptt.obj
 0002:0000f078       ??_C@_1JG@CPKCIOEE@?$AAs?$AAt?$AAr?$AAc?$AAp?$AAy?$AA_?$AAs?$AA?$CI?$AAs?$AAz?$AAO?$AAu?$AAt?$AAM?$AAe?$AAs?$AAs?$AAa?$AAg?$AAe?$AA?0?$AA?5?$AA4?$AA0?$AA9?$AA6?$AA?0?$AA?5?$AA?$CC?$AA_?$AAC@ 1008b078     LIBCMTD:dbgrptt.obj
 0002:0000f110       ??_C@_1FI@IBIOIHEG@?$AAs?$AAt?$AAr?$AAc?$AAp?$AAy?$AA_?$AAs?$AA?$CI?$AAs?$AAz?$AAO?$AAu?$AAt?$AAM?$AAe?$AAs?$AAs?$AAa?$AAg?$AAe?$AA?0?$AA?5?$AA4?$AA0?$AA9?$AA6?$AA?0?$AA?5?$AAs?$AAz?$AAL@ 1008b110     LIBCMTD:dbgrptt.obj
 0002:0000f168       ??_C@_1IM@OOKIFKOH@?$AAe?$AA?5?$AA?$DN?$AA?5?$AAm?$AAb?$AAs?$AAt?$AAo?$AAw?$AAc?$AAs?$AA_?$AAs?$AA?$CI?$AA?$CG?$AAr?$AAe?$AAt?$AA?0?$AA?5?$AAs?$AAz?$AAO?$AAu?$AAt?$AAM?$AAe?$AAs?$AAs?$AAa?$AAg@ 1008b168     LIBCMTD:dbgrptt.obj
 0002:0000f1f8       ??_C@_1MC@IGEECMDB@?$AAw?$AAc?$AAs?$AAc?$AAp?$AAy?$AA_?$AAs?$AA?$CI?$AAs?$AAz?$AAO?$AAu?$AAt?$AAM?$AAe?$AAs?$AAs?$AAa?$AAg?$AAe?$AA2?$AA?0?$AA?5?$AA4?$AA0?$AA9?$AA6?$AA?0?$AA?5?$AAL?$AA?$CC@ 1008b1f8     LIBCMTD:dbgrptt.obj
 0002:0000f2c0       ??_C@_1HO@PJOFIKFE@?$AA_?$AAC?$AAr?$AAt?$AAD?$AAb?$AAg?$AAR?$AAe?$AAp?$AAo?$AAr?$AAt?$AA?3?$AA?5?$AAS?$AAt?$AAr?$AAi?$AAn?$AAg?$AA?5?$AAt?$AAo?$AAo?$AA?5?$AAl?$AAo?$AAn?$AAg?$AA?5?$AAo@ 1008b2c0     LIBCMTD:dbgrptt.obj
 0002:0000f340       ??_C@_1CA@HPALHDOD@?$AA_?$AAV?$AAC?$AAr?$AAt?$AAD?$AAb?$AAg?$AAR?$AAe?$AAp?$AAo?$AAr?$AAt?$AAW?$AA?$AA@ 1008b340     LIBCMTD:dbgrptt.obj
 0002:0000f360       ??_C@_1FA@CNLLOMHI@?$AA_?$AAi?$AAt?$AAo?$AAw?$AA_?$AAs?$AA?$CI?$AAn?$AAL?$AAi?$AAn?$AAe?$AA?0?$AA?5?$AAs?$AAz?$AAL?$AAi?$AAn?$AAe?$AAM?$AAe?$AAs?$AAs?$AAa?$AAg?$AAe?$AA?0?$AA?5?$AA4?$AA0@ 1008b360     LIBCMTD:dbgrptt.obj
 0002:0000f3b0       ??_C@_1EM@MJFLEDMB@?$AAS?$AAe?$AAc?$AAo?$AAn?$AAd?$AA?5?$AAC?$AAh?$AAa?$AAn?$AAc?$AAe?$AA?5?$AAA?$AAs?$AAs?$AAe?$AAr?$AAt?$AAi?$AAo?$AAn?$AA?5?$AAF?$AAa?$AAi?$AAl?$AAe?$AAd?$AA?3?$AA?5@ 1008b3b0     LIBCMTD:dbgrptt.obj
 0002:0000f3fc       ??_C@_1BO@OCHMLCAG@?$AA?$DM?$AAf?$AAi?$AAl?$AAe?$AA?5?$AAu?$AAn?$AAk?$AAn?$AAo?$AAw?$AAn?$AA?$DO?$AA?$AA@ 1008b3fc     LIBCMTD:dbgrptt.obj
 0002:0000f41c       ??_C@_1BA@ELMMDCFC@?$AA?0?$AA?5?$AAL?$AAi?$AAn?$AAe?$AA?5?$AA?$AA@ 1008b41c     LIBCMTD:dbgrptt.obj
 0002:0000f430       ??_C@_1JK@KHFABAEO@?$AAw?$AAc?$AAs?$AAc?$AAp?$AAy?$AA_?$AAs?$AA?$CI?$AAs?$AAz?$AAU?$AAs?$AAe?$AAr?$AAM?$AAe?$AAs?$AAs?$AAa?$AAg?$AAe?$AA?0?$AA?5?$AA4?$AA0?$AA9?$AA6?$AA?0?$AA?5?$AAL?$AA?$CC@ 1008b430     LIBCMTD:dbgrptt.obj
 0002:0000f4d0       ??_C@_1KO@DGAHENCH@?$AAw?$AAc?$AAs?$AAc?$AAp?$AAy?$AA_?$AAs?$AA?$CI?$AAs?$AAz?$AAL?$AAi?$AAn?$AAe?$AAM?$AAe?$AAs?$AAs?$AAa?$AAg?$AAe?$AA?0?$AA?5?$AA4?$AA0?$AA9?$AA6?$AA?0?$AA?5?$AAs?$AAz@ 1008b4d0     LIBCMTD:dbgrptt.obj
 0002:0000f580       ??_C@_1CG@FFFGGODN@?$AAA?$AAs?$AAs?$AAe?$AAr?$AAt?$AAi?$AAo?$AAn?$AA?5?$AAf?$AAa?$AAi?$AAl?$AAe?$AAd?$AA?3?$AA?5?$AA?$AA@ 1008b580     LIBCMTD:dbgrptt.obj
 0002:0000f5a8       ??_C@_1FK@HPADHBBD@?$AAw?$AAc?$AAs?$AAc?$AAa?$AAt?$AA_?$AAs?$AA?$CI?$AAs?$AAz?$AAL?$AAi?$AAn?$AAe?$AAM?$AAe?$AAs?$AAs?$AAa?$AAg?$AAe?$AA?0?$AA?5?$AA4?$AA0?$AA9?$AA6?$AA?0?$AA?5?$AAs?$AAz@ 1008b5a8     LIBCMTD:dbgrptt.obj
 0002:0000f608       ??_C@_1EK@NMDFGHMF@?$AAw?$AAc?$AAs?$AAc?$AAa?$AAt?$AA_?$AAs?$AA?$CI?$AAs?$AAz?$AAL?$AAi?$AAn?$AAe?$AAM?$AAe?$AAs?$AAs?$AAa?$AAg?$AAe?$AA?0?$AA?5?$AA4?$AA0?$AA9?$AA6?$AA?0?$AA?5?$AAL?$AA?$CC@ 1008b608     LIBCMTD:dbgrptt.obj
 0002:0000f654       ??_C@_13CMNBPIDO@?$AA?$AN?$AA?$AA@ 1008b654     LIBCMTD:dbgrptt.obj
 0002:0000f658       ??_C@_1EK@PHCBEDKB@?$AAw?$AAc?$AAs?$AAc?$AAa?$AAt?$AA_?$AAs?$AA?$CI?$AAs?$AAz?$AAL?$AAi?$AAn?$AAe?$AAM?$AAe?$AAs?$AAs?$AAa?$AAg?$AAe?$AA?0?$AA?5?$AA4?$AA0?$AA9?$AA6?$AA?0?$AA?5?$AAL?$AA?$CC@ 1008b658     LIBCMTD:dbgrptt.obj
 0002:0000f6a4       ??_C@_1BI@JIDBEPIG@?$AA?$CF?$AAs?$AA?$CI?$AA?$CF?$AAd?$AA?$CJ?$AA?5?$AA?3?$AA?5?$AA?$CF?$AAs?$AA?$AA@ 1008b6a4     LIBCMTD:dbgrptt.obj
 0002:0000f6c0       ??_C@_1FI@DBAIJPJE@?$AAw?$AAc?$AAs?$AAc?$AAp?$AAy?$AA_?$AAs?$AA?$CI?$AAs?$AAz?$AAO?$AAu?$AAt?$AAM?$AAe?$AAs?$AAs?$AAa?$AAg?$AAe?$AA?0?$AA?5?$AA4?$AA0?$AA9?$AA6?$AA?0?$AA?5?$AAs?$AAz?$AAL@ 1008b6c0     LIBCMTD:dbgrptt.obj
 0002:0000f718       ??_C@_1JC@EOAPFDLN@?$AAw?$AAc?$AAs?$AAt?$AAo?$AAm?$AAb?$AAs?$AA_?$AAs?$AA?$CI?$AA?$CI?$AA?$CI?$AAv?$AAo?$AAi?$AAd?$AA?5?$AA?$CK?$AA?$CJ?$AA0?$AA?$CJ?$AA?0?$AA?5?$AAs?$AAz?$AAO?$AAu?$AAt?$AAM?$AAe?$AAs@ 1008b718     LIBCMTD:dbgrptt.obj
 0002:0000f7b0       ??_C@_1MA@LBAMNNOB@?$AAs?$AAt?$AAr?$AAc?$AAp?$AAy?$AA_?$AAs?$AA?$CI?$AAs?$AAz?$AAO?$AAu?$AAt?$AAM?$AAe?$AAs?$AAs?$AAa?$AAg?$AAe?$AA2?$AA?0?$AA?5?$AA4?$AA0?$AA9?$AA6?$AA?0?$AA?5?$AA?$CC?$AA_@ 1008b7b0     LIBCMTD:dbgrptt.obj
 0002:0000f870       ??_C@_0DP@GNPEPHJD@_CrtDbgReport?3?5String?5too?5long?5o@ 1008b870     LIBCMTD:dbgrptt.obj
 0002:0000f8b0       ??_C@_1IE@CPGKIAGP@?$AAw?$AAc?$AAs?$AAt?$AAo?$AAm?$AAb?$AAs?$AA_?$AAs?$AA?$CI?$AA?$CG?$AAr?$AAe?$AAt?$AA?0?$AA?5?$AAs?$AAz?$AAa?$AAO?$AAu?$AAt?$AAM?$AAe?$AAs?$AAs?$AAa?$AAg?$AAe?$AA?0?$AA?5@ 1008b8b0     LIBCMTD:dbgrptt.obj
 0002:0000f938       ??_C@_1FC@NCPEPIBI@?$AA?$CI?$AA?$CI?$AA_?$AAD?$AAs?$AAt?$AA?$CJ?$AA?$CJ?$AA?5?$AA?$CB?$AA?$DN?$AA?5?$AAN?$AAU?$AAL?$AAL?$AA?5?$AA?$CG?$AA?$CG?$AA?5?$AA?$CI?$AA?$CI?$AA_?$AAS?$AAi?$AAz?$AAe?$AAI?$AAn?$AAB?$AAy?$AAt@ 1008b938     LIBCMTD:strcpy_s.obj
 0002:0000f98c       ??_C@_1BC@CFJEPFGF@?$AAs?$AAt?$AAr?$AAc?$AAp?$AAy?$AA_?$AAs?$AA?$AA@ 1008b98c     LIBCMTD:strcpy_s.obj
 0002:0000f9a0       ??_C@_1CK@GELGGBDK@?$AAp?$AAN?$AAo?$AAd?$AAe?$AA?9?$AA?$DO?$AA_?$AAN?$AAe?$AAx?$AAt?$AA?5?$AA?$CB?$AA?$DN?$AA?5?$AAN?$AAU?$AAL?$AAL?$AA?$AA@ 1008b9a0     LIBCMTD:typname.obj
 0002:0000f9d0       ??_C@_1FA@KAJOMDBA@?$AAf?$AA?3?$AA?2?$AAd?$AAd?$AA?2?$AAv?$AAc?$AAt?$AAo?$AAo?$AAl?$AAs?$AA?2?$AAc?$AAr?$AAt?$AA?2?$AAc?$AAr?$AAt?$AAw?$AA3?$AA2?$AA?2?$AAe?$AAh?$AA?2?$AAt?$AAy?$AAp?$AAn@ 1008b9d0     LIBCMTD:typname.obj
 0002:0000fa20       ??_C@_1CM@OOICDMK@?$AAt?$AAy?$AAp?$AAe?$AA_?$AAi?$AAn?$AAf?$AAo?$AA?3?$AA?3?$AA_?$AAN?$AAa?$AAm?$AAe?$AA_?$AAb?$AAa?$AAs?$AAe?$AA?$AA@ 1008ba20     LIBCMTD:typname.obj
 0002:0000fa50       ??_C@_1JK@NAFNEPGC@?$AAs?$AAt?$AAr?$AAc?$AAp?$AAy?$AA_?$AAs?$AA?5?$AA?$CI?$AA?$CI?$AAc?$AAh?$AAa?$AAr?$AA?5?$AA?$CK?$AA?$CJ?$AA?$CI?$AA?$CI?$AAt?$AAy?$AAp?$AAe?$AA_?$AAi?$AAn?$AAf?$AAo?$AA?5?$AA?$CK?$AA?$CJ@ 1008ba50     LIBCMTD:typname.obj
 0002:0000faec       ??_C@_1DO@OJJLFJPE@?$AAt?$AAy?$AAp?$AAe?$AA_?$AAi?$AAn?$AAf?$AAo?$AA?3?$AA?3?$AA_?$AAN?$AAa?$AAm?$AAe?$AA_?$AAb?$AAa?$AAs?$AAe?$AA_?$AAi?$AAn?$AAt?$AAe?$AAr?$AAn?$AAa?$AAl?$AA?$AA@ 1008baec     LIBCMTD:typname.obj
 0002:0000fb30       ??_C@_1GI@EAJKJPED@?$AAs?$AAt?$AAr?$AAc?$AAp?$AAy?$AA_?$AAs?$AA?5?$AA?$CI?$AAp?$AAT?$AAm?$AAp?$AAT?$AAy?$AAp?$AAe?$AAN?$AAa?$AAm?$AAe?$AA?0?$AA?5?$AAl?$AAe?$AAn?$AA?$CL?$AA2?$AA?0?$AA?5?$AA?$CI@ 1008bb30     LIBCMTD:typname.obj
 0002:0000fb98       ??_C@_1FC@KLDIFLFI@?$AAf?$AA?3?$AA?2?$AAd?$AAd?$AA?2?$AAv?$AAc?$AAt?$AAo?$AAo?$AAl?$AAs?$AA?2?$AAc?$AAr?$AAt?$AA?2?$AAc?$AAr?$AAt?$AAw?$AA3?$AA2?$AA?2?$AAs?$AAt?$AAd?$AAi?$AAo?$AA?2?$AA_@ 1008bb98     LIBCMTD:_filbuf.obj
 0002:0000fbec       ??_C@_1BA@IIKEPOGH@?$AA_?$AAf?$AAi?$AAl?$AAb?$AAu?$AAf?$AA?$AA@ 1008bbec     LIBCMTD:_filbuf.obj
 0002:0000fc00       ??_C@_1EM@BALFJBIJ@?$AAf?$AA?3?$AA?2?$AAd?$AAd?$AA?2?$AAv?$AAc?$AAt?$AAo?$AAo?$AAl?$AAs?$AA?2?$AAc?$AAr?$AAt?$AA?2?$AAc?$AAr?$AAt?$AAw?$AA3?$AA2?$AA?2?$AAl?$AAo?$AAw?$AAi?$AAo?$AA?2?$AAr@ 1008bc00     LIBCMTD:read.obj
 0002:0000fc4c       ??_C@_1M@NHJOLLDM@?$AA_?$AAr?$AAe?$AAa?$AAd?$AA?$AA@ 1008bc4c     LIBCMTD:read.obj
 0002:0000fc58       ??_C@_1CC@HBLPFNKH@?$AA?$CI?$AAc?$AAn?$AAt?$AA?5?$AA?$DM?$AA?$DN?$AA?5?$AAI?$AAN?$AAT?$AA_?$AAM?$AAA?$AAX?$AA?$CJ?$AA?$AA@ 1008bc58     LIBCMTD:read.obj
 0002:0000fc7c       ??_C@_1BK@JJBHNDKJ@?$AA_?$AAr?$AAe?$AAa?$AAd?$AA_?$AAn?$AAo?$AAl?$AAo?$AAc?$AAk?$AA?$AA@ 1008bc7c     LIBCMTD:read.obj
 0002:0000fc98       ??_C@_1CG@OHLJHGGK@?$AA?$CI?$AAi?$AAn?$AAp?$AAu?$AAt?$AAb?$AAu?$AAf?$AA?5?$AA?$CB?$AA?$DN?$AA?5?$AAN?$AAU?$AAL?$AAL?$AA?$CJ?$AA?$AA@ 1008bc98     LIBCMTD:read.obj
 0002:0000fcc0       ??_C@_1CC@EEOLPHGO@?$AA?$CI?$AA?$CI?$AAc?$AAn?$AAt?$AA?5?$AA?$CG?$AA?5?$AA1?$AA?$CJ?$AA?5?$AA?$DN?$AA?$DN?$AA?5?$AA0?$AA?$CJ?$AA?$AA@ 1008bcc0     LIBCMTD:read.obj
 0002:0000fce4       ??_C@_0CG@JHNDLPLJ@f?3?2dd?2vctools?2crt?2crtw32?2lowio?2r@ 1008bce4     LIBCMTD:read.obj
 0002:0000fd10       ??_C@_1EO@NLGPLDCN@?$AAf?$AA?3?$AA?2?$AAd?$AAd?$AA?2?$AAv?$AAc?$AAt?$AAo?$AAo?$AAl?$AAs?$AA?2?$AAc?$AAr?$AAt?$AA?2?$AAc?$AAr?$AAt?$AAw?$AA3?$AA2?$AA?2?$AAl?$AAo?$AAw?$AAi?$AAo?$AA?2?$AAw@ 1008bd10     LIBCMTD:write.obj
 0002:0000fd60       ??_C@_1O@KOFKDHPL@?$AA_?$AAw?$AAr?$AAi?$AAt?$AAe?$AA?$AA@ 1008bd60     LIBCMTD:write.obj
 0002:0000fd70       ??_C@_1BM@KFJLMBPG@?$AA?$CI?$AAb?$AAu?$AAf?$AA?5?$AA?$CB?$AA?$DN?$AA?5?$AAN?$AAU?$AAL?$AAL?$AA?$CJ?$AA?$AA@ 1008bd70     LIBCMTD:write.obj
 0002:0000fd8c       ??_C@_1BM@NCANHCIP@?$AA_?$AAw?$AAr?$AAi?$AAt?$AAe?$AA_?$AAn?$AAo?$AAl?$AAo?$AAc?$AAk?$AA?$AA@ 1008bd8c     LIBCMTD:write.obj
 0002:0000fda8       ??_C@_1DI@CNMHHHLG@?$AAi?$AAs?$AAl?$AAe?$AAa?$AAd?$AAb?$AAy?$AAt?$AAe?$AA?$CI?$AA_?$AAd?$AAb?$AAc?$AAs?$AAB?$AAu?$AAf?$AAf?$AAe?$AAr?$AA?$CI?$AAf?$AAh?$AA?$CJ?$AA?$CJ?$AA?$AA@ 1008bda8     LIBCMTD:write.obj
 0002:0000fde0       ??_C@_0CJ@PLENACMA@f?3?2dd?2vctools?2crt?2crtw32?2misc?2in@ 1008bde0     LIBCMTD:inithelp.obj
 0002:0000fe10       ??_C@_1FC@PPCAPEFB@?$AAf?$AA?3?$AA?2?$AAd?$AAd?$AA?2?$AAv?$AAc?$AAt?$AAo?$AAo?$AAl?$AAs?$AA?2?$AAc?$AAr?$AAt?$AA?2?$AAc?$AAr?$AAt?$AAw?$AA3?$AA2?$AA?2?$AAm?$AAi?$AAs?$AAc?$AA?2?$AAi?$AAn@ 1008be10     LIBCMTD:inithelp.obj
 0002:0000fe64       ??_C@_1CA@KHHCPEI@?$AA_?$AA_?$AAg?$AAe?$AAt?$AAl?$AAo?$AAc?$AAa?$AAl?$AAe?$AAi?$AAn?$AAf?$AAo?$AA?$AA@ 1008be64     LIBCMTD:inithelp.obj
 0002:0000fe88       ??_C@_1GO@NGIGJNHH@?$AAs?$AAt?$AAr?$AAn?$AAc?$AAp?$AAy?$AA_?$AAs?$AA?$CI?$AA?$CK?$AAs?$AAt?$AAr?$AAa?$AAd?$AAd?$AAr?$AAe?$AAs?$AAs?$AA?0?$AA?5?$AAo?$AAu?$AAt?$AAs?$AAi?$AAz?$AAe?$AA?0?$AA?5@ 1008be88     LIBCMTD:inithelp.obj
 0002:0000ff60       ??_C@_05EOHGHCHD@exp10?$AA@ 1008bf60     LIBCMTD:libm_error.obj
 0002:0000ff68       __XcptActTab               1008bf68     LIBCMTD:winxfltr.obj
 0002:0000fff8       __XcptActTabCount          1008bff8     LIBCMTD:winxfltr.obj
 0002:0000fffc       __XcptActTabSize           1008bffc     LIBCMTD:winxfltr.obj
 0002:00010000       __First_FPE_Indx           1008c000     LIBCMTD:winxfltr.obj
 0002:00010004       __Num_FPE                  1008c004     LIBCMTD:winxfltr.obj
 0002:00010008       ??_C@_1BC@DENNNKIM@?$AA_?$AAc?$AAr?$AAt?$AAh?$AAe?$AAa?$AAp?$AA?$AA@ 1008c008     LIBCMTD:heapinit.obj
 0002:00010020       ??_C@_1FC@JOHAHJGP@?$AAf?$AA?3?$AA?2?$AAd?$AAd?$AA?2?$AAv?$AAc?$AAt?$AAo?$AAo?$AAl?$AAs?$AA?2?$AAc?$AAr?$AAt?$AA?2?$AAc?$AAr?$AAt?$AAw?$AA3?$AA2?$AA?2?$AAh?$AAe?$AAa?$AAp?$AA?2?$AAh?$AAe@ 1008c020     LIBCMTD:heapinit.obj
 0002:00010074       ??_C@_0CL@OBKFGCKK@f?3?2dd?2vctools?2crt?2crtw32?2startup@ 1008c074     LIBCMTD:stdargv.obj
 0002:000100a0       ??_C@_0CL@BJBFGFLH@f?3?2dd?2vctools?2crt?2crtw32?2startup@ 1008c0a0     LIBCMTD:stdenvp.obj
 0002:000100d0       ??_C@_1FG@MHBLOJIO@?$AAf?$AA?3?$AA?2?$AAd?$AAd?$AA?2?$AAv?$AAc?$AAt?$AAo?$AAo?$AAl?$AAs?$AA?2?$AAc?$AAr?$AAt?$AA?2?$AAc?$AAr?$AAt?$AAw?$AA3?$AA2?$AA?2?$AAs?$AAt?$AAa?$AAr?$AAt?$AAu?$AAp@ 1008c0d0     LIBCMTD:stdenvp.obj
 0002:00010128       ??_C@_1BC@GHMCNHHL@?$AA_?$AAs?$AAe?$AAt?$AAe?$AAn?$AAv?$AAp?$AA?$AA@ 1008c128     LIBCMTD:stdenvp.obj
 0002:0001013c       ??_C@_1DE@MMOGFGHF@?$AAs?$AAt?$AAr?$AAc?$AAp?$AAy?$AA_?$AAs?$AA?$CI?$AA?$CK?$AAe?$AAn?$AAv?$AA?0?$AA?5?$AAc?$AAc?$AAh?$AAa?$AAr?$AAs?$AA?0?$AA?5?$AAp?$AA?$CJ?$AA?$AA@ 1008c13c     LIBCMTD:stdenvp.obj
 0002:00010170       ??_C@_0CG@NNNNMKLF@f?3?2dd?2vctools?2crt?2crtw32?2misc?2a_@ 1008c170     LIBCMTD:a_env.obj
 0002:00014840       ??_C@_1CK@GFDNDKK@?$AA_?$AAR?$AAa?$AAn?$AAd?$AAo?$AAm?$AAV?$AAa?$AAl?$AAu?$AAe?$AA?5?$AA?$CB?$AA?$DN?$AA?5?$AAN?$AAU?$AAL?$AAL?$AA?$AA@ 10090840     LIBCMTD:rand_s.obj
 0002:00014870       ??_C@_1EO@GANOMFFN@?$AAf?$AA?3?$AA?2?$AAd?$AAd?$AA?2?$AAv?$AAc?$AAt?$AAo?$AAo?$AAl?$AAs?$AA?2?$AAc?$AAr?$AAt?$AA?2?$AAc?$AAr?$AAt?$AAw?$AA3?$AA2?$AA?2?$AAm?$AAi?$AAs?$AAc?$AA?2?$AAr?$AAa@ 10090870     LIBCMTD:rand_s.obj
 0002:000148c0       ??_C@_1O@IJGPPOGF@?$AAr?$AAa?$AAn?$AAd?$AA_?$AAs?$AA?$AA@ 100908c0     LIBCMTD:rand_s.obj
 0002:000148d0       ??_C@_1BK@GAEMIDIL@?$AAA?$AAD?$AAV?$AAA?$AAP?$AAI?$AA3?$AA2?$AA?4?$AAD?$AAL?$AAL?$AA?$AA@ 100908d0     LIBCMTD:rand_s.obj
 0002:000148f0       ??_C@_1GA@EBEDGGGB@?$AA?$CI?$AA?$CC?$AAr?$AAa?$AAn?$AAd?$AA_?$AAs?$AA?5?$AAi?$AAs?$AA?5?$AAn?$AAo?$AAt?$AA?5?$AAa?$AAv?$AAa?$AAi?$AAl?$AAa?$AAb?$AAl?$AAe?$AA?5?$AAo?$AAn?$AA?5?$AAt?$AAh?$AAi@ 100908f0     LIBCMTD:rand_s.obj
 0002:00014950       ??_C@_0BC@JEAENNKH@SystemFunction036?$AA@ 10090950     LIBCMTD:rand_s.obj
 0002:00014974       ??_C@_1M@HPNHIDJI@?$AAj?$AAa?$AA?9?$AAJ?$AAP?$AA?$AA@ 10090974     LIBCMTD:mbctype.obj
 0002:00014980       ??_C@_1M@BIBDDEMK@?$AAz?$AAh?$AA?9?$AAC?$AAN?$AA?$AA@ 10090980     LIBCMTD:mbctype.obj
 0002:0001498c       ??_C@_1M@JLOOOEGK@?$AAk?$AAo?$AA?9?$AAK?$AAR?$AA?$AA@ 1009098c     LIBCMTD:mbctype.obj
 0002:00014998       ??_C@_1M@CLNBBOPM@?$AAz?$AAh?$AA?9?$AAT?$AAW?$AA?$AA@ 10090998     LIBCMTD:mbctype.obj
 0002:000149a4       ??_C@_0CM@BEDCPGGG@f?3?2dd?2vctools?2crt?2crtw32?2mbstrin@ 100909a4     LIBCMTD:mbctype.obj
 0002:000149d0       ??_C@_1BI@KANOLAMF@?$AA_?$AAo?$AAu?$AAt?$AAp?$AAu?$AAt?$AA_?$AAp?$AA_?$AAl?$AA?$AA@ 100909d0     LIBCMTD:outputp.obj
 0002:000149e8       ??_C@_1JC@PFJNKEIO@?$AA?$CI?$AA?$CI?$AAt?$AAy?$AAp?$AAe?$AA_?$AAp?$AAo?$AAs?$AA?5?$AA?$DO?$AA?$DN?$AA?5?$AA0?$AA?$CJ?$AA?5?$AA?$CG?$AA?$CG?$AA?5?$AA?$CI?$AA?$CK?$AAe?$AAn?$AAd?$AA_?$AAp?$AAo?$AAs?$AA?5?$AA?$DN?$AA?$DN@ 100909e8     LIBCMTD:outputp.obj
 0002:00014a80       ??_C@_1EE@DMAIGNBG@?$AA?$CI?$AA?$CC?$AAI?$AAn?$AAc?$AAo?$AAr?$AAr?$AAe?$AAc?$AAt?$AA?5?$AAf?$AAo?$AAr?$AAm?$AAa?$AAt?$AA?5?$AAs?$AAp?$AAe?$AAc?$AAi?$AAf?$AAi?$AAe?$AAr?$AA?$CC?$AA?0?$AA?5?$AA0@ 10090a80     LIBCMTD:outputp.obj
 0002:00014ac8       ??_C@_1JE@NMBHOLFI@?$AA?$CI?$AA?$CI?$AAw?$AAi?$AAd?$AAt?$AAh?$AA_?$AAp?$AAo?$AAs?$AA?5?$AA?$DO?$AA?$DN?$AA?5?$AA0?$AA?$CJ?$AA?5?$AA?$CG?$AA?$CG?$AA?5?$AA?$CI?$AA?$CK?$AAe?$AAn?$AAd?$AA_?$AAp?$AAo?$AAs?$AA?5?$AA?$DN@ 10090ac8     LIBCMTD:outputp.obj
 0002:00014b60       ??_C@_1II@PIPIMLPF@?$AA_?$AAt?$AAv?$AAa?$AAl?$AAi?$AAd?$AAa?$AAt?$AAe?$AA_?$AAp?$AAa?$AAr?$AAa?$AAm?$AA_?$AAr?$AAe?$AAu?$AAs?$AAe?$AA?$CI?$AA?$CG?$AAp?$AAo?$AAs?$AA_?$AAv?$AAa?$AAl?$AAu@ 10090b60     LIBCMTD:outputp.obj
 0002:00014be8       ??_C@_1JG@JBJBOCFB@?$AA?$CI?$AA?$CI?$AAp?$AAr?$AAe?$AAc?$AAi?$AAs?$AA_?$AAp?$AAo?$AAs?$AA?5?$AA?$DO?$AA?$DN?$AA?5?$AA0?$AA?$CJ?$AA?5?$AA?$CG?$AA?$CG?$AA?5?$AA?$CI?$AA?$CK?$AAe?$AAn?$AAd?$AA_?$AAp?$AAo?$AAs?$AA?5@ 10090be8     LIBCMTD:outputp.obj
 0002:00014c80       ??_C@_1IK@EIEPDKHJ@?$AA_?$AAt?$AAv?$AAa?$AAl?$AAi?$AAd?$AAa?$AAt?$AAe?$AA_?$AAp?$AAa?$AAr?$AAa?$AAm?$AA_?$AAr?$AAe?$AAu?$AAs?$AAe?$AA?$CI?$AA?$CG?$AAp?$AAo?$AAs?$AA_?$AAv?$AAa?$AAl?$AAu@ 10090c80     LIBCMTD:outputp.obj
 0002:00014d10       ??_C@_1EM@BNPHBBIA@?$AA?$CI?$AA?$CI?$AAt?$AAy?$AAp?$AAe?$AA_?$AAp?$AAo?$AAs?$AA?$DO?$AA?$DN?$AA0?$AA?$CJ?$AA?5?$AA?$CG?$AA?$CG?$AA?5?$AA?$CI?$AAt?$AAy?$AAp?$AAe?$AA_?$AAp?$AAo?$AAs?$AA?$DM?$AA_?$AAA?$AAR?$AAG@ 10090d10     LIBCMTD:outputp.obj
 0002:00014d60       ??_C@_1IK@MHEDJAMK@?$AA_?$AAt?$AAv?$AAa?$AAl?$AAi?$AAd?$AAa?$AAt?$AAe?$AA_?$AAp?$AAa?$AAr?$AAa?$AAm?$AA_?$AAr?$AAe?$AAu?$AAs?$AAe?$AA?$CI?$AA?$CG?$AAp?$AAo?$AAs?$AA_?$AAv?$AAa?$AAl?$AAu@ 10090d60     LIBCMTD:outputp.obj
 0002:00014df0       ??_C@_1IG@FDCPLALG@?$AA_?$AAt?$AAv?$AAa?$AAl?$AAi?$AAd?$AAa?$AAt?$AAe?$AA_?$AAp?$AAa?$AAr?$AAa?$AAm?$AA_?$AAr?$AAe?$AAu?$AAs?$AAe?$AA?$CI?$AA?$CG?$AAp?$AAo?$AAs?$AA_?$AAv?$AAa?$AAl?$AAu@ 10090df0     LIBCMTD:outputp.obj
 0002:00014e78       ??_C@_1IG@HJIMKDHC@?$AA_?$AAt?$AAv?$AAa?$AAl?$AAi?$AAd?$AAa?$AAt?$AAe?$AA_?$AAp?$AAa?$AAr?$AAa?$AAm?$AA_?$AAr?$AAe?$AAu?$AAs?$AAe?$AA?$CI?$AA?$CG?$AAp?$AAo?$AAs?$AA_?$AAv?$AAa?$AAl?$AAu@ 10090e78     LIBCMTD:outputp.obj
 0002:00014f00       ??_C@_1IM@DNGHAPLB@?$AA_?$AAt?$AAv?$AAa?$AAl?$AAi?$AAd?$AAa?$AAt?$AAe?$AA_?$AAp?$AAa?$AAr?$AAa?$AAm?$AA_?$AAr?$AAe?$AAu?$AAs?$AAe?$AA?$CI?$AA?$CG?$AAp?$AAo?$AAs?$AA_?$AAv?$AAa?$AAl?$AAu@ 10090f00     LIBCMTD:outputp.obj
 0002:00014f8c       ??_C@_1DG@GOHGNKHE@?$AAp?$AAa?$AAs?$AAs?$AA?5?$AA?$DN?$AA?$DN?$AA?5?$AAF?$AAO?$AAR?$AAM?$AAA?$AAT?$AA_?$AAO?$AAU?$AAT?$AAP?$AAU?$AAT?$AA_?$AAP?$AAA?$AAS?$AAS?$AA?$AA@ 10090f8c     LIBCMTD:outputp.obj
 0002:00014fc8       ??_C@_1IK@NBGDDCBN@?$AA_?$AAt?$AAv?$AAa?$AAl?$AAi?$AAd?$AAa?$AAt?$AAe?$AA_?$AAp?$AAa?$AAr?$AAa?$AAm?$AA_?$AAr?$AAe?$AAu?$AAs?$AAe?$AA?$CI?$AA?$CG?$AAp?$AAo?$AAs?$AA_?$AAv?$AAa?$AAl?$AAu@ 10090fc8     LIBCMTD:outputp.obj
 0002:00015058       ??_C@_1JC@OACKELNN@?$AA_?$AAt?$AAv?$AAa?$AAl?$AAi?$AAd?$AAa?$AAt?$AAe?$AA_?$AAp?$AAa?$AAr?$AAa?$AAm?$AA_?$AAr?$AAe?$AAu?$AAs?$AAe?$AA?$CI?$AA?$CG?$AAp?$AAo?$AAs?$AA_?$AAv?$AAa?$AAl?$AAu@ 10091058     LIBCMTD:outputp.obj
 0002:000150f0       ??_C@_1FK@LNCFKALM@?$AA?$CI?$AA?$CI?$AAs?$AAt?$AAa?$AAt?$AAe?$AA?5?$AA?$DN?$AA?$DN?$AA?5?$AAS?$AAT?$AA_?$AAN?$AAO?$AAR?$AAM?$AAA?$AAL?$AA?$CJ?$AA?5?$AA?$HM?$AA?$HM?$AA?5?$AA?$CI?$AAs?$AAt?$AAa?$AAt?$AAe?$AA?5@ 100910f0     LIBCMTD:outputp.obj
 0002:00015150       ??_C@_1FK@BCPANIEK@?$AA?$CI?$AA?$CC?$AAM?$AAi?$AAs?$AAs?$AAi?$AAn?$AAg?$AA?5?$AAp?$AAo?$AAs?$AAi?$AAt?$AAi?$AAo?$AAn?$AA?5?$AAi?$AAn?$AA?5?$AAt?$AAh?$AAe?$AA?5?$AAf?$AAo?$AAr?$AAm?$AAa?$AAt@ 10091150     LIBCMTD:outputp.obj
 0002:000151b0       ??_C@_1HC@KFLBHHBC@?$AA?$CI?$AAf?$AAi?$AAl?$AAe?$AAd?$AAe?$AAs?$AA?5?$AA?$DO?$AA?$DN?$AA?5?$AA0?$AA?5?$AA?$CG?$AA?$CG?$AA?5?$AA?$CI?$AAu?$AAn?$AAs?$AAi?$AAg?$AAn?$AAe?$AAd?$AA?$CJ?$AAf?$AAi?$AAl?$AAe?$AAd@ 100911b0     LIBCMTD:commit.obj
 0002:00015228       ??_C@_1FA@HELGICMG@?$AAf?$AA?3?$AA?2?$AAd?$AAd?$AA?2?$AAv?$AAc?$AAt?$AAo?$AAo?$AAl?$AAs?$AA?2?$AAc?$AAr?$AAt?$AA?2?$AAc?$AAr?$AAt?$AAw?$AA3?$AA2?$AA?2?$AAl?$AAo?$AAw?$AAi?$AAo?$AA?2?$AAc@ 10091228     LIBCMTD:commit.obj
 0002:00015278       ??_C@_1BA@FLNMBBIM@?$AA_?$AAc?$AAo?$AAm?$AAm?$AAi?$AAt?$AA?$AA@ 10091278     LIBCMTD:commit.obj
 0002:00015288       ??_C@_1DG@LNNHNFHJ@?$AA?$CI?$AA_?$AAo?$AAs?$AAf?$AAi?$AAl?$AAe?$AA?$CI?$AAf?$AAi?$AAl?$AAe?$AAd?$AAe?$AAs?$AA?$CJ?$AA?5?$AA?$CG?$AA?5?$AAF?$AAO?$AAP?$AAE?$AAN?$AA?$CJ?$AA?$AA@ 10091288     LIBCMTD:commit.obj
 0002:000152c0       ??_C@_1FE@PMGAPFGI@?$AAf?$AA?3?$AA?2?$AAd?$AAd?$AA?2?$AAv?$AAc?$AAt?$AAo?$AAo?$AAl?$AAs?$AA?2?$AAc?$AAr?$AAt?$AA?2?$AAc?$AAr?$AAt?$AAw?$AA3?$AA2?$AA?2?$AAs?$AAt?$AAd?$AAi?$AAo?$AA?2?$AAv@ 100912c0     LIBCMTD:vfwprint.obj
 0002:00015314       ??_C@_1CC@MONNFDCM@?$AAv?$AAf?$AAw?$AAp?$AAr?$AAi?$AAn?$AAt?$AAf?$AA_?$AAh?$AAe?$AAl?$AAp?$AAe?$AAr?$AA?$AA@ 10091314     LIBCMTD:vfwprint.obj
 0002:00015338       ??_C@_1BG@BBCDFOMA@?$AA_?$AAw?$AAo?$AAu?$AAt?$AAp?$AAu?$AAt?$AA_?$AAl?$AA?$AA@ 10091338     LIBCMTD:woutput.obj
 0002:00015350       ??_C@_1BK@ONMFGLDB@?$AA_?$AAw?$AAo?$AAu?$AAt?$AAp?$AAu?$AAt?$AA_?$AAs?$AA_?$AAl?$AA?$AA@ 10091350     LIBCMTD:woutputs.obj
 0002:0001536c       ??_C@_1BK@GDEKGMNC@?$AA_?$AAw?$AAo?$AAu?$AAt?$AAp?$AAu?$AAt?$AA_?$AAp?$AA_?$AAl?$AA?$AA@ 1009136c     LIBCMTD:woutputp.obj
 0002:00015388       ??_C@_1FC@LFLBLJJB@?$AAf?$AA?3?$AA?2?$AAd?$AAd?$AA?2?$AAv?$AAc?$AAt?$AAo?$AAo?$AAl?$AAs?$AA?2?$AAc?$AAr?$AAt?$AA?2?$AAc?$AAr?$AAt?$AAw?$AA3?$AA2?$AA?2?$AAh?$AA?2?$AAt?$AAc?$AAs?$AAn?$AAc@ 10091388     LIBCMTD:wcsncpy_s.obj
 0002:000153dc       ??_C@_1BE@PMMBFFCC@?$AAw?$AAc?$AAs?$AAn?$AAc?$AAp?$AAy?$AA_?$AAs?$AA?$AA@ 100913dc     LIBCMTD:wcsncpy_s.obj
 0002:00015430       ?LocalIdBitWidth@CrossScopeId@CodeViewInfo@@2IB 10091430     LIBCMTD:pdblkup.obj
 0002:00015434       ?IdScopeBitWidth@CrossScopeId@CodeViewInfo@@2IB 10091434     LIBCMTD:pdblkup.obj
 0002:00015438       ?StartCrossScopeId@CrossScopeId@CodeViewInfo@@2IB 10091438     LIBCMTD:pdblkup.obj
 0002:0001543c       ?LocalIdMask@CrossScopeId@CodeViewInfo@@2IB 1009143c     LIBCMTD:pdblkup.obj
 0002:00015440       ?ScopeIdMask@CrossScopeId@CodeViewInfo@@2IB 10091440     LIBCMTD:pdblkup.obj
 0002:00015444       ?MaxLocalId@CrossScopeId@CodeViewInfo@@2IB 10091444     LIBCMTD:pdblkup.obj
 0002:00015448       ?MaxScopeId@CrossScopeId@CodeViewInfo@@2IB 10091448     LIBCMTD:pdblkup.obj
 0002:0001544c       ??_C@_0O@COHOBMLB@RegOpenKeyExW?$AA@ 1009144c     LIBCMTD:pdblkup.obj
 0002:0001545c       ??_C@_0BB@GLNAEDBD@RegQueryValueExW?$AA@ 1009145c     LIBCMTD:pdblkup.obj
 0002:00015470       ??_C@_0M@HLOHPNFA@RegCloseKey?$AA@ 10091470     LIBCMTD:pdblkup.obj
 0002:00015480       ??_C@_1FM@EGIBBNPP@?$AAS?$AAO?$AAF?$AAT?$AAW?$AAA?$AAR?$AAE?$AA?2?$AAM?$AAi?$AAc?$AAr?$AAo?$AAs?$AAo?$AAf?$AAt?$AA?2?$AAV?$AAi?$AAs?$AAu?$AAa?$AAl?$AAS?$AAt?$AAu?$AAd?$AAi?$AAo?$AA?2@ 10091480     LIBCMTD:pdblkup.obj
 0002:000154dc       ??_C@_1BG@EABPBLLF@?$AAP?$AAr?$AAo?$AAd?$AAu?$AAc?$AAt?$AAD?$AAi?$AAr?$AA?$AA@ 100914dc     LIBCMTD:pdblkup.obj
 0002:00015510       ??_C@_1BC@EOIMGOME@?$AAM?$AAS?$AAP?$AAD?$AAB?$AA1?$AA2?$AA0?$AA?$AA@ 10091510     LIBCMTD:pdblkup.obj
 0002:00015524       ??_C@_0BB@KCIACLNC@PDBOpenValidate5?$AA@ 10091524     LIBCMTD:pdblkup.obj
 0002:00015538       ??_C@_01KDCPPGHE@r?$AA@    10091538     LIBCMTD:pdblkup.obj
 0002:00015548       ??_C@_03KHICJKCI@?4?4?4?$AA@ 10091548     LIBCMTD:dbgrpt.obj
 0002:0001554c       ??_C@_1CG@GNMJDMIO@?$AA_?$AAC?$AAr?$AAt?$AAS?$AAe?$AAt?$AAR?$AAe?$AAp?$AAo?$AAr?$AAt?$AAH?$AAo?$AAo?$AAk?$AA2?$AA?$AA@ 1009154c     LIBCMTD:dbgrpt.obj
 0002:00015574       ??_C@_1CI@IDOKFLAJ@?$AA_?$AA_?$AAc?$AAr?$AAt?$AAM?$AAe?$AAs?$AAs?$AAa?$AAg?$AAe?$AAW?$AAi?$AAn?$AAd?$AAo?$AAw?$AAA?$AA?$AA@ 10091574     LIBCMTD:dbgrpt.obj
 0002:000155a0       ??_C@_1GG@DLDHOIGE@?$AAs?$AAt?$AAr?$AAc?$AAp?$AAy?$AA_?$AAs?$AA?$CI?$AAs?$AAz?$AAE?$AAx?$AAe?$AAN?$AAa?$AAm?$AAe?$AA?0?$AA?5?$AA2?$AA6?$AA0?$AA?0?$AA?5?$AA?$CC?$AA?$DM?$AAp?$AAr?$AAo?$AAg?$AAr@ 100915a0     LIBCMTD:dbgrpt.obj
 0002:00015608       ??_C@_0BH@DNAGHKFM@?$DMprogram?5name?5unknown?$DO?$AA@ 10091608     LIBCMTD:dbgrpt.obj
 0002:00015620       ??_C@_1LG@BEHAHJLI@?$AAD?$AAe?$AAb?$AAu?$AAg?$AA?5?$AA?$CF?$AAs?$AA?$CB?$AA?6?$AA?6?$AAP?$AAr?$AAo?$AAg?$AAr?$AAa?$AAm?$AA?3?$AA?5?$AA?$CF?$AAh?$AAs?$AA?$CF?$AAs?$AA?$CF?$AAs?$AA?$CF?$AAh?$AAs?$AA?$CF?$AAs@ 10091620     LIBCMTD:dbgrpt.obj
 0002:000156d8       ??_C@_1BJK@FEBNHLFF@?$AA?$CI?$AA?$CI?$AAp?$AAt?$AAl?$AAo?$AAc?$AAi?$AA?9?$AA?$DO?$AAl?$AAc?$AA_?$AAc?$AAa?$AAt?$AAe?$AAg?$AAo?$AAr?$AAy?$AA?$FL?$AAc?$AAa?$AAt?$AAe?$AAg?$AAo?$AAr?$AAy?$AA?$FN?$AA?4@ 100916d8     LIBCMTD:localref.obj
 0002:00015878       ??_C@_1FC@HINIIGNO@?$AAf?$AA?3?$AA?2?$AAd?$AAd?$AA?2?$AAv?$AAc?$AAt?$AAo?$AAo?$AAl?$AAs?$AA?2?$AAc?$AAr?$AAt?$AA?2?$AAc?$AAr?$AAt?$AAw?$AA3?$AA2?$AA?2?$AAm?$AAi?$AAs?$AAc?$AA?2?$AAl?$AAo@ 10091878     LIBCMTD:localref.obj
 0002:000158d0       ??_C@_1FI@JBLIKEIM@?$AAf?$AA?3?$AA?2?$AAd?$AAd?$AA?2?$AAv?$AAc?$AAt?$AAo?$AAo?$AAl?$AAs?$AA?2?$AAc?$AAr?$AAt?$AA?2?$AAc?$AAr?$AAt?$AAw?$AA3?$AA2?$AA?2?$AAc?$AAo?$AAn?$AAv?$AAe?$AAr?$AAt@ 100918d0     LIBCMTD:_fptostr.obj
 0002:00015928       ??_C@_1BC@OPALLEB@?$AA_?$AAf?$AAp?$AAt?$AAo?$AAs?$AAt?$AAr?$AA?$AA@ 10091928     LIBCMTD:_fptostr.obj
 0002:00015940       ??_C@_1GM@CEDLGDDI@?$AAs?$AAi?$AAz?$AAe?$AAI?$AAn?$AAB?$AAy?$AAt?$AAe?$AAs?$AA?5?$AA?$DO?$AA?5?$AA?$CI?$AAs?$AAi?$AAz?$AAe?$AA_?$AAt?$AA?$CJ?$AA?$CI?$AA?$CI?$AAd?$AAi?$AAg?$AAi?$AAt?$AAs?$AA?5?$AA?$DO@ 10091940     LIBCMTD:_fptostr.obj
 0002:000159ac       ??_C@_1BK@CLIEHFDF@?$AAp?$AAf?$AAl?$AAt?$AA?5?$AA?$CB?$AA?$DN?$AA?5?$AAN?$AAU?$AAL?$AAL?$AA?$AA@ 100919ac     LIBCMTD:_fptostr.obj
 0002:000159c8       ??_C@_1EK@LJBJCHGA@?$AAf?$AA?3?$AA?2?$AAd?$AAd?$AA?2?$AAv?$AAc?$AAt?$AAo?$AAo?$AAl?$AAs?$AA?2?$AAc?$AAr?$AAt?$AA?2?$AAf?$AAp?$AAw?$AA3?$AA2?$AA?2?$AAc?$AAo?$AAn?$AAv?$AA?2?$AAc?$AAf?$AAo@ 100919c8     LIBCMTD:cfout.obj
 0002:00015a14       ??_C@_1BC@BPMMEHLK@?$AA_?$AAf?$AAl?$AAt?$AAo?$AAu?$AAt?$AA2?$AA?$AA@ 10091a14     LIBCMTD:cfout.obj
 0002:00015a28       ??_C@_1FK@KODCOBKF@?$AAs?$AAt?$AAr?$AAc?$AAp?$AAy?$AA_?$AAs?$AA?$CI?$AAr?$AAe?$AAs?$AAu?$AAl?$AAt?$AAs?$AAt?$AAr?$AA?0?$AA?5?$AAr?$AAe?$AAs?$AAu?$AAl?$AAt?$AAs?$AAi?$AAz?$AAe?$AA?0?$AA?5@ 10091a28     LIBCMTD:cfout.obj
 0002:00015a84       ??_C@_03KOEHGMDN@Sun?$AA@  10091a84     LIBCMTD:nlsdata.obj
 0002:00015a88       ??_C@_03PDAGKDH@Mon?$AA@   10091a88     LIBCMTD:nlsdata.obj
 0002:00015a8c       ??_C@_03NAGEINEP@Tue?$AA@  10091a8c     LIBCMTD:nlsdata.obj
 0002:00015a90       ??_C@_03MHOMLAJA@Wed?$AA@  10091a90     LIBCMTD:nlsdata.obj
 0002:00015a94       ??_C@_03IOFIKPDN@Thu?$AA@  10091a94     LIBCMTD:nlsdata.obj
 0002:00015a98       ??_C@_03IDIOELNC@Fri?$AA@  10091a98     LIBCMTD:nlsdata.obj
 0002:00015a9c       ??_C@_03FEFJNEK@Sat?$AA@   10091a9c     LIBCMTD:nlsdata.obj
 0002:00015aa0       ??_C@_06OOPIFAJ@Sunday?$AA@ 10091aa0     LIBCMTD:nlsdata.obj
 0002:00015aa8       ??_C@_06JLEDEDGH@Monday?$AA@ 10091aa8     LIBCMTD:nlsdata.obj
 0002:00015ab0       ??_C@_07BAAGCFCM@Tuesday?$AA@ 10091ab0     LIBCMTD:nlsdata.obj
 0002:00015ab8       ??_C@_09DLIGFAKA@Wednesday?$AA@ 10091ab8     LIBCMTD:nlsdata.obj
 0002:00015ac4       ??_C@_08HACCIKIA@Thursday?$AA@ 10091ac4     LIBCMTD:nlsdata.obj
 0002:00015ad0       ??_C@_06JECMNKMI@Friday?$AA@ 10091ad0     LIBCMTD:nlsdata.obj
 0002:00015ad8       ??_C@_08INBOOONO@Saturday?$AA@ 10091ad8     LIBCMTD:nlsdata.obj
 0002:00015ae4       ??_C@_03JIHJHPIE@Jan?$AA@  10091ae4     LIBCMTD:nlsdata.obj
 0002:00015ae8       ??_C@_03HJBDCHOM@Feb?$AA@  10091ae8     LIBCMTD:nlsdata.obj
 0002:00015aec       ??_C@_03ODNJBKGA@Mar?$AA@  10091aec     LIBCMTD:nlsdata.obj
 0002:00015af0       ??_C@_03LEOLGMJP@Apr?$AA@  10091af0     LIBCMTD:nlsdata.obj
 0002:00015af4       ??_C@_03CNMDKL@May?$AA@    10091af4     LIBCMTD:nlsdata.obj
 0002:00015af8       ??_C@_03IDFGHECI@Jun?$AA@  10091af8     LIBCMTD:nlsdata.obj
 0002:00015afc       ??_C@_03LBGABGKK@Jul?$AA@  10091afc     LIBCMTD:nlsdata.obj
 0002:00015b00       ??_C@_03IFJFEIGA@Aug?$AA@  10091b00     LIBCMTD:nlsdata.obj
 0002:00015b04       ??_C@_03GGCAPAJC@Sep?$AA@  10091b04     LIBCMTD:nlsdata.obj
 0002:00015b08       ??_C@_03BMAOKBAD@Oct?$AA@  10091b08     LIBCMTD:nlsdata.obj
 0002:00015b0c       ??_C@_03JPJOFNIA@Nov?$AA@  10091b0c     LIBCMTD:nlsdata.obj
 0002:00015b10       ??_C@_03MKABNOCG@Dec?$AA@  10091b10     LIBCMTD:nlsdata.obj
 0002:00015b14       ??_C@_07CGJPFGJA@January?$AA@ 10091b14     LIBCMTD:nlsdata.obj
 0002:00015b1c       ??_C@_08GNJGEPFN@February?$AA@ 10091b1c     LIBCMTD:nlsdata.obj
 0002:00015b28       ??_C@_05HPCKOFNC@March?$AA@ 10091b28     LIBCMTD:nlsdata.obj
 0002:00015b30       ??_C@_05DMJDNLEJ@April?$AA@ 10091b30     LIBCMTD:nlsdata.obj
 0002:00015b38       ??_C@_04CNLMGBGM@June?$AA@ 10091b38     LIBCMTD:nlsdata.obj
 0002:00015b40       ??_C@_04MIEPOIFP@July?$AA@ 10091b40     LIBCMTD:nlsdata.obj
 0002:00015b48       ??_C@_06LBBHFDDG@August?$AA@ 10091b48     LIBCMTD:nlsdata.obj
 0002:00015b50       ??_C@_09BHHEALKD@September?$AA@ 10091b50     LIBCMTD:nlsdata.obj
 0002:00015b5c       ??_C@_07JJNFCEND@October?$AA@ 10091b5c     LIBCMTD:nlsdata.obj
 0002:00015b64       ??_C@_08HCHEGEOA@November?$AA@ 10091b64     LIBCMTD:nlsdata.obj
 0002:00015b70       ??_C@_08EDHMEBNP@December?$AA@ 10091b70     LIBCMTD:nlsdata.obj
 0002:00015b7c       ??_C@_02DEDBPAFC@AM?$AA@   10091b7c     LIBCMTD:nlsdata.obj
 0002:00015b80       ??_C@_02CJNFDJBF@PM?$AA@   10091b80     LIBCMTD:nlsdata.obj
 0002:00015b84       ??_C@_08BPBNCDIB@MM?1dd?1yy?$AA@ 10091b84     LIBCMTD:nlsdata.obj
 0002:00015b90       ??_C@_0BE@CKGJFCPC@dddd?0?5MMMM?5dd?0?5yyyy?$AA@ 10091b90     LIBCMTD:nlsdata.obj
 0002:00015ba4       ??_C@_08JCCMCCIL@HH?3mm?3ss?$AA@ 10091ba4     LIBCMTD:nlsdata.obj
 0002:00015bb0       ??_C@_17MBGCMIPB@?$AAS?$AAu?$AAn?$AA?$AA@ 10091bb0     LIBCMTD:nlsdata.obj
 0002:00015bb8       ??_C@_17KBOMKBF@?$AAM?$AAo?$AAn?$AA?$AA@ 10091bb8     LIBCMTD:nlsdata.obj
 0002:00015bc0       ??_C@_17BMKGEGOJ@?$AAT?$AAu?$AAe?$AA?$AA@ 10091bc0     LIBCMTD:nlsdata.obj
 0002:00015bc8       ??_C@_17CJEDCEPE@?$AAW?$AAe?$AAd?$AA?$AA@ 10091bc8     LIBCMTD:nlsdata.obj
 0002:00015bd0       ??_C@_17PDPHAADD@?$AAT?$AAh?$AAu?$AA?$AA@ 10091bd0     LIBCMTD:nlsdata.obj
 0002:00015bd8       ??_C@_17HFOLPPLP@?$AAF?$AAr?$AAi?$AA?$AA@ 10091bd8     LIBCMTD:nlsdata.obj
 0002:00015be0       ??_C@_17GGIBDPIH@?$AAS?$AAa?$AAt?$AA?$AA@ 10091be0     LIBCMTD:nlsdata.obj
 0002:00015be8       ??_C@_1O@IHNHDHPB@?$AAS?$AAu?$AAn?$AAd?$AAa?$AAy?$AA?$AA@ 10091be8     LIBCMTD:nlsdata.obj
 0002:00015bf8       ??_C@_1O@MMNBFLIA@?$AAM?$AAo?$AAn?$AAd?$AAa?$AAy?$AA?$AA@ 10091bf8     LIBCMTD:nlsdata.obj
 0002:00015c08       ??_C@_1BA@ENFBFFEK@?$AAT?$AAu?$AAe?$AAs?$AAd?$AAa?$AAy?$AA?$AA@ 10091c08     LIBCMTD:nlsdata.obj
 0002:00015c18       ??_C@_1BE@EBOGMDOH@?$AAW?$AAe?$AAd?$AAn?$AAe?$AAs?$AAd?$AAa?$AAy?$AA?$AA@ 10091c18     LIBCMTD:nlsdata.obj
 0002:00015c2c       ??_C@_1BC@HHMNLIHE@?$AAT?$AAh?$AAu?$AAr?$AAs?$AAd?$AAa?$AAy?$AA?$AA@ 10091c2c     LIBCMTD:nlsdata.obj
 0002:00015c40       ??_C@_1O@PDICJHAG@?$AAF?$AAr?$AAi?$AAd?$AAa?$AAy?$AA?$AA@ 10091c40     LIBCMTD:nlsdata.obj
 0002:00015c50       ??_C@_1BC@ENMNNPAJ@?$AAS?$AAa?$AAt?$AAu?$AAr?$AAd?$AAa?$AAy?$AA?$AA@ 10091c50     LIBCMTD:nlsdata.obj
 0002:00015c64       ??_C@_17DKNBKCHM@?$AAJ?$AAa?$AAn?$AA?$AA@ 10091c64     LIBCMTD:nlsdata.obj
 0002:00015c6c       ??_C@_17LMDJEKJN@?$AAF?$AAe?$AAb?$AA?$AA@ 10091c6c     LIBCMTD:nlsdata.obj
 0002:00015c74       ??_C@_17CKNLEDEC@?$AAM?$AAa?$AAr?$AA?$AA@ 10091c74     LIBCMTD:nlsdata.obj
 0002:00015c7c       ??_C@_17LFPOIHDD@?$AAA?$AAp?$AAr?$AA?$AA@ 10091c7c     LIBCMTD:nlsdata.obj
 0002:00015c84       ??_C@_17PNNKMEED@?$AAM?$AAa?$AAy?$AA?$AA@ 10091c84     LIBCMTD:nlsdata.obj
 0002:00015c8c       ??_C@_17KCJGOCPB@?$AAJ?$AAu?$AAn?$AA?$AA@ 10091c8c     LIBCMTD:nlsdata.obj
 0002:00015c94       ??_C@_17IJPCKHK@?$AAJ?$AAu?$AAl?$AA?$AA@ 10091c94     LIBCMTD:nlsdata.obj
 0002:00015c9c       ??_C@_17ICPELBCN@?$AAA?$AAu?$AAg?$AA?$AA@ 10091c9c     LIBCMTD:nlsdata.obj
 0002:00015ca4       ??_C@_17HCHCOKMG@?$AAS?$AAe?$AAp?$AA?$AA@ 10091ca4     LIBCMTD:nlsdata.obj
 0002:00015cac       ??_C@_17FNLKOI@?$AAO?$AAc?$AAt?$AA?$AA@ 10091cac     LIBCMTD:nlsdata.obj
 0002:00015cb4       ??_C@_17BBDMLCIG@?$AAN?$AAo?$AAv?$AA?$AA@ 10091cb4     LIBCMTD:nlsdata.obj
 0002:00015cbc       ??_C@_17EGKACKIF@?$AAD?$AAe?$AAc?$AA?$AA@ 10091cbc     LIBCMTD:nlsdata.obj
 0002:00015cc4       ??_C@_1BA@EFMEIEBA@?$AAJ?$AAa?$AAn?$AAu?$AAa?$AAr?$AAy?$AA?$AA@ 10091cc4     LIBCMTD:nlsdata.obj
 0002:00015cd4       ??_C@_1BC@JGDDFFAM@?$AAF?$AAe?$AAb?$AAr?$AAu?$AAa?$AAr?$AAy?$AA?$AA@ 10091cd4     LIBCMTD:nlsdata.obj
 0002:00015ce8       ??_C@_1M@IKEENEDF@?$AAM?$AAa?$AAr?$AAc?$AAh?$AA?$AA@ 10091ce8     LIBCMTD:nlsdata.obj
 0002:00015cf4       ??_C@_1M@GJNLMHFD@?$AAA?$AAp?$AAr?$AAi?$AAl?$AA?$AA@ 10091cf4     LIBCMTD:nlsdata.obj
 0002:00015d00       ??_C@_19EPFLPGAP@?$AAJ?$AAu?$AAn?$AAe?$AA?$AA@ 10091d00     LIBCMTD:nlsdata.obj
 0002:00015d0c       ??_C@_19BIFMLPCD@?$AAJ?$AAu?$AAl?$AAy?$AA?$AA@ 10091d0c     LIBCMTD:nlsdata.obj
 0002:00015d18       ??_C@_1O@PAHLKOAC@?$AAA?$AAu?$AAg?$AAu?$AAs?$AAt?$AA?$AA@ 10091d18     LIBCMTD:nlsdata.obj
 0002:00015d28       ??_C@_1BE@DKAAMBJL@?$AAS?$AAe?$AAp?$AAt?$AAe?$AAm?$AAb?$AAe?$AAr?$AA?$AA@ 10091d28     LIBCMTD:nlsdata.obj
 0002:00015d3c       ??_C@_1BA@EPANDLNG@?$AAO?$AAc?$AAt?$AAo?$AAb?$AAe?$AAr?$AA?$AA@ 10091d3c     LIBCMTD:nlsdata.obj
 0002:00015d4c       ??_C@_1BC@BGLIFPF@?$AAN?$AAo?$AAv?$AAe?$AAm?$AAb?$AAe?$AAr?$AA?$AA@ 10091d4c     LIBCMTD:nlsdata.obj
 0002:00015d60       ??_C@_1BC@FEMKIFH@?$AAD?$AAe?$AAc?$AAe?$AAm?$AAb?$AAe?$AAr?$AA?$AA@ 10091d60     LIBCMTD:nlsdata.obj
 0002:00015d74       ??_C@_15ODEHAHHF@?$AAA?$AAM?$AA?$AA@ 10091d74     LIBCMTD:nlsdata.obj
 0002:00015d7c       ??_C@_15CLMNNGEL@?$AAP?$AAM?$AA?$AA@ 10091d7c     LIBCMTD:nlsdata.obj
 0002:00015d84       ??_C@_1BC@IEBCMHCM@?$AAM?$AAM?$AA?1?$AAd?$AAd?$AA?1?$AAy?$AAy?$AA?$AA@ 10091d84     LIBCMTD:nlsdata.obj
 0002:00015d98       ??_C@_1CI@KNAKOEBC@?$AAd?$AAd?$AAd?$AAd?$AA?0?$AA?5?$AAM?$AAM?$AAM?$AAM?$AA?5?$AAd?$AAd?$AA?0?$AA?5?$AAy?$AAy?$AAy?$AAy?$AA?$AA@ 10091d98     LIBCMTD:nlsdata.obj
 0002:00015dc0       ??_C@_1BC@GDGBMEMK@?$AAH?$AAH?$AA?3?$AAm?$AAm?$AA?3?$AAs?$AAs?$AA?$AA@ 10091dc0     LIBCMTD:nlsdata.obj
 0002:00015dd4       ??_C@_1M@BMHNFIME@?$AAe?$AAn?$AA?9?$AAU?$AAS?$AA?$AA@ 10091dd4     LIBCMTD:nlsdata.obj
 0002:00015de0       ??_C@_1EM@EGEEBJLG@?$AA?$CI?$AAo?$AAp?$AAt?$AAi?$AAo?$AAn?$AAs?$AA?5?$AA?$CG?$AA?5?$AA?$HO?$AA_?$AAT?$AAW?$AAO?$AA_?$AAD?$AAI?$AAG?$AAI?$AAT?$AA_?$AAE?$AAX?$AAP?$AAO?$AAN?$AAE?$AAN?$AAT?$AA?$CJ@ 10091de0     LIBCMTD:outputformat.obj
 0002:00015e30       ??_C@_1FM@FBHCILLE@?$AAf?$AA?3?$AA?2?$AAd?$AAd?$AA?2?$AAv?$AAc?$AAt?$AAo?$AAo?$AAl?$AAs?$AA?2?$AAc?$AAr?$AAt?$AA?2?$AAc?$AAr?$AAt?$AAw?$AA3?$AA2?$AA?2?$AAs?$AAt?$AAd?$AAi?$AAo?$AA?2?$AAo@ 10091e30     LIBCMTD:outputformat.obj
 0002:00015e8c       ??_C@_1CG@EBJECAJM@?$AA_?$AAs?$AAe?$AAt?$AA_?$AAo?$AAu?$AAt?$AAp?$AAu?$AAt?$AA_?$AAf?$AAo?$AAr?$AAm?$AAa?$AAt?$AA?$AA@ 10091e8c     LIBCMTD:outputformat.obj
 0002:00015eb4       ??_C@_1DG@JNDMIEJL@?$AA?$CI?$AA?$CC?$AAI?$AAn?$AAv?$AAa?$AAl?$AAi?$AAd?$AA?5?$AAi?$AAn?$AAp?$AAu?$AAt?$AA?5?$AAv?$AAa?$AAl?$AAu?$AAe?$AA?$CC?$AA?0?$AA?5?$AA0?$AA?$CJ?$AA?$AA@ 10091eb4     LIBCMTD:contrlfp.obj
 0002:00015ef0       ??_C@_1FA@IJLDLDMO@?$AAf?$AA?3?$AA?2?$AAd?$AAd?$AA?2?$AAv?$AAc?$AAt?$AAo?$AAo?$AAl?$AAs?$AA?2?$AAc?$AAr?$AAt?$AA?2?$AAf?$AAp?$AAw?$AA3?$AA2?$AA?2?$AAt?$AAr?$AAa?$AAn?$AA?2?$AAc?$AAo?$AAn@ 10091ef0     LIBCMTD:contrlfp.obj
 0002:00015f40       ??_C@_1BK@CDOALEA@?$AA_?$AAc?$AAo?$AAn?$AAt?$AAr?$AAo?$AAl?$AAf?$AAp?$AA_?$AAs?$AA?$AA@ 10091f40     LIBCMTD:contrlfp.obj
 0002:00015f5c       ??_C@_1CI@JELMFMDH@?$AAc?$AA?5?$AA?$DO?$AA?$DN?$AA?5?$AA?9?$AA1?$AA?5?$AA?$CG?$AA?$CG?$AA?5?$AAc?$AA?5?$AA?$DM?$AA?$DN?$AA?5?$AA2?$AA5?$AA5?$AA?$AA@ 10091f5c     LIBCMTD:isctype.obj
 0002:00015f88       ??_C@_1FG@IBFIOCOE@?$AAf?$AA?3?$AA?2?$AAd?$AAd?$AA?2?$AAv?$AAc?$AAt?$AAo?$AAo?$AAl?$AAs?$AA?2?$AAc?$AAr?$AAt?$AA?2?$AAc?$AAr?$AAt?$AAw?$AA3?$AA2?$AA?2?$AAc?$AAo?$AAn?$AAv?$AAe?$AAr?$AAt@ 10091f88     LIBCMTD:isctype.obj
 0002:00015fe0       ??_C@_1BO@KFIJIAEA@?$AAp?$AAB?$AAl?$AAo?$AAc?$AAk?$AA?5?$AA?$CB?$AA?$DN?$AA?5?$AAN?$AAU?$AAL?$AAL?$AA?$AA@ 10091fe0     LIBCMTD:expand.obj
 0002:00016000       ??_C@_1EO@BOMKIKJB@?$AAf?$AA?3?$AA?2?$AAd?$AAd?$AA?2?$AAv?$AAc?$AAt?$AAo?$AAo?$AAl?$AAs?$AA?2?$AAc?$AAr?$AAt?$AA?2?$AAc?$AAr?$AAt?$AAw?$AA3?$AA2?$AA?2?$AAh?$AAe?$AAa?$AAp?$AA?2?$AAe?$AAx@ 10092000     LIBCMTD:expand.obj
 0002:00016050       ??_C@_1BK@JMCGJOCC@?$AA_?$AAe?$AAx?$AAp?$AAa?$AAn?$AAd?$AA_?$AAb?$AAa?$AAs?$AAe?$AA?$AA@ 10092050     LIBCMTD:expand.obj
 0002:0001606c       ??_C@_1BA@KBJJGFFE@?$AAs?$AAp?$AAr?$AAi?$AAn?$AAt?$AAf?$AA?$AA@ 1009206c     LIBCMTD:sprintf.obj
 0002:0001607c       ??_C@_0CJ@IGOJMKM@f?3?2dd?2vctools?2crt?2crtw32?2lowio?2o@ 1009207c     LIBCMTD:osfinfo.obj
 0002:000160a8       ??_C@_1FC@BEKMGBFL@?$AAf?$AA?3?$AA?2?$AAd?$AAd?$AA?2?$AAv?$AAc?$AAt?$AAo?$AAo?$AAl?$AAs?$AA?2?$AAc?$AAr?$AAt?$AA?2?$AAc?$AAr?$AAt?$AAw?$AA3?$AA2?$AA?2?$AAl?$AAo?$AAw?$AAi?$AAo?$AA?2?$AAo@ 100920a8     LIBCMTD:osfinfo.obj
 0002:000160fc       ??_C@_1BO@EMBOBGKE@?$AA_?$AAg?$AAe?$AAt?$AA_?$AAo?$AAs?$AAf?$AAh?$AAa?$AAn?$AAd?$AAl?$AAe?$AA?$AA@ 100920fc     LIBCMTD:osfinfo.obj
 0002:0001611c       ??_C@_1BO@DPAOGEII@?$AA?$CI?$AAp?$AAa?$AAt?$AAh?$AA?5?$AA?$CB?$AA?$DN?$AA?5?$AAN?$AAU?$AAL?$AAL?$AA?$CJ?$AA?$AA@ 1009211c     LIBCMTD:open.obj
 0002:00016140       ??_C@_1EM@MNGNPLOA@?$AAf?$AA?3?$AA?2?$AAd?$AAd?$AA?2?$AAv?$AAc?$AAt?$AAo?$AAo?$AAl?$AAs?$AA?2?$AAc?$AAr?$AAt?$AA?2?$AAc?$AAr?$AAt?$AAw?$AA3?$AA2?$AA?2?$AAl?$AAo?$AAw?$AAi?$AAo?$AA?2?$AAo@ 10092140     LIBCMTD:open.obj
 0002:0001618c       ??_C@_1M@MFLJCMFJ@?$AA_?$AAo?$AAp?$AAe?$AAn?$AA?$AA@ 1009218c     LIBCMTD:open.obj
 0002:00016198       ??_C@_1BM@PGEEHLHE@?$AA?$CI?$AAp?$AAf?$AAh?$AA?5?$AA?$CB?$AA?$DN?$AA?5?$AAN?$AAU?$AAL?$AAL?$AA?$CJ?$AA?$AA@ 10092198     LIBCMTD:open.obj
 0002:000161b4       ??_C@_1BM@IOBAMMHO@?$AA_?$AAs?$AAo?$AAp?$AAe?$AAn?$AA_?$AAh?$AAe?$AAl?$AAp?$AAe?$AAr?$AA?$AA@ 100921b4     LIBCMTD:open.obj
 0002:000161d0       ??_C@_1FG@NFINBJCM@?$AA?$CI?$AA?$CI?$AAp?$AAm?$AAo?$AAd?$AAe?$AA?5?$AA?$CG?$AA?5?$AA?$CI?$AA?$HO?$AA?$CI?$AA_?$AAS?$AA_?$AAI?$AAR?$AAE?$AAA?$AAD?$AA?5?$AA?$HM?$AA?5?$AA_?$AAS?$AA_?$AAI?$AAW?$AAR?$AAI?$AAT@ 100921d0     LIBCMTD:open.obj
 0002:00016228       ??_C@_1BG@MODEICJK@?$AAs?$AA1?$AA?5?$AA?$CB?$AA?$DN?$AA?5?$AAN?$AAU?$AAL?$AAL?$AA?$AA@ 10092228     LIBCMTD:mbsnbcmp.obj
 0002:00016240       ??_C@_1FK@HBIEJCLJ@?$AAf?$AA?3?$AA?2?$AAd?$AAd?$AA?2?$AAv?$AAc?$AAt?$AAo?$AAo?$AAl?$AAs?$AA?2?$AAc?$AAr?$AAt?$AA?2?$AAc?$AAr?$AAt?$AAw?$AA3?$AA2?$AA?2?$AAm?$AAb?$AAs?$AAt?$AAr?$AAi?$AAn@ 10092240     LIBCMTD:mbsnbcmp.obj
 0002:0001629c       ??_C@_1BI@LPHOHGHI@?$AA_?$AAm?$AAb?$AAs?$AAn?$AAb?$AAc?$AAm?$AAp?$AA_?$AAl?$AA?$AA@ 1009229c     LIBCMTD:mbsnbcmp.obj
 0002:000162b4       ??_C@_1BG@GBJNMPFA@?$AAs?$AA2?$AA?5?$AA?$CB?$AA?$DN?$AA?5?$AAN?$AAU?$AAL?$AAL?$AA?$AA@ 100922b4     LIBCMTD:mbsnbcmp.obj
 0002:000162d0       ??_C@_1FK@GCMEGOJB@?$AAf?$AA?3?$AA?2?$AAd?$AAd?$AA?2?$AAv?$AAc?$AAt?$AAo?$AAo?$AAl?$AAs?$AA?2?$AAc?$AAr?$AAt?$AA?2?$AAc?$AAr?$AAt?$AAw?$AA3?$AA2?$AA?2?$AAm?$AAb?$AAs?$AAt?$AAr?$AAi?$AAn@ 100922d0     LIBCMTD:mbsnbicm.obj
 0002:0001632c       ??_C@_1BK@GEJONGBG@?$AA_?$AAm?$AAb?$AAs?$AAn?$AAb?$AAi?$AAc?$AAm?$AAp?$AA_?$AAl?$AA?$AA@ 1009232c     LIBCMTD:mbsnbicm.obj
 0002:00016348       ___lookuptable_s           10092348     LIBCMTD:outputs.obj
 0002:000163a4       ??_C@_1BI@COFBLHCG@?$AA_?$AAo?$AAu?$AAt?$AAp?$AAu?$AAt?$AA_?$AAs?$AA_?$AAl?$AA?$AA@ 100923a4     LIBCMTD:outputs.obj
 0002:000163c0       ??_C@_1FA@NFCHPDNG@?$AAf?$AA?3?$AA?2?$AAd?$AAd?$AA?2?$AAv?$AAc?$AAt?$AAo?$AAo?$AAl?$AAs?$AA?2?$AAc?$AAr?$AAt?$AA?2?$AAc?$AAr?$AAt?$AAw?$AA3?$AA2?$AA?2?$AAl?$AAo?$AAw?$AAi?$AAo?$AA?2?$AAi@ 100923c0     LIBCMTD:isatty.obj
 0002:00016410       ??_C@_1BA@LEBDGIHM@?$AA_?$AAi?$AAs?$AAa?$AAt?$AAt?$AAy?$AA?$AA@ 10092410     LIBCMTD:isatty.obj
 0002:00016420       ??_C@_1CO@HFMIILNF@?$AAs?$AAi?$AAz?$AAe?$AAI?$AAn?$AAB?$AAy?$AAt?$AAe?$AAs?$AA?5?$AA?$DM?$AA?$DN?$AA?5?$AAI?$AAN?$AAT?$AA_?$AAM?$AAA?$AAX?$AA?$AA@ 10092420     LIBCMTD:wctomb.obj
 0002:00016450       ??_C@_1FE@GKMDCPPB@?$AAf?$AA?3?$AA?2?$AAd?$AAd?$AA?2?$AAv?$AAc?$AAt?$AAo?$AAo?$AAl?$AAs?$AA?2?$AAc?$AAr?$AAt?$AA?2?$AAc?$AAr?$AAt?$AAw?$AA3?$AA2?$AA?2?$AAc?$AAo?$AAn?$AAv?$AAe?$AAr?$AAt@ 10092450     LIBCMTD:wctomb.obj
 0002:000164a4       ??_C@_1BI@IEADNOHF@?$AA_?$AAw?$AAc?$AAt?$AAo?$AAm?$AAb?$AA_?$AAs?$AA_?$AAl?$AA?$AA@ 100924a4     LIBCMTD:wctomb.obj
 0002:000164c0       ??_C@_1FE@NDDOFCDF@?$AAf?$AA?3?$AA?2?$AAd?$AAd?$AA?2?$AAv?$AAc?$AAt?$AAo?$AAo?$AAl?$AAs?$AA?2?$AAc?$AAr?$AAt?$AA?2?$AAc?$AAr?$AAt?$AAw?$AA3?$AA2?$AA?2?$AAl?$AAo?$AAw?$AAi?$AAo?$AA?2?$AAl@ 100924c0     LIBCMTD:lseeki64.obj
 0002:00016514       ??_C@_1BE@KHFBJMNM@?$AA_?$AAl?$AAs?$AAe?$AAe?$AAk?$AAi?$AA6?$AA4?$AA?$AA@ 10092514     LIBCMTD:lseeki64.obj
 0002:00016528       ??_C@_1FC@LGKDBMCL@?$AAf?$AA?3?$AA?2?$AAd?$AAd?$AA?2?$AAv?$AAc?$AAt?$AAo?$AAo?$AAl?$AAs?$AA?2?$AAc?$AAr?$AAt?$AA?2?$AAc?$AAr?$AAt?$AAw?$AA3?$AA2?$AA?2?$AAs?$AAt?$AAd?$AAi?$AAo?$AA?2?$AA_@ 10092528     LIBCMTD:_getbuf.obj
 0002:0001657c       ??_C@_0CJ@NMDFOMAF@f?3?2dd?2vctools?2crt?2crtw32?2stdio?2_@ 1009257c     LIBCMTD:_getbuf.obj
 0002:000165a8       ??_C@_1BK@EPLNBKAK@?$AA_?$AAv?$AAs?$AAw?$AAp?$AAr?$AAi?$AAn?$AAt?$AAf?$AA_?$AAl?$AA?$AA@ 100925a8     LIBCMTD:vswprint.obj
 0002:000165c4       ??_C@_1CG@IMMIEPNA@?$AA_?$AAv?$AAs?$AAc?$AAw?$AAp?$AAr?$AAi?$AAn?$AAt?$AAf?$AA_?$AAh?$AAe?$AAl?$AAp?$AAe?$AAr?$AA?$AA@ 100925c4     LIBCMTD:vswprint.obj
 0002:000165ec       ??_C@_1BC@HGPNAKGC@?$AAs?$AAt?$AAr?$AAc?$AAa?$AAt?$AA_?$AAs?$AA?$AA@ 100925ec     LIBCMTD:strcat_s.obj
 0002:00016600       ??_C@_1O@GIMBNLEI@?$AAx?$AAt?$AAo?$AAa?$AA_?$AAs?$AA?$AA@ 10092600     LIBCMTD:xtoas.obj
 0002:00016610       ??_C@_1BC@MJJNBNFN@?$AAx?$AA6?$AA4?$AAt?$AAo?$AAa?$AA_?$AAs?$AA?$AA@ 10092610     LIBCMTD:xtoas.obj
 0002:00016624       ??_C@_1BE@EEKACIGI@?$AAs?$AA?5?$AA?$CB?$AA?$DN?$AA?5?$AAN?$AAU?$AAL?$AAL?$AA?$AA@ 10092624     LIBCMTD:mbstowcs.obj
 0002:00016638       ??_C@_1FI@DADFCCMF@?$AAf?$AA?3?$AA?2?$AAd?$AAd?$AA?2?$AAv?$AAc?$AAt?$AAo?$AAo?$AAl?$AAs?$AA?2?$AAc?$AAr?$AAt?$AA?2?$AAc?$AAr?$AAt?$AAw?$AA3?$AA2?$AA?2?$AAc?$AAo?$AAn?$AAv?$AAe?$AAr?$AAt@ 10092638     LIBCMTD:mbstowcs.obj
 0002:00016690       ??_C@_1CG@JEHFHLNG@?$AA_?$AAm?$AAb?$AAs?$AAt?$AAo?$AAw?$AAc?$AAs?$AA_?$AAl?$AA_?$AAh?$AAe?$AAl?$AAp?$AAe?$AAr?$AA?$AA@ 10092690     LIBCMTD:mbstowcs.obj
 0002:000166b8       ??_C@_1JA@JKDFMOPO@?$AA?$CI?$AAp?$AAw?$AAc?$AAs?$AA?5?$AA?$DN?$AA?$DN?$AA?5?$AAN?$AAU?$AAL?$AAL?$AA?5?$AA?$CG?$AA?$CG?$AA?5?$AAs?$AAi?$AAz?$AAe?$AAI?$AAn?$AAW?$AAo?$AAr?$AAd?$AAs?$AA?5?$AA?$DN?$AA?$DN?$AA?5@ 100926b8     LIBCMTD:mbstowcs.obj
 0002:00016748       ??_C@_1BM@PHENIGHD@?$AA_?$AAm?$AAb?$AAs?$AAt?$AAo?$AAw?$AAc?$AAs?$AA_?$AAs?$AA_?$AAl?$AA?$AA@ 10092748     LIBCMTD:mbstowcs.obj
 0002:00016764       ??_C@_1CM@LLECFMFH@?$AAb?$AAu?$AAf?$AAf?$AAe?$AAr?$AAS?$AAi?$AAz?$AAe?$AA?5?$AA?$DM?$AA?$DN?$AA?5?$AAI?$AAN?$AAT?$AA_?$AAM?$AAA?$AAX?$AA?$AA@ 10092764     LIBCMTD:mbstowcs.obj
 0002:00016790       ??_C@_1CO@JNPEPJAL@?$AAr?$AAe?$AAt?$AAs?$AAi?$AAz?$AAe?$AA?5?$AA?$DM?$AA?$DN?$AA?5?$AAs?$AAi?$AAz?$AAe?$AAI?$AAn?$AAW?$AAo?$AAr?$AAd?$AAs?$AA?$AA@ 10092790     LIBCMTD:mbstowcs.obj
 0002:000167c0       ??_C@_1BK@OIBENBPM@?$AAp?$AAw?$AAc?$AAs?$AA?5?$AA?$CB?$AA?$DN?$AA?5?$AAN?$AAU?$AAL?$AAL?$AA?$AA@ 100927c0     LIBCMTD:wcstombs.obj
 0002:000167e0       ??_C@_1FI@GCFLNCOB@?$AAf?$AA?3?$AA?2?$AAd?$AAd?$AA?2?$AAv?$AAc?$AAt?$AAo?$AAo?$AAl?$AAs?$AA?2?$AAc?$AAr?$AAt?$AA?2?$AAc?$AAr?$AAt?$AAw?$AA3?$AA2?$AA?2?$AAc?$AAo?$AAn?$AAv?$AAe?$AAr?$AAt@ 100927e0     LIBCMTD:wcstombs.obj
 0002:00016838       ??_C@_1CG@LLJCAOHF@?$AA_?$AAw?$AAc?$AAs?$AAt?$AAo?$AAm?$AAb?$AAs?$AA_?$AAl?$AA_?$AAh?$AAe?$AAl?$AAp?$AAe?$AAr?$AA?$AA@ 10092838     LIBCMTD:wcstombs.obj
 0002:00016860       ??_C@_1IM@MFGKHGBP@?$AA?$CI?$AAd?$AAs?$AAt?$AA?5?$AA?$CB?$AA?$DN?$AA?5?$AAN?$AAU?$AAL?$AAL?$AA?5?$AA?$CG?$AA?$CG?$AA?5?$AAs?$AAi?$AAz?$AAe?$AAI?$AAn?$AAB?$AAy?$AAt?$AAe?$AAs?$AA?5?$AA?$DO?$AA?5?$AA0?$AA?$CJ@ 10092860     LIBCMTD:wcstombs.obj
 0002:000168ec       ??_C@_1BM@BDMCLLDL@?$AA_?$AAw?$AAc?$AAs?$AAt?$AAo?$AAm?$AAb?$AAs?$AA_?$AAs?$AA_?$AAl?$AA?$AA@ 100928ec     LIBCMTD:wcstombs.obj
 0002:00016908       ??_C@_1CM@KEOGBFLI@?$AAs?$AAi?$AAz?$AAe?$AAI?$AAn?$AAB?$AAy?$AAt?$AAe?$AAs?$AA?5?$AA?$DO?$AA?5?$AAr?$AAe?$AAt?$AAs?$AAi?$AAz?$AAe?$AA?$AA@ 10092908     LIBCMTD:wcstombs.obj
 0002:00016934       ??_C@_1CE@PCFPEIFI@?$AA_?$AAv?$AAs?$AAn?$AAp?$AAr?$AAi?$AAn?$AAt?$AAf?$AA_?$AAh?$AAe?$AAl?$AAp?$AAe?$AAr?$AA?$AA@ 10092934     LIBCMTD:vsnprnc.obj
 0002:00016958       ??_C@_1BM@BLJALHEF@?$AA_?$AAv?$AAs?$AAp?$AAr?$AAi?$AAn?$AAt?$AAf?$AA_?$AAs?$AA_?$AAl?$AA?$AA@ 10092958     LIBCMTD:vsnprnc.obj
 0002:00016978       ??_C@_1EE@OKCKIGFK@?$AAs?$AAt?$AAr?$AAi?$AAn?$AAg?$AA?5?$AA?$CB?$AA?$DN?$AA?5?$AAN?$AAU?$AAL?$AAL?$AA?5?$AA?$CG?$AA?$CG?$AA?5?$AAs?$AAi?$AAz?$AAe?$AAI?$AAn?$AAB?$AAy?$AAt?$AAe?$AAs?$AA?5?$AA?$DO?$AA?5@ 10092978     LIBCMTD:vsnprnc.obj
 0002:000169bc       ??_C@_1BO@MMPELNIM@?$AA_?$AAv?$AAs?$AAn?$AAp?$AAr?$AAi?$AAn?$AAt?$AAf?$AA_?$AAs?$AA_?$AAl?$AA?$AA@ 100929bc     LIBCMTD:vsnprnc.obj
 0002:00016b6c       ??_C@_08EHJDFFNH@__based?$CI?$AA@ 10092b6c     LIBCMTD:undname.obj
 0002:00016b78       ??_C@_07KOLFKCDI@__cdecl?$AA@ 10092b78     LIBCMTD:undname.obj
 0002:00016b80       ??_C@_08GHMPAG@__pascal?$AA@ 10092b80     LIBCMTD:undname.obj
 0002:00016b8c       ??_C@_09IFJBGAPI@__stdcall?$AA@ 10092b8c     LIBCMTD:undname.obj
 0002:00016b98       ??_C@_0L@NPHFGOKO@__thiscall?$AA@ 10092b98     LIBCMTD:undname.obj
 0002:00016ba4       ??_C@_0L@JMKHOMEK@__fastcall?$AA@ 10092ba4     LIBCMTD:undname.obj
 0002:00016bb0       ??_C@_0N@BCKKPABJ@__vectorcall?$AA@ 10092bb0     LIBCMTD:undname.obj
 0002:00016bc0       ??_C@_09HIJEGCPM@__clrcall?$AA@ 10092bc0     LIBCMTD:undname.obj
 0002:00016bcc       ??_C@_06GHPCKEAG@__eabi?$AA@ 10092bcc     LIBCMTD:undname.obj
 0002:00016bd4       ??_C@_07JOMMBBKO@__ptr64?$AA@ 10092bd4     LIBCMTD:undname.obj
 0002:00016bdc       ??_C@_0L@PILCLIHE@__restrict?$AA@ 10092bdc     LIBCMTD:undname.obj
 0002:00016be8       ??_C@_0M@GFIIJFMG@__unaligned?$AA@ 10092be8     LIBCMTD:undname.obj
 0002:00016bf4       ??_C@_09DHDLOLLB@restrict?$CI?$AA@ 10092bf4     LIBCMTD:undname.obj
 0002:00016c00       ??_C@_04NIHEBCM@?5new?$AA@ 10092c00     LIBCMTD:undname.obj
 0002:00016c08       ??_C@_07FPCDHGMM@?5delete?$AA@ 10092c08     LIBCMTD:undname.obj
 0002:00016c10       ??_C@_01NEMOKFLO@?$DN?$AA@ 10092c10     LIBCMTD:undname.obj
 0002:00016c14       ??_C@_02GPIOPFAK@?$DO?$DO?$AA@ 10092c14     LIBCMTD:undname.obj
 0002:00016c18       ??_C@_02FODMEDOG@?$DM?$DM?$AA@ 10092c18     LIBCMTD:undname.obj
 0002:00016c1c       ??_C@_01DCLJPIOD@?$CB?$AA@ 10092c1c     LIBCMTD:undname.obj
 0002:00016c20       ??_C@_02EGOFBIJA@?$DN?$DN?$AA@ 10092c20     LIBCMTD:undname.obj
 0002:00016c24       ??_C@_02FDNJECIE@?$CB?$DN?$AA@ 10092c24     LIBCMTD:undname.obj
 0002:00016c28       ??_C@_02GPECMEKF@?$FL?$FN?$AA@ 10092c28     LIBCMTD:undname.obj
 0002:00016c2c       ??_C@_08LHJFAFGD@operator?$AA@ 10092c2c     LIBCMTD:undname.obj
 0002:00016c38       ??_C@_02HBOOOICD@?9?$DO?$AA@ 10092c38     LIBCMTD:undname.obj
 0002:00016c3c       ??_C@_01NBENCBCI@?$CK?$AA@ 10092c3c     LIBCMTD:undname.obj
 0002:00016c40       ??_C@_02ECNGHCIF@?$CL?$CL?$AA@ 10092c40     LIBCMTD:undname.obj
 0002:00016c44       ??_C@_02BAABKJLB@?9?9?$AA@ 10092c44     LIBCMTD:undname.obj
 0002:00016c48       ??_C@_01JOAMLHOP@?9?$AA@   10092c48     LIBCMTD:undname.obj
 0002:00016c4c       ??_C@_01MIFGBAGJ@?$CL?$AA@ 10092c4c     LIBCMTD:undname.obj
 0002:00016c50       ??_C@_01HNPIGOCE@?$CG?$AA@ 10092c50     LIBCMTD:undname.obj
 0002:00016c54       ??_C@_03MNHNFDLC@?9?$DO?$CK?$AA@ 10092c54     LIBCMTD:undname.obj
 0002:00016c58       ??_C@_01KMDKNFGN@?1?$AA@   10092c58     LIBCMTD:undname.obj
 0002:00016c5c       ??_C@_01FGNFDNOH@?$CF?$AA@ 10092c5c     LIBCMTD:undname.obj
 0002:00016c60       ??_C@_01MNNFJEPP@?$DM?$AA@ 10092c60     LIBCMTD:undname.obj
 0002:00016c64       ??_C@_02EHCHHCKH@?$DM?$DN?$AA@ 10092c64     LIBCMTD:undname.obj
 0002:00016c68       ??_C@_01PPODPGHN@?$DO?$AA@ 10092c68     LIBCMTD:undname.obj
 0002:00016c6c       ??_C@_02EEKDKGMJ@?$DO?$DN?$AA@ 10092c6c     LIBCMTD:undname.obj
 0002:00016c70       ??_C@_01IHBHIGKO@?0?$AA@   10092c70     LIBCMTD:undname.obj
 0002:00016c74       ??_C@_02HCKGKOFO@?$CI?$CJ?$AA@ 10092c74     LIBCMTD:undname.obj
 0002:00016c78       ??_C@_01PJKLJHI@?$HO?$AA@  10092c78     LIBCMTD:undname.obj
 0002:00016c7c       ??_C@_01JKBOJNNK@?$FO?$AA@ 10092c7c     LIBCMTD:undname.obj
 0002:00016c80       ??_C@_01DNKMNLPK@?$HM?$AA@ 10092c80     LIBCMTD:undname.obj
 0002:00016c84       ??_C@_02PPKAJPJL@?$CG?$CG?$AA@ 10092c84     LIBCMTD:undname.obj
 0002:00016c88       ??_C@_02NONPIBCD@?$HM?$HM?$AA@ 10092c88     LIBCMTD:undname.obj
 0002:00016c8c       ??_C@_02FPIMKNGF@?$CK?$DN?$AA@ 10092c8c     LIBCMTD:undname.obj
 0002:00016c90       ??_C@_02FOEOMHFC@?$CL?$DN?$AA@ 10092c90     LIBCMTD:undname.obj
 0002:00016c94       ??_C@_02FKMDLLOA@?9?$DN?$AA@ 10092c94     LIBCMTD:undname.obj
 0002:00016c98       ??_C@_02FJEHGPIO@?1?$DN?$AA@ 10092c98     LIBCMTD:undname.obj
 0002:00016c9c       ??_C@_02FENAOKFI@?$CF?$DN?$AA@ 10092c9c     LIBCMTD:undname.obj
 0002:00016ca0       ??_C@_03IKFCCPFF@?$DO?$DO?$DN?$AA@ 10092ca0     LIBCMTD:undname.obj
 0002:00016ca4       ??_C@_03CDNPDDLA@?$DM?$DM?$DN?$AA@ 10092ca4     LIBCMTD:undname.obj
 0002:00016ca8       ??_C@_02FGJGFEAB@?$CG?$DN?$AA@ 10092ca8     LIBCMTD:undname.obj
 0002:00016cac       ??_C@_02DHLNPPGH@?$HM?$DN?$AA@ 10092cac     LIBCMTD:undname.obj
 0002:00016cb0       ??_C@_02MHEGNOJ@?$FO?$DN?$AA@ 10092cb0     LIBCMTD:undname.obj
 0002:00016cb4       ??_C@_09IFPLHPGF@?$GAvftable?8?$AA@ 10092cb4     LIBCMTD:undname.obj
 0002:00016cc0       ??_C@_09BLBHBJP@?$GAvbtable?8?$AA@ 10092cc0     LIBCMTD:undname.obj
 0002:00016ccc       ??_C@_07FEEIOKP@?$GAvcall?8?$AA@ 10092ccc     LIBCMTD:undname.obj
 0002:00016cd4       ??_C@_08LLFFHHDJ@?$GAtypeof?8?$AA@ 10092cd4     LIBCMTD:undname.obj
 0002:00016ce0       ??_C@_0BF@KDPPACIK@?$GAlocal?5static?5guard?8?$AA@ 10092ce0     LIBCMTD:undname.obj
 0002:00016cf8       ??_C@_08OBABFOLI@?$GAstring?8?$AA@ 10092cf8     LIBCMTD:undname.obj
 0002:00016d04       ??_C@_0BD@JDLKDPAB@?$GAvbase?5destructor?8?$AA@ 10092d04     LIBCMTD:undname.obj
 0002:00016d18       ??_C@_0BN@DEGPLNFK@?$GAvector?5deleting?5destructor?8?$AA@ 10092d18     LIBCMTD:undname.obj
 0002:00016d38       ??_C@_0BO@OBMKPJIG@?$GAdefault?5constructor?5closure?8?$AA@ 10092d38     LIBCMTD:undname.obj
 0002:00016d58       ??_C@_0BN@IMDCHIKM@?$GAscalar?5deleting?5destructor?8?$AA@ 10092d58     LIBCMTD:undname.obj
 0002:00016d78       ??_C@_0BO@PFGOCPJJ@?$GAvector?5constructor?5iterator?8?$AA@ 10092d78     LIBCMTD:undname.obj
 0002:00016d98       ??_C@_0BN@LFPFMEDL@?$GAvector?5destructor?5iterator?8?$AA@ 10092d98     LIBCMTD:undname.obj
 0002:00016db8       ??_C@_0CE@IKBNEHA@?$GAvector?5vbase?5constructor?5iterat@ 10092db8     LIBCMTD:undname.obj
 0002:00016ddc       ??_C@_0BL@NILFHHPC@?$GAvirtual?5displacement?5map?8?$AA@ 10092ddc     LIBCMTD:undname.obj
 0002:00016df8       ??_C@_0CB@JONCMFFK@?$GAeh?5vector?5constructor?5iterator?8@ 10092df8     LIBCMTD:undname.obj
 0002:00016e1c       ??_C@_0CA@GCEOPDGL@?$GAeh?5vector?5destructor?5iterator?8?$AA@ 10092e1c     LIBCMTD:undname.obj
 0002:00016e3c       ??_C@_0CH@OOJPLCPH@?$GAeh?5vector?5vbase?5constructor?5ite@ 10092e3c     LIBCMTD:undname.obj
 0002:00016e64       ??_C@_0BL@LLKPOHJI@?$GAcopy?5constructor?5closure?8?$AA@ 10092e64     LIBCMTD:undname.obj
 0002:00016e80       ??_C@_0BA@KBCDOMBN@?$GAudt?5returning?8?$AA@ 10092e80     LIBCMTD:undname.obj
 0002:00016e90       ??_C@_03KLGMFNMG@?$GAEH?$AA@ 10092e90     LIBCMTD:undname.obj
 0002:00016e94       ??_C@_05KHLCHHI@?$GARTTI?$AA@ 10092e94     LIBCMTD:undname.obj
 0002:00016e9c       ??_C@_0BA@KKLDJDLB@?$GAlocal?5vftable?8?$AA@ 10092e9c     LIBCMTD:undname.obj
 0002:00016eac       ??_C@_0CE@IIHCMGGL@?$GAlocal?5vftable?5constructor?5closu@ 10092eac     LIBCMTD:undname.obj
 0002:00016ed0       ??_C@_06FHBGPFGH@?5new?$FL?$FN?$AA@ 10092ed0     LIBCMTD:undname.obj
 0002:00016ed8       ??_C@_09LBNFPBCA@?5delete?$FL?$FN?$AA@ 10092ed8     LIBCMTD:undname.obj
 0002:00016ee4       ??_C@_0P@HJKNJFNN@?$GAomni?5callsig?8?$AA@ 10092ee4     LIBCMTD:undname.obj
 0002:00016ef4       ??_C@_0BL@CNOONJFP@?$GAplacement?5delete?5closure?8?$AA@ 10092ef4     LIBCMTD:undname.obj
 0002:00016f10       ??_C@_0BN@CKNJLHMB@?$GAplacement?5delete?$FL?$FN?5closure?8?$AA@ 10092f10     LIBCMTD:undname.obj
 0002:00016f30       ??_C@_0CG@CFDHKGGD@?$GAmanaged?5vector?5constructor?5iter@ 10092f30     LIBCMTD:undname.obj
 0002:00016f58       ??_C@_0CF@IMGKMJNO@?$GAmanaged?5vector?5destructor?5itera@ 10092f58     LIBCMTD:undname.obj
 0002:00016f80       ??_C@_0CG@HLDDJMAG@?$GAeh?5vector?5copy?5constructor?5iter@ 10092f80     LIBCMTD:undname.obj
 0002:00016fa8       ??_C@_0CM@FCBBDIGB@?$GAeh?5vector?5vbase?5copy?5constructo@ 10092fa8     LIBCMTD:undname.obj
 0002:00016fd4       ??_C@_0BL@CLIPGLGB@?$GAdynamic?5initializer?5for?5?8?$AA@ 10092fd4     LIBCMTD:undname.obj
 0002:00016ff0       ??_C@_0CB@PDBIFEP@?$GAdynamic?5atexit?5destructor?5for?5?8@ 10092ff0     LIBCMTD:undname.obj
 0002:00017014       ??_C@_0CD@CGAJBKEJ@?$GAvector?5copy?5constructor?5iterato@ 10093014     LIBCMTD:undname.obj
 0002:00017038       ??_C@_0CJ@GJELGAMM@?$GAvector?5vbase?5copy?5constructor?5i@ 10093038     LIBCMTD:undname.obj
 0002:00017064       ??_C@_0CL@FGIJHLCE@?$GAmanaged?5vector?5copy?5constructor@ 10093064     LIBCMTD:undname.obj
 0002:00017090       ??_C@_0BM@PMGGMLDN@?$GAlocal?5static?5thread?5guard?8?$AA@ 10093090     LIBCMTD:undname.obj
 0002:000170ac       ??_C@_0BC@DAFEJGAK@?5Type?5Descriptor?8?$AA@ 100930ac     LIBCMTD:undname.obj
 0002:000170c0       ??_C@_0BM@LDKODKLH@?5Base?5Class?5Descriptor?5at?5?$CI?$AA@ 100930c0     LIBCMTD:undname.obj
 0002:000170dc       ??_C@_0BD@LGICGFMM@?5Base?5Class?5Array?8?$AA@ 100930dc     LIBCMTD:undname.obj
 0002:000170f0       ??_C@_0BN@MECKDCOJ@?5Class?5Hierarchy?5Descriptor?8?$AA@ 100930f0     LIBCMTD:undname.obj
 0002:00017110       ??_C@_0BK@CFCOFLF@?5Complete?5Object?5Locator?8?$AA@ 10093110     LIBCMTD:undname.obj
 0002:0001712c       ??_C@_04HEJADOOB@CV?3?5?$AA@ 1009312c     LIBCMTD:undname.obj
 0002:00017134       ??_C@_02MOLJINC@?3?3?$AA@  10093134     LIBCMTD:undname.obj
 0002:00017138       ??_C@_0BE@JAEOCHPE@template?9parameter?9?$AA@ 10093138     LIBCMTD:undname.obj
 0002:0001714c       ??_C@_0O@KHGCOMHP@generic?9type?9?$AA@ 1009314c     LIBCMTD:undname.obj
 0002:0001715c       ??_C@_01NLNLIGKH@?$GA?$AA@ 1009315c     LIBCMTD:undname.obj
 0002:00017160       ??_C@_01GEODFPGF@?8?$AA@   10093160     LIBCMTD:undname.obj
 0002:00017164       ??_C@_0BG@JNJLAMPM@?$GAanonymous?5namespace?8?$AA@ 10093164     LIBCMTD:undname.obj
 0002:0001717c       ??_C@_02OHHJMEON@?8?8?$AA@ 1009317c     LIBCMTD:undname.obj
 0002:00017180       ??_C@_0BN@IBLMMFAP@?$GAnon?9type?9template?9parameter?$AA@ 10093180     LIBCMTD:undname.obj
 0002:000171a0       ??_C@_04GKJNKENE@void?$AA@ 100931a0     LIBCMTD:undname.obj
 0002:000171a8       ??_C@_0BE@EODMJLIF@?$GAtemplate?9parameter?$AA@ 100931a8     LIBCMTD:undname.obj
 0002:000171bc       ??_C@_04HIBGFPH@NULL?$AA@  100931bc     LIBCMTD:undname.obj
 0002:000171c4       ??_C@_03OPGICMGF@?$HN?8?5?$AA@ 100931c4     LIBCMTD:undname.obj
 0002:000171c8       ??_C@_02IGFCGPIL@?$HN?8?$AA@ 100931c8     LIBCMTD:undname.obj
 0002:000171cc       ??_C@_01CLKCMJKC@?5?$AA@   100931cc     LIBCMTD:undname.obj
 0002:000171d0       ??_C@_0N@CBHHHENL@?$GAvtordispex?$HL?$AA@ 100931d0     LIBCMTD:undname.obj
 0002:000171e0       ??_C@_0L@GHPFDFH@?$GAvtordisp?$HL?$AA@ 100931e0     LIBCMTD:undname.obj
 0002:000171ec       ??_C@_0L@HNGCOGAE@?$GAadjustor?$HL?$AA@ 100931ec     LIBCMTD:undname.obj
 0002:000171f8       ??_C@_0CB@KJDOOODE@?$GAlocal?5static?5destructor?5helper?8@ 100931f8     LIBCMTD:undname.obj
 0002:0001721c       ??_C@_0DB@ILEFOCIJ@?$GAtemplate?5static?5data?5member?5con@ 1009321c     LIBCMTD:undname.obj
 0002:00017250       ??_C@_0DA@HGFJFBBE@?$GAtemplate?5static?5data?5member?5des@ 10093250     LIBCMTD:undname.obj
 0002:00017280       ??_C@_07PGOEDBHP@static?5?$AA@ 10093280     LIBCMTD:undname.obj
 0002:00017288       ??_C@_08NIEOINHE@virtual?5?$AA@ 10093288     LIBCMTD:undname.obj
 0002:00017294       ??_C@_09LAPHOOG@private?3?5?$AA@ 10093294     LIBCMTD:undname.obj
 0002:000172a0       ??_C@_0M@GAIFPFIP@protected?3?5?$AA@ 100932a0     LIBCMTD:undname.obj
 0002:000172ac       ??_C@_08GPDDCMKI@public?3?5?$AA@ 100932ac     LIBCMTD:undname.obj
 0002:000172b8       ??_C@_08KJLFOPNE@?$FLthunk?$FN?3?$AA@ 100932b8     LIBCMTD:undname.obj
 0002:000172c4       ??_C@_0M@DHNBOJMP@extern?5?$CCC?$CC?5?$AA@ 100932c4     LIBCMTD:undname.obj
 0002:000172d0       ??_C@_02KCKGHPCA@?$CJ?5?$AA@ 100932d0     LIBCMTD:undname.obj
 0002:000172d4       ??_C@_05CIHEBHNO@char?5?$AA@ 100932d4     LIBCMTD:undname.obj
 0002:000172dc       ??_C@_06EHJMALKF@short?5?$AA@ 100932dc     LIBCMTD:undname.obj
 0002:000172e4       ??_C@_04LAHKHJMA@int?5?$AA@ 100932e4     LIBCMTD:undname.obj
 0002:000172ec       ??_C@_05CJIMAING@long?5?$AA@ 100932ec     LIBCMTD:undname.obj
 0002:000172f4       ??_C@_09EBBEKKIH@unsigned?5?$AA@ 100932f4     LIBCMTD:undname.obj
 0002:00017300       ??_C@_05BEFAKPML@void?5?$AA@ 10093300     LIBCMTD:undname.obj
 0002:00017308       ??_C@_08PABEKFH@volatile?$AA@ 10093308     LIBCMTD:undname.obj
 0002:00017314       ??_C@_0P@GCOCNKDM@std?3?3nullptr_t?$AA@ 10093314     LIBCMTD:undname.obj
 0002:00017324       ??_C@_0L@EGPHHEKN@?$DMellipsis?$DO?$AA@ 10093324     LIBCMTD:undname.obj
 0002:00017330       ??_C@_04EENFHACM@?0?4?4?4?$AA@ 10093330     LIBCMTD:undname.obj
 0002:00017338       ??_C@_0M@ELJOJFFH@?0?$DMellipsis?$DO?$AA@ 10093338     LIBCMTD:undname.obj
 0002:00017344       ??_C@_07HDJPLPEK@?5throw?$CI?$AA@ 10093344     LIBCMTD:undname.obj
 0002:0001734c       ??_C@_03PBJBJNON@cpu?$AA@  1009334c     LIBCMTD:undname.obj
 0002:00017350       ??_C@_03DCBBJBAA@amp?$AA@  10093350     LIBCMTD:undname.obj
 0002:00017354       ??_C@_02KEGNLNML@?0?5?$AA@ 10093354     LIBCMTD:undname.obj
 0002:00017358       ??_C@_04ENMBGAPA@char?$AA@ 10093358     LIBCMTD:undname.obj
 0002:00017360       ??_C@_05BFKKPKCG@short?$AA@ 10093360     LIBCMTD:undname.obj
 0002:00017368       ??_C@_03JBIPMCLC@int?$AA@  10093368     LIBCMTD:undname.obj
 0002:0001736c       ??_C@_04GOKPGOLB@long?$AA@ 1009336c     LIBCMTD:undname.obj
 0002:00017374       ??_C@_05KNFBNCOH@float?$AA@ 10093374     LIBCMTD:undname.obj
 0002:0001737c       ??_C@_06BNJCAIGJ@double?$AA@ 1009337c     LIBCMTD:undname.obj
 0002:00017384       ??_C@_04DDKJGDCM@bool?$AA@ 10093384     LIBCMTD:undname.obj
 0002:0001738c       ??_C@_06EBGKOKIG@__int8?$AA@ 1009338c     LIBCMTD:undname.obj
 0002:00017394       ??_C@_07ICFHOGAF@__int16?$AA@ 10093394     LIBCMTD:undname.obj
 0002:0001739c       ??_C@_07OFLPPHGP@__int32?$AA@ 1009339c     LIBCMTD:undname.obj
 0002:000173a4       ??_C@_07LFCOJCAC@__int64?$AA@ 100933a4     LIBCMTD:undname.obj
 0002:000173ac       ??_C@_08GAHOLHEO@__int128?$AA@ 100933ac     LIBCMTD:undname.obj
 0002:000173b8       ??_C@_09EEKGDCPH@?$DMunknown?$DO?$AA@ 100933b8     LIBCMTD:undname.obj
 0002:000173c4       ??_C@_07CLGGIAMF@wchar_t?$AA@ 100933c4     LIBCMTD:undname.obj
 0002:000173cc       ??_C@_06GCICPBLB@__w64?5?$AA@ 100933cc     LIBCMTD:undname.obj
 0002:000173d4       ??_C@_07NFANNNEC@UNKNOWN?$AA@ 100933d4     LIBCMTD:undname.obj
 0002:000173dc       ??_C@_07EDHNAJHC@signed?5?$AA@ 100933dc     LIBCMTD:undname.obj
 0002:000173e4       ??_C@_05BNCCCJPP@const?$AA@ 100933e4     LIBCMTD:undname.obj
 0002:000173ec       ??_C@_09EFNPDFFP@?5volatile?$AA@ 100933ec     LIBCMTD:undname.obj
 0002:000173f8       ??_C@_0P@GCIFDJCJ@?$GAunknown?5ecsu?8?$AA@ 100933f8     LIBCMTD:undname.obj
 0002:00017408       ??_C@_06MOJHIBMG@union?5?$AA@ 10093408     LIBCMTD:undname.obj
 0002:00017410       ??_C@_07DIBCDNGL@struct?5?$AA@ 10093410     LIBCMTD:undname.obj
 0002:00017418       ??_C@_06LJBABKPM@class?5?$AA@ 10093418     LIBCMTD:undname.obj
 0002:00017420       ??_C@_08KOFANOFK@coclass?5?$AA@ 10093420     LIBCMTD:undname.obj
 0002:0001742c       ??_C@_0N@DLIEFKNA@cointerface?5?$AA@ 1009342c     LIBCMTD:undname.obj
 0002:0001743c       ??_C@_05LJGMCFOG@enum?5?$AA@ 1009343c     LIBCMTD:undname.obj
 0002:00017444       ??_C@_09GAIEOBLP@volatile?5?$AA@ 10093444     LIBCMTD:undname.obj
 0002:00017450       ??_C@_06LIJLOJAG@const?5?$AA@ 10093450     LIBCMTD:undname.obj
 0002:00017458       ??_C@_0M@EALIELKG@cli?3?3array?$DM?$AA@ 10093458     LIBCMTD:undname.obj
 0002:00017464       ??_C@_0O@GKABPPIF@cli?3?3pin_ptr?$DM?$AA@ 10093464     LIBCMTD:undname.obj
 0002:00017474       ??_C@_02GOGNNPBN@?$CJ?$FL?$AA@ 10093474     LIBCMTD:undname.obj
 0002:00017478       ??_C@_06EEGAIFAK@?$HLflat?$HN?$AA@ 10093478     LIBCMTD:undname.obj
 0002:00017480       ??_C@_05JIBOFOHK@?$HLfor?5?$AA@ 10093480     LIBCMTD:undname.obj
 0002:00017488       ??_C@_02MDINNEEG@s?5?$AA@  10093488     LIBCMTD:undname.obj
 0002:00017490       ??_7DNameNode@@6B@         10093490     LIBCMTD:undname.obj
 0002:000174a0       ??_7charNode@@6B@          100934a0     LIBCMTD:undname.obj
 0002:000174b0       ??_7pcharNode@@6B@         100934b0     LIBCMTD:undname.obj
 0002:000174c0       ??_7pDNameNode@@6B@        100934c0     LIBCMTD:undname.obj
 0002:000174d0       ??_7DNameStatusNode@@6B@   100934d0     LIBCMTD:undname.obj
 0002:000174e0       ??_7pairNode@@6B@          100934e0     LIBCMTD:undname.obj
 0002:000174ec       ??_C@_04OKOHEJBO@?5?$DP?$DP?5?$AA@ 100934ec     LIBCMTD:undname.obj
 0002:000174f8       ??_C@_1NC@EINCOKCO@?$AA_?$AAl?$AAo?$AAc?$AA_?$AAu?$AAp?$AAd?$AAa?$AAt?$AAe?$AA?4?$AAG?$AAe?$AAt?$AAL?$AAo?$AAc?$AAa?$AAl?$AAe?$AAT?$AA?$CI?$AA?$CJ?$AA?9?$AA?$DO?$AAl?$AAo?$AAc?$AAi?$AAn?$AAf@ 100934f8     LIBCMTD:mbtowc.obj
 0002:000175d0       ??_C@_1FE@EKLDGEI@?$AAf?$AA?3?$AA?2?$AAd?$AAd?$AA?2?$AAv?$AAc?$AAt?$AAo?$AAo?$AAl?$AAs?$AA?2?$AAc?$AAr?$AAt?$AA?2?$AAc?$AAr?$AAt?$AAw?$AA3?$AA2?$AA?2?$AAc?$AAo?$AAn?$AAv?$AAe?$AAr?$AAt@ 100935d0     LIBCMTD:mbtowc.obj
 0002:00017624       ??_C@_1BE@NDMJHJJG@?$AAs?$AAt?$AAr?$AAn?$AAc?$AAp?$AAy?$AA_?$AAs?$AA?$AA@ 10093624     LIBCMTD:strncpy_s.obj
 0002:00017638       ??_C@_1FE@KNPCCODH@?$AA?$CI?$AA?$CC?$AAC?$AAo?$AAr?$AAr?$AAu?$AAp?$AAt?$AAe?$AAd?$AA?5?$AAp?$AAo?$AAi?$AAn?$AAt?$AAe?$AAr?$AA?5?$AAp?$AAa?$AAs?$AAs?$AAe?$AAd?$AA?5?$AAt?$AAo?$AA?5?$AA_?$AAf@ 10093638     LIBCMTD:a_loc.obj
 0002:00017690       ??_C@_1EI@DKDOCKPJ@?$AAf?$AA?3?$AA?2?$AAd?$AAd?$AA?2?$AAv?$AAc?$AAt?$AAo?$AAo?$AAl?$AAs?$AA?2?$AAc?$AAr?$AAt?$AA?2?$AAc?$AAr?$AAt?$AAw?$AA3?$AA2?$AA?2?$AAh?$AA?2?$AAm?$AAa?$AAl?$AAl?$AAo@ 10093690     LIBCMTD:a_loc.obj
 0002:000176d8       ??_C@_15EDMHLDMO@?$AAc?$AAa?$AA?$AA@ 100936d8     LIBCMTD:winapinls.obj
 0002:000176e0       ??_C@_1O@BPEAJADD@?$AAz?$AAh?$AA?9?$AAC?$AAH?$AAS?$AA?$AA@ 100936e0     LIBCMTD:winapinls.obj
 0002:000176f0       ??_C@_15LJNHCMNK@?$AAc?$AAs?$AA?$AA@ 100936f0     LIBCMTD:winapinls.obj
 0002:000176f8       ??_C@_15FOMCIDHG@?$AAd?$AAa?$AA?$AA@ 100936f8     LIBCMTD:winapinls.obj
 0002:00017700       ??_C@_15NBKABECB@?$AAd?$AAe?$AA?$AA@ 10093700     LIBCMTD:winapinls.obj
 0002:00017708       ??_C@_15GHPEIIAO@?$AAe?$AAl?$AA?$AA@ 10093708     LIBCMTD:winapinls.obj
 0002:00017710       ??_C@_15MNPNEAIF@?$AAe?$AAn?$AA?$AA@ 10093710     LIBCMTD:winapinls.obj
 0002:00017718       ??_C@_15GPIOMPMH@?$AAe?$AAs?$AA?$AA@ 10093718     LIBCMTD:winapinls.obj
 0002:00017720       ??_C@_15NGLOAKJC@?$AAf?$AAi?$AA?$AA@ 10093720     LIBCMTD:winapinls.obj
 0002:00017728       ??_C@_15FBKGNKAM@?$AAf?$AAr?$AA?$AA@ 10093728     LIBCMTD:winapinls.obj
 0002:00017730       ??_C@_15KGGCNEFK@?$AAh?$AAe?$AA?$AA@ 10093730     LIBCMTD:winapinls.obj
 0002:00017738       ??_C@_15PGHLIDMF@?$AAh?$AAu?$AA?$AA@ 10093738     LIBCMTD:winapinls.obj
 0002:00017740       ??_C@_15BIEMAPLM@?$AAi?$AAs?$AA?$AA@ 10093740     LIBCMTD:winapinls.obj
 0002:00017748       ??_C@_15IFJLDHAF@?$AAi?$AAt?$AA?$AA@ 10093748     LIBCMTD:winapinls.obj
 0002:00017750       ??_C@_15GEMIOCAG@?$AAj?$AAa?$AA?$AA@ 10093750     LIBCMTD:winapinls.obj
 0002:00017758       ??_C@_15EPELEGJA@?$AAk?$AAo?$AA?$AA@ 10093758     LIBCMTD:winapinls.obj
 0002:00017760       ??_C@_15NDDHIMN@?$AAn?$AAl?$AA?$AA@ 10093760     LIBCMTD:winapinls.obj
 0002:00017768       ??_C@_15BPIGNHCD@?$AAn?$AAo?$AA?$AA@ 10093768     LIBCMTD:winapinls.obj
 0002:00017770       ??_C@_15DEOPBLCG@?$AAp?$AAl?$AA?$AA@ 10093770     LIBCMTD:winapinls.obj
 0002:00017778       ??_C@_15KBECGEFG@?$AAp?$AAt?$AA?$AA@ 10093778     LIBCMTD:winapinls.obj
 0002:00017780       ??_C@_15GLJCBFMD@?$AAr?$AAo?$AA?$AA@ 10093780     LIBCMTD:winapinls.obj
 0002:00017788       ??_C@_15FEDGKCDI@?$AAr?$AAu?$AA?$AA@ 10093788     LIBCMTD:winapinls.obj
 0002:00017790       ??_C@_15GLKMLLHM@?$AAh?$AAr?$AA?$AA@ 10093790     LIBCMTD:winapinls.obj
 0002:00017798       ??_C@_15CPKMFBDB@?$AAs?$AAk?$AA?$AA@ 10093798     LIBCMTD:winapinls.obj
 0002:000177a0       ??_C@_15BAAIOGMK@?$AAs?$AAq?$AA?$AA@ 100937a0     LIBCMTD:winapinls.obj
 0002:000177a8       ??_C@_15INNPNOHD@?$AAs?$AAv?$AA?$AA@ 100937a8     LIBCMTD:winapinls.obj
 0002:000177b0       ??_C@_15CABMMOGH@?$AAt?$AAh?$AA?$AA@ 100937b0     LIBCMTD:winapinls.obj
 0002:000177b8       ??_C@_15BPLIHJJM@?$AAt?$AAr?$AA?$AA@ 100937b8     LIBCMTD:winapinls.obj
 0002:000177c0       ??_C@_15NEOEKKDJ@?$AAu?$AAr?$AA?$AA@ 100937c0     LIBCMTD:winapinls.obj
 0002:000177c8       ??_C@_15NFICGAJK@?$AAi?$AAd?$AA?$AA@ 100937c8     LIBCMTD:winapinls.obj
 0002:000177d0       ??_C@_15PJPFLCCM@?$AAu?$AAk?$AA?$AA@ 100937d0     LIBCMTD:winapinls.obj
 0002:000177d8       ??_C@_15HPJPHDM@?$AAb?$AAe?$AA?$AA@ 100937d8     LIBCMTD:winapinls.obj
 0002:000177e0       ??_C@_15LCHLGJII@?$AAs?$AAl?$AA?$AA@ 100937e0     LIBCMTD:winapinls.obj
 0002:000177e8       ??_C@_15PCFJPHHO@?$AAe?$AAt?$AA?$AA@ 100937e8     LIBCMTD:winapinls.obj
 0002:000177f0       ??_C@_15HPFPGODN@?$AAl?$AAv?$AA?$AA@ 100937f0     LIBCMTD:winapinls.obj
 0002:000177f8       ??_C@_15NFFGKGLG@?$AAl?$AAt?$AA?$AA@ 100937f8     LIBCMTD:winapinls.obj
 0002:00017800       ??_C@_15BDAKCCHN@?$AAf?$AAa?$AA?$AA@ 10093800     LIBCMTD:winapinls.obj
 0002:00017808       ??_C@_15NFGIAIAJ@?$AAv?$AAi?$AA?$AA@ 10093808     LIBCMTD:winapinls.obj
 0002:00017810       ??_C@_15LMKNDMHN@?$AAh?$AAy?$AA?$AA@ 10093810     LIBCMTD:winapinls.obj
 0002:00017818       ??_C@_15IJBHMCFL@?$AAa?$AAz?$AA?$AA@ 10093818     LIBCMTD:winapinls.obj
 0002:00017820       ??_C@_15EKOFJABL@?$AAe?$AAu?$AA?$AA@ 10093820     LIBCMTD:winapinls.obj
 0002:00017828       ??_C@_15BGHADCNK@?$AAm?$AAk?$AA?$AA@ 10093828     LIBCMTD:winapinls.obj
 0002:00017830       ??_C@_15JDNICKHM@?$AAa?$AAf?$AA?$AA@ 10093830     LIBCMTD:winapinls.obj
 0002:00017838       ??_C@_15KPJEDBKD@?$AAk?$AAa?$AA?$AA@ 10093838     LIBCMTD:winapinls.obj
 0002:00017840       ??_C@_15PDNFFFEO@?$AAf?$AAo?$AA?$AA@ 10093840     LIBCMTD:winapinls.obj
 0002:00017848       ??_C@_15OMLEGLOC@?$AAh?$AAi?$AA?$AA@ 10093848     LIBCMTD:winapinls.obj
 0002:00017850       ??_C@_15IDNNENKK@?$AAm?$AAs?$AA?$AA@ 10093850     LIBCMTD:winapinls.obj
 0002:00017858       ??_C@_15MACJNBMH@?$AAk?$AAk?$AA?$AA@ 10093858     LIBCMTD:winapinls.obj
 0002:00017860       ??_C@_15DKDJEOND@?$AAk?$AAy?$AA?$AA@ 10093860     LIBCMTD:winapinls.obj
 0002:00017868       ??_C@_15DFGDLJBG@?$AAs?$AAw?$AA?$AA@ 10093868     LIBCMTD:winapinls.obj
 0002:00017870       ??_C@_15BBFAICNG@?$AAu?$AAz?$AA?$AA@ 10093870     LIBCMTD:winapinls.obj
 0002:00017878       ??_C@_15DKNDCGEA@?$AAt?$AAt?$AA?$AA@ 10093878     LIBCMTD:winapinls.obj
 0002:00017880       ??_C@_15MGIFMDPL@?$AAp?$AAa?$AA?$AA@ 10093880     LIBCMTD:winapinls.obj
 0002:00017888       ??_C@_15HCNDBBA@?$AAg?$AAu?$AA?$AA@ 10093888     LIBCMTD:winapinls.obj
 0002:00017890       ??_C@_15FNBEIBON@?$AAt?$AAa?$AA?$AA@ 10093890     LIBCMTD:winapinls.obj
 0002:00017898       ??_C@_15NCHGBGLK@?$AAt?$AAe?$AA?$AA@ 10093898     LIBCMTD:winapinls.obj
 0002:000178a0       ??_C@_15PHPHCBPF@?$AAk?$AAn?$AA?$AA@ 100938a0     LIBCMTD:winapinls.obj
 0002:000178a8       ??_C@_15DLGBCKMP@?$AAm?$AAr?$AA?$AA@ 100938a8     LIBCMTD:winapinls.obj
 0002:000178b0       ??_C@_15EABBLBFF@?$AAs?$AAa?$AA?$AA@ 100938b0     LIBCMTD:winapinls.obj
 0002:000178b8       ??_C@_15CBKOMCOI@?$AAm?$AAn?$AA?$AA@ 100938b8     LIBCMTD:winapinls.obj
 0002:000178c0       ??_C@_15CKDMCJAF@?$AAg?$AAl?$AA?$AA@ 100938c0     LIBCMTD:winapinls.obj
 0002:000178c8       ??_C@_17CNJFBPG@?$AAk?$AAo?$AAk?$AA?$AA@ 100938c8     LIBCMTD:winapinls.obj
 0002:000178d0       ??_C@_17FFBJICPL@?$AAs?$AAy?$AAr?$AA?$AA@ 100938d0     LIBCMTD:winapinls.obj
 0002:000178d8       ??_C@_17KPNDCPAF@?$AAd?$AAi?$AAv?$AA?$AA@ 100938d8     LIBCMTD:winapinls.obj
 0002:000178e0       ??_C@_1M@OKAHONE@?$AAa?$AAr?$AA?9?$AAS?$AAA?$AA?$AA@ 100938e0     LIBCMTD:winapinls.obj
 0002:000178ec       ??_C@_1M@FFFIGIGK@?$AAb?$AAg?$AA?9?$AAB?$AAG?$AA?$AA@ 100938ec     LIBCMTD:winapinls.obj
 0002:000178f8       ??_C@_1M@BJNKEDC@?$AAc?$AAa?$AA?9?$AAE?$AAS?$AA?$AA@ 100938f8     LIBCMTD:winapinls.obj
 0002:00017904       ??_C@_1M@IJJHFJHA@?$AAc?$AAs?$AA?9?$AAC?$AAZ?$AA?$AA@ 10093904     LIBCMTD:winapinls.obj
 0002:00017910       ??_C@_1M@CLPEOBGI@?$AAd?$AAa?$AA?9?$AAD?$AAK?$AA?$AA@ 10093910     LIBCMTD:winapinls.obj
 0002:0001791c       ??_C@_1M@MCMADGCB@?$AAd?$AAe?$AA?9?$AAD?$AAE?$AA?$AA@ 1009391c     LIBCMTD:winapinls.obj
 0002:00017928       ??_C@_1M@OOCKEMAM@?$AAe?$AAl?$AA?9?$AAG?$AAR?$AA?$AA@ 10093928     LIBCMTD:winapinls.obj
 0002:00017934       ??_C@_1M@DDNJFGID@?$AAf?$AAi?$AA?9?$AAF?$AAI?$AA?$AA@ 10093934     LIBCMTD:winapinls.obj
 0002:00017940       ??_C@_1M@GLIPPMAC@?$AAf?$AAr?$AA?9?$AAF?$AAR?$AA?$AA@ 10093940     LIBCMTD:winapinls.obj
 0002:0001794c       ??_C@_1M@GFMCHPE@?$AAh?$AAe?$AA?9?$AAI?$AAL?$AA?$AA@ 1009394c     LIBCMTD:winapinls.obj
 0002:00017958       ??_C@_1M@MHLPGNKM@?$AAh?$AAu?$AA?9?$AAH?$AAU?$AA?$AA@ 10093958     LIBCMTD:winapinls.obj
 0002:00017964       ??_C@_1M@LPDDNNPN@?$AAi?$AAs?$AA?9?$AAI?$AAS?$AA?$AA@ 10093964     LIBCMTD:winapinls.obj
 0002:00017970       ??_C@_1M@MADIPODN@?$AAi?$AAt?$AA?9?$AAI?$AAT?$AA?$AA@ 10093970     LIBCMTD:winapinls.obj
 0002:0001797c       ??_C@_1M@IHBJJGG@?$AAn?$AAl?$AA?9?$AAN?$AAL?$AA?$AA@ 1009397c     LIBCMTD:winapinls.obj
 0002:00017988       ??_C@_1M@EANAGDL@?$AAn?$AAb?$AA?9?$AAN?$AAO?$AA?$AA@ 10093988     LIBCMTD:winapinls.obj
 0002:00017994       ??_C@_1M@NEIEMEGP@?$AAp?$AAl?$AA?9?$AAP?$AAL?$AA?$AA@ 10093994     LIBCMTD:winapinls.obj
 0002:000179a0       ??_C@_1M@BOCFIGEP@?$AAp?$AAt?$AA?9?$AAB?$AAR?$AA?$AA@ 100939a0     LIBCMTD:winapinls.obj
 0002:000179ac       ??_C@_1M@IMPFOPBG@?$AAr?$AAo?$AA?9?$AAR?$AAO?$AA?$AA@ 100939ac     LIBCMTD:winapinls.obj
 0002:000179b8       ??_C@_1M@IDNNEJMM@?$AAr?$AAu?$AA?9?$AAR?$AAU?$AA?$AA@ 100939b8     LIBCMTD:winapinls.obj
 0002:000179c4       ??_C@_1M@LILEEOGM@?$AAh?$AAr?$AA?9?$AAH?$AAR?$AA?$AA@ 100939c4     LIBCMTD:winapinls.obj
 0002:000179d0       ??_C@_1M@FKIFEHPB@?$AAs?$AAk?$AA?9?$AAS?$AAK?$AA?$AA@ 100939d0     LIBCMTD:winapinls.obj
 0002:000179dc       ??_C@_1M@LJMAMNPJ@?$AAs?$AAq?$AA?9?$AAA?$AAL?$AA?$AA@ 100939dc     LIBCMTD:winapinls.obj
 0002:000179e8       ??_C@_1M@GIAKDKJK@?$AAs?$AAv?$AA?9?$AAS?$AAE?$AA?$AA@ 100939e8     LIBCMTD:winapinls.obj
 0002:000179f4       ??_C@_1M@MKJKIKCL@?$AAt?$AAh?$AA?9?$AAT?$AAH?$AA?$AA@ 100939f4     LIBCMTD:winapinls.obj
 0002:00017a00       ??_C@_1M@MFLCCMPB@?$AAt?$AAr?$AA?9?$AAT?$AAR?$AA?$AA@ 10093a00     LIBCMTD:winapinls.obj
 0002:00017a0c       ??_C@_1M@OIJHDKJN@?$AAu?$AAr?$AA?9?$AAP?$AAK?$AA?$AA@ 10093a0c     LIBCMTD:winapinls.obj
 0002:00017a18       ??_C@_1M@LHIPCIEK@?$AAi?$AAd?$AA?9?$AAI?$AAD?$AA?$AA@ 10093a18     LIBCMTD:winapinls.obj
 0002:00017a24       ??_C@_1M@MFMOBGI@?$AAu?$AAk?$AA?9?$AAU?$AAA?$AA?$AA@ 10093a24     LIBCMTD:winapinls.obj
 0002:00017a30       ??_C@_1M@OBGLJIPL@?$AAb?$AAe?$AA?9?$AAB?$AAY?$AA?$AA@ 10093a30     LIBCMTD:winapinls.obj
 0002:00017a3c       ??_C@_1M@BCFAJEAD@?$AAs?$AAl?$AA?9?$AAS?$AAI?$AA?$AA@ 10093a3c     LIBCMTD:winapinls.obj
 0002:00017a48       ??_C@_1M@FKFFEDDN@?$AAe?$AAt?$AA?9?$AAE?$AAE?$AA?$AA@ 10093a48     LIBCMTD:winapinls.obj
 0002:00017a54       ??_C@_1M@KGKKAACI@?$AAl?$AAv?$AA?9?$AAL?$AAV?$AA?$AA@ 10093a54     LIBCMTD:winapinls.obj
 0002:00017a60       ??_C@_1M@IFGBIJO@?$AAl?$AAt?$AA?9?$AAL?$AAT?$AA?$AA@ 10093a60     LIBCMTD:winapinls.obj
 0002:00017a6c       ??_C@_1M@FGEAHEDM@?$AAf?$AAa?$AA?9?$AAI?$AAR?$AA?$AA@ 10093a6c     LIBCMTD:winapinls.obj
 0002:00017a78       ??_C@_1M@KBMAIBFN@?$AAv?$AAi?$AA?9?$AAV?$AAN?$AA?$AA@ 10093a78     LIBCMTD:winapinls.obj
 0002:00017a84       ??_C@_1M@GPCBKDJK@?$AAh?$AAy?$AA?9?$AAA?$AAM?$AA?$AA@ 10093a84     LIBCMTD:winapinls.obj
 0002:00017a90       ??_C@_1BG@BECMDDJB@?$AAa?$AAz?$AA?9?$AAA?$AAZ?$AA?9?$AAL?$AAa?$AAt?$AAn?$AA?$AA@ 10093a90     LIBCMTD:winapinls.obj
 0002:00017aa8       ??_C@_1M@MAOFCAEA@?$AAe?$AAu?$AA?9?$AAE?$AAS?$AA?$AA@ 10093aa8     LIBCMTD:winapinls.obj
 0002:00017ab4       ??_C@_1M@IGHABKPI@?$AAm?$AAk?$AA?9?$AAM?$AAK?$AA?$AA@ 10093ab4     LIBCMTD:winapinls.obj
 0002:00017ac0       ??_C@_1M@IAIGNEJG@?$AAt?$AAn?$AA?9?$AAZ?$AAA?$AA?$AA@ 10093ac0     LIBCMTD:winapinls.obj
 0002:00017acc       ??_C@_1M@IIJCOJFA@?$AAx?$AAh?$AA?9?$AAZ?$AAA?$AA?$AA@ 10093acc     LIBCMTD:winapinls.obj
 0002:00017ad8       ??_C@_1M@LGPJHNJH@?$AAz?$AAu?$AA?9?$AAZ?$AAA?$AA?$AA@ 10093ad8     LIBCMTD:winapinls.obj
 0002:00017ae4       ??_C@_1M@HOKAOIO@?$AAa?$AAf?$AA?9?$AAZ?$AAA?$AA?$AA@ 10093ae4     LIBCMTD:winapinls.obj
 0002:00017af0       ??_C@_1M@DPCLHLIE@?$AAk?$AAa?$AA?9?$AAG?$AAE?$AA?$AA@ 10093af0     LIBCMTD:winapinls.obj
 0002:00017afc       ??_C@_1M@BLKMHJBI@?$AAf?$AAo?$AA?9?$AAF?$AAO?$AA?$AA@ 10093afc     LIBCMTD:winapinls.obj
 0002:00017b08       ??_C@_1M@LGGJAPPB@?$AAh?$AAi?$AA?9?$AAI?$AAN?$AA?$AA@ 10093b08     LIBCMTD:winapinls.obj
 0002:00017b14       ??_C@_1M@FIKPIHFE@?$AAm?$AAt?$AA?9?$AAM?$AAT?$AA?$AA@ 10093b14     LIBCMTD:winapinls.obj
 0002:00017b20       ??_C@_1M@HEGGPBFA@?$AAs?$AAe?$AA?9?$AAN?$AAO?$AA?$AA@ 10093b20     LIBCMTD:winapinls.obj
 0002:00017b2c       ??_C@_1M@EIBJEEPA@?$AAm?$AAs?$AA?9?$AAM?$AAY?$AA?$AA@ 10093b2c     LIBCMTD:winapinls.obj
 0002:00017b38       ??_C@_1M@FHLBGMPP@?$AAk?$AAk?$AA?9?$AAK?$AAZ?$AA?$AA@ 10093b38     LIBCMTD:winapinls.obj
 0002:00017b44       ??_C@_1M@NGJJLCGI@?$AAk?$AAy?$AA?9?$AAK?$AAG?$AA?$AA@ 10093b44     LIBCMTD:winapinls.obj
 0002:00017b50       ??_C@_1M@GIENNBFC@?$AAs?$AAw?$AA?9?$AAK?$AAE?$AA?$AA@ 10093b50     LIBCMTD:winapinls.obj
 0002:00017b5c       ??_C@_1BG@NDGMJIMJ@?$AAu?$AAz?$AA?9?$AAU?$AAZ?$AA?9?$AAL?$AAa?$AAt?$AAn?$AA?$AA@ 10093b5c     LIBCMTD:winapinls.obj
 0002:00017b74       ??_C@_1M@IDCCIHBC@?$AAt?$AAt?$AA?9?$AAR?$AAU?$AA?$AA@ 10093b74     LIBCMTD:winapinls.obj
 0002:00017b80       ??_C@_1M@LOICPMOJ@?$AAb?$AAn?$AA?9?$AAI?$AAN?$AA?$AA@ 10093b80     LIBCMTD:winapinls.obj
 0002:00017b8c       ??_C@_1M@KPKKNEAH@?$AAp?$AAa?$AA?9?$AAI?$AAN?$AA?$AA@ 10093b8c     LIBCMTD:winapinls.obj
 0002:00017b98       ??_C@_1M@PJGPPBOG@?$AAg?$AAu?$AA?9?$AAI?$AAN?$AA?$AA@ 10093b98     LIBCMTD:winapinls.obj
 0002:00017ba4       ??_C@_1M@KMKMOPHI@?$AAt?$AAa?$AA?9?$AAI?$AAN?$AA?$AA@ 10093ba4     LIBCMTD:winapinls.obj
 0002:00017bb0       ??_C@_1M@KFEHEPAC@?$AAt?$AAe?$AA?9?$AAI?$AAN?$AA?$AA@ 10093bb0     LIBCMTD:winapinls.obj
 0002:00017bbc       ??_C@_1M@CDCLMGHI@?$AAk?$AAn?$AA?9?$AAI?$AAN?$AA?$AA@ 10093bbc     LIBCMTD:winapinls.obj
 0002:00017bc8       ??_C@_1M@MIODLDKF@?$AAm?$AAl?$AA?9?$AAI?$AAN?$AA?$AA@ 10093bc8     LIBCMTD:winapinls.obj
 0002:00017bd4       ??_C@_1M@PBIEACPO@?$AAm?$AAr?$AA?9?$AAI?$AAN?$AA?$AA@ 10093bd4     LIBCMTD:winapinls.obj
 0002:00017be0       ??_C@_1M@NIDEAGPH@?$AAs?$AAa?$AA?9?$AAI?$AAN?$AA?$AA@ 10093be0     LIBCMTD:winapinls.obj
 0002:00017bec       ??_C@_1M@FHIHCBIO@?$AAm?$AAn?$AA?9?$AAM?$AAN?$AA?$AA@ 10093bec     LIBCMTD:winapinls.obj
 0002:00017bf8       ??_C@_1M@JAIJPENP@?$AAc?$AAy?$AA?9?$AAG?$AAB?$AA?$AA@ 10093bf8     LIBCMTD:winapinls.obj
 0002:00017c04       ??_C@_1M@PHGFBEPN@?$AAg?$AAl?$AA?9?$AAE?$AAS?$AA?$AA@ 10093c04     LIBCMTD:winapinls.obj
 0002:00017c10       ??_C@_1O@KPIPDNCP@?$AAk?$AAo?$AAk?$AA?9?$AAI?$AAN?$AA?$AA@ 10093c10     LIBCMTD:winapinls.obj
 0002:00017c20       ??_C@_1O@KNHJLDJA@?$AAs?$AAy?$AAr?$AA?9?$AAS?$AAY?$AA?$AA@ 10093c20     LIBCMTD:winapinls.obj
 0002:00017c30       ??_C@_1O@MKEKBLAH@?$AAd?$AAi?$AAv?$AA?9?$AAM?$AAV?$AA?$AA@ 10093c30     LIBCMTD:winapinls.obj
 0002:00017c40       ??_C@_1O@OHDCKDDF@?$AAq?$AAu?$AAz?$AA?9?$AAB?$AAO?$AA?$AA@ 10093c40     LIBCMTD:winapinls.obj
 0002:00017c50       ??_C@_1M@LEPJNLFD@?$AAn?$AAs?$AA?9?$AAZ?$AAA?$AA?$AA@ 10093c50     LIBCMTD:winapinls.obj
 0002:00017c5c       ??_C@_1M@OMLEIIJB@?$AAm?$AAi?$AA?9?$AAN?$AAZ?$AA?$AA@ 10093c5c     LIBCMTD:winapinls.obj
 0002:00017c68       ??_C@_1M@PMPEAILG@?$AAa?$AAr?$AA?9?$AAI?$AAQ?$AA?$AA@ 10093c68     LIBCMTD:winapinls.obj
 0002:00017c74       ??_C@_1M@CNKPNOEE@?$AAd?$AAe?$AA?9?$AAC?$AAH?$AA?$AA@ 10093c74     LIBCMTD:winapinls.obj
 0002:00017c80       ??_C@_1M@LKMGMLKO@?$AAe?$AAn?$AA?9?$AAG?$AAB?$AA?$AA@ 10093c80     LIBCMTD:winapinls.obj
 0002:00017c8c       ??_C@_1M@PGKJFFGL@?$AAe?$AAs?$AA?9?$AAM?$AAX?$AA?$AA@ 10093c8c     LIBCMTD:winapinls.obj
 0002:00017c98       ??_C@_1M@DNNANBDC@?$AAf?$AAr?$AA?9?$AAB?$AAE?$AA?$AA@ 10093c98     LIBCMTD:winapinls.obj
 0002:00017ca4       ??_C@_1M@HLGMDFHM@?$AAi?$AAt?$AA?9?$AAC?$AAH?$AA?$AA@ 10093ca4     LIBCMTD:winapinls.obj
 0002:00017cb0       ??_C@_1M@CLLBGJH@?$AAn?$AAl?$AA?9?$AAB?$AAE?$AA?$AA@ 10093cb0     LIBCMTD:winapinls.obj
 0002:00017cbc       ??_C@_1M@BODBOGLF@?$AAn?$AAn?$AA?9?$AAN?$AAO?$AA?$AA@ 10093cbc     LIBCMTD:winapinls.obj
 0002:00017cc8       ??_C@_1M@HFFAHKAD@?$AAp?$AAt?$AA?9?$AAP?$AAT?$AA?$AA@ 10093cc8     LIBCMTD:winapinls.obj
 0002:00017cd4       ??_C@_1BG@LNOAKHIE@?$AAs?$AAr?$AA?9?$AAS?$AAP?$AA?9?$AAL?$AAa?$AAt?$AAn?$AA?$AA@ 10093cd4     LIBCMTD:winapinls.obj
 0002:00017cec       ??_C@_1M@HBMHBGAK@?$AAs?$AAv?$AA?9?$AAF?$AAI?$AA?$AA@ 10093cec     LIBCMTD:winapinls.obj
 0002:00017cf8       ??_C@_1BG@DGCJGJBE@?$AAa?$AAz?$AA?9?$AAA?$AAZ?$AA?9?$AAC?$AAy?$AAr?$AAl?$AA?$AA@ 10093cf8     LIBCMTD:winapinls.obj
 0002:00017d10       ??_C@_1M@KEJDAAHB@?$AAs?$AAe?$AA?9?$AAS?$AAE?$AA?$AA@ 10093d10     LIBCMTD:winapinls.obj
 0002:00017d1c       ??_C@_1M@HEIBJJAD@?$AAm?$AAs?$AA?9?$AAB?$AAN?$AA?$AA@ 10093d1c     LIBCMTD:winapinls.obj
 0002:00017d28       ??_C@_1BG@PBGJMCEM@?$AAu?$AAz?$AA?9?$AAU?$AAZ?$AA?9?$AAC?$AAy?$AAr?$AAl?$AA?$AA@ 10093d28     LIBCMTD:winapinls.obj
 0002:00017d40       ??_C@_1O@LAOBCMDF@?$AAq?$AAu?$AAz?$AA?9?$AAE?$AAC?$AA?$AA@ 10093d40     LIBCMTD:winapinls.obj
 0002:00017d50       ??_C@_1M@POEEMAIO@?$AAa?$AAr?$AA?9?$AAE?$AAG?$AA?$AA@ 10093d50     LIBCMTD:winapinls.obj
 0002:00017d5c       ??_C@_1M@EFAKDEDL@?$AAz?$AAh?$AA?9?$AAH?$AAK?$AA?$AA@ 10093d5c     LIBCMTD:winapinls.obj
 0002:00017d68       ??_C@_1M@HKKIJHGI@?$AAd?$AAe?$AA?9?$AAA?$AAT?$AA?$AA@ 10093d68     LIBCMTD:winapinls.obj
 0002:00017d74       ??_C@_1M@KBFBEHJF@?$AAe?$AAn?$AA?9?$AAA?$AAU?$AA?$AA@ 10093d74     LIBCMTD:winapinls.obj
 0002:00017d80       ??_C@_1M@MNPLFAAH@?$AAe?$AAs?$AA?9?$AAE?$AAS?$AA?$AA@ 10093d80     LIBCMTD:winapinls.obj
 0002:00017d8c       ??_C@_1M@HJOOJFMA@?$AAf?$AAr?$AA?9?$AAC?$AAA?$AA?$AA@ 10093d8c     LIBCMTD:winapinls.obj
 0002:00017d98       ??_C@_1BG@JPOFPNAB@?$AAs?$AAr?$AA?9?$AAS?$AAP?$AA?9?$AAC?$AAy?$AAr?$AAl?$AA?$AA@ 10093d98     LIBCMTD:winapinls.obj
 0002:00017db0       ??_C@_1M@LNFOCMOB@?$AAs?$AAe?$AA?9?$AAF?$AAI?$AA?$AA@ 10093db0     LIBCMTD:winapinls.obj
 0002:00017dbc       ??_C@_1O@MGJBOAMB@?$AAq?$AAu?$AAz?$AA?9?$AAP?$AAE?$AA?$AA@ 10093dbc     LIBCMTD:winapinls.obj
 0002:00017dcc       ??_C@_1M@GJINLBOK@?$AAa?$AAr?$AA?9?$AAL?$AAY?$AA?$AA@ 10093dcc     LIBCMTD:winapinls.obj
 0002:00017dd8       ??_C@_1M@GGMNHJNL@?$AAz?$AAh?$AA?9?$AAS?$AAG?$AA?$AA@ 10093dd8     LIBCMTD:winapinls.obj
 0002:00017de4       ??_C@_1M@HOIKODND@?$AAd?$AAe?$AA?9?$AAL?$AAU?$AA?$AA@ 10093de4     LIBCMTD:winapinls.obj
 0002:00017df0       ??_C@_1M@DDOCCGFG@?$AAe?$AAn?$AA?9?$AAC?$AAA?$AA?$AA@ 10093df0     LIBCMTD:winapinls.obj
 0002:00017dfc       ??_C@_1M@BNOEMJLF@?$AAe?$AAs?$AA?9?$AAG?$AAT?$AA?$AA@ 10093dfc     LIBCMTD:winapinls.obj
 0002:00017e08       ??_C@_1M@EOGNKEK@?$AAf?$AAr?$AA?9?$AAC?$AAH?$AA?$AA@ 10093e08     LIBCMTD:winapinls.obj
 0002:00017e14       ??_C@_1M@FLIDJFHL@?$AAh?$AAr?$AA?9?$AAB?$AAA?$AA?$AA@ 10093e14     LIBCMTD:winapinls.obj
 0002:00017e20       ??_C@_1O@FMCELNAJ@?$AAs?$AAm?$AAj?$AA?9?$AAN?$AAO?$AA?$AA@ 10093e20     LIBCMTD:winapinls.obj
 0002:00017e30       ??_C@_1M@JHGLJMGJ@?$AAa?$AAr?$AA?9?$AAD?$AAZ?$AA?$AA@ 10093e30     LIBCMTD:winapinls.obj
 0002:00017e3c       ??_C@_1M@JKKFDCNP@?$AAz?$AAh?$AA?9?$AAM?$AAO?$AA?$AA@ 10093e3c     LIBCMTD:winapinls.obj
 0002:00017e48       ??_C@_1M@GEEFALPE@?$AAd?$AAe?$AA?9?$AAL?$AAI?$AA?$AA@ 10093e48     LIBCMTD:winapinls.obj
 0002:00017e54       ??_C@_1M@IGEOFBG@?$AAe?$AAn?$AA?9?$AAN?$AAZ?$AA?$AA@ 10093e54     LIBCMTD:winapinls.obj
 0002:00017e60       ??_C@_1M@KDBONEHP@?$AAe?$AAs?$AA?9?$AAC?$AAR?$AA?$AA@ 10093e60     LIBCMTD:winapinls.obj
 0002:00017e6c       ??_C@_1M@FHMDOHNN@?$AAf?$AAr?$AA?9?$AAL?$AAU?$AA?$AA@ 10093e6c     LIBCMTD:winapinls.obj
 0002:00017e78       ??_C@_1BG@NFKKMAFG@?$AAb?$AAs?$AA?9?$AAB?$AAA?$AA?9?$AAL?$AAa?$AAt?$AAn?$AA?$AA@ 10093e78     LIBCMTD:winapinls.obj
 0002:00017e90       ??_C@_1O@IMNBEMCI@?$AAs?$AAm?$AAj?$AA?9?$AAS?$AAE?$AA?$AA@ 10093e90     LIBCMTD:winapinls.obj
 0002:00017ea0       ??_C@_1M@DHHMBNDP@?$AAa?$AAr?$AA?9?$AAM?$AAA?$AA?$AA@ 10093ea0     LIBCMTD:winapinls.obj
 0002:00017eac       ??_C@_1M@BNBLJCGH@?$AAe?$AAn?$AA?9?$AAI?$AAE?$AA?$AA@ 10093eac     LIBCMTD:winapinls.obj
 0002:00017eb8       ??_C@_1M@GEPAFMDL@?$AAe?$AAs?$AA?9?$AAP?$AAA?$AA?$AA@ 10093eb8     LIBCMTD:winapinls.obj
 0002:00017ec4       ??_C@_1M@OJONDMDL@?$AAf?$AAr?$AA?9?$AAM?$AAC?$AA?$AA@ 10093ec4     LIBCMTD:winapinls.obj
 0002:00017ed0       ??_C@_1BG@OBCNFJB@?$AAs?$AAr?$AA?9?$AAB?$AAA?$AA?9?$AAL?$AAa?$AAt?$AAn?$AA?$AA@ 10093ed0     LIBCMTD:winapinls.obj
 0002:00017ee8       ??_C@_1O@KEMEEGPO@?$AAs?$AAm?$AAa?$AA?9?$AAN?$AAO?$AA?$AA@ 10093ee8     LIBCMTD:winapinls.obj
 0002:00017ef8       ??_C@_1M@ELMGFODK@?$AAa?$AAr?$AA?9?$AAT?$AAN?$AA?$AA@ 10093ef8     LIBCMTD:winapinls.obj
 0002:00017f04       ??_C@_1M@BHDLHFAF@?$AAe?$AAn?$AA?9?$AAZ?$AAA?$AA?$AA@ 10093f04     LIBCMTD:winapinls.obj
 0002:00017f10       ??_C@_1M@BMGIGLIF@?$AAe?$AAs?$AA?9?$AAD?$AAO?$AA?$AA@ 10093f10     LIBCMTD:winapinls.obj
 0002:00017f1c       ??_C@_1BG@CMBHIPBE@?$AAs?$AAr?$AA?9?$AAB?$AAA?$AA?9?$AAC?$AAy?$AAr?$AAl?$AA?$AA@ 10093f1c     LIBCMTD:winapinls.obj
 0002:00017f34       ??_C@_1O@HEDBLHNP@?$AAs?$AAm?$AAa?$AA?9?$AAS?$AAE?$AA?$AA@ 10093f34     LIBCMTD:winapinls.obj
 0002:00017f44       ??_C@_1M@DAGCADIM@?$AAa?$AAr?$AA?9?$AAO?$AAM?$AA?$AA@ 10093f44     LIBCMTD:winapinls.obj
 0002:00017f50       ??_C@_1M@FODLMICG@?$AAe?$AAn?$AA?9?$AAJ?$AAM?$AA?$AA@ 10093f50     LIBCMTD:winapinls.obj
 0002:00017f5c       ??_C@_1M@DNMLCIHB@?$AAe?$AAs?$AA?9?$AAV?$AAE?$AA?$AA@ 10093f5c     LIBCMTD:winapinls.obj
 0002:00017f68       ??_C@_1O@EOKHMKJK@?$AAs?$AAm?$AAs?$AA?9?$AAF?$AAI?$AA?$AA@ 10093f68     LIBCMTD:winapinls.obj
 0002:00017f78       ??_C@_1M@CAFJMKOF@?$AAa?$AAr?$AA?9?$AAY?$AAE?$AA?$AA@ 10093f78     LIBCMTD:winapinls.obj
 0002:00017f84       ??_C@_1M@CBFHIJLI@?$AAe?$AAn?$AA?9?$AAC?$AAB?$AA?$AA@ 10093f84     LIBCMTD:winapinls.obj
 0002:00017f90       ??_C@_1M@BGNFLDN@?$AAe?$AAs?$AA?9?$AAC?$AAO?$AA?$AA@ 10093f90     LIBCMTD:winapinls.obj
 0002:00017f9c       ??_C@_1O@JMPHMAMC@?$AAs?$AAm?$AAn?$AA?9?$AAF?$AAI?$AA?$AA@ 10093f9c     LIBCMTD:winapinls.obj
 0002:00017fac       ??_C@_1M@JLANABKE@?$AAa?$AAr?$AA?9?$AAS?$AAY?$AA?$AA@ 10093fac     LIBCMTD:winapinls.obj
 0002:00017fb8       ??_C@_1M@HPKGCFGN@?$AAe?$AAn?$AA?9?$AAB?$AAZ?$AA?$AA@ 10093fb8     LIBCMTD:winapinls.obj
 0002:00017fc4       ??_C@_1M@OLJCMLGM@?$AAe?$AAs?$AA?9?$AAP?$AAE?$AA?$AA@ 10093fc4     LIBCMTD:winapinls.obj
 0002:00017fd0       ??_C@_1M@MKKGFKLE@?$AAa?$AAr?$AA?9?$AAJ?$AAO?$AA?$AA@ 10093fd0     LIBCMTD:winapinls.obj
 0002:00017fdc       ??_C@_1M@EKPGLDNI@?$AAe?$AAn?$AA?9?$AAT?$AAT?$AA?$AA@ 10093fdc     LIBCMTD:winapinls.obj
 0002:00017fe8       ??_C@_1M@OONGHFHE@?$AAe?$AAs?$AA?9?$AAA?$AAR?$AA?$AA@ 10093fe8     LIBCMTD:winapinls.obj
 0002:00017ff4       ??_C@_1M@OOJFGBHE@?$AAa?$AAr?$AA?9?$AAL?$AAB?$AA?$AA@ 10093ff4     LIBCMTD:winapinls.obj
 0002:00018000       ??_C@_1M@GCEJHNEG@?$AAe?$AAn?$AA?9?$AAZ?$AAW?$AA?$AA@ 10094000     LIBCMTD:winapinls.obj
 0002:0001800c       ??_C@_1M@JNOCAHJI@?$AAe?$AAs?$AA?9?$AAE?$AAC?$AA?$AA@ 1009400c     LIBCMTD:winapinls.obj
 0002:00018018       ??_C@_1M@JEFHPGGB@?$AAa?$AAr?$AA?9?$AAK?$AAW?$AA?$AA@ 10094018     LIBCMTD:winapinls.obj
 0002:00018024       ??_C@_1M@MLKIBJOJ@?$AAe?$AAn?$AA?9?$AAP?$AAH?$AA?$AA@ 10094024     LIBCMTD:winapinls.obj
 0002:00018030       ??_C@_1M@BDNIPEND@?$AAe?$AAs?$AA?9?$AAC?$AAL?$AA?$AA@ 10094030     LIBCMTD:winapinls.obj
 0002:0001803c       ??_C@_1M@MPNMEKBD@?$AAa?$AAr?$AA?9?$AAA?$AAE?$AA?$AA@ 1009403c     LIBCMTD:winapinls.obj
 0002:00018048       ??_C@_1M@KBJALCPI@?$AAe?$AAs?$AA?9?$AAU?$AAY?$AA?$AA@ 10094048     LIBCMTD:winapinls.obj
 0002:00018054       ??_C@_1M@LLCCOAGA@?$AAa?$AAr?$AA?9?$AAB?$AAH?$AA?$AA@ 10094054     LIBCMTD:winapinls.obj
 0002:00018060       ??_C@_1M@PBFNCDEL@?$AAe?$AAs?$AA?9?$AAP?$AAY?$AA?$AA@ 10094060     LIBCMTD:winapinls.obj
 0002:0001806c       ??_C@_1M@EDGINPNP@?$AAa?$AAr?$AA?9?$AAQ?$AAA?$AA?$AA@ 1009406c     LIBCMTD:winapinls.obj
 0002:00018078       ??_C@_1M@MKDBIIJI@?$AAe?$AAs?$AA?9?$AAB?$AAO?$AA?$AA@ 10094078     LIBCMTD:winapinls.obj
 0002:00018084       ??_C@_1M@CPKKEBLD@?$AAe?$AAs?$AA?9?$AAS?$AAV?$AA?$AA@ 10094084     LIBCMTD:winapinls.obj
 0002:00018090       ??_C@_1M@NDBGMMJL@?$AAe?$AAs?$AA?9?$AAH?$AAN?$AA?$AA@ 10094090     LIBCMTD:winapinls.obj
 0002:0001809c       ??_C@_1M@JIJIBHDP@?$AAe?$AAs?$AA?9?$AAN?$AAI?$AA?$AA@ 1009409c     LIBCMTD:winapinls.obj
 0002:000180a8       ??_C@_1M@CGFMKEEK@?$AAe?$AAs?$AA?9?$AAP?$AAR?$AA?$AA@ 100940a8     LIBCMTD:winapinls.obj
 0002:000180b4       ??_C@_1O@ICJHKIIK@?$AAz?$AAh?$AA?9?$AAC?$AAH?$AAT?$AA?$AA@ 100940b4     LIBCMTD:winapinls.obj
 0002:000180c4       ??_C@_15CLNEJCE@?$AAs?$AAr?$AA?$AA@ 100940c4     LIBCMTD:winapinls.obj
 0002:000180d0       _LocaleNameToIndexTable    100940d0     LIBCMTD:winapinls.obj
 0002:000187f0       _LcidToLocaleNameTable     100947f0     LIBCMTD:winapinls.obj
 0002:00018f10       ??_C@_1M@KAHEKEIG@?$AAa?$AAf?$AA?9?$AAz?$AAa?$AA?$AA@ 10094f10     LIBCMTD:winapinls.obj
 0002:00018f1c       ??_C@_1M@GIECOABL@?$AAa?$AAr?$AA?9?$AAa?$AAe?$AA?$AA@ 10094f1c     LIBCMTD:winapinls.obj
 0002:00018f28       ??_C@_1M@BMLMEKGI@?$AAa?$AAr?$AA?9?$AAb?$AAh?$AA?$AA@ 10094f28     LIBCMTD:winapinls.obj
 0002:00018f34       ??_C@_1M@DAPFDGGB@?$AAa?$AAr?$AA?9?$AAd?$AAz?$AA?$AA@ 10094f34     LIBCMTD:winapinls.obj
 0002:00018f40       ??_C@_1M@FJNKGKIG@?$AAa?$AAr?$AA?9?$AAe?$AAg?$AA?$AA@ 10094f40     LIBCMTD:winapinls.obj
 0002:00018f4c       ??_C@_1M@FLGKKCLO@?$AAa?$AAr?$AA?9?$AAi?$AAq?$AA?$AA@ 10094f4c     LIBCMTD:winapinls.obj
 0002:00018f58       ??_C@_1M@GNDIPALM@?$AAa?$AAr?$AA?9?$AAj?$AAo?$AA?$AA@ 10094f58     LIBCMTD:winapinls.obj
 0002:00018f64       ??_C@_1M@DDMJFMGJ@?$AAa?$AAr?$AA?9?$AAk?$AAw?$AA?$AA@ 10094f64     LIBCMTD:winapinls.obj
 0002:00018f70       ??_C@_1M@EJALMLHM@?$AAa?$AAr?$AA?9?$AAl?$AAb?$AA?$AA@ 10094f70     LIBCMTD:winapinls.obj
 0002:00018f7c       ??_C@_1M@MOBDBLOC@?$AAa?$AAr?$AA?9?$AAl?$AAy?$AA?$AA@ 10094f7c     LIBCMTD:winapinls.obj
 0002:00018f88       ??_C@_1M@JAOCLHDH@?$AAa?$AAr?$AA?9?$AAm?$AAa?$AA?$AA@ 10094f88     LIBCMTD:winapinls.obj
 0002:00018f94       ??_C@_1M@JHPMKJIE@?$AAa?$AAr?$AA?9?$AAo?$AAm?$AA?$AA@ 10094f94     LIBCMTD:winapinls.obj
 0002:00018fa0       ??_C@_1M@OEPGHFNH@?$AAa?$AAr?$AA?9?$AAq?$AAa?$AA?$AA@ 10094fa0     LIBCMTD:winapinls.obj
 0002:00018fac       ??_C@_1M@KJDONENM@?$AAa?$AAr?$AA?9?$AAs?$AAa?$AA?$AA@ 10094fac     LIBCMTD:winapinls.obj
 0002:00018fb8       ??_C@_1M@DMJDKLKM@?$AAa?$AAr?$AA?9?$AAs?$AAy?$AA?$AA@ 10094fb8     LIBCMTD:winapinls.obj
 0002:00018fc4       ??_C@_1M@OMFIPEDC@?$AAa?$AAr?$AA?9?$AAt?$AAn?$AA?$AA@ 10094fc4     LIBCMTD:winapinls.obj
 0002:00018fd0       ??_C@_1M@IHMHGAON@?$AAa?$AAr?$AA?9?$AAy?$AAe?$AA?$AA@ 10094fd0     LIBCMTD:winapinls.obj
 0002:00018fdc       ??_C@_1BG@KDCPGJGB@?$AAa?$AAz?$AA?9?$AAa?$AAz?$AA?9?$AAc?$AAy?$AAr?$AAl?$AA?$AA@ 10094fdc     LIBCMTD:winapinls.obj
 0002:00018ff4       ??_C@_1BG@IBCKDDOE@?$AAa?$AAz?$AA?9?$AAa?$AAz?$AA?9?$AAl?$AAa?$AAt?$AAn?$AA?$AA@ 10094ff4     LIBCMTD:winapinls.obj
 0002:0001900c       ??_C@_1M@EGPFDCPD@?$AAb?$AAe?$AA?9?$AAb?$AAy?$AA?$AA@ 1009500c     LIBCMTD:winapinls.obj
 0002:00019018       ??_C@_1M@PCMGMCGC@?$AAb?$AAg?$AA?9?$AAb?$AAg?$AA?$AA@ 10095018     LIBCMTD:winapinls.obj
 0002:00019024       ??_C@_1M@BJBMFGOB@?$AAb?$AAn?$AA?9?$AAi?$AAn?$AA?$AA@ 10095024     LIBCMTD:winapinls.obj
 0002:00019030       ??_C@_1BG@EAKMMACD@?$AAb?$AAs?$AA?9?$AAb?$AAa?$AA?9?$AAl?$AAa?$AAt?$AAn?$AA?$AA@ 10095030     LIBCMTD:winapinls.obj
 0002:00019048       ??_C@_1M@KGADAODK@?$AAc?$AAa?$AA?9?$AAe?$AAs?$AA?$AA@ 10095048     LIBCMTD:winapinls.obj
 0002:00019054       ??_C@_1M@COAJPDHI@?$AAc?$AAs?$AA?9?$AAc?$AAz?$AA?$AA@ 10095054     LIBCMTD:winapinls.obj
 0002:00019060       ??_C@_1M@DHBHFONH@?$AAc?$AAy?$AA?9?$AAg?$AAb?$AA?$AA@ 10095060     LIBCMTD:winapinls.obj
 0002:0001906c       ??_C@_1M@IMGKELGA@?$AAd?$AAa?$AA?9?$AAd?$AAk?$AA?$AA@ 1009506c     LIBCMTD:winapinls.obj
 0002:00019078       ??_C@_1M@NNDGDNGA@?$AAd?$AAe?$AA?9?$AAa?$AAt?$AA?$AA@ 10095078     LIBCMTD:winapinls.obj
 0002:00019084       ??_C@_1M@IKDBHEEM@?$AAd?$AAe?$AA?9?$AAc?$AAh?$AA?$AA@ 10095084     LIBCMTD:winapinls.obj
 0002:00019090       ??_C@_1M@GFFOJMCJ@?$AAd?$AAe?$AA?9?$AAd?$AAe?$AA?$AA@ 10095090     LIBCMTD:winapinls.obj
 0002:0001909c       ??_C@_1M@MDNLKBPM@?$AAd?$AAe?$AA?9?$AAl?$AAi?$AA?$AA@ 1009509c     LIBCMTD:winapinls.obj
 0002:000190a8       ??_C@_1M@NJBEEJNL@?$AAd?$AAe?$AA?9?$AAl?$AAu?$AA?$AA@ 100950a8     LIBCMTD:winapinls.obj
 0002:000190b4       ??_C@_1O@GNNELBAP@?$AAd?$AAi?$AAv?$AA?9?$AAm?$AAv?$AA?$AA@ 100950b4     LIBCMTD:winapinls.obj
 0002:000190c4       ??_C@_1M@EJLEOGAE@?$AAe?$AAl?$AA?9?$AAg?$AAr?$AA?$AA@ 100950c4     LIBCMTD:winapinls.obj
 0002:000190d0       ??_C@_1M@GMPONJN@?$AAe?$AAn?$AA?9?$AAa?$AAu?$AA?$AA@ 100950d0     LIBCMTD:winapinls.obj
 0002:000190dc       ??_C@_1M@NIDIIPGF@?$AAe?$AAn?$AA?9?$AAb?$AAz?$AA?$AA@ 100950dc     LIBCMTD:winapinls.obj
 0002:000190e8       ??_C@_1M@JEHMIMFO@?$AAe?$AAn?$AA?9?$AAc?$AAa?$AA?$AA@ 100950e8     LIBCMTD:winapinls.obj
 0002:000190f4       ??_C@_1M@IGMJCDLA@?$AAe?$AAn?$AA?9?$AAc?$AAb?$AA?$AA@ 100950f4     LIBCMTD:winapinls.obj
 0002:00019100       ??_C@_1M@BNFIGBKG@?$AAe?$AAn?$AA?9?$AAg?$AAb?$AA?$AA@ 10095100     LIBCMTD:winapinls.obj
 0002:0001910c       ??_C@_1M@LKIFDIGP@?$AAe?$AAn?$AA?9?$AAi?$AAe?$AA?$AA@ 1009510c     LIBCMTD:winapinls.obj
 0002:00019118       ??_C@_1M@PJKFGCCO@?$AAe?$AAn?$AA?9?$AAj?$AAm?$AA?$AA@ 10095118     LIBCMTD:winapinls.obj
 0002:00019124       ??_C@_1M@KPPKEPBO@?$AAe?$AAn?$AA?9?$AAn?$AAz?$AA?$AA@ 10095124     LIBCMTD:winapinls.obj
 0002:00019130       ??_C@_1M@GMDGLDOB@?$AAe?$AAn?$AA?9?$AAp?$AAh?$AA?$AA@ 10095130     LIBCMTD:winapinls.obj
 0002:0001913c       ??_C@_1M@ONGIBJNA@?$AAe?$AAn?$AA?9?$AAt?$AAt?$AA?$AA@ 1009513c     LIBCMTD:winapinls.obj
 0002:00019148       ??_C@_1M@LLODPCMM@?$AAe?$AAn?$AA?9?$AAu?$AAs?$AA?$AA@ 10095148     LIBCMTD:winapinls.obj
 0002:00019154       ??_C@_1M@LAKFNPAN@?$AAe?$AAn?$AA?9?$AAz?$AAa?$AA?$AA@ 10095154     LIBCMTD:winapinls.obj
 0002:00019160       ??_C@_1M@MFNHNHEO@?$AAe?$AAn?$AA?9?$AAz?$AAw?$AA?$AA@ 10095160     LIBCMTD:winapinls.obj
 0002:0001916c       ??_C@_1M@EJEINPHM@?$AAe?$AAs?$AA?9?$AAa?$AAr?$AA?$AA@ 1009516c     LIBCMTD:winapinls.obj
 0002:00019178       ??_C@_1M@GNKPCCJA@?$AAe?$AAs?$AA?9?$AAb?$AAo?$AA?$AA@ 10095178     LIBCMTD:winapinls.obj
 0002:00019184       ??_C@_1M@LEEGFONL@?$AAe?$AAs?$AA?9?$AAc?$AAl?$AA?$AA@ 10095184     LIBCMTD:winapinls.obj
 0002:00019190       ??_C@_1M@KGPDPBDF@?$AAe?$AAs?$AA?9?$AAc?$AAo?$AA?$AA@ 10095190     LIBCMTD:winapinls.obj
 0002:0001919c       ??_C@_1M@EIAHOHH@?$AAe?$AAs?$AA?9?$AAc?$AAr?$AA?$AA@ 1009519c     LIBCMTD:winapinls.obj
 0002:000191a8       ??_C@_1M@LLPGMBIN@?$AAe?$AAs?$AA?9?$AAd?$AAo?$AA?$AA@ 100951a8     LIBCMTD:winapinls.obj
 0002:000191b4       ??_C@_1M@DKHMKNJA@?$AAe?$AAs?$AA?9?$AAe?$AAc?$AA?$AA@ 100951b4     LIBCMTD:winapinls.obj
 0002:000191c0       ??_C@_1M@GKGFPKAP@?$AAe?$AAs?$AA?9?$AAe?$AAs?$AA?$AA@ 100951c0     LIBCMTD:winapinls.obj
 0002:000191cc       ??_C@_1M@LKHKGDLN@?$AAe?$AAs?$AA?9?$AAg?$AAt?$AA?$AA@ 100951cc     LIBCMTD:winapinls.obj
 0002:000191d8       ??_C@_1M@HEIIGGJD@?$AAe?$AAs?$AA?9?$AAh?$AAn?$AA?$AA@ 100951d8     LIBCMTD:winapinls.obj
 0002:000191e4       ??_C@_1M@FBDHPPGD@?$AAe?$AAs?$AA?9?$AAm?$AAx?$AA?$AA@ 100951e4     LIBCMTD:winapinls.obj
 0002:000191f0       ??_C@_1M@DPAGLNDH@?$AAe?$AAs?$AA?9?$AAn?$AAi?$AA?$AA@ 100951f0     LIBCMTD:winapinls.obj
 0002:000191fc       ??_C@_1M@MDGOPGDD@?$AAe?$AAs?$AA?9?$AAp?$AAa?$AA?$AA@ 100951fc     LIBCMTD:winapinls.obj
 0002:00019208       ??_C@_1M@EMAMGBGE@?$AAe?$AAs?$AA?9?$AAp?$AAe?$AA?$AA@ 10095208     LIBCMTD:winapinls.obj
 0002:00019214       ??_C@_1M@IBMCAOEC@?$AAe?$AAs?$AA?9?$AAp?$AAr?$AA?$AA@ 10095214     LIBCMTD:winapinls.obj
 0002:00019220       ??_C@_1M@FGMDIJED@?$AAe?$AAs?$AA?9?$AAp?$AAy?$AA?$AA@ 10095220     LIBCMTD:winapinls.obj
 0002:0001922c       ??_C@_1M@IIDEOLLL@?$AAe?$AAs?$AA?9?$AAs?$AAv?$AA?$AA@ 1009522c     LIBCMTD:winapinls.obj
 0002:00019238       ??_C@_1M@GAOBIPA@?$AAe?$AAs?$AA?9?$AAu?$AAy?$AA?$AA@ 10095238     LIBCMTD:winapinls.obj
 0002:00019244       ??_C@_1M@JKFFICHJ@?$AAe?$AAs?$AA?9?$AAv?$AAe?$AA?$AA@ 10095244     LIBCMTD:winapinls.obj
 0002:00019250       ??_C@_1M@PNMLOJDF@?$AAe?$AAt?$AA?9?$AAe?$AAe?$AA?$AA@ 10095250     LIBCMTD:winapinls.obj
 0002:0001925c       ??_C@_1M@GHHLIKEI@?$AAe?$AAu?$AA?9?$AAe?$AAs?$AA?$AA@ 1009525c     LIBCMTD:winapinls.obj
 0002:00019268       ??_C@_1M@PBNONODE@?$AAf?$AAa?$AA?9?$AAi?$AAr?$AA?$AA@ 10095268     LIBCMTD:winapinls.obj
 0002:00019274       ??_C@_1M@JEEHPMIL@?$AAf?$AAi?$AA?9?$AAf?$AAi?$AA?$AA@ 10095274     LIBCMTD:winapinls.obj
 0002:00019280       ??_C@_1M@LMDCNDBA@?$AAf?$AAo?$AA?9?$AAf?$AAo?$AA?$AA@ 10095280     LIBCMTD:winapinls.obj
 0002:0001928c       ??_C@_1M@JKEOHLDK@?$AAf?$AAr?$AA?9?$AAb?$AAe?$AA?$AA@ 1009528c     LIBCMTD:winapinls.obj
 0002:00019298       ??_C@_1M@NOHADPMI@?$AAf?$AAr?$AA?9?$AAc?$AAa?$AA?$AA@ 10095298     LIBCMTD:winapinls.obj
 0002:000192a4       ??_C@_1M@KDHIHAEC@?$AAf?$AAr?$AA?9?$AAc?$AAh?$AA?$AA@ 100952a4     LIBCMTD:winapinls.obj
 0002:000192b0       ??_C@_1M@MMBBFGAK@?$AAf?$AAr?$AA?9?$AAf?$AAr?$AA?$AA@ 100952b0     LIBCMTD:winapinls.obj
 0002:000192bc       ??_C@_1M@PAFNENNF@?$AAf?$AAr?$AA?9?$AAl?$AAu?$AA?$AA@ 100952bc     LIBCMTD:winapinls.obj
 0002:000192c8       ??_C@_1M@EOHDJGDD@?$AAf?$AAr?$AA?9?$AAm?$AAc?$AA?$AA@ 100952c8     LIBCMTD:winapinls.obj
 0002:000192d4       ??_C@_1M@FAPLLOPF@?$AAg?$AAl?$AA?9?$AAe?$AAs?$AA?$AA@ 100952d4     LIBCMTD:winapinls.obj
 0002:000192e0       ??_C@_1M@FOPBFLOO@?$AAg?$AAu?$AA?9?$AAi?$AAn?$AA?$AA@ 100952e0     LIBCMTD:winapinls.obj
 0002:000192ec       ??_C@_1M@KBMCINPM@?$AAh?$AAe?$AA?9?$AAi?$AAl?$AA?$AA@ 100952ec     LIBCMTD:winapinls.obj
 0002:000192f8       ??_C@_1M@BBPHKFPJ@?$AAh?$AAi?$AA?9?$AAi?$AAn?$AA?$AA@ 100952f8     LIBCMTD:winapinls.obj
 0002:00019304       ??_C@_1M@PMBNDPHD@?$AAh?$AAr?$AA?9?$AAb?$AAa?$AA?$AA@ 10095304     LIBCMTD:winapinls.obj
 0002:00019310       ??_C@_1M@BPCKOEGE@?$AAh?$AAr?$AA?9?$AAh?$AAr?$AA?$AA@ 10095310     LIBCMTD:winapinls.obj
 0002:0001931c       ??_C@_1M@GACBMHKE@?$AAh?$AAu?$AA?9?$AAh?$AAu?$AA?$AA@ 1009531c     LIBCMTD:winapinls.obj
 0002:00019328       ??_C@_1M@MILPAJJC@?$AAh?$AAy?$AA?9?$AAa?$AAm?$AA?$AA@ 10095328     LIBCMTD:winapinls.obj
 0002:00019334       ??_C@_1M@BABBICEC@?$AAi?$AAd?$AA?9?$AAi?$AAd?$AA?$AA@ 10095334     LIBCMTD:winapinls.obj
 0002:00019340       ??_C@_1M@BIKNHHPF@?$AAi?$AAs?$AA?9?$AAi?$AAs?$AA?$AA@ 10095340     LIBCMTD:winapinls.obj
 0002:0001934c       ??_C@_1M@NMPCJPHE@?$AAi?$AAt?$AA?9?$AAc?$AAh?$AA?$AA@ 1009534c     LIBCMTD:winapinls.obj
 0002:00019358       ??_C@_1M@GHKGFEDF@?$AAi?$AAt?$AA?9?$AAi?$AAt?$AA?$AA@ 10095358     LIBCMTD:winapinls.obj
 0002:00019364       ??_C@_1M@NIEJCJJA@?$AAj?$AAa?$AA?9?$AAj?$AAp?$AA?$AA@ 10095364     LIBCMTD:winapinls.obj
 0002:00019370       ??_C@_1M@JILFNBIM@?$AAk?$AAa?$AA?9?$AAg?$AAe?$AA?$AA@ 10095370     LIBCMTD:winapinls.obj
 0002:0001937c       ??_C@_1M@PACPMGPH@?$AAk?$AAk?$AA?9?$AAk?$AAz?$AA?$AA@ 1009537c     LIBCMTD:winapinls.obj
 0002:00019388       ??_C@_1M@IELFGMHA@?$AAk?$AAn?$AA?9?$AAi?$AAn?$AA?$AA@ 10095388     LIBCMTD:winapinls.obj
 0002:00019394       ??_C@_1O@IBBJHCH@?$AAk?$AAo?$AAk?$AA?9?$AAi?$AAn?$AA?$AA@ 10095394     LIBCMTD:winapinls.obj
 0002:000193a4       ??_C@_1M@DMHAEOGC@?$AAk?$AAo?$AA?9?$AAk?$AAr?$AA?$AA@ 100953a4     LIBCMTD:winapinls.obj
 0002:000193b0       ??_C@_1M@HBAHBIGA@?$AAk?$AAy?$AA?9?$AAk?$AAg?$AA?$AA@ 100953b0     LIBCMTD:winapinls.obj
 0002:000193bc       ??_C@_1M@KPMILCJG@?$AAl?$AAt?$AA?9?$AAl?$AAt?$AA?$AA@ 100953bc     LIBCMTD:winapinls.obj
 0002:000193c8       ??_C@_1M@BDEKKCA@?$AAl?$AAv?$AA?9?$AAl?$AAv?$AA?$AA@ 100953c8     LIBCMTD:winapinls.obj
 0002:000193d4       ??_C@_1M@ELCKCCJJ@?$AAm?$AAi?$AA?9?$AAn?$AAz?$AA?$AA@ 100953d4     LIBCMTD:winapinls.obj
 0002:000193e0       ??_C@_1M@CBOOLAPA@?$AAm?$AAk?$AA?9?$AAm?$AAk?$AA?$AA@ 100953e0     LIBCMTD:winapinls.obj
 0002:000193ec       ??_C@_1M@GPHNBJKN@?$AAm?$AAl?$AA?9?$AAi?$AAn?$AA?$AA@ 100953ec     LIBCMTD:winapinls.obj
 0002:000193f8       ??_C@_1M@PABJILIG@?$AAm?$AAn?$AA?9?$AAm?$AAn?$AA?$AA@ 100953f8     LIBCMTD:winapinls.obj
 0002:00019404       ??_C@_1M@FGBKKIPG@?$AAm?$AAr?$AA?9?$AAi?$AAn?$AA?$AA@ 10095404     LIBCMTD:winapinls.obj
 0002:00019410       ??_C@_1M@NDBPDDAL@?$AAm?$AAs?$AA?9?$AAb?$AAn?$AA?$AA@ 10095410     LIBCMTD:winapinls.obj
 0002:0001941c       ??_C@_1M@OPIHOOPI@?$AAm?$AAs?$AA?9?$AAm?$AAy?$AA?$AA@ 1009541c     LIBCMTD:winapinls.obj
 0002:00019428       ??_C@_1M@PPDBCNFM@?$AAm?$AAt?$AA?9?$AAm?$AAt?$AA?$AA@ 10095428     LIBCMTD:winapinls.obj
 0002:00019434       ??_C@_1M@KDJDKMDD@?$AAn?$AAb?$AA?9?$AAn?$AAo?$AA?$AA@ 10095434     LIBCMTD:winapinls.obj
 0002:00019440       ??_C@_1M@KFCFLMJP@?$AAn?$AAl?$AA?9?$AAb?$AAe?$AA?$AA@ 10095440     LIBCMTD:winapinls.obj
 0002:0001944c       ??_C@_1M@KPOPDDGO@?$AAn?$AAl?$AA?9?$AAn?$AAl?$AA?$AA@ 1009544c     LIBCMTD:winapinls.obj
 0002:00019458       ??_C@_1M@LJKPEMLN@?$AAn?$AAn?$AA?9?$AAn?$AAo?$AA?$AA@ 10095458     LIBCMTD:winapinls.obj
 0002:00019464       ??_C@_1M@BDGHHBFL@?$AAn?$AAs?$AA?9?$AAz?$AAa?$AA?$AA@ 10095464     LIBCMTD:winapinls.obj
 0002:00019470       ??_C@_1M@IDEHOAP@?$AAp?$AAa?$AA?9?$AAi?$AAn?$AA?$AA@ 10095470     LIBCMTD:winapinls.obj
 0002:0001947c       ??_C@_1M@HDBKGOGH@?$AAp?$AAl?$AA?9?$AAp?$AAl?$AA?$AA@ 1009547c     LIBCMTD:winapinls.obj
 0002:00019488       ??_C@_1M@LJLLCMEH@?$AAp?$AAt?$AA?9?$AAb?$AAr?$AA?$AA@ 10095488     LIBCMTD:winapinls.obj
 0002:00019494       ??_C@_1M@NCMONAAL@?$AAp?$AAt?$AA?9?$AAp?$AAt?$AA?$AA@ 10095494     LIBCMTD:winapinls.obj
 0002:000194a0       ??_C@_1O@EAKMAJDN@?$AAq?$AAu?$AAz?$AA?9?$AAb?$AAo?$AA?$AA@ 100954a0     LIBCMTD:winapinls.obj
 0002:000194b0       ??_C@_1O@BHHPIGDN@?$AAq?$AAu?$AAz?$AA?9?$AAe?$AAc?$AA?$AA@ 100954b0     LIBCMTD:winapinls.obj
 0002:000194c0       ??_C@_1O@GBAPEKMJ@?$AAq?$AAu?$AAz?$AA?9?$AAp?$AAe?$AA?$AA@ 100954c0     LIBCMTD:winapinls.obj
 0002:000194d0       ??_C@_1M@CLGLEFBO@?$AAr?$AAo?$AA?9?$AAr?$AAo?$AA?$AA@ 100954d0     LIBCMTD:winapinls.obj
 0002:000194dc       ??_C@_1M@CEEDODME@?$AAr?$AAu?$AA?9?$AAr?$AAu?$AA?$AA@ 100954dc     LIBCMTD:winapinls.obj
 0002:000194e8       ??_C@_1M@HPKKKMPP@?$AAs?$AAa?$AA?9?$AAi?$AAn?$AA?$AA@ 100954e8     LIBCMTD:winapinls.obj
 0002:000194f4       ??_C@_1M@BKMAIGOJ@?$AAs?$AAe?$AA?9?$AAf?$AAi?$AA?$AA@ 100954f4     LIBCMTD:winapinls.obj
 0002:00019500       ??_C@_1M@NDPIFLFI@?$AAs?$AAe?$AA?9?$AAn?$AAo?$AA?$AA@ 10095500     LIBCMTD:winapinls.obj
 0002:0001950c       ??_C@_1M@DANKKHJ@?$AAs?$AAe?$AA?9?$AAs?$AAe?$AA?$AA@ 1009550c     LIBCMTD:winapinls.obj
 0002:00019518       ??_C@_1M@PNBLONPJ@?$AAs?$AAk?$AA?9?$AAs?$AAk?$AA?$AA@ 10095518     LIBCMTD:winapinls.obj
 0002:00019524       ??_C@_1M@LFMODOAL@?$AAs?$AAl?$AA?9?$AAs?$AAi?$AA?$AA@ 10095524     LIBCMTD:winapinls.obj
 0002:00019530       ??_C@_1O@DFKOMPG@?$AAs?$AAm?$AAa?$AA?9?$AAn?$AAo?$AA?$AA@ 10095530     LIBCMTD:winapinls.obj
 0002:00019540       ??_C@_1O@NDKPBNNH@?$AAs?$AAm?$AAa?$AA?9?$AAs?$AAe?$AA?$AA@ 10095540     LIBCMTD:winapinls.obj
 0002:00019550       ??_C@_1O@PLLKBHAB@?$AAs?$AAm?$AAj?$AA?9?$AAn?$AAo?$AA?$AA@ 10095550     LIBCMTD:winapinls.obj
 0002:00019560       ??_C@_1O@CLEPOGCA@?$AAs?$AAm?$AAj?$AA?9?$AAs?$AAe?$AA?$AA@ 10095560     LIBCMTD:winapinls.obj
 0002:00019570       ??_C@_1O@DLGJGKMK@?$AAs?$AAm?$AAn?$AA?9?$AAf?$AAi?$AA?$AA@ 10095570     LIBCMTD:winapinls.obj
 0002:00019580       ??_C@_1O@OJDJGAJC@?$AAs?$AAm?$AAs?$AA?9?$AAf?$AAi?$AA?$AA@ 10095580     LIBCMTD:winapinls.obj
 0002:00019590       ??_C@_1M@BOFOGHPB@?$AAs?$AAq?$AA?9?$AAa?$AAl?$AA?$AA@ 10095590     LIBCMTD:winapinls.obj
 0002:0001959c       ??_C@_1BG@LJBBIPGB@?$AAs?$AAr?$AA?9?$AAb?$AAa?$AA?9?$AAc?$AAy?$AAr?$AAl?$AA?$AA@ 1009559c     LIBCMTD:winapinls.obj
 0002:000195b4       ??_C@_1BG@JLBENFOE@?$AAs?$AAr?$AA?9?$AAb?$AAa?$AA?9?$AAl?$AAa?$AAt?$AAn?$AA?$AA@ 100955b4     LIBCMTD:winapinls.obj
 0002:000195cc       ??_C@_1BG@KODPNHE@?$AAs?$AAr?$AA?9?$AAs?$AAp?$AA?9?$AAc?$AAy?$AAr?$AAl?$AA?$AA@ 100955cc     LIBCMTD:winapinls.obj
 0002:000195e4       ??_C@_1BG@CIOGKHPB@?$AAs?$AAr?$AA?9?$AAs?$AAp?$AA?9?$AAl?$AAa?$AAt?$AAn?$AA?$AA@ 100955e4     LIBCMTD:winapinls.obj
 0002:000195fc       ??_C@_1M@NGFJLMAC@?$AAs?$AAv?$AA?9?$AAf?$AAi?$AA?$AA@ 100955fc     LIBCMTD:winapinls.obj
 0002:00019608       ??_C@_1M@MPJEJAJC@?$AAs?$AAv?$AA?9?$AAs?$AAe?$AA?$AA@ 10095608     LIBCMTD:winapinls.obj
 0002:00019614       ??_C@_1M@MPNDHLFK@?$AAs?$AAw?$AA?9?$AAk?$AAe?$AA?$AA@ 10095614     LIBCMTD:winapinls.obj
 0002:00019620       ??_C@_1O@KOHBJJI@?$AAs?$AAy?$AAr?$AA?9?$AAs?$AAy?$AA?$AA@ 10095620     LIBCMTD:winapinls.obj
 0002:00019630       ??_C@_1M@LDCEFHA@?$AAt?$AAa?$AA?9?$AAi?$AAn?$AA?$AA@ 10095630     LIBCMTD:winapinls.obj
 0002:0001963c       ??_C@_1M@CNJOFAK@?$AAt?$AAe?$AA?9?$AAi?$AAn?$AA?$AA@ 1009563c     LIBCMTD:winapinls.obj
 0002:00019648       ??_C@_1M@GNAECACD@?$AAt?$AAh?$AA?9?$AAt?$AAh?$AA?$AA@ 10095648     LIBCMTD:winapinls.obj
 0002:00019654       ??_C@_1M@CHBIHOJO@?$AAt?$AAn?$AA?9?$AAz?$AAa?$AA?$AA@ 10095654     LIBCMTD:winapinls.obj
 0002:00019660       ??_C@_1M@GCCMIGPJ@?$AAt?$AAr?$AA?9?$AAt?$AAr?$AA?$AA@ 10095660     LIBCMTD:winapinls.obj
 0002:0001966c       ??_C@_1M@CELMCNBK@?$AAt?$AAt?$AA?9?$AAr?$AAu?$AA?$AA@ 1009566c     LIBCMTD:winapinls.obj
 0002:00019678       ??_C@_1M@KLMCELGA@?$AAu?$AAk?$AA?9?$AAu?$AAa?$AA?$AA@ 10095678     LIBCMTD:winapinls.obj
 0002:00019684       ??_C@_1M@EPAJJAJF@?$AAu?$AAr?$AA?9?$AAp?$AAk?$AA?$AA@ 10095684     LIBCMTD:winapinls.obj
 0002:00019690       ??_C@_1BG@GEGPMCDJ@?$AAu?$AAz?$AA?9?$AAu?$AAz?$AA?9?$AAc?$AAy?$AAr?$AAl?$AA?$AA@ 10095690     LIBCMTD:winapinls.obj
 0002:000196a8       ??_C@_1BG@EGGKJILM@?$AAu?$AAz?$AA?9?$AAu?$AAz?$AA?9?$AAl?$AAa?$AAt?$AAn?$AA?$AA@ 100956a8     LIBCMTD:winapinls.obj
 0002:000196c0       ??_C@_1M@GFOCLFF@?$AAv?$AAi?$AA?9?$AAv?$AAn?$AA?$AA@ 100956c0     LIBCMTD:winapinls.obj
 0002:000196cc       ??_C@_1M@CPAMEDFI@?$AAx?$AAh?$AA?9?$AAz?$AAa?$AA?$AA@ 100956cc     LIBCMTD:winapinls.obj
 0002:000196d8       ??_C@_1O@EBKIFIGN@?$AAz?$AAh?$AA?9?$AAc?$AAh?$AAs?$AA?$AA@ 100956d8     LIBCMTD:winapinls.obj
 0002:000196e8       ??_C@_1O@NMHPGANE@?$AAz?$AAh?$AA?9?$AAc?$AAh?$AAt?$AA?$AA@ 100956e8     LIBCMTD:winapinls.obj
 0002:000196f8       ??_C@_1M@LPINJOMC@?$AAz?$AAh?$AA?9?$AAc?$AAn?$AA?$AA@ 100956f8     LIBCMTD:winapinls.obj
 0002:00019704       ??_C@_1M@OCJEJODD@?$AAz?$AAh?$AA?9?$AAh?$AAk?$AA?$AA@ 10095704     LIBCMTD:winapinls.obj
 0002:00019710       ??_C@_1M@DNDLJINH@?$AAz?$AAh?$AA?9?$AAm?$AAo?$AA?$AA@ 10095710     LIBCMTD:winapinls.obj
 0002:0001971c       ??_C@_1M@MBFDNDND@?$AAz?$AAh?$AA?9?$AAs?$AAg?$AA?$AA@ 1009571c     LIBCMTD:winapinls.obj
 0002:00019728       ??_C@_1M@IMEPLEPE@?$AAz?$AAh?$AA?9?$AAt?$AAw?$AA?$AA@ 10095728     LIBCMTD:winapinls.obj
 0002:00019734       ??_C@_1M@BBGHNHJP@?$AAz?$AAu?$AA?9?$AAz?$AAa?$AA?$AA@ 10095734     LIBCMTD:winapinls.obj
 0002:00019740       ??_C@_15EMKDOKLE@?$AAa?$AAr?$AA?$AA@ 10095740     LIBCMTD:winapinls.obj
 0002:00019748       ??_C@_15KNPADPLH@?$AAb?$AAg?$AA?$AA@ 10095748     LIBCMTD:winapinls.obj
 0002:00019750       ??_C@_1FE@HAPBHJIC@?$AAf?$AA?3?$AA?2?$AAd?$AAd?$AA?2?$AAv?$AAc?$AAt?$AAo?$AAo?$AAl?$AAs?$AA?2?$AAc?$AAr?$AAt?$AA?2?$AAc?$AAr?$AAt?$AAw?$AA3?$AA2?$AA?2?$AAm?$AAi?$AAs?$AAc?$AA?2?$AAw?$AAi@ 10095750     LIBCMTD:winapinls.obj
 0002:000197a4       ??_C@_1DO@MBHJDOGM@?$AA_?$AA_?$AAc?$AAr?$AAt?$AAD?$AAo?$AAw?$AAn?$AAl?$AAe?$AAv?$AAe?$AAl?$AAL?$AAC?$AAI?$AAD?$AAT?$AAo?$AAL?$AAo?$AAc?$AAa?$AAl?$AAe?$AAN?$AAa?$AAm?$AAe?$AA?$AA@ 100957a4     LIBCMTD:winapinls.obj
 0002:000197e8       ??_C@_1FO@LFACCMJH@?$AAw?$AAc?$AAs?$AAc?$AAp?$AAy?$AA_?$AAs?$AA?$CI?$AAo?$AAu?$AAt?$AAL?$AAo?$AAc?$AAa?$AAl?$AAe?$AAN?$AAa?$AAm?$AAe?$AA?0?$AA?5?$AAc?$AAc?$AAh?$AAL?$AAo?$AAc?$AAa?$AAl@ 100957e8     LIBCMTD:winapinls.obj
 0002:00019848       ??_C@_1BK@LAOAACLJ@?$AAn?$AAp?$AAt?$AAr?$AA?5?$AA?$CB?$AA?$DN?$AA?5?$AAN?$AAU?$AAL?$AAL?$AA?$AA@ 10095848     LIBCMTD:strtol.obj
 0002:00019868       ??_C@_1FE@OOICPOFH@?$AAf?$AA?3?$AA?2?$AAd?$AAd?$AA?2?$AAv?$AAc?$AAt?$AAo?$AAo?$AAl?$AAs?$AA?2?$AAc?$AAr?$AAt?$AA?2?$AAc?$AAr?$AAt?$AAw?$AA3?$AA2?$AA?2?$AAc?$AAo?$AAn?$AAv?$AAe?$AAr?$AAt@ 10095868     LIBCMTD:strtol.obj
 0002:000198bc       ??_C@_1BA@LOLAMAJG@?$AAs?$AAt?$AAr?$AAt?$AAo?$AAx?$AAl?$AA?$AA@ 100958bc     LIBCMTD:strtol.obj
 0002:000198d0       ??_C@_1FE@CEHLKAHD@?$AAi?$AAb?$AAa?$AAs?$AAe?$AA?5?$AA?$DN?$AA?$DN?$AA?5?$AA0?$AA?5?$AA?$HM?$AA?$HM?$AA?5?$AA?$CI?$AA2?$AA?5?$AA?$DM?$AA?$DN?$AA?5?$AAi?$AAb?$AAa?$AAs?$AAe?$AA?5?$AA?$CG?$AA?$CG?$AA?5?$AAi?$AAb?$AAa@ 100958d0     LIBCMTD:strtol.obj
 0002:00019928       ??_C@_1FA@MCFBMFHP@?$AAf?$AA?3?$AA?2?$AAd?$AAd?$AA?2?$AAv?$AAc?$AAt?$AAo?$AAo?$AAl?$AAs?$AA?2?$AAc?$AAr?$AAt?$AA?2?$AAc?$AAr?$AAt?$AAw?$AA3?$AA2?$AA?2?$AAs?$AAt?$AAd?$AAi?$AAo?$AA?2?$AAf@ 10095928     LIBCMTD:fputwc.obj
 0002:00019978       ??_C@_1O@HJNPHHHB@?$AAf?$AAp?$AAu?$AAt?$AAw?$AAc?$AA?$AA@ 10095978     LIBCMTD:fputwc.obj
 0002:00019988       ??_C@_1FE@GDPLAOMM@?$AAf?$AA?3?$AA?2?$AAd?$AAd?$AA?2?$AAv?$AAc?$AAt?$AAo?$AAo?$AAl?$AAs?$AA?2?$AAc?$AAr?$AAt?$AA?2?$AAc?$AAr?$AAt?$AAw?$AA3?$AA2?$AA?2?$AAc?$AAo?$AAn?$AAv?$AAe?$AAr?$AAt@ 10095988     LIBCMTD:wcstol.obj
 0002:000199dc       ??_C@_1BA@PCFLFGNC@?$AAw?$AAc?$AAs?$AAt?$AAo?$AAx?$AAl?$AA?$AA@ 100959dc     LIBCMTD:wcstol.obj
 0002:000199f0       ??_C@_1FG@DIHJFNHH@?$AAf?$AA?3?$AA?2?$AAd?$AAd?$AA?2?$AAv?$AAc?$AAt?$AAo?$AAo?$AAl?$AAs?$AA?2?$AAc?$AAr?$AAt?$AA?2?$AAc?$AAr?$AAt?$AAw?$AA3?$AA2?$AA?2?$AAh?$AA?2?$AAt?$AAm?$AAa?$AAk?$AAe@ 100959f0     LIBCMTD:wmakepath_s.obj
 0002:00019a48       ??_C@_1BK@KHBCJPCH@?$AA_?$AAw?$AAm?$AAa?$AAk?$AAe?$AAp?$AAa?$AAt?$AAh?$AA_?$AAs?$AA?$AA@ 10095a48     LIBCMTD:wmakepath_s.obj
 0002:00019a64       ??_C@_1CI@MLPLHPBP@?$AA?$CI?$AA?$CI?$AA?$CI?$AA_?$AAP?$AAa?$AAt?$AAh?$AA?$CJ?$AA?$CJ?$AA?$CJ?$AA?5?$AA?$CB?$AA?$DN?$AA?5?$AAN?$AAU?$AAL?$AAL?$AA?$AA@ 10095a64     LIBCMTD:wsplitpath_s.obj
 0002:00019a90       ??_C@_1FI@NIGODNLP@?$AAf?$AA?3?$AA?2?$AAd?$AAd?$AA?2?$AAv?$AAc?$AAt?$AAo?$AAo?$AAl?$AAs?$AA?2?$AAc?$AAr?$AAt?$AA?2?$AAc?$AAr?$AAt?$AAw?$AA3?$AA2?$AA?2?$AAh?$AA?2?$AAt?$AAs?$AAp?$AAl?$AAi@ 10095a90     LIBCMTD:wsplitpath_s.obj
 0002:00019ae8       ??_C@_1BM@OEAFIBCF@?$AA_?$AAw?$AAs?$AAp?$AAl?$AAi?$AAt?$AAp?$AAa?$AAt?$AAh?$AA_?$AAs?$AA?$AA@ 10095ae8     LIBCMTD:wsplitpath_s.obj
 0002:00019b04       ??_C@_1DE@MLEJGPLF@?$AA?$CI?$AAL?$AA?$CC?$AAI?$AAn?$AAv?$AAa?$AAl?$AAi?$AAd?$AA?5?$AAp?$AAa?$AAr?$AAa?$AAm?$AAe?$AAt?$AAe?$AAr?$AA?$CC?$AA?0?$AA?5?$AA0?$AA?$CJ?$AA?$AA@ 10095b04     LIBCMTD:wsplitpath_s.obj
 0002:00019b38       ??_C@_0CI@NOHEOGNG@f?3?2dd?2vctools?2crt?2crtw32?2misc?2in@ 10095b38     LIBCMTD:initmon.obj
 0002:00019b60       ??_C@_1DM@GKAPAMDO@?$AAp?$AAl?$AAo?$AAc?$AAi?$AA?9?$AA?$DO?$AAl?$AAc?$AAo?$AAn?$AAv?$AA_?$AAm?$AAo?$AAn?$AA_?$AAr?$AAe?$AAf?$AAc?$AAo?$AAu?$AAn?$AAt?$AA?5?$AA?$DO?$AA?5?$AA0?$AA?$AA@ 10095b60     LIBCMTD:initmon.obj
 0002:00019ba0       ??_C@_1FA@CNNDGPJL@?$AAf?$AA?3?$AA?2?$AAd?$AAd?$AA?2?$AAv?$AAc?$AAt?$AAo?$AAo?$AAl?$AAs?$AA?2?$AAc?$AAr?$AAt?$AA?2?$AAc?$AAr?$AAt?$AAw?$AA3?$AA2?$AA?2?$AAm?$AAi?$AAs?$AAc?$AA?2?$AAi?$AAn@ 10095ba0     LIBCMTD:initmon.obj
 0002:00019bf0       ??_C@_0CI@GAAFLELF@f?3?2dd?2vctools?2crt?2crtw32?2misc?2in@ 10095bf0     LIBCMTD:initnum.obj
 0002:00019c18       ??_C@_1DM@IFKAINNE@?$AAp?$AAl?$AAo?$AAc?$AAi?$AA?9?$AA?$DO?$AAl?$AAc?$AAo?$AAn?$AAv?$AA_?$AAn?$AAu?$AAm?$AA_?$AAr?$AAe?$AAf?$AAc?$AAo?$AAu?$AAn?$AAt?$AA?5?$AA?$DO?$AA?5?$AA0?$AA?$AA@ 10095c18     LIBCMTD:initnum.obj
 0002:00019c58       ??_C@_1FA@OEEOKLKJ@?$AAf?$AA?3?$AA?2?$AAd?$AAd?$AA?2?$AAv?$AAc?$AAt?$AAo?$AAo?$AAl?$AAs?$AA?2?$AAc?$AAr?$AAt?$AA?2?$AAc?$AAr?$AAt?$AAw?$AA3?$AA2?$AA?2?$AAm?$AAi?$AAs?$AAc?$AA?2?$AAi?$AAn@ 10095c58     LIBCMTD:initnum.obj
 0002:00019ca8       ??_C@_0CJ@HGFGLKBM@f?3?2dd?2vctools?2crt?2crtw32?2misc?2in@ 10095ca8     LIBCMTD:inittime.obj
 0002:00019cd8       ??_C@_1EE@FDHCFDHN@?$AAp?$AAl?$AAo?$AAc?$AAi?$AA?9?$AA?$DO?$AAl?$AAc?$AA_?$AAt?$AAi?$AAm?$AAe?$AA_?$AAc?$AAu?$AAr?$AAr?$AA?9?$AA?$DO?$AAr?$AAe?$AAf?$AAc?$AAo?$AAu?$AAn?$AAt?$AA?5?$AA?$DO?$AA?5@ 10095cd8     LIBCMTD:inittime.obj
 0002:00019d20       ??_C@_1FC@GNPEEAOA@?$AAf?$AA?3?$AA?2?$AAd?$AAd?$AA?2?$AAv?$AAc?$AAt?$AAo?$AAo?$AAl?$AAs?$AA?2?$AAc?$AAr?$AAt?$AA?2?$AAc?$AAr?$AAt?$AAw?$AA3?$AA2?$AA?2?$AAm?$AAi?$AAs?$AAc?$AA?2?$AAi?$AAn@ 10095d20     LIBCMTD:inittime.obj
 0002:00019d78       ___lc_category             10095d78     LIBCMTD:wsetloca.obj
 0002:00019dc0       ??_C@_1O@GIFLHMA@?$AAL?$AAC?$AA_?$AAA?$AAL?$AAL?$AA?$AA@ 10095dc0     LIBCMTD:wsetloca.obj
 0002:00019dd0       ??_C@_1BG@PPOMIBNJ@?$AAL?$AAC?$AA_?$AAC?$AAO?$AAL?$AAL?$AAA?$AAT?$AAE?$AA?$AA@ 10095dd0     LIBCMTD:wsetloca.obj
 0002:00019de8       ??_C@_1BC@FFJGAPJM@?$AAL?$AAC?$AA_?$AAC?$AAT?$AAY?$AAP?$AAE?$AA?$AA@ 10095de8     LIBCMTD:wsetloca.obj
 0002:00019dfc       ??_C@_1BI@PCKFNJFB@?$AAL?$AAC?$AA_?$AAM?$AAO?$AAN?$AAE?$AAT?$AAA?$AAR?$AAY?$AA?$AA@ 10095dfc     LIBCMTD:wsetloca.obj
 0002:00019e14       ??_C@_1BG@ENIEDKID@?$AAL?$AAC?$AA_?$AAN?$AAU?$AAM?$AAE?$AAR?$AAI?$AAC?$AA?$AA@ 10095e14     LIBCMTD:wsetloca.obj
 0002:00019e2c       ??_C@_1BA@HAAOMIIG@?$AAL?$AAC?$AA_?$AAT?$AAI?$AAM?$AAE?$AA?$AA@ 10095e2c     LIBCMTD:wsetloca.obj
 0002:00019ec0       ??_C@_1GA@LDEGDKD@?$AA?$CI?$AA?$CC?$AAI?$AAn?$AAv?$AAa?$AAl?$AAi?$AAd?$AA?5?$AAp?$AAa?$AAr?$AAa?$AAm?$AAe?$AAt?$AAe?$AAr?$AA?5?$AAf?$AAo?$AAr?$AA?5?$AA_?$AAc?$AAo?$AAn?$AAf?$AAi?$AAg?$AAt@ 10095ec0     LIBCMTD:wsetloca.obj
 0002:00019f20       ??_C@_1FC@GFIKBLFA@?$AAf?$AA?3?$AA?2?$AAd?$AAd?$AA?2?$AAv?$AAc?$AAt?$AAo?$AAo?$AAl?$AAs?$AA?2?$AAc?$AAr?$AAt?$AA?2?$AAc?$AAr?$AAt?$AAw?$AA3?$AA2?$AA?2?$AAm?$AAi?$AAs?$AAc?$AA?2?$AAw?$AAs@ 10095f20     LIBCMTD:wsetloca.obj
 0002:00019f74       ??_C@_1CI@FGIONOJM@?$AA_?$AAc?$AAo?$AAn?$AAf?$AAi?$AAg?$AAt?$AAh?$AAr?$AAe?$AAa?$AAd?$AAl?$AAo?$AAc?$AAa?$AAl?$AAe?$AA?$AA@ 10095f74     LIBCMTD:wsetloca.obj
 0002:00019f9c       ??_C@_0CJ@MIILEBP@f?3?2dd?2vctools?2crt?2crtw32?2misc?2ws@ 10095f9c     LIBCMTD:wsetloca.obj
 0002:00019fc8       ??_C@_1FG@OHLFEKMC@?$AAL?$AAC?$AA_?$AAM?$AAI?$AAN?$AA?5?$AA?$DM?$AA?$DN?$AA?5?$AA_?$AAc?$AAa?$AAt?$AAe?$AAg?$AAo?$AAr?$AAy?$AA?5?$AA?$CG?$AA?$CG?$AA?5?$AA_?$AAc?$AAa?$AAt?$AAe?$AAg?$AAo?$AAr?$AAy@ 10095fc8     LIBCMTD:wsetloca.obj
 0002:0001a020       ??_C@_1BI@KJNPAEHL@?$AA_?$AAw?$AAs?$AAe?$AAt?$AAl?$AAo?$AAc?$AAa?$AAl?$AAe?$AA?$AA@ 10096020     LIBCMTD:wsetloca.obj
 0002:0001a038       ??_C@_15NBPDDFIP@?$AA?$DN?$AA?$DL?$AA?$AA@ 10096038     LIBCMTD:wsetloca.obj
 0002:0001a040       ??_C@_13PJJBFPED@?$AA?$DL?$AA?$AA@ 10096040     LIBCMTD:wsetloca.obj
 0002:0001a044       ??_C@_1CG@DKJCBBPP@?$AA_?$AAw?$AAs?$AAe?$AAt?$AAl?$AAo?$AAc?$AAa?$AAl?$AAe?$AA_?$AAn?$AAo?$AAl?$AAo?$AAc?$AAk?$AA?$AA@ 10096044     LIBCMTD:wsetloca.obj
 0002:0001a070       ??_C@_1IA@DGCOPCLP@?$AAw?$AAc?$AAs?$AAn?$AAc?$AAp?$AAy?$AA_?$AAs?$AA?$CI?$AAl?$AAc?$AAt?$AAe?$AAm?$AAp?$AA?0?$AA?5?$AA?$CI?$AAs?$AAi?$AAz?$AAe?$AAo?$AAf?$AA?$CI?$AAl?$AAc?$AAt?$AAe?$AAm?$AAp@ 10096070     LIBCMTD:wsetloca.obj
 0002:0001a0f0       ??_C@_1CI@ODOPEMNJ@?$AA_?$AAw?$AAs?$AAe?$AAt?$AAl?$AAo?$AAc?$AAa?$AAl?$AAe?$AA_?$AAs?$AAe?$AAt?$AA_?$AAc?$AAa?$AAt?$AA?$AA@ 100960f0     LIBCMTD:wsetloca.obj
 0002:0001a118       ??_C@_1EM@MHOCNIAA@?$AAw?$AAc?$AAs?$AAc?$AAp?$AAy?$AA_?$AAs?$AA?$CI?$AAp?$AAc?$AAh?$AA_?$AAc?$AAa?$AAt?$AA_?$AAl?$AAo?$AAc?$AAa?$AAl?$AAe?$AA?0?$AA?5?$AAc?$AAc?$AAh?$AA?0?$AA?5?$AAl?$AAc@ 10096118     LIBCMTD:wsetloca.obj
 0002:0001a164       ??_C@_13NMPKAAJP@?$AA?$DN?$AA?$AA@ 10096164     LIBCMTD:wsetloca.obj
 0002:0001a168       ??_C@_1CI@LKOPFFBD@?$AA_?$AAw?$AAs?$AAe?$AAt?$AAl?$AAo?$AAc?$AAa?$AAl?$AAe?$AA_?$AAg?$AAe?$AAt?$AA_?$AAa?$AAl?$AAl?$AA?$AA@ 10096168     LIBCMTD:wsetloca.obj
 0002:0001a190       ??_C@_1DC@HMLJMODP@?$AAw?$AAc?$AAs?$AAc?$AAa?$AAt?$AA_?$AAs?$AA?$CI?$AAp?$AAc?$AAh?$AA?0?$AA?5?$AAc?$AAc?$AAh?$AA?0?$AA?5?$AAL?$AA?$CC?$AA?$DL?$AA?$CC?$AA?$CJ?$AA?$AA@ 10096190     LIBCMTD:wsetloca.obj
 0002:0001a1c4       ??_C@_1BM@OIIBLEFG@?$AA_?$AAe?$AAx?$AAp?$AAa?$AAn?$AAd?$AAl?$AAo?$AAc?$AAa?$AAl?$AAe?$AA?$AA@ 100961c4     LIBCMTD:wsetloca.obj
 0002:0001a1e0       ??_C@_1BFG@FHLOBJGM@?$AAw?$AAc?$AAs?$AAn?$AAc?$AAp?$AAy?$AA_?$AAs?$AA?$CI?$AAl?$AAo?$AAc?$AAa?$AAl?$AAe?$AAN?$AAa?$AAm?$AAe?$AAO?$AAu?$AAt?$AAp?$AAu?$AAt?$AA?0?$AA?5?$AAl?$AAo?$AAc?$AAa@ 100961e0     LIBCMTD:wsetloca.obj
 0002:0001a338       ??_C@_1EI@OCINLCHN@?$AAw?$AAc?$AAs?$AAc?$AAp?$AAy?$AA_?$AAs?$AA?$CI?$AAo?$AAu?$AAt?$AAp?$AAu?$AAt?$AA?0?$AA?5?$AAs?$AAi?$AAz?$AAe?$AAI?$AAn?$AAC?$AAh?$AAa?$AAr?$AAs?$AA?0?$AA?5?$AAL?$AA?$CC@ 10096338     LIBCMTD:wsetloca.obj
 0002:0001a380       ??_C@_13FHBKNHDA@?$AAC?$AA?$AA@ 10096380     LIBCMTD:wsetloca.obj
 0002:0001a388       ??_C@_1MO@NNCNEOAP@?$AAw?$AAc?$AAs?$AAn?$AAc?$AAp?$AAy?$AA_?$AAs?$AA?$CI?$AAl?$AAo?$AAc?$AAa?$AAl?$AAe?$AAN?$AAa?$AAm?$AAe?$AAO?$AAu?$AAt?$AAp?$AAu?$AAt?$AA?0?$AA?5?$AAl?$AAo?$AAc?$AAa@ 10096388     LIBCMTD:wsetloca.obj
 0002:0001a458       ??_C@_1IG@MKDIEKFD@?$AAw?$AAc?$AAs?$AAn?$AAc?$AAp?$AAy?$AA_?$AAs?$AA?$CI?$AAc?$AAa?$AAc?$AAh?$AAe?$AAo?$AAu?$AAt?$AA?0?$AA?5?$AAc?$AAa?$AAc?$AAh?$AAe?$AAo?$AAu?$AAt?$AAL?$AAe?$AAn?$AA?0@ 10096458     LIBCMTD:wsetloca.obj
 0002:0001a4e0       ??_C@_1KK@KMIFPBBC@?$AAw?$AAc?$AAs?$AAn?$AAc?$AAp?$AAy?$AA_?$AAs?$AA?$CI?$AAl?$AAo?$AAc?$AAa?$AAl?$AAe?$AAN?$AAa?$AAm?$AAe?$AAO?$AAu?$AAt?$AAp?$AAu?$AAt?$AA?0?$AA?5?$AAl?$AAo?$AAc?$AAa@ 100964e0     LIBCMTD:wsetloca.obj
 0002:0001a590       ??_C@_1BEK@OJDMMIMP@?$AAw?$AAc?$AAs?$AAn?$AAc?$AAp?$AAy?$AA_?$AAs?$AA?$CI?$AA_?$AAp?$AAs?$AAe?$AAt?$AAl?$AAo?$AAc?$AA_?$AAd?$AAa?$AAt?$AAa?$AA?9?$AA?$DO?$AA_?$AAc?$AAa?$AAc?$AAh?$AAe?$AAL@ 10096590     LIBCMTD:wsetloca.obj
 0002:0001a6e0       ??_C@_1BGG@FCLLNAOE@?$AAw?$AAc?$AAs?$AAn?$AAc?$AAp?$AAy?$AA_?$AAs?$AA?$CI?$AA_?$AAp?$AAs?$AAe?$AAt?$AAl?$AAo?$AAc?$AA_?$AAd?$AAa?$AAt?$AAa?$AA?9?$AA?$DO?$AA_?$AAc?$AAa?$AAc?$AAh?$AAe?$AAL@ 100966e0     LIBCMTD:wsetloca.obj
 0002:0001a848       ??_C@_1IC@FCCDBGLL@?$AAw?$AAc?$AAs?$AAn?$AAc?$AAp?$AAy?$AA_?$AAs?$AA?$CI?$AAc?$AAa?$AAc?$AAh?$AAe?$AAi?$AAn?$AA?0?$AA?5?$AAc?$AAa?$AAc?$AAh?$AAe?$AAi?$AAn?$AAL?$AAe?$AAn?$AA?0?$AA?5?$AAe@ 10096848     LIBCMTD:wsetloca.obj
 0002:0001a8d0       ??_C@_1FA@HOOAAHFF@?$AAw?$AAc?$AAs?$AAc?$AAp?$AAy?$AA_?$AAs?$AA?$CI?$AAo?$AAu?$AAt?$AAp?$AAu?$AAt?$AA?0?$AA?5?$AAs?$AAi?$AAz?$AAe?$AAI?$AAn?$AAC?$AAh?$AAa?$AAr?$AAs?$AA?0?$AA?5?$AAc?$AAa@ 100968d0     LIBCMTD:wsetloca.obj
 0002:0001a920       ??_C@_1BC@LEOKFFML@?$AA_?$AAw?$AAc?$AAs?$AAc?$AAa?$AAt?$AAs?$AA?$AA@ 10096920     LIBCMTD:wsetloca.obj
 0002:0001a938       ??_C@_1BII@IONPPCCF@?$AAw?$AAc?$AAs?$AAc?$AAa?$AAt?$AA_?$AAs?$AA?$CI?$AAo?$AAu?$AAt?$AAs?$AAt?$AAr?$AA?0?$AA?5?$AAn?$AAu?$AAm?$AAb?$AAe?$AAr?$AAO?$AAf?$AAE?$AAl?$AAe?$AAm?$AAe?$AAn?$AAt@ 10096938     LIBCMTD:wsetloca.obj
 0002:0001aac0       ??_C@_1BK@GNCHCGCN@?$AA_?$AA_?$AAl?$AAc?$AA_?$AAw?$AAc?$AAs?$AAt?$AAo?$AAl?$AAc?$AA?$AA@ 10096ac0     LIBCMTD:wsetloca.obj
 0002:0001aae0       ??_C@_1NI@NELJHJBO@?$AAw?$AAc?$AAs?$AAn?$AAc?$AAp?$AAy?$AA_?$AAs?$AA?$CI?$AAn?$AAa?$AAm?$AAe?$AAs?$AA?9?$AA?$DO?$AAs?$AAz?$AAC?$AAo?$AAd?$AAe?$AAP?$AAa?$AAg?$AAe?$AA?0?$AA?5?$AA?$CI?$AAs?$AAi@ 10096ae0     LIBCMTD:wsetloca.obj
 0002:0001abb8       ??_C@_17MBJJLFDM@?$AA_?$AA?4?$AA?0?$AA?$AA@ 10096bb8     LIBCMTD:wsetloca.obj
 0002:0001abc0       ??_C@_1MO@PBGOIBFL@?$AAw?$AAc?$AAs?$AAn?$AAc?$AAp?$AAy?$AA_?$AAs?$AA?$CI?$AAn?$AAa?$AAm?$AAe?$AAs?$AA?9?$AA?$DO?$AAs?$AAz?$AAL?$AAa?$AAn?$AAg?$AAu?$AAa?$AAg?$AAe?$AA?0?$AA?5?$AA?$CI?$AAs?$AAi@ 10096bc0     LIBCMTD:wsetloca.obj
 0002:0001ac90       ??_C@_1MI@CLMFNAAJ@?$AAw?$AAc?$AAs?$AAn?$AAc?$AAp?$AAy?$AA_?$AAs?$AA?$CI?$AAn?$AAa?$AAm?$AAe?$AAs?$AA?9?$AA?$DO?$AAs?$AAz?$AAC?$AAo?$AAu?$AAn?$AAt?$AAr?$AAy?$AA?0?$AA?5?$AA?$CI?$AAs?$AAi?$AAz@ 10096c90     LIBCMTD:wsetloca.obj
 0002:0001ad58       ??_C@_1MO@NBFBMKCB@?$AAw?$AAc?$AAs?$AAn?$AAc?$AAp?$AAy?$AA_?$AAs?$AA?$CI?$AAn?$AAa?$AAm?$AAe?$AAs?$AA?9?$AA?$DO?$AAs?$AAz?$AAC?$AAo?$AAd?$AAe?$AAP?$AAa?$AAg?$AAe?$AA?0?$AA?5?$AA?$CI?$AAs?$AAi@ 10096d58     LIBCMTD:wsetloca.obj
 0002:0001ae28       ??_C@_1BK@HEBMGPEK@?$AA_?$AA_?$AAl?$AAc?$AA_?$AAl?$AAc?$AAt?$AAo?$AAw?$AAc?$AAs?$AA?$AA@ 10096e28     LIBCMTD:wsetloca.obj
 0002:0001ae48       ??_C@_1GM@FOFMGOEK@?$AAw?$AAc?$AAs?$AAc?$AAp?$AAy?$AA_?$AAs?$AA?$CI?$AAl?$AAo?$AAc?$AAa?$AAl?$AAe?$AA?0?$AA?5?$AAn?$AAu?$AAm?$AAb?$AAe?$AAr?$AAO?$AAf?$AAE?$AAl?$AAe?$AAm?$AAe?$AAn?$AAt@ 10096e48     LIBCMTD:wsetloca.obj
 0002:0001aeb4       ??_C@_13ENNFDPBH@?$AA_?$AA?$AA@ 10096eb4     LIBCMTD:wsetloca.obj
 0002:0001aeb8       ??_C@_13JOFGPIOO@?$AA?4?$AA?$AA@ 10096eb8     LIBCMTD:wsetloca.obj
 0002:0001aebc       ??_C@_1CG@HCGEAFEA@?$AA_?$AA_?$AAc?$AAo?$AAp?$AAy?$AA_?$AAl?$AAo?$AAc?$AAa?$AAl?$AAe?$AA_?$AAn?$AAa?$AAm?$AAe?$AA?$AA@ 10096ebc     LIBCMTD:wsetloca.obj
 0002:0001aee8       ??_C@_1GI@HBNMCKGD@?$AAw?$AAc?$AAs?$AAn?$AAc?$AAp?$AAy?$AA_?$AAs?$AA?$CI?$AAl?$AAo?$AAc?$AAa?$AAl?$AAe?$AAN?$AAa?$AAm?$AAe?$AAC?$AAo?$AAp?$AAy?$AA?0?$AA?5?$AAc?$AAc?$AAh?$AA?$CL?$AA1?$AA?0@ 10096ee8     LIBCMTD:wsetloca.obj
 0002:0001af50       ??_C@_1CA@MBDBOHIB@?$AA_?$AAL?$AAo?$AAc?$AAa?$AAl?$AAe?$AA?5?$AA?$CB?$AA?$DN?$AA?5?$AAN?$AAU?$AAL?$AAL?$AA?$AA@ 10096f50     LIBCMTD:strgtold.obj
 0002:0001af70       ??_C@_1FO@OFJNJPKB@?$AAf?$AA?3?$AA?2?$AAd?$AAd?$AA?2?$AAv?$AAc?$AAt?$AAo?$AAo?$AAl?$AAs?$AA?2?$AAc?$AAr?$AAt?$AA?2?$AAf?$AAp?$AAw?$AA3?$AA2?$AA?2?$AAi?$AAn?$AAc?$AAl?$AAu?$AAd?$AAe?$AA?2@ 10096f70     LIBCMTD:strgtold.obj
 0002:0001afd0       ??_C@_1BO@IHLJHOPI@?$AA_?$AA_?$AAs?$AAt?$AAr?$AAg?$AAt?$AAo?$AAl?$AAd?$AA1?$AA2?$AA_?$AAl?$AA?$AA@ 10096fd0     LIBCMTD:strgtold.obj
 0002:0001aff0       ??_C@_1EO@IKHIJFCK@?$AAf?$AA?3?$AA?2?$AAd?$AAd?$AA?2?$AAv?$AAc?$AAt?$AAo?$AAo?$AAl?$AAs?$AA?2?$AAc?$AAr?$AAt?$AA?2?$AAf?$AAp?$AAw?$AA3?$AA2?$AA?2?$AAc?$AAo?$AAn?$AAv?$AA?2?$AAx?$AA1?$AA0@ 10096ff0     LIBCMTD:x10fout.obj
 0002:0001b040       ??_C@_1BI@ELMAAFLN@?$AA$?$AAI?$AA1?$AA0?$AA_?$AAO?$AAU?$AAT?$AAP?$AAU?$AAT?$AA?$AA@ 10097040     LIBCMTD:x10fout.obj
 0002:0001b058       ??_C@_1EG@CDDBFNOB@?$AAs?$AAt?$AAr?$AAc?$AAp?$AAy?$AA_?$AAs?$AA?$CI?$AAf?$AAo?$AAs?$AA?9?$AA?$DO?$AAm?$AAa?$AAn?$AA?0?$AA?5?$AA2?$AA1?$AA?$CL?$AA1?$AA?0?$AA?5?$AA?$CC?$AA1?$AA?$CD?$AAS?$AAN?$AAA?$AAN@ 10097058     LIBCMTD:x10fout.obj
 0002:0001b0a0       ??_C@_06PGGFOGJG@1?$CDSNAN?$AA@ 100970a0     LIBCMTD:x10fout.obj
 0002:0001b0a8       ??_C@_1EE@MADEBIHF@?$AAs?$AAt?$AAr?$AAc?$AAp?$AAy?$AA_?$AAs?$AA?$CI?$AAf?$AAo?$AAs?$AA?9?$AA?$DO?$AAm?$AAa?$AAn?$AA?0?$AA?5?$AA2?$AA1?$AA?$CL?$AA1?$AA?0?$AA?5?$AA?$CC?$AA1?$AA?$CD?$AAI?$AAN?$AAD?$AA?$CC@ 100970a8     LIBCMTD:x10fout.obj
 0002:0001b0ec       ??_C@_05PHHOCPM@1?$CDIND?$AA@ 100970ec     LIBCMTD:x10fout.obj
 0002:0001b0f8       ??_C@_1EE@ICBBBPAI@?$AAs?$AAt?$AAr?$AAc?$AAp?$AAy?$AA_?$AAs?$AA?$CI?$AAf?$AAo?$AAs?$AA?9?$AA?$DO?$AAm?$AAa?$AAn?$AA?0?$AA?5?$AA2?$AA1?$AA?$CL?$AA1?$AA?0?$AA?5?$AA?$CC?$AA1?$AA?$CD?$AAI?$AAN?$AAF?$AA?$CC@ 100970f8     LIBCMTD:x10fout.obj
 0002:0001b13c       ??_C@_05DNEBIAHO@1?$CDINF?$AA@ 1009713c     LIBCMTD:x10fout.obj
 0002:0001b148       ??_C@_1EG@MCFPJJEM@?$AAs?$AAt?$AAr?$AAc?$AAp?$AAy?$AA_?$AAs?$AA?$CI?$AAf?$AAo?$AAs?$AA?9?$AA?$DO?$AAm?$AAa?$AAn?$AA?0?$AA?5?$AA2?$AA1?$AA?$CL?$AA1?$AA?0?$AA?5?$AA?$CC?$AA1?$AA?$CD?$AAQ?$AAN?$AAA?$AAN@ 10097148     LIBCMTD:x10fout.obj
 0002:0001b190       ??_C@_06IMKFLFPG@1?$CDQNAN?$AA@ 10097190     LIBCMTD:x10fout.obj
 0002:0001b198       ___newctype                10097198     LIBCMTD:ctype.obj
 0002:0001b498       __wctype                   10097498     LIBCMTD:ctype.obj
 0002:0001b6a0       ___newclmap                100976a0     LIBCMTD:ctype.obj
 0002:0001b820       ___newcumap                10097820     LIBCMTD:ctype.obj
 0002:0001b9a0       ?commonFlags@?1??_control87@@9@9 100979a0     LIBCMTD:ieee87.obj
 0002:0001b9a8       ??_C@_1FG@DINMPAPJ@?$AAf?$AA?3?$AA?2?$AAd?$AAd?$AA?2?$AAv?$AAc?$AAt?$AAo?$AAo?$AAl?$AAs?$AA?2?$AAc?$AAr?$AAt?$AA?2?$AAf?$AAp?$AAw?$AA3?$AA2?$AA?2?$AAt?$AAr?$AAa?$AAn?$AA?2?$AAi?$AA3?$AA8@ 100979a8     LIBCMTD:ieee87.obj
 0002:0001ba00       ??_C@_1BO@OFDNCLL@?$AA_?$AAs?$AAe?$AAt?$AA_?$AAc?$AAo?$AAn?$AAt?$AAr?$AAo?$AAl?$AAf?$AAp?$AA?$AA@ 10097a00     LIBCMTD:ieee87.obj
 0002:0001ba20       ??_C@_1GO@OKJGOMCB@?$AA_?$AAc?$AAo?$AAn?$AAt?$AAr?$AAo?$AAl?$AAf?$AAp?$AA_?$AAs?$AA?$CI?$AA?$CI?$AA?$CI?$AAv?$AAo?$AAi?$AAd?$AA?5?$AA?$CK?$AA?$CJ?$AA0?$AA?$CJ?$AA?0?$AA?5?$AAn?$AAe?$AAw?$AAc?$AAt?$AAr@ 10097a20     LIBCMTD:ieee87.obj
 0002:0001ba90       ??_C@_1O@HFEBJM@?$AA_?$AAw?$AAo?$AAp?$AAe?$AAn?$AA?$AA@ 10097a90     LIBCMTD:wopen.obj
 0002:0001baa0       ??_C@_1BO@NAANLDBI@?$AA_?$AAw?$AAs?$AAo?$AAp?$AAe?$AAn?$AA_?$AAh?$AAe?$AAl?$AAp?$AAe?$AAr?$AA?$AA@ 10097aa0     LIBCMTD:wopen.obj
 0002:0001bac0       ??_C@_0M@HHGEPIBF@CreateFile2?$AA@ 10097ac0     LIBCMTD:wopen.obj
 0002:0001bacc       ??_C@_1BO@JMCLMIEA@?$AA_?$AAw?$AAs?$AAo?$AAp?$AAe?$AAn?$AA_?$AAn?$AAo?$AAl?$AAo?$AAc?$AAk?$AA?$AA@ 10097acc     LIBCMTD:wopen.obj
 0002:0001baec       ??_C@_1CG@ICBEBDJJ@?$AA_?$AAg?$AAe?$AAt?$AA_?$AAf?$AAm?$AAo?$AAd?$AAe?$AA?$CI?$AA?$CG?$AAf?$AAm?$AAo?$AAd?$AAe?$AA?$CJ?$AA?$AA@ 10097aec     LIBCMTD:wopen.obj
 0002:0001bb14       ??_C@_1DI@DGKIFCCE@?$AA?$CI?$AA?5?$AA?$CC?$AAI?$AAn?$AAv?$AAa?$AAl?$AAi?$AAd?$AA?5?$AAo?$AAp?$AAe?$AAn?$AA?5?$AAf?$AAl?$AAa?$AAg?$AA?$CC?$AA?5?$AA?0?$AA?5?$AA0?$AA?5?$AA?$CJ?$AA?$AA@ 10097b14     LIBCMTD:wopen.obj
 0002:0001bb4c       ??_C@_1DO@PJLMOANO@?$AA?$CI?$AA?5?$AA?$CC?$AAI?$AAn?$AAv?$AAa?$AAl?$AAi?$AAd?$AA?5?$AAs?$AAh?$AAa?$AAr?$AAi?$AAn?$AAg?$AA?5?$AAf?$AAl?$AAa?$AAg?$AA?$CC?$AA?5?$AA?0?$AA?5?$AA0?$AA?5?$AA?$CJ?$AA?$AA@ 10097b4c     LIBCMTD:wopen.obj
 0002:0001bb90       ??_C@_1HM@GJANBLHJ@?$AA?$CI?$AAo?$AAf?$AAl?$AAa?$AAg?$AA?5?$AA?$CG?$AA?5?$AA?$CI?$AA_?$AAO?$AA_?$AAT?$AAE?$AAX?$AAT?$AA?5?$AA?$HM?$AA?5?$AA_?$AAO?$AA_?$AAW?$AAT?$AAE?$AAX?$AAT?$AA?5?$AA?$HM?$AA?5?$AA_@ 10097b90     LIBCMTD:wopen.obj
 0002:0001bc0c       ??_C@_1CM@IDLMKMPG@?$AA0?$AA?5?$AA?$CG?$AA?$CG?$AA?5?$AA?$CC?$AAI?$AAn?$AAt?$AAe?$AAr?$AAn?$AAa?$AAl?$AA?5?$AAE?$AAr?$AAr?$AAo?$AAr?$AA?$CC?$AA?$AA@ 10097c0c     LIBCMTD:wopen.obj
 0002:0001bc38       ??_C@_1IA@IENOJNJF@?$AA0?$AA?5?$AA?$CG?$AA?$CG?$AA?5?$AA?$CC?$AAO?$AAn?$AAl?$AAy?$AA?5?$AAU?$AAT?$AAF?$AA?9?$AA1?$AA6?$AA?5?$AAl?$AAi?$AAt?$AAt?$AAl?$AAe?$AA?5?$AAe?$AAn?$AAd?$AAi?$AAa?$AAn?$AA?5@ 10097c38     LIBCMTD:wopen.obj
 0002:0001bcb8       ??_C@_1FG@NEKCMHCI@?$AAf?$AA?3?$AA?2?$AAd?$AAd?$AA?2?$AAv?$AAc?$AAt?$AAo?$AAo?$AAl?$AAs?$AA?2?$AAc?$AAr?$AAt?$AA?2?$AAc?$AAr?$AAt?$AAw?$AA3?$AA2?$AA?2?$AAs?$AAt?$AAr?$AAi?$AAn?$AAg?$AA?2@ 10097cb8     LIBCMTD:strnicmp.obj
 0002:0001bd10       ??_C@_1BI@BJLEPLEF@?$AA_?$AAs?$AAt?$AAr?$AAn?$AAi?$AAc?$AAm?$AAp?$AA_?$AAl?$AA?$AA@ 10097d10     LIBCMTD:strnicmp.obj
 0002:0001bd28       ??_C@_1CC@JLPHKJPH@?$AAc?$AAo?$AAu?$AAn?$AAt?$AA?5?$AA?$DM?$AA?$DN?$AA?5?$AAI?$AAN?$AAT?$AA_?$AAM?$AAA?$AAX?$AA?$AA@ 10097d28     LIBCMTD:strnicmp.obj
 0002:0001bd4c       ??_C@_1BE@BHJDFFNA@?$AA_?$AAs?$AAt?$AAr?$AAn?$AAi?$AAc?$AAm?$AAp?$AA?$AA@ 10097d4c     LIBCMTD:strnicmp.obj
 0002:0001bd60       ??_C@_0CJ@JJMAJPPG@f?3?2dd?2vctools?2crt?2crtw32?2misc?2in@ 10097d60     LIBCMTD:initctyp.obj
 0002:0001bd90       ??_C@_1FC@OGCCCEID@?$AAf?$AA?3?$AA?2?$AAd?$AAd?$AA?2?$AAv?$AAc?$AAt?$AAo?$AAo?$AAl?$AAs?$AA?2?$AAc?$AAr?$AAt?$AA?2?$AAc?$AAr?$AAt?$AAw?$AA3?$AA2?$AA?2?$AAm?$AAi?$AAs?$AAc?$AA?2?$AAi?$AAn@ 10097d90     LIBCMTD:initctyp.obj
 0002:0001bde4       ??_C@_1DG@NMBGBDM@?$AAp?$AAl?$AAo?$AAc?$AAi?$AA?9?$AA?$DO?$AAc?$AAt?$AAy?$AAp?$AAe?$AA1?$AA_?$AAr?$AAe?$AAf?$AAc?$AAo?$AAu?$AAn?$AAt?$AA?5?$AA?$DO?$AA?5?$AA0?$AA?$AA@ 10097de4     LIBCMTD:initctyp.obj
 0002:0001be1c       ??_C@_1BA@BALFACEM@?$AAC?$AAO?$AAN?$AAO?$AAU?$AAT?$AA$?$AA?$AA@ 10097e1c     LIBCMTD:initcon.obj
 0002:0001be30       ___rg_language             10097e30     LIBCMTD:getqloc.obj
 0002:0001c13c       ??_C@_1BC@LLOKLNP@?$AAa?$AAm?$AAe?$AAr?$AAi?$AAc?$AAa?$AAn?$AA?$AA@ 1009813c     LIBCMTD:getqloc.obj
 0002:0001c150       ??_C@_1CC@HEIGCDGG@?$AAa?$AAm?$AAe?$AAr?$AAi?$AAc?$AAa?$AAn?$AA?5?$AAe?$AAn?$AAg?$AAl?$AAi?$AAs?$AAh?$AA?$AA@ 10098150     LIBCMTD:getqloc.obj
 0002:0001c174       ??_C@_1CC@IHCNOMIN@?$AAa?$AAm?$AAe?$AAr?$AAi?$AAc?$AAa?$AAn?$AA?9?$AAe?$AAn?$AAg?$AAl?$AAi?$AAs?$AAh?$AA?$AA@ 10098174     LIBCMTD:getqloc.obj
 0002:0001c198       ??_C@_1BG@GKAGPCGG@?$AAa?$AAu?$AAs?$AAt?$AAr?$AAa?$AAl?$AAi?$AAa?$AAn?$AA?$AA@ 10098198     LIBCMTD:getqloc.obj
 0002:0001c1b0       ??_C@_1BA@GMENCENF@?$AAb?$AAe?$AAl?$AAg?$AAi?$AAa?$AAn?$AA?$AA@ 100981b0     LIBCMTD:getqloc.obj
 0002:0001c1c0       ??_C@_1BC@PJMIIAAN@?$AAc?$AAa?$AAn?$AAa?$AAd?$AAi?$AAa?$AAn?$AA?$AA@ 100981c0     LIBCMTD:getqloc.obj
 0002:0001c1d4       ??_C@_17NOIMNFBF@?$AAc?$AAh?$AAh?$AA?$AA@ 100981d4     LIBCMTD:getqloc.obj
 0002:0001c1dc       ??_C@_17GGDALCHA@?$AAc?$AAh?$AAi?$AA?$AA@ 100981dc     LIBCMTD:getqloc.obj
 0002:0001c1e4       ??_C@_1BA@NPNJKIBL@?$AAc?$AAh?$AAi?$AAn?$AAe?$AAs?$AAe?$AA?$AA@ 100981e4     LIBCMTD:getqloc.obj
 0002:0001c1f4       ??_C@_1CC@DINBAMMJ@?$AAc?$AAh?$AAi?$AAn?$AAe?$AAs?$AAe?$AA?9?$AAh?$AAo?$AAn?$AAg?$AAk?$AAo?$AAn?$AAg?$AA?$AA@ 100981f4     LIBCMTD:getqloc.obj
 0002:0001c218       ??_C@_1CG@IOBJPACO@?$AAc?$AAh?$AAi?$AAn?$AAe?$AAs?$AAe?$AA?9?$AAs?$AAi?$AAm?$AAp?$AAl?$AAi?$AAf?$AAi?$AAe?$AAd?$AA?$AA@ 10098218     LIBCMTD:getqloc.obj
 0002:0001c240       ??_C@_1CE@GAJNDCKG@?$AAc?$AAh?$AAi?$AAn?$AAe?$AAs?$AAe?$AA?9?$AAs?$AAi?$AAn?$AAg?$AAa?$AAp?$AAo?$AAr?$AAe?$AA?$AA@ 10098240     LIBCMTD:getqloc.obj
 0002:0001c264       ??_C@_1CI@PAJPIOOD@?$AAc?$AAh?$AAi?$AAn?$AAe?$AAs?$AAe?$AA?9?$AAt?$AAr?$AAa?$AAd?$AAi?$AAt?$AAi?$AAo?$AAn?$AAa?$AAl?$AA?$AA@ 10098264     LIBCMTD:getqloc.obj
 0002:0001c28c       ??_C@_1BM@NILJBMMD@?$AAd?$AAu?$AAt?$AAc?$AAh?$AA?9?$AAb?$AAe?$AAl?$AAg?$AAi?$AAa?$AAn?$AA?$AA@ 1009828c     LIBCMTD:getqloc.obj
 0002:0001c2a8       ??_C@_1CC@OOJPJNEJ@?$AAe?$AAn?$AAg?$AAl?$AAi?$AAs?$AAh?$AA?9?$AAa?$AAm?$AAe?$AAr?$AAi?$AAc?$AAa?$AAn?$AA?$AA@ 100982a8     LIBCMTD:getqloc.obj
 0002:0001c2cc       ??_C@_1BI@IOLFEEM@?$AAe?$AAn?$AAg?$AAl?$AAi?$AAs?$AAh?$AA?9?$AAa?$AAu?$AAs?$AA?$AA@ 100982cc     LIBCMTD:getqloc.obj
 0002:0001c2e4       ??_C@_1BO@HFFNLENJ@?$AAe?$AAn?$AAg?$AAl?$AAi?$AAs?$AAh?$AA?9?$AAb?$AAe?$AAl?$AAi?$AAz?$AAe?$AA?$AA@ 100982e4     LIBCMTD:getqloc.obj
 0002:0001c304       ??_C@_1BI@HAPKJMPO@?$AAe?$AAn?$AAg?$AAl?$AAi?$AAs?$AAh?$AA?9?$AAc?$AAa?$AAn?$AA?$AA@ 10098304     LIBCMTD:getqloc.obj
 0002:0001c31c       ??_C@_1CE@HLNDMIOJ@?$AAe?$AAn?$AAg?$AAl?$AAi?$AAs?$AAh?$AA?9?$AAc?$AAa?$AAr?$AAi?$AAb?$AAb?$AAe?$AAa?$AAn?$AA?$AA@ 1009831c     LIBCMTD:getqloc.obj
 0002:0001c340       ??_C@_1BI@LDHJHHAC@?$AAe?$AAn?$AAg?$AAl?$AAi?$AAs?$AAh?$AA?9?$AAi?$AAr?$AAe?$AA?$AA@ 10098340     LIBCMTD:getqloc.obj
 0002:0001c358       ??_C@_1CA@NJMMCFOC@?$AAe?$AAn?$AAg?$AAl?$AAi?$AAs?$AAh?$AA?9?$AAj?$AAa?$AAm?$AAa?$AAi?$AAc?$AAa?$AA?$AA@ 10098358     LIBCMTD:getqloc.obj
 0002:0001c378       ??_C@_1BG@BHJEBBGG@?$AAe?$AAn?$AAg?$AAl?$AAi?$AAs?$AAh?$AA?9?$AAn?$AAz?$AA?$AA@ 10098378     LIBCMTD:getqloc.obj
 0002:0001c390       ??_C@_1CK@FGOEJJCO@?$AAe?$AAn?$AAg?$AAl?$AAi?$AAs?$AAh?$AA?9?$AAs?$AAo?$AAu?$AAt?$AAh?$AA?5?$AAa?$AAf?$AAr?$AAi?$AAc?$AAa?$AA?$AA@ 10098390     LIBCMTD:getqloc.obj
 0002:0001c3bc       ??_C@_1DE@PDBJPCJ@?$AAe?$AAn?$AAg?$AAl?$AAi?$AAs?$AAh?$AA?9?$AAt?$AAr?$AAi?$AAn?$AAi?$AAd?$AAa?$AAd?$AA?5?$AAy?$AA?5?$AAt?$AAo?$AAb?$AAa?$AAg?$AAo?$AA?$AA@ 100983bc     LIBCMTD:getqloc.obj
 0002:0001c3f0       ??_C@_1BG@JGCANDME@?$AAe?$AAn?$AAg?$AAl?$AAi?$AAs?$AAh?$AA?9?$AAu?$AAk?$AA?$AA@ 100983f0     LIBCMTD:getqloc.obj
 0002:0001c408       ??_C@_1BG@DINKMLE@?$AAe?$AAn?$AAg?$AAl?$AAi?$AAs?$AAh?$AA?9?$AAu?$AAs?$AA?$AA@ 10098408     LIBCMTD:getqloc.obj
 0002:0001c420       ??_C@_1BI@NMFDBHJE@?$AAe?$AAn?$AAg?$AAl?$AAi?$AAs?$AAh?$AA?9?$AAu?$AAs?$AAa?$AA?$AA@ 10098420     LIBCMTD:getqloc.obj
 0002:0001c438       ??_C@_1BO@OIHKJKII@?$AAf?$AAr?$AAe?$AAn?$AAc?$AAh?$AA?9?$AAb?$AAe?$AAl?$AAg?$AAi?$AAa?$AAn?$AA?$AA@ 10098438     LIBCMTD:getqloc.obj
 0002:0001c458       ??_C@_1CA@NKAELJKI@?$AAf?$AAr?$AAe?$AAn?$AAc?$AAh?$AA?9?$AAc?$AAa?$AAn?$AAa?$AAd?$AAi?$AAa?$AAn?$AA?$AA@ 10098458     LIBCMTD:getqloc.obj
 0002:0001c478       ??_C@_1CE@MGKCNLGN@?$AAf?$AAr?$AAe?$AAn?$AAc?$AAh?$AA?9?$AAl?$AAu?$AAx?$AAe?$AAm?$AAb?$AAo?$AAu?$AAr?$AAg?$AA?$AA@ 10098478     LIBCMTD:getqloc.obj
 0002:0001c49c       ??_C@_1BK@CEGEAILM@?$AAf?$AAr?$AAe?$AAn?$AAc?$AAh?$AA?9?$AAs?$AAw?$AAi?$AAs?$AAs?$AA?$AA@ 1009849c     LIBCMTD:getqloc.obj
 0002:0001c4b8       ??_C@_1CA@PAFKEOCC@?$AAg?$AAe?$AAr?$AAm?$AAa?$AAn?$AA?9?$AAa?$AAu?$AAs?$AAt?$AAr?$AAi?$AAa?$AAn?$AA?$AA@ 100984b8     LIBCMTD:getqloc.obj
 0002:0001c4d8       ??_C@_1CI@HCFHGOFD@?$AAg?$AAe?$AAr?$AAm?$AAa?$AAn?$AA?9?$AAl?$AAi?$AAc?$AAh?$AAt?$AAe?$AAn?$AAs?$AAt?$AAe?$AAi?$AAn?$AA?$AA@ 100984d8     LIBCMTD:getqloc.obj
 0002:0001c500       ??_C@_1CE@FEDDNPDG@?$AAg?$AAe?$AAr?$AAm?$AAa?$AAn?$AA?9?$AAl?$AAu?$AAx?$AAe?$AAm?$AAb?$AAo?$AAu?$AAr?$AAg?$AA?$AA@ 10098500     LIBCMTD:getqloc.obj
 0002:0001c524       ??_C@_1BK@LIMINNMN@?$AAg?$AAe?$AAr?$AAm?$AAa?$AAn?$AA?9?$AAs?$AAw?$AAi?$AAs?$AAs?$AA?$AA@ 10098524     LIBCMTD:getqloc.obj
 0002:0001c540       ??_C@_1BM@LGMDBEPD@?$AAi?$AAr?$AAi?$AAs?$AAh?$AA?9?$AAe?$AAn?$AAg?$AAl?$AAi?$AAs?$AAh?$AA?$AA@ 10098540     LIBCMTD:getqloc.obj
 0002:0001c55c       ??_C@_1BM@NNCFBAEE@?$AAi?$AAt?$AAa?$AAl?$AAi?$AAa?$AAn?$AA?9?$AAs?$AAw?$AAi?$AAs?$AAs?$AA?$AA@ 1009855c     LIBCMTD:getqloc.obj
 0002:0001c578       ??_C@_1BE@FEDJNPIB@?$AAn?$AAo?$AAr?$AAw?$AAe?$AAg?$AAi?$AAa?$AAn?$AA?$AA@ 10098578     LIBCMTD:getqloc.obj
 0002:0001c58c       ??_C@_1CC@CILKDEIE@?$AAn?$AAo?$AAr?$AAw?$AAe?$AAg?$AAi?$AAa?$AAn?$AA?9?$AAb?$AAo?$AAk?$AAm?$AAa?$AAl?$AA?$AA@ 1009858c     LIBCMTD:getqloc.obj
 0002:0001c5b0       ??_C@_1CE@DHMMHEPL@?$AAn?$AAo?$AAr?$AAw?$AAe?$AAg?$AAi?$AAa?$AAn?$AA?9?$AAn?$AAy?$AAn?$AAo?$AAr?$AAs?$AAk?$AA?$AA@ 100985b0     LIBCMTD:getqloc.obj
 0002:0001c5d4       ??_C@_1CK@OPNMHECD@?$AAp?$AAo?$AAr?$AAt?$AAu?$AAg?$AAu?$AAe?$AAs?$AAe?$AA?9?$AAb?$AAr?$AAa?$AAz?$AAi?$AAl?$AAi?$AAa?$AAn?$AA?$AA@ 100985d4     LIBCMTD:getqloc.obj
 0002:0001c600       ??_C@_1CE@KEEHCDB@?$AAs?$AAp?$AAa?$AAn?$AAi?$AAs?$AAh?$AA?9?$AAa?$AAr?$AAg?$AAe?$AAn?$AAt?$AAi?$AAn?$AAa?$AA?$AA@ 10098600     LIBCMTD:getqloc.obj
 0002:0001c624       ??_C@_1CA@GIAOLHJD@?$AAs?$AAp?$AAa?$AAn?$AAi?$AAs?$AAh?$AA?9?$AAb?$AAo?$AAl?$AAi?$AAv?$AAi?$AAa?$AA?$AA@ 10098624     LIBCMTD:getqloc.obj
 0002:0001c644       ??_C@_1BM@OJNDFNPD@?$AAs?$AAp?$AAa?$AAn?$AAi?$AAs?$AAh?$AA?9?$AAc?$AAh?$AAi?$AAl?$AAe?$AA?$AA@ 10098644     LIBCMTD:getqloc.obj
 0002:0001c660       ??_C@_1CC@OCOLPALL@?$AAs?$AAp?$AAa?$AAn?$AAi?$AAs?$AAh?$AA?9?$AAc?$AAo?$AAl?$AAo?$AAm?$AAb?$AAi?$AAa?$AA?$AA@ 10098660     LIBCMTD:getqloc.obj
 0002:0001c684       ??_C@_1CG@BPOFMKBB@?$AAs?$AAp?$AAa?$AAn?$AAi?$AAs?$AAh?$AA?9?$AAc?$AAo?$AAs?$AAt?$AAa?$AA?5?$AAr?$AAi?$AAc?$AAa?$AA?$AA@ 10098684     LIBCMTD:getqloc.obj
 0002:0001c6ac       ??_C@_1DG@IGOBAPBB@?$AAs?$AAp?$AAa?$AAn?$AAi?$AAs?$AAh?$AA?9?$AAd?$AAo?$AAm?$AAi?$AAn?$AAi?$AAc?$AAa?$AAn?$AA?5?$AAr?$AAe?$AAp?$AAu?$AAb?$AAl?$AAi?$AAc?$AA?$AA@ 100986ac     LIBCMTD:getqloc.obj
 0002:0001c6e4       ??_C@_1CA@JHAPGEGI@?$AAs?$AAp?$AAa?$AAn?$AAi?$AAs?$AAh?$AA?9?$AAe?$AAc?$AAu?$AAa?$AAd?$AAo?$AAr?$AA?$AA@ 100986e4     LIBCMTD:getqloc.obj
 0002:0001c704       ??_C@_1CI@LAPALJPP@?$AAs?$AAp?$AAa?$AAn?$AAi?$AAs?$AAh?$AA?9?$AAe?$AAl?$AA?5?$AAs?$AAa?$AAl?$AAv?$AAa?$AAd?$AAo?$AAr?$AA?$AA@ 10098704     LIBCMTD:getqloc.obj
 0002:0001c72c       ??_C@_1CE@PDGBOFOM@?$AAs?$AAp?$AAa?$AAn?$AAi?$AAs?$AAh?$AA?9?$AAg?$AAu?$AAa?$AAt?$AAe?$AAm?$AAa?$AAl?$AAa?$AA?$AA@ 1009872c     LIBCMTD:getqloc.obj
 0002:0001c750       ??_C@_1CC@NBEBAODI@?$AAs?$AAp?$AAa?$AAn?$AAi?$AAs?$AAh?$AA?9?$AAh?$AAo?$AAn?$AAd?$AAu?$AAr?$AAa?$AAs?$AA?$AA@ 10098750     LIBCMTD:getqloc.obj
 0002:0001c774       ??_C@_1CA@LLKGHBMF@?$AAs?$AAp?$AAa?$AAn?$AAi?$AAs?$AAh?$AA?9?$AAm?$AAe?$AAx?$AAi?$AAc?$AAa?$AAn?$AA?$AA@ 10098774     LIBCMTD:getqloc.obj
 0002:0001c794       ??_C@_1BO@LKNDOIGD@?$AAs?$AAp?$AAa?$AAn?$AAi?$AAs?$AAh?$AA?9?$AAm?$AAo?$AAd?$AAe?$AAr?$AAn?$AA?$AA@ 10098794     LIBCMTD:getqloc.obj
 0002:0001c7b4       ??_C@_1CE@NMDMOEEB@?$AAs?$AAp?$AAa?$AAn?$AAi?$AAs?$AAh?$AA?9?$AAn?$AAi?$AAc?$AAa?$AAr?$AAa?$AAg?$AAu?$AAa?$AA?$AA@ 100987b4     LIBCMTD:getqloc.obj
 0002:0001c7d8       ??_C@_1BO@LLCBEJGB@?$AAs?$AAp?$AAa?$AAn?$AAi?$AAs?$AAh?$AA?9?$AAp?$AAa?$AAn?$AAa?$AAm?$AAa?$AA?$AA@ 100987d8     LIBCMTD:getqloc.obj
 0002:0001c7f8       ??_C@_1CC@FKPGGIHO@?$AAs?$AAp?$AAa?$AAn?$AAi?$AAs?$AAh?$AA?9?$AAp?$AAa?$AAr?$AAa?$AAg?$AAu?$AAa?$AAy?$AA?$AA@ 100987f8     LIBCMTD:getqloc.obj
 0002:0001c81c       ??_C@_1BK@CDEIHOOP@?$AAs?$AAp?$AAa?$AAn?$AAi?$AAs?$AAh?$AA?9?$AAp?$AAe?$AAr?$AAu?$AA?$AA@ 1009881c     LIBCMTD:getqloc.obj
 0002:0001c838       ??_C@_1CI@GAHAKKGP@?$AAs?$AAp?$AAa?$AAn?$AAi?$AAs?$AAh?$AA?9?$AAp?$AAu?$AAe?$AAr?$AAt?$AAo?$AA?5?$AAr?$AAi?$AAc?$AAo?$AA?$AA@ 10098838     LIBCMTD:getqloc.obj
 0002:0001c860       ??_C@_1CA@NKJBCAGP@?$AAs?$AAp?$AAa?$AAn?$AAi?$AAs?$AAh?$AA?9?$AAu?$AAr?$AAu?$AAg?$AAu?$AAa?$AAy?$AA?$AA@ 10098860     LIBCMTD:getqloc.obj
 0002:0001c880       ??_C@_1CE@ODILCONM@?$AAs?$AAp?$AAa?$AAn?$AAi?$AAs?$AAh?$AA?9?$AAv?$AAe?$AAn?$AAe?$AAz?$AAu?$AAe?$AAl?$AAa?$AA?$AA@ 10098880     LIBCMTD:getqloc.obj
 0002:0001c8a4       ??_C@_1CA@OBNMCGFO@?$AAs?$AAw?$AAe?$AAd?$AAi?$AAs?$AAh?$AA?9?$AAf?$AAi?$AAn?$AAl?$AAa?$AAn?$AAd?$AA?$AA@ 100988a4     LIBCMTD:getqloc.obj
 0002:0001c8c4       ??_C@_1M@PIPDDPPI@?$AAs?$AAw?$AAi?$AAs?$AAs?$AA?$AA@ 100988c4     LIBCMTD:getqloc.obj
 0002:0001c8d0       ??_C@_15GMFIMNFM@?$AAu?$AAs?$AA?$AA@ 100988d0     LIBCMTD:getqloc.obj
 0002:0001c8d8       ??_C@_17HAEBFAGL@?$AAu?$AAs?$AAa?$AA?$AA@ 100988d8     LIBCMTD:getqloc.obj
 0002:0001c8e0       ___rg_country              100988e0     LIBCMTD:getqloc.obj
 0002:0001c9f4       ??_C@_1BA@DPFJEPHB@?$AAa?$AAm?$AAe?$AAr?$AAi?$AAc?$AAa?$AA?$AA@ 100989f4     LIBCMTD:getqloc.obj
 0002:0001ca04       ??_C@_1BA@ELOGGFK@?$AAb?$AAr?$AAi?$AAt?$AAa?$AAi?$AAn?$AA?$AA@ 10098a04     LIBCMTD:getqloc.obj
 0002:0001ca14       ??_C@_1M@GHBGIGDA@?$AAc?$AAh?$AAi?$AAn?$AAa?$AA?$AA@ 10098a14     LIBCMTD:getqloc.obj
 0002:0001ca20       ??_C@_1M@NCHEJOPO@?$AAc?$AAz?$AAe?$AAc?$AAh?$AA?$AA@ 10098a20     LIBCMTD:getqloc.obj
 0002:0001ca2c       ??_C@_1BA@BKPAPBLA@?$AAe?$AAn?$AAg?$AAl?$AAa?$AAn?$AAd?$AA?$AA@ 10098a2c     LIBCMTD:getqloc.obj
 0002:0001ca3c       ??_C@_1BM@HKBCKIPC@?$AAg?$AAr?$AAe?$AAa?$AAt?$AA?5?$AAb?$AAr?$AAi?$AAt?$AAa?$AAi?$AAn?$AA?$AA@ 10098a3c     LIBCMTD:getqloc.obj
 0002:0001ca58       ??_C@_1BA@PPCHPGJB@?$AAh?$AAo?$AAl?$AAl?$AAa?$AAn?$AAd?$AA?$AA@ 10098a58     LIBCMTD:getqloc.obj
 0002:0001ca68       ??_C@_1BE@JBMPEGDG@?$AAh?$AAo?$AAn?$AAg?$AA?9?$AAk?$AAo?$AAn?$AAg?$AA?$AA@ 10098a68     LIBCMTD:getqloc.obj
 0002:0001ca7c       ??_C@_1BI@KOELBBPJ@?$AAn?$AAe?$AAw?$AA?9?$AAz?$AAe?$AAa?$AAl?$AAa?$AAn?$AAd?$AA?$AA@ 10098a7c     LIBCMTD:getqloc.obj
 0002:0001ca94       ??_C@_15HIEBHAIO@?$AAn?$AAz?$AA?$AA@ 10098a94     LIBCMTD:getqloc.obj
 0002:0001ca9c       ??_C@_1BC@CHBCPFPI@?$AAp?$AAr?$AA?5?$AAc?$AAh?$AAi?$AAn?$AAa?$AA?$AA@ 10098a9c     LIBCMTD:getqloc.obj
 0002:0001cab0       ??_C@_1BC@JAOIIFKD@?$AAp?$AAr?$AA?9?$AAc?$AAh?$AAi?$AAn?$AAa?$AA?$AA@ 10098ab0     LIBCMTD:getqloc.obj
 0002:0001cac4       ??_C@_1BI@BEHPPHKC@?$AAp?$AAu?$AAe?$AAr?$AAt?$AAo?$AA?9?$AAr?$AAi?$AAc?$AAo?$AA?$AA@ 10098ac4     LIBCMTD:getqloc.obj
 0002:0001cadc       ??_C@_1O@PAEOFKDI@?$AAs?$AAl?$AAo?$AAv?$AAa?$AAk?$AA?$AA@ 10098adc     LIBCMTD:getqloc.obj
 0002:0001caec       ??_C@_1BK@FIHMCKAM@?$AAs?$AAo?$AAu?$AAt?$AAh?$AA?5?$AAa?$AAf?$AAr?$AAi?$AAc?$AAa?$AA?$AA@ 10098aec     LIBCMTD:getqloc.obj
 0002:0001cb08       ??_C@_1BI@NAEOODKB@?$AAs?$AAo?$AAu?$AAt?$AAh?$AA?5?$AAk?$AAo?$AAr?$AAe?$AAa?$AA?$AA@ 10098b08     LIBCMTD:getqloc.obj
 0002:0001cb20       ??_C@_1BK@FBDGGIFF@?$AAs?$AAo?$AAu?$AAt?$AAh?$AA?9?$AAa?$AAf?$AAr?$AAi?$AAc?$AAa?$AA?$AA@ 10098b20     LIBCMTD:getqloc.obj
 0002:0001cb3c       ??_C@_1BI@GHLEJDPK@?$AAs?$AAo?$AAu?$AAt?$AAh?$AA?9?$AAk?$AAo?$AAr?$AAe?$AAa?$AA?$AA@ 10098b3c     LIBCMTD:getqloc.obj
 0002:0001cb54       ??_C@_1CE@PLHLOMJF@?$AAt?$AAr?$AAi?$AAn?$AAi?$AAd?$AAa?$AAd?$AA?5?$AA?$CG?$AA?5?$AAt?$AAo?$AAb?$AAa?$AAg?$AAo?$AA?$AA@ 10098b54     LIBCMTD:getqloc.obj
 0002:0001cb78       ??_C@_1BO@MODIMHHI@?$AAu?$AAn?$AAi?$AAt?$AAe?$AAd?$AA?9?$AAk?$AAi?$AAn?$AAg?$AAd?$AAo?$AAm?$AA?$AA@ 10098b78     LIBCMTD:getqloc.obj
 0002:0001cb98       ??_C@_1BM@FFHJONBJ@?$AAu?$AAn?$AAi?$AAt?$AAe?$AAd?$AA?9?$AAs?$AAt?$AAa?$AAt?$AAe?$AAs?$AA?$AA@ 10098b98     LIBCMTD:getqloc.obj
 0002:0001cbb4       ___rg_language_count       10098bb4     LIBCMTD:getqloc.obj
 0002:0001cbb8       ___rg_country_count        10098bb8     LIBCMTD:getqloc.obj
 0002:0001cbc0       ??_C@_1FA@KCJCBMIG@?$AAf?$AA?3?$AA?2?$AAd?$AAd?$AA?2?$AAv?$AAc?$AAt?$AAo?$AAo?$AAl?$AAs?$AA?2?$AAc?$AAr?$AAt?$AA?2?$AAc?$AAr?$AAt?$AAw?$AA3?$AA2?$AA?2?$AAm?$AAi?$AAs?$AAc?$AA?2?$AAg?$AAe@ 10098bc0     LIBCMTD:getqloc.obj
 0002:0001cc10       ??_C@_1CO@NJACLALJ@?$AA_?$AA_?$AAg?$AAe?$AAt?$AA_?$AAq?$AAu?$AAa?$AAl?$AAi?$AAf?$AAi?$AAe?$AAd?$AA_?$AAl?$AAo?$AAc?$AAa?$AAl?$AAe?$AA?$AA@ 10098c10     LIBCMTD:getqloc.obj
 0002:0001cc40       ??_C@_1BGM@FCCPEFDE@?$AAw?$AAc?$AAs?$AAn?$AAc?$AAp?$AAy?$AA_?$AAs?$AA?$CI?$AAl?$AAp?$AAO?$AAu?$AAt?$AAS?$AAt?$AAr?$AA?9?$AA?$DO?$AAs?$AAz?$AAL?$AAo?$AAc?$AAa?$AAl?$AAe?$AAN?$AAa?$AAm?$AAe@ 10098c40     LIBCMTD:getqloc.obj
 0002:0001cdac       ??_C@_1CM@OGEMFJNJ@?$AAL?$AAa?$AAn?$AAg?$AAC?$AAo?$AAu?$AAn?$AAt?$AAr?$AAy?$AAE?$AAn?$AAu?$AAm?$AAP?$AAr?$AAo?$AAc?$AAE?$AAx?$AA?$AA@ 10098dac     LIBCMTD:getqloc.obj
 0002:0001cdd8       ??_C@_1BFO@LLJKJAIC@?$AAw?$AAc?$AAs?$AAn?$AAc?$AAp?$AAy?$AA_?$AAs?$AA?$CI?$AA_?$AAp?$AAs?$AAe?$AAt?$AAl?$AAo?$AAc?$AA_?$AAd?$AAa?$AAt?$AAa?$AA?9?$AA?$DO?$AA_?$AAc?$AAa?$AAc?$AAh?$AAe?$AAL@ 10098dd8     LIBCMTD:getqloc.obj
 0002:0001cf38       ??_C@_1CG@PGLLICHO@?$AAL?$AAa?$AAn?$AAg?$AAu?$AAa?$AAg?$AAe?$AAE?$AAn?$AAu?$AAm?$AAP?$AAr?$AAo?$AAc?$AAE?$AAx?$AA?$AA@ 10098f38     LIBCMTD:getqloc.obj
 0002:0001cf60       ??_C@_1DC@CPKFANGP@?$AAG?$AAe?$AAt?$AAL?$AAo?$AAc?$AAa?$AAl?$AAe?$AAN?$AAa?$AAm?$AAe?$AAF?$AAr?$AAo?$AAm?$AAD?$AAe?$AAf?$AAa?$AAu?$AAl?$AAt?$AA?$AA@ 10098f60     LIBCMTD:getqloc.obj
 0002:0001cf98       ??_C@_1BEO@EJBNGKHB@?$AAw?$AAc?$AAs?$AAn?$AAc?$AAp?$AAy?$AA_?$AAs?$AA?$CI?$AA_?$AAp?$AAs?$AAe?$AAt?$AAl?$AAo?$AAc?$AA_?$AAd?$AAa?$AAt?$AAa?$AA?9?$AA?$DO?$AA_?$AAc?$AAa?$AAc?$AAh?$AAe?$AAL@ 10098f98     LIBCMTD:getqloc.obj
 0002:0001d0e8       ??_C@_17DNCLJFIF@?$AAA?$AAC?$AAP?$AA?$AA@ 100990e8     LIBCMTD:getqloc.obj
 0002:0001d0f0       ??_C@_17CIKBIHLH@?$AAO?$AAC?$AAP?$AA?$AA@ 100990f0     LIBCMTD:getqloc.obj
 0002:0001d0f8       ___rglangidNotDefault      100990f8     LIBCMTD:getqloc_downlevel.obj
 0002:0001d110       ??_C@_1FA@FLOICDHO@?$AAf?$AA?3?$AA?2?$AAd?$AAd?$AA?2?$AAv?$AAc?$AAt?$AAo?$AAo?$AAl?$AAs?$AA?2?$AAc?$AAr?$AAt?$AA?2?$AAc?$AAr?$AAt?$AAw?$AA3?$AA2?$AA?2?$AAl?$AAo?$AAw?$AAi?$AAo?$AA?2?$AAc@ 10099110     LIBCMTD:chsize.obj
 0002:0001d160       ??_C@_1BE@MAFDNGED@?$AA_?$AAc?$AAh?$AAs?$AAi?$AAz?$AAe?$AA_?$AAs?$AA?$AA@ 10099160     LIBCMTD:chsize.obj
 0002:0001d174       ??_C@_1BI@GALBKMKE@?$AA?$CI?$AAs?$AAi?$AAz?$AAe?$AA?5?$AA?$DO?$AA?$DN?$AA?5?$AA0?$AA?$CJ?$AA?$AA@ 10099174     LIBCMTD:chsize.obj
 0002:0001d190       ??_C@_1OA@HGPJIFPM@?$AA?$CI?$AA?$CI?$AAm?$AAo?$AAd?$AAe?$AA?5?$AA?$DN?$AA?$DN?$AA?5?$AA_?$AAO?$AA_?$AAT?$AAE?$AAX?$AAT?$AA?$CJ?$AA?5?$AA?$HM?$AA?$HM?$AA?5?$AA?$CI?$AAm?$AAo?$AAd?$AAe?$AA?5?$AA?$DN?$AA?$DN?$AA?5?$AA_@ 10099190     LIBCMTD:setmode.obj
 0002:0001d270       ??_C@_1FC@HBDIADHE@?$AAf?$AA?3?$AA?2?$AAd?$AAd?$AA?2?$AAv?$AAc?$AAt?$AAo?$AAo?$AAl?$AAs?$AA?2?$AAc?$AAr?$AAt?$AA?2?$AAc?$AAr?$AAt?$AAw?$AA3?$AA2?$AA?2?$AAl?$AAo?$AAw?$AAi?$AAo?$AA?2?$AAs@ 10099270     LIBCMTD:setmode.obj
 0002:0001d2c4       ??_C@_1BC@JBGGJDCM@?$AA_?$AAs?$AAe?$AAt?$AAm?$AAo?$AAd?$AAe?$AA?$AA@ 100992c4     LIBCMTD:setmode.obj
 0002:0001d2d8       ??_C@_1IC@NDCJMLB@?$AA?$CI?$AA?$CI?$AAm?$AAo?$AAd?$AAe?$AA?5?$AA?$DN?$AA?$DN?$AA?5?$AA_?$AAO?$AA_?$AAT?$AAE?$AAX?$AAT?$AA?$CJ?$AA?5?$AA?$HM?$AA?$HM?$AA?5?$AA?$CI?$AAm?$AAo?$AAd?$AAe?$AA?5?$AA?$DN?$AA?$DN?$AA?5?$AA_@ 100992d8     LIBCMTD:setmode.obj
 0002:0001d35c       ??_C@_1BG@IEEHLOCL@?$AA_?$AAs?$AAe?$AAt?$AA_?$AAf?$AAm?$AAo?$AAd?$AAe?$AA?$AA@ 1009935c     LIBCMTD:setmode.obj
 0002:0001d374       ??_C@_1CA@GPIGPPFN@?$AA?$CI?$AAp?$AAM?$AAo?$AAd?$AAe?$AA?5?$AA?$CB?$AA?$DN?$AA?5?$AAN?$AAU?$AAL?$AAL?$AA?$CJ?$AA?$AA@ 10099374     LIBCMTD:setmode.obj
 0002:0001d394       ??_C@_1BG@CKGMPOFH@?$AA_?$AAg?$AAe?$AAt?$AA_?$AAf?$AAm?$AAo?$AAd?$AAe?$AA?$AA@ 10099394     LIBCMTD:setmode.obj
 0002:0001d3b0       ??_C@_1FE@JDMNKKN@?$AAf?$AA?3?$AA?2?$AAd?$AAd?$AA?2?$AAv?$AAc?$AAt?$AAo?$AAo?$AAl?$AAs?$AA?2?$AAc?$AAr?$AAt?$AA?2?$AAc?$AAr?$AAt?$AAw?$AA3?$AA2?$AA?2?$AAc?$AAo?$AAn?$AAv?$AAe?$AAr?$AAt@ 100993b0     LIBCMTD:strtoq.obj
 0002:0001d404       ??_C@_1BA@BMMDEPNE@?$AAs?$AAt?$AAr?$AAt?$AAo?$AAx?$AAq?$AA?$AA@ 10099404     LIBCMTD:strtoq.obj
 0002:0001d418       ??_C@_1FE@NDFDLJMJ@?$AAf?$AA?3?$AA?2?$AAd?$AAd?$AA?2?$AAv?$AAc?$AAt?$AAo?$AAo?$AAl?$AAs?$AA?2?$AAc?$AAr?$AAt?$AA?2?$AAc?$AAr?$AAt?$AAw?$AA3?$AA2?$AA?2?$AAs?$AAt?$AAr?$AAi?$AAn?$AAg?$AA?2@ 10099418     LIBCMTD:wcsicmp.obj
 0002:0001d46c       ??_C@_1BG@EELGPCPD@?$AA_?$AAw?$AAc?$AAs?$AAi?$AAc?$AAm?$AAp?$AA_?$AAl?$AA?$AA@ 1009946c     LIBCMTD:wcsicmp.obj
 0002:0001d484       ??_C@_1BC@NHIBDOMC@?$AA_?$AAw?$AAc?$AAs?$AAi?$AAc?$AAm?$AAp?$AA?$AA@ 10099484     LIBCMTD:wcsicmp.obj
 0002:0001d498       ??_C@_1BM@CBACDFHA@?$AAf?$AAi?$AAr?$AAs?$AAt?$AA?5?$AA?$CB?$AA?$DN?$AA?5?$AAN?$AAU?$AAL?$AAL?$AA?$AA@ 10099498     LIBCMTD:wcsnicmp.obj
 0002:0001d4b8       ??_C@_1FG@GGNDOPHP@?$AAf?$AA?3?$AA?2?$AAd?$AAd?$AA?2?$AAv?$AAc?$AAt?$AAo?$AAo?$AAl?$AAs?$AA?2?$AAc?$AAr?$AAt?$AA?2?$AAc?$AAr?$AAt?$AAw?$AA3?$AA2?$AA?2?$AAs?$AAt?$AAr?$AAi?$AAn?$AAg?$AA?2@ 100994b8     LIBCMTD:wcsnicmp.obj
 0002:0001d510       ??_C@_1BI@KLMFNDBC@?$AA_?$AAw?$AAc?$AAs?$AAn?$AAi?$AAc?$AAm?$AAp?$AA_?$AAl?$AA?$AA@ 10099510     LIBCMTD:wcsnicmp.obj
 0002:0001d528       ??_C@_1BK@LKBOPAFJ@?$AAl?$AAa?$AAs?$AAt?$AA?5?$AA?$CB?$AA?$DN?$AA?5?$AAN?$AAU?$AAL?$AAL?$AA?$AA@ 10099528     LIBCMTD:wcsnicmp.obj
 0002:0001d544       ??_C@_1BE@JKOKKFEL@?$AA_?$AAw?$AAc?$AAs?$AAn?$AAi?$AAc?$AAm?$AAp?$AA?$AA@ 10099544     LIBCMTD:wcsnicmp.obj
 0002:0001d558       ??_C@_1FE@DNGHOFOC@?$AAf?$AA?3?$AA?2?$AAd?$AAd?$AA?2?$AAv?$AAc?$AAt?$AAo?$AAo?$AAl?$AAs?$AA?2?$AAc?$AAr?$AAt?$AA?2?$AAc?$AAr?$AAt?$AAw?$AA3?$AA2?$AA?2?$AAc?$AAo?$AAn?$AAv?$AAe?$AAr?$AAt@ 10099558     LIBCMTD:strtod.obj
 0002:0001d5ac       ??_C@_1BE@KFBKGHJC@?$AA_?$AAs?$AAt?$AAr?$AAt?$AAo?$AAd?$AA_?$AAl?$AA?$AA@ 100995ac     LIBCMTD:strtod.obj
 0002:0001d5c0       ??_C@_1FE@IEEFCKDG@?$AAf?$AA?3?$AA?2?$AAd?$AAd?$AA?2?$AAv?$AAc?$AAt?$AAo?$AAo?$AAl?$AAs?$AA?2?$AAc?$AAr?$AAt?$AA?2?$AAc?$AAr?$AAt?$AAw?$AA3?$AA2?$AA?2?$AAc?$AAo?$AAn?$AAv?$AAe?$AAr?$AAt@ 100995c0     LIBCMTD:wcstoq.obj
 0002:0001d614       ??_C@_1BA@FACINJJA@?$AAw?$AAc?$AAs?$AAt?$AAo?$AAx?$AAq?$AA?$AA@ 10099614     LIBCMTD:wcstoq.obj
 0002:0001d624       ??_C@_0CK@CEJCOKEF@f?3?2dd?2vctools?2crt?2crtw32?2convert@ 10099624     LIBCMTD:wcstoq.obj
 0002:0001d650       ??_C@_1FE@LABOBFHJ@?$AAf?$AA?3?$AA?2?$AAd?$AAd?$AA?2?$AAv?$AAc?$AAt?$AAo?$AAo?$AAl?$AAs?$AA?2?$AAc?$AAr?$AAt?$AA?2?$AAc?$AAr?$AAt?$AAw?$AA3?$AA2?$AA?2?$AAc?$AAo?$AAn?$AAv?$AAe?$AAr?$AAt@ 10099650     LIBCMTD:wcstod.obj
 0002:0001d6a4       ??_C@_1BE@CIGDJHAJ@?$AA_?$AAw?$AAc?$AAs?$AAt?$AAo?$AAd?$AA_?$AAl?$AA?$AA@ 100996a4     LIBCMTD:wcstod.obj
 0002:0001d6b8       ??_C@_1CA@JGBKKNCE@?$AA_?$AA_?$AAw?$AAs?$AAt?$AAr?$AAg?$AAt?$AAo?$AAl?$AAd?$AA1?$AA2?$AA_?$AAl?$AA?$AA@ 100996b8     LIBCMTD:wstrgtold.obj
 0002:0001d6d8       __load_config_used         100996d8     LIBCMTD:loadcfg.obj
 0002:0001d7e8       ??_R1A@?0A@EA@exception@std@@8 100997e8     geometry.obj
 0002:0001d804       ??_R3exception@std@@8      10099804     geometry.obj
 0002:0001d814       ??_R2exception@std@@8      10099814     geometry.obj
 0002:0001d81c       ??_R4logic_error@std@@6B@  1009981c     geometry.obj
 0002:0001d830       ??_R3logic_error@std@@8    10099830     geometry.obj
 0002:0001d840       ??_R2logic_error@std@@8    10099840     geometry.obj
 0002:0001d84c       ??_R1A@?0A@EA@logic_error@std@@8 1009984c     geometry.obj
 0002:0001d868       ??_R4invalid_argument@std@@6B@ 10099868     geometry.obj
 0002:0001d87c       ??_R3invalid_argument@std@@8 1009987c     geometry.obj
 0002:0001d88c       ??_R2invalid_argument@std@@8 1009988c     geometry.obj
 0002:0001d89c       ??_R1A@?0A@EA@invalid_argument@std@@8 1009989c     geometry.obj
 0002:0001d8b8       ??_R4out_of_range@std@@6B@ 100998b8     geometry.obj
 0002:0001d8cc       ??_R3out_of_range@std@@8   100998cc     geometry.obj
 0002:0001d8dc       ??_R2out_of_range@std@@8   100998dc     geometry.obj
 0002:0001d8ec       ??_R1A@?0A@EA@out_of_range@std@@8 100998ec     geometry.obj
 0002:0001d908       ??_R4AbstractStrategy@@6B@ 10099908     strategy.obj
 0002:0001d91c       ??_R3AbstractStrategy@@8   1009991c     strategy.obj
 0002:0001d92c       ??_R2AbstractStrategy@@8   1009992c     strategy.obj
 0002:0001d934       ??_R1A@?0A@EA@AbstractStrategy@@8 10099934     strategy.obj
 0002:0001d950       ??_R4SimpleStrategy@@6B@   10099950     strategy.obj
 0002:0001d964       ??_R3SimpleStrategy@@8     10099964     strategy.obj
 0002:0001d974       ??_R2SimpleStrategy@@8     10099974     strategy.obj
 0002:0001d980       ??_R1A@?0A@EA@SimpleStrategy@@8 10099980     strategy.obj
 0002:0001d99c       ??_R4ManagedStrategy@@6B@  1009999c     strategy.obj
 0002:0001d9b0       ??_R3ManagedStrategy@@8    100999b0     strategy.obj
 0002:0001d9c0       ??_R2ManagedStrategy@@8    100999c0     strategy.obj
 0002:0001d9d0       ??_R1A@?0A@EA@ManagedStrategy@@8 100999d0     strategy.obj
 0002:0001d9ec       ??_R4bad_alloc@std@@6B@    100999ec     libcpmtd:xthrow.obj
 0002:0001da00       ??_R3bad_alloc@std@@8      10099a00     libcpmtd:xthrow.obj
 0002:0001da10       ??_R2bad_alloc@std@@8      10099a10     libcpmtd:xthrow.obj
 0002:0001da1c       ??_R1A@?0A@EA@bad_alloc@std@@8 10099a1c     libcpmtd:xthrow.obj
 0002:0001da38       ??_R4length_error@std@@6B@ 10099a38     libcpmtd:xthrow.obj
 0002:0001da4c       ??_R3length_error@std@@8   10099a4c     libcpmtd:xthrow.obj
 0002:0001da5c       ??_R2length_error@std@@8   10099a5c     libcpmtd:xthrow.obj
 0002:0001da6c       ??_R1A@?0A@EA@length_error@std@@8 10099a6c     libcpmtd:xthrow.obj
 0002:0001da88       ??_R4runtime_error@std@@6B@ 10099a88     libcpmtd:xthrow.obj
 0002:0001da9c       ??_R3runtime_error@std@@8  10099a9c     libcpmtd:xthrow.obj
 0002:0001daac       ??_R2runtime_error@std@@8  10099aac     libcpmtd:xthrow.obj
 0002:0001dab8       ??_R1A@?0A@EA@runtime_error@std@@8 10099ab8     libcpmtd:xthrow.obj
 0002:0001dad4       ??_R4overflow_error@std@@6B@ 10099ad4     libcpmtd:xthrow.obj
 0002:0001dae8       ??_R3overflow_error@std@@8 10099ae8     libcpmtd:xthrow.obj
 0002:0001daf8       ??_R2overflow_error@std@@8 10099af8     libcpmtd:xthrow.obj
 0002:0001db08       ??_R1A@?0A@EA@overflow_error@std@@8 10099b08     libcpmtd:xthrow.obj
 0002:0001db24       ??_R4bad_function_call@std@@6B@ 10099b24     libcpmtd:xthrow.obj
 0002:0001db38       ??_R3bad_function_call@std@@8 10099b38     libcpmtd:xthrow.obj
 0002:0001db48       ??_R2bad_function_call@std@@8 10099b48     libcpmtd:xthrow.obj
 0002:0001db54       ??_R1A@?0A@EA@bad_function_call@std@@8 10099b54     libcpmtd:xthrow.obj
 0002:0001db70       ??_R4error_category@std@@6B@ 10099b70     libcpmtd:xthrow.obj
 0002:0001db84       ??_R3error_category@std@@8 10099b84     libcpmtd:xthrow.obj
 0002:0001db94       ??_R2error_category@std@@8 10099b94     libcpmtd:xthrow.obj
 0002:0001db9c       ??_R1A@?0A@EA@error_category@std@@8 10099b9c     libcpmtd:xthrow.obj
 0002:0001dbb8       ??_R4_Generic_error_category@std@@6B@ 10099bb8     libcpmtd:xthrow.obj
 0002:0001dbcc       ??_R3_Generic_error_category@std@@8 10099bcc     libcpmtd:xthrow.obj
 0002:0001dbdc       ??_R2_Generic_error_category@std@@8 10099bdc     libcpmtd:xthrow.obj
 0002:0001dbe8       ??_R1A@?0A@EA@_Generic_error_category@std@@8 10099be8     libcpmtd:xthrow.obj
 0002:0001dc04       ??_R4_Iostream_error_category@std@@6B@ 10099c04     libcpmtd:xthrow.obj
 0002:0001dc18       ??_R3_Iostream_error_category@std@@8 10099c18     libcpmtd:xthrow.obj
 0002:0001dc28       ??_R2_Iostream_error_category@std@@8 10099c28     libcpmtd:xthrow.obj
 0002:0001dc38       ??_R1A@?0A@EA@_Iostream_error_category@std@@8 10099c38     libcpmtd:xthrow.obj
 0002:0001dc54       ??_R4_System_error_category@std@@6B@ 10099c54     libcpmtd:xthrow.obj
 0002:0001dc68       ??_R3_System_error_category@std@@8 10099c68     libcpmtd:xthrow.obj
 0002:0001dc78       ??_R2_System_error_category@std@@8 10099c78     libcpmtd:xthrow.obj
 0002:0001dc88       ??_R1A@?0A@EA@_System_error_category@std@@8 10099c88     libcpmtd:xthrow.obj
 0002:0001dca4       ??_R4regex_error@std@@6B@  10099ca4     libcpmtd:xthrow.obj
 0002:0001dcb8       ??_R3regex_error@std@@8    10099cb8     libcpmtd:xthrow.obj
 0002:0001dcc8       ??_R2regex_error@std@@8    10099cc8     libcpmtd:xthrow.obj
 0002:0001dcd8       ??_R1A@?0A@EA@regex_error@std@@8 10099cd8     libcpmtd:xthrow.obj
 0002:0001dcf4       ??_R4exception@std@@6B@    10099cf4     LIBCMTD:stdexcpt.obj
 0002:0001dd08       ??_R4bad_cast@std@@6B@     10099d08     LIBCMTD:stdexcpt.obj
 0002:0001dd1c       ??_R3bad_cast@std@@8       10099d1c     LIBCMTD:stdexcpt.obj
 0002:0001dd2c       ??_R2bad_cast@std@@8       10099d2c     LIBCMTD:stdexcpt.obj
 0002:0001dd38       ??_R1A@?0A@EA@bad_cast@std@@8 10099d38     LIBCMTD:stdexcpt.obj
 0002:0001dd54       ??_R4bad_typeid@std@@6B@   10099d54     LIBCMTD:stdexcpt.obj
 0002:0001dd68       ??_R3bad_typeid@std@@8     10099d68     LIBCMTD:stdexcpt.obj
 0002:0001dd78       ??_R2bad_typeid@std@@8     10099d78     LIBCMTD:stdexcpt.obj
 0002:0001dd84       ??_R1A@?0A@EA@bad_typeid@std@@8 10099d84     LIBCMTD:stdexcpt.obj
 0002:0001dda0       ??_R4__non_rtti_object@std@@6B@ 10099da0     LIBCMTD:stdexcpt.obj
 0002:0001ddb4       ??_R3__non_rtti_object@std@@8 10099db4     LIBCMTD:stdexcpt.obj
 0002:0001ddc4       ??_R2__non_rtti_object@std@@8 10099dc4     LIBCMTD:stdexcpt.obj
 0002:0001ddd4       ??_R1A@?0A@EA@__non_rtti_object@std@@8 10099dd4     LIBCMTD:stdexcpt.obj
 0002:0001ddf0       ??_R4type_info@@6B@        10099df0     LIBCMTD:typinfo.obj
 0002:0001de04       ??_R3type_info@@8          10099e04     LIBCMTD:typinfo.obj
 0002:0001de14       ??_R2type_info@@8          10099e14     LIBCMTD:typinfo.obj
 0002:0001de1c       ??_R1A@?0A@EA@type_info@@8 10099e1c     LIBCMTD:typinfo.obj
 0002:0001de38       ??_R4bad_exception@std@@6B@ 10099e38     LIBCMTD:frame.obj
 0002:0001de4c       ??_R3bad_exception@std@@8  10099e4c     LIBCMTD:frame.obj
 0002:0001de5c       ??_R2bad_exception@std@@8  10099e5c     LIBCMTD:frame.obj
 0002:0001de68       ??_R1A@?0A@EA@bad_exception@std@@8 10099e68     LIBCMTD:frame.obj
 0002:0001de84       ??_R4DNameNode@@6B@        10099e84     LIBCMTD:undname.obj
 0002:0001de98       ??_R3DNameNode@@8          10099e98     LIBCMTD:undname.obj
 0002:0001dea8       ??_R2DNameNode@@8          10099ea8     LIBCMTD:undname.obj
 0002:0001deb0       ??_R1A@?0A@EA@DNameNode@@8 10099eb0     LIBCMTD:undname.obj
 0002:0001decc       ??_R4charNode@@6B@         10099ecc     LIBCMTD:undname.obj
 0002:0001dee0       ??_R3charNode@@8           10099ee0     LIBCMTD:undname.obj
 0002:0001def0       ??_R2charNode@@8           10099ef0     LIBCMTD:undname.obj
 0002:0001defc       ??_R1A@?0A@EA@charNode@@8  10099efc     LIBCMTD:undname.obj
 0002:0001df18       ??_R4pcharNode@@6B@        10099f18     LIBCMTD:undname.obj
 0002:0001df2c       ??_R3pcharNode@@8          10099f2c     LIBCMTD:undname.obj
 0002:0001df3c       ??_R2pcharNode@@8          10099f3c     LIBCMTD:undname.obj
 0002:0001df48       ??_R1A@?0A@EA@pcharNode@@8 10099f48     LIBCMTD:undname.obj
 0002:0001df64       ??_R4pDNameNode@@6B@       10099f64     LIBCMTD:undname.obj
 0002:0001df78       ??_R3pDNameNode@@8         10099f78     LIBCMTD:undname.obj
 0002:0001df88       ??_R2pDNameNode@@8         10099f88     LIBCMTD:undname.obj
 0002:0001df94       ??_R1A@?0A@EA@pDNameNode@@8 10099f94     LIBCMTD:undname.obj
 0002:0001dfb0       ??_R4DNameStatusNode@@6B@  10099fb0     LIBCMTD:undname.obj
 0002:0001dfc4       ??_R3DNameStatusNode@@8    10099fc4     LIBCMTD:undname.obj
 0002:0001dfd4       ??_R2DNameStatusNode@@8    10099fd4     LIBCMTD:undname.obj
 0002:0001dfe0       ??_R1A@?0A@EA@DNameStatusNode@@8 10099fe0     LIBCMTD:undname.obj
 0002:0001dffc       ??_R4pairNode@@6B@         10099ffc     LIBCMTD:undname.obj
 0002:0001e010       ??_R3pairNode@@8           1009a010     LIBCMTD:undname.obj
 0002:0001e020       ??_R2pairNode@@8           1009a020     LIBCMTD:undname.obj
 0002:0001e02c       ??_R1A@?0A@EA@pairNode@@8  1009a02c     LIBCMTD:undname.obj
 0002:0001e048       ___rtc_iaa                 1009a048     LIBCMTD:initsect.obj
 0002:0001e07c       ___rtc_izz                 1009a07c     LIBCMTD:initsect.obj
 0002:0001e080       ___rtc_taa                 1009a080     LIBCMTD:initsect.obj
 0002:0001e0b4       ___rtc_tzz                 1009a0b4     LIBCMTD:initsect.obj
 0002:0001ec10       __TI3?AVout_of_range@std@@ 1009ac10     geometry.obj
 0002:0001ec20       __CTA3?AVout_of_range@std@@ 1009ac20     geometry.obj
 0002:0001ec30       __CT??_R0?AVout_of_range@std@@@8??0out_of_range@std@@QAE@ABV01@@Z12 1009ac30     geometry.obj
 0002:0001ec4c       __CT??_R0?AVlogic_error@std@@@8??0logic_error@std@@QAE@ABV01@@Z12 1009ac4c     geometry.obj
 0002:0001ec68       __CT??_R0?AVexception@std@@@8??0exception@std@@QAE@ABV01@@Z12 1009ac68     geometry.obj
 0002:0001ec84       __TI3?AVinvalid_argument@std@@ 1009ac84     geometry.obj
 0002:0001ec94       __CTA3?AVinvalid_argument@std@@ 1009ac94     geometry.obj
 0002:0001eca4       __CT??_R0?AVinvalid_argument@std@@@8??0invalid_argument@std@@QAE@ABV01@@Z12 1009aca4     geometry.obj
 0002:0001ef5c       __TI2?AVbad_alloc@std@@    1009af5c     libcpmtd:xthrow.obj
 0002:0001ef6c       __CTA2?AVbad_alloc@std@@   1009af6c     libcpmtd:xthrow.obj
 0002:0001ef78       __CT??_R0?AVbad_alloc@std@@@8??0bad_alloc@std@@QAE@ABV01@@Z12 1009af78     libcpmtd:xthrow.obj
 0002:0001ef94       __TI3?AVlength_error@std@@ 1009af94     libcpmtd:xthrow.obj
 0002:0001efa4       __CTA3?AVlength_error@std@@ 1009afa4     libcpmtd:xthrow.obj
 0002:0001efb4       __CT??_R0?AVlength_error@std@@@8??0length_error@std@@QAE@ABV01@@Z12 1009afb4     libcpmtd:xthrow.obj
 0002:0001efd0       __TI3?AVoverflow_error@std@@ 1009afd0     libcpmtd:xthrow.obj
 0002:0001efe0       __CTA3?AVoverflow_error@std@@ 1009afe0     libcpmtd:xthrow.obj
 0002:0001eff0       __CT??_R0?AVoverflow_error@std@@@8??0overflow_error@std@@QAE@ABV01@@Z12 1009aff0     libcpmtd:xthrow.obj
 0002:0001f00c       __CT??_R0?AVruntime_error@std@@@8??0runtime_error@std@@QAE@ABV01@@Z12 1009b00c     libcpmtd:xthrow.obj
 0002:0001f028       __TI2?AVruntime_error@std@@ 1009b028     libcpmtd:xthrow.obj
 0002:0001f038       __CTA2?AVruntime_error@std@@ 1009b038     libcpmtd:xthrow.obj
 0002:0001f044       __TI2?AVbad_function_call@std@@ 1009b044     libcpmtd:xthrow.obj
 0002:0001f054       __CTA2?AVbad_function_call@std@@ 1009b054     libcpmtd:xthrow.obj
 0002:0001f060       __CT??_R0?AVbad_function_call@std@@@8??0bad_function_call@std@@QAE@ABV01@@Z12 1009b060     libcpmtd:xthrow.obj
 0002:0001f07c       __TI3?AVregex_error@std@@  1009b07c     libcpmtd:xthrow.obj
 0002:0001f08c       __CTA3?AVregex_error@std@@ 1009b08c     libcpmtd:xthrow.obj
 0002:0001f09c       __CT??_R0?AVregex_error@std@@@8??0regex_error@std@@QAE@ABV01@@Z16 1009b09c     libcpmtd:xthrow.obj
 0002:0001f6d4       __TI2?AVbad_exception@std@@ 1009b6d4     LIBCMTD:frame.obj
 0002:0001f6e4       __CTA2?AVbad_exception@std@@ 1009b6e4     LIBCMTD:frame.obj
 0002:0001f6f0       __CT??_R0?AVbad_exception@std@@@8??0bad_exception@std@@QAE@ABV01@@Z12 1009b6f0     LIBCMTD:frame.obj
 0002:0001fd98       __IMPORT_DESCRIPTOR_tgf    1009bd98     tgf:tgf.dll
 0002:0001fdac       __IMPORT_DESCRIPTOR_robottools 1009bdac     robottools:robottools.dll
 0002:0001fdc0       __IMPORT_DESCRIPTOR_learning 1009bdc0     learning:learning.dll
 0002:0001fdd4       __IMPORT_DESCRIPTOR_KERNEL32 1009bdd4     kernel32:KERNEL32.dll
 0002:0001fde8       __NULL_IMPORT_DESCRIPTOR   1009bde8     tgf:tgf.dll
 0003:00000050       ?_sgdGravity@@3PANA        1009d050     sg_vs2008_32:sgd.obj
 0003:00000080       __half                     1009d080     LIBCMTD:pow.obj
 0003:000000f4       __fltused                  1009d0f4     LIBCMTD:fpinit.obj
 0003:000000f8       __ldused                   1009d0f8     LIBCMTD:fpinit.obj
 0003:00000118       ___security_cookie         1009d118     LIBCMTD:gs_cookie.obj
 0003:0000011c       ___security_cookie_complement 1009d11c     LIBCMTD:gs_cookie.obj
 0003:00000138       __iob                      1009d138     LIBCMTD:_file.obj
 0003:00000520       __d_inf                    1009d520     LIBCMTD:util.obj
 0003:00000528       __d_ind                    1009d528     LIBCMTD:util.obj
 0003:00000530       __d_max                    1009d530     LIBCMTD:util.obj
 0003:00000538       __d_min                    1009d538     LIBCMTD:util.obj
 0003:00000540       __d_mzero                  1009d540     LIBCMTD:util.obj
 0003:0000064c       ___abort_behavior          1009d64c     LIBCMTD:abort.obj
 0003:00000650       ?_RTC_ErrorLevels@@3PAHA   1009d650     LIBCMTD:error.obj
 0003:00000664       __cfltcvt_tab              1009d664     LIBCMTD:cmiscdat.obj
 0003:0000068c       __crtBreakAlloc            1009d68c     LIBCMTD:dbgheap.obj
 0003:00000690       ___crtDebugFillThreshold   1009d690     LIBCMTD:dbgheap.obj
 0003:00000694       __crtDbgFlag               1009d694     LIBCMTD:dbgheap.obj
 0003:000006a0       ___flsindex                1009d6a0     LIBCMTD:tidtable.obj
 0003:000006b0       __pfnAllocHook             1009d6b0     LIBCMTD:dbghook.obj
 0003:00000830       ___nullstring              1009d830     LIBCMTD:output.obj
 0003:00000834       ___wnullstring             1009d834     LIBCMTD:output.obj
 0003:00000838       ___badioinfo               1009d838     LIBCMTD:ioinit.obj
 0003:00000880       ___isa_enabled             1009d880     LIBCMTD:cpu_disp.obj
 0003:00000884       __CrtDbgMode               1009d884     LIBCMTD:dbgrptt.obj
 0003:00000890       __CrtDbgFile               1009d890     LIBCMTD:dbgrptt.obj
 0003:0000089c       __crtAssertBusy            1009d89c     LIBCMTD:dbgrptt.obj
 0003:000008a0       __lookuptrailbytes         1009d8a0     LIBCMTD:read.obj
 0003:000009b0       __mbctype                  1009d9b0     LIBCMTD:mbctype.obj
 0003:00000ab8       __mbcasemap                1009dab8     LIBCMTD:mbctype.obj
 0003:00000bb8       ___initialmbcinfo          1009dbb8     LIBCMTD:mbctype.obj
 0003:00000ddc       ___ptmbcinfo               1009dddc     LIBCMTD:mbctype.obj
 0003:00000ed0       __matherr_flag             1009ded0     LIBCMTD:matherr.obj
 0003:00000ef0       ___mb_cur_max              1009def0     LIBCMTD:nlsdata.obj
 0003:00000ef4       ___wclocalestr             1009def4     LIBCMTD:nlsdata.obj
 0003:00000ef8       ___lc_time_c               1009def8     LIBCMTD:nlsdata.obj
 0003:0000105c       ___ptlocinfo               1009e05c     LIBCMTD:nlsdata.obj
 0003:00001060       ___initiallocinfo          1009e060     LIBCMTD:nlsdata.obj
 0003:00001118       ___initiallocalestructinfo 1009e118     LIBCMTD:nlsdata.obj
 0003:00001120       ___globallocalestatus      1009e120     LIBCMTD:glstatus.obj
 0003:00001130       __NLG_Destination          1009e130     LIBCMTD:exsup.obj
 0003:00001140       ___lconv                   1009e140     LIBCMTD:lconv.obj
 0003:00001144       ___lconv_static_decimal    1009e144     LIBCMTD:lconv.obj
 0003:00001148       ___lconv_c                 1009e148     LIBCMTD:lconv.obj
 0003:00001198       ___lconv_static_W_decimal  1009e198     LIBCMTD:lconv.obj
 0003:000011d0       __pctype                   1009e1d0     LIBCMTD:ctype.obj
 0003:000011d4       __pwctype                  1009e1d4     LIBCMTD:ctype.obj
 0003:000011e0       __confh                    1009e1e0     LIBCMTD:initcon.obj
 0003:000011e8       __pow10pos                 1009e1e8     LIBCMTD:constpow.obj
 0003:00001348       __pow10neg                 1009e348     LIBCMTD:constpow.obj
 0003:000014b0       __HUGE                     1009e4b0     LIBCMTD:huge.obj
 0003:000014b8       ??_R0?AVout_of_range@std@@@8 1009e4b8     geometry.obj
 0003:000014d8       ??_R0?AVlogic_error@std@@@8 1009e4d8     geometry.obj
 0003:000014f8       ??_R0?AVexception@std@@@8  1009e4f8     geometry.obj
 0003:00001514       ??_R0?AVinvalid_argument@std@@@8 1009e514     geometry.obj
 0003:00001538       ??_R0?AVAbstractStrategy@@@8 1009e538     strategy.obj
 0003:00001558       ??_R0?AVSimpleStrategy@@@8 1009e558     strategy.obj
 0003:00001578       ??_R0?AVManagedStrategy@@@8 1009e578     strategy.obj
 0003:00001598       ??_R0?AVbad_alloc@std@@@8  1009e598     libcpmtd:xthrow.obj
 0003:000015b4       ??_R0?AVlength_error@std@@@8 1009e5b4     libcpmtd:xthrow.obj
 0003:000015d4       ??_R0?AVoverflow_error@std@@@8 1009e5d4     libcpmtd:xthrow.obj
 0003:000015f8       ??_R0?AVruntime_error@std@@@8 1009e5f8     libcpmtd:xthrow.obj
 0003:00001618       ??_R0?AVbad_function_call@std@@@8 1009e618     libcpmtd:xthrow.obj
 0003:0000163c       ??_R0?AVregex_error@std@@@8 1009e63c     libcpmtd:xthrow.obj
 0003:0000165c       ??_R0?AVerror_category@std@@@8 1009e65c     libcpmtd:xthrow.obj
 0003:00001680       ??_R0?AV_Generic_error_category@std@@@8 1009e680     libcpmtd:xthrow.obj
 0003:000016ac       ??_R0?AV_Iostream_error_category@std@@@8 1009e6ac     libcpmtd:xthrow.obj
 0003:000016d8       ??_R0?AV_System_error_category@std@@@8 1009e6d8     libcpmtd:xthrow.obj
 0003:00001704       ??_R0?AVbad_cast@std@@@8   1009e704     LIBCMTD:stdexcpt.obj
 0003:00001720       ??_R0?AVbad_typeid@std@@@8 1009e720     LIBCMTD:stdexcpt.obj
 0003:00001740       ??_R0?AV__non_rtti_object@std@@@8 1009e740     LIBCMTD:stdexcpt.obj
 0003:00001764       ??_R0?AVtype_info@@@8      1009e764     LIBCMTD:typinfo.obj
 0003:0000177c       ??_R0?AVbad_exception@std@@@8 1009e77c     LIBCMTD:frame.obj
 0003:0000179c       ??_R0?AVDNameNode@@@8      1009e79c     LIBCMTD:undname.obj
 0003:000017b4       ??_R0?AVcharNode@@@8       1009e7b4     LIBCMTD:undname.obj
 0003:000017cc       ??_R0?AVpcharNode@@@8      1009e7cc     LIBCMTD:undname.obj
 0003:000017e4       ??_R0?AVpDNameNode@@@8     1009e7e4     LIBCMTD:undname.obj
 0003:00001800       ??_R0?AVDNameStatusNode@@@8 1009e800     LIBCMTD:undname.obj
 0003:00001820       ??_R0?AVpairNode@@@8       1009e820     LIBCMTD:undname.obj
 0003:00001840       ?cardata@Driver@@1PAVCardata@@A 1009e840     driver.obj
 0003:00001848       ?currentsimtime@Driver@@1NA 1009e848     driver.obj
 0003:00001854       ?MAX_UNSTUCK_ANGLE@Driver@@1MB 1009e854     driver.obj
 0003:00001888       ?track@Opponent@@0PAUtTrack@@A 1009e888     opponent.obj
 0003:00001d0c       ?_Generic_object@?$_Error_objects@H@std@@2V_Generic_error_category@2@A 1009ed0c     libcpmtd:xthrow.obj
 0003:00001d10       ?_Iostream_object@?$_Error_objects@H@std@@2V_Iostream_error_category@2@A 1009ed10     libcpmtd:xthrow.obj
 0003:00001d14       ?_System_object@?$_Error_objects@H@std@@2V_System_error_category@2@A 1009ed14     libcpmtd:xthrow.obj
 0003:00001d18       ?id@?$num_put@DV?$back_insert_iterator@V?$basic_string@DU?$char_traits@D@std@@V?$allocator@D@2@@std@@@std@@@std@@2V0locale@2@A 1009ed18     libcpmtd:xthrow.obj
 0003:00001d1c       ?id@?$num_put@_WV?$back_insert_iterator@V?$basic_string@_WU?$char_traits@_W@std@@V?$allocator@_W@2@@std@@@std@@@std@@2V0locale@2@A 1009ed1c     libcpmtd:xthrow.obj
 0003:00001d20       ?id@?$numpunct@D@std@@2V0locale@2@A 1009ed20     libcpmtd:xthrow.obj
 0003:00001d24       ?id@?$numpunct@_W@std@@2V0locale@2@A 1009ed24     libcpmtd:xthrow.obj
 0003:00001d2c       ___fastflag                1009ed2c     LIBCMTD:fpinit.obj
 0003:00001d30       ___pInvalidArgHandler      1009ed30     LIBCMTD:invarg.obj
 0003:00001d38       __cflush                   1009ed38     LIBCMTD:_file.obj
 0003:00001d4c       __aenvptr                  1009ed4c     LIBCMTD:dllcrt0.obj
 0003:00001d50       __wenvptr                  1009ed50     LIBCMTD:dllcrt0.obj
 0003:00001d54       __umaskval                 1009ed54     LIBCMTD:crt0dat.obj
 0003:00001d58       __exitflag                 1009ed58     LIBCMTD:crt0dat.obj
 0003:00001d5c       __C_Termination_Done       1009ed5c     LIBCMTD:crt0dat.obj
 0003:00001d60       ___winitenv                1009ed60     LIBCMTD:crt0dat.obj
 0003:00001d64       ___initenv                 1009ed64     LIBCMTD:crt0dat.obj
 0003:00001d68       ___argc                    1009ed68     LIBCMTD:crt0dat.obj
 0003:00001d6c       ___argv                    1009ed6c     LIBCMTD:crt0dat.obj
 0003:00001d70       ___wargv                   1009ed70     LIBCMTD:crt0dat.obj
 0003:00001d74       __environ                  1009ed74     LIBCMTD:crt0dat.obj
 0003:00001d78       __wenviron                 1009ed78     LIBCMTD:crt0dat.obj
 0003:00001d7c       __pgmptr                   1009ed7c     LIBCMTD:crt0dat.obj
 0003:00001d80       __wpgmptr                  1009ed80     LIBCMTD:crt0dat.obj
 0003:00001d84       __C_Exit_Done              1009ed84     LIBCMTD:crt0dat.obj
 0003:00002210       ___error_mode              1009f210     LIBCMTD:errmode.obj
 0003:00002240       ___app_type                1009f240     LIBCMTD:crt0msg.obj
 0003:00002870       ?wsprintffp@@3P6AHPADPBDZZA 1009f870     LIBCMTD:error.obj
 0003:0000287c       ?_pnhHeap@@3P6AHI@ZA       1009f87c     LIBCMTD:handler.obj
 0003:00002880       ___crtDebugCheckCount      1009f880     LIBCMTD:dbgheap.obj
 0003:00002888       ?_pfnDumpClient@@3P6AXPAXI@ZA 1009f888     LIBCMTD:dbgheap.obj
 0003:000028a4       ?__pInconsistency@@3P6AXXZA 1009f8a4     LIBCMTD:hooks.obj
 0003:000028a8       ?g_OutOfMemoryExceptionCallback@@3P6GPAXXZA 1009f8a8     LIBCMTD:frame.obj
 0003:000028ac       __stdbuf                   1009f8ac     LIBCMTD:_sftbuf.obj
 0003:000028b8       ___pioinfo                 1009f8b8     LIBCMTD:ioinit.obj
 0003:000029b8       ___isa_available           1009f9b8     LIBCMTD:cpu_disp.obj
 0003:000029bc       ___favor                   1009f9bc     LIBCMTD:cpu_disp.obj
 0003:000029c0       __newmode                  1009f9c0     LIBCMTD:_newmode.obj
 0003:000029cc       ___pPurecall               1009f9cc     LIBCMTD:inithelp.obj
 0003:000029d4       __crtheap                  1009f9d4     LIBCMTD:heapinit.obj
 0003:00002ae4       ___mbcodepage              1009fae4     LIBCMTD:mbctype.obj
 0003:00002ae8       ___ismbcodepage            1009fae8     LIBCMTD:mbctype.obj
 0003:00002aec       ___mbulinfo                1009faec     LIBCMTD:mbctype.obj
 0003:00002af8       ___mblocalename            1009faf8     LIBCMTD:mbctype.obj
 0003:00002b08       __outputformat             1009fb08     LIBCMTD:outputformat.obj
 0003:00002b0c       __commode                  1009fb0c     LIBCMTD:ncommode.obj
 0003:00002b10       ?pArgList@UnDecorator@@0PAVReplicator@@A 1009fb10     LIBCMTD:undname.obj
 0003:00002b14       ?pZNameList@UnDecorator@@0PAVReplicator@@A 1009fb14     LIBCMTD:undname.obj
 0003:00002b18       ?pTemplateArgList@UnDecorator@@0PAVReplicator@@A 1009fb18     LIBCMTD:undname.obj
 0003:00002b1c       ?gName@UnDecorator@@0PBDB  1009fb1c     LIBCMTD:undname.obj
 0003:00002b20       ?name@UnDecorator@@0PBDB   1009fb20     LIBCMTD:undname.obj
 0003:00002b24       ?outputString@UnDecorator@@0PADA 1009fb24     LIBCMTD:undname.obj
 0003:00002b28       ?maxStringLength@UnDecorator@@0HA 1009fb28     LIBCMTD:undname.obj
 0003:00002b2c       ?disableFlags@UnDecorator@@0KA 1009fb2c     LIBCMTD:undname.obj
 0003:00002b30       ?fExplicitTemplateParams@UnDecorator@@0_NA 1009fb30     LIBCMTD:undname.obj
 0003:00002b31       ?fGetTemplateArgumentList@UnDecorator@@0_NA 1009fb31     LIBCMTD:undname.obj
 0003:00002b34       ?m_pGetParameter@UnDecorator@@0P6APADJ@ZA 1009fb34     LIBCMTD:undname.obj
 0003:00002ba0       ?nodes@?1??make@DNameStatusNode@@SAPAV2@W4DNameStatus@@@Z@4PAV2@A 1009fba0     LIBCMTD:undname.obj
 0003:00002bd0       ??_B?1??make@DNameStatusNode@@SAPAV1@W4DNameStatus@@@Z@51 1009fbd0     LIBCMTD:undname.obj
 0003:00002bd8       ___lconv_static_null       1009fbd8     LIBCMTD:lconv.obj
 0003:00002bdc       ___lconv_static_W_null     1009fbdc     LIBCMTD:lconv.obj
 0003:00002be0       ___locale_changed          1009fbe0     LIBCMTD:wsetloca.obj
 0003:00002be4       __fmode                    1009fbe4     LIBCMTD:txtmode.obj
 0003:00002be8       ___unguarded_readlc_active 1009fbe8     <common>
 0003:00002bec       ___setlc_active            1009fbec     <common>
